(dp1
S'output'
p2
S''
sS'layer'
p3
S'D:\\git_projs\\Gabblista\\web2py\\web2py\\applications\\Gabb1\\controllers/fb_serv.py'
p4
sS'code'
p5
S'# -*- coding: utf-8 -*-\nfrom random import Random\n\ndef game():\n    return dict(message="test")\n\ndef serve_dict():\n    # Serves the generic dictionary \n    return dict(message="Jack the dict in here")\n\n# Stored as string, parsed into XML\ndef serve_player_data():\n    \n    player_ID = request.vars.player_ID\n    opponent_ID = request.vars.opponent_ID\n    game_ID = request.vars.game_ID\n    \n    game_data = get_player_data(player_ID,opponent_ID,game_ID);\n    return dict(game_data=game_data)\n\ndef get_player_data(player_ID,opponent_ID,game_ID):\n    \n    # Generate the player data\n    if(int(game_ID)==0):\n        letter_data = generate_new_letter_data()\n        event_data = generate_new_event_data()\n#        db.game_data_table.insert(player_1_ID = int(player_ID),\n#                                  player_2_ID = int(opponent_ID),\n#                                  event_string = str(event_data),\n#                                  letter_string = str(letter_data)\n#                                  )\n        game_data = letter_data + "&" + event_data\n    else:\n        game_row = db(db.game_data_table.id==int(game_ID)).select().first()\n        game_data = str(game_row.game_events_string)\n        \n    return game_data\n\ndef generate_new_letter_data():\n\n    NUM_LETTERS = 12\n    letter_string = get_random_letters(NUM_LETTERS)\n    return letter_string\n\ndef generate_new_event_data():\n    # Go through and generate game data\n    NUM_EVENTS = 24 # 2 MINUTES. 1 EVENT EVERY 5 SECS\n    random_letter_events_string = get_random_letter_events_string(NUM_EVENTS/2)\n    random_mult_events_string = get_random_mult_events_string(NUM_EVENTS/2)\n    return random_letter_events_string + random_mult_events_string\n\ndef get_random_letter_events_string(len_req):\n    letter_event = "0"\n    num_events = 0\n    random_letter_events = ""\n    while num_events < len_req:\n        random_letter_events += letter_event # Generate a new type\n        random_letter_events += ","\n        random_letter_events += get_random_letters(1) # Generate a new letter\n        random_letter_events += ","\n        random_letter_events += get_random_location() # Generate a new location\n        random_letter_events += "*"\n        num_events += 1\n    \n    return random_letter_events\n\ndef get_random_mult_events_string(len_req):\n    random_mult_events_string = ""\n    mult_event = "1"\n    num_events = 0\n\n    while num_events < len_req:\n        random_mult_events_string += mult_event # Generate a new type\n        random_mult_events_string += ","\n        random_mult_events_string += get_new_mult_type() # Generate new mult tpye\n        random_mult_events_string += ","\n        random_mult_events_string += get_random_location() # Generate a new location\n        random_mult_events_string += "*"\n        num_events+=1\n    return random_mult_events_string\n\n\ndef get_random_letters(len_req):\n    import random\n    # ord - letter to ASCII\n    # chr - ASCII to letter\n    #A - 65\n    # Z- 90\n    \n    A = 65\n    Z = 90\n    rand_letter_string =""\n    while len(rand_letter_string) < len_req:\n        rand_int = random.randint(A,Z)\n        rand_letter_string+= chr(rand_int)\n        \n    return rand_letter_string\n\ndef get_random_location():\n    import random\n    # 0-based 12-tile index\n    # 0 <= X <= 11\n    return str(random.randint(0,11))\n\n\ndef get_new_mult_type():\n    import random\n    # 0 - 2x - 60%\n    # 1 - 3x - 30%\n    # 2 - 4x - 10%\n    rand_int = random.randint(0,10)\n    \n    if rand_int < 6:\n        return "0"\n    elif rand_int <9:\n        return "1"\n    else:\n        return "2"\nresponse._vars=response._caller(serve_player_data)\n'
p6
sS'snapshot'
p7
(dp8
S'exception'
p9
(dp10
S'__hash__'
p11
S"<method-wrapper '__hash__' of exceptions.TypeError object at 0x0850D2B0>"
p12
sS'__setattr__'
p13
S"<method-wrapper '__setattr__' of exceptions.TypeError object at 0x0850D2B0>"
p14
sS'__reduce_ex__'
p15
S'<built-in method __reduce_ex__ of exceptions.TypeError object at 0x0850D2B0>'
p16
sS'__getslice__'
p17
S"<method-wrapper '__getslice__' of exceptions.TypeError object at 0x0850D2B0>"
p18
sS'__getitem__'
p19
S"<method-wrapper '__getitem__' of exceptions.TypeError object at 0x0850D2B0>"
p20
sS'__setstate__'
p21
S'<built-in method __setstate__ of exceptions.TypeError object at 0x0850D2B0>'
p22
sS'__reduce__'
p23
S'<built-in method __reduce__ of exceptions.TypeError object at 0x0850D2B0>'
p24
sS'__str__'
p25
S"<method-wrapper '__str__' of exceptions.TypeError object at 0x0850D2B0>"
p26
sS'args'
p27
S'("int() argument must be a string or a number, not \'NoneType\'",)'
p28
sS'__getattribute__'
p29
S"<method-wrapper '__getattribute__' of exceptions.TypeError object at 0x0850D2B0>"
p30
sS'__class__'
p31
S"<type 'exceptions.TypeError'>"
p32
sS'__delattr__'
p33
S"<method-wrapper '__delattr__' of exceptions.TypeError object at 0x0850D2B0>"
p34
sS'__repr__'
p35
S"<method-wrapper '__repr__' of exceptions.TypeError object at 0x0850D2B0>"
p36
sS'__dict__'
p37
S'{}'
p38
sS'__doc__'
p39
S"'Inappropriate argument type.'"
p40
sS'__init__'
p41
S"<method-wrapper '__init__' of exceptions.TypeError object at 0x0850D2B0>"
p42
sS'__new__'
p43
S'<built-in method __new__ of type object at 0x1E1CCD78>'
p44
ssS'evalue'
p45
S"int() argument must be a string or a number, not 'NoneType'"
p46
sS'request'
p47
ccopy_reg
_reconstructor
p48
(cgluon.html
BEAUTIFY
p49
c__builtin__
object
p50
NtRp51
(dp52
S'attributes'
p53
(dp54
sS'components'
p55
(lp56
g48
(cgluon.html
TABLE
p57
g50
NtRp58
(dp59
g53
(dp60
S'level'
p61
I5
ssS'parent'
p62
Nsg55
(lp63
g48
(cgluon.html
TR
p64
g50
NtRp65
(dp66
g53
(dp67
sg62
g58
sg55
(lp68
g48
(cgluon.html
TD
p69
g50
NtRp70
(dp71
g53
(dp72
S'_style'
p73
S'font-weight:bold;'
p74
ssg62
g65
sg55
(lp75
S'ajax'
p76
asbag48
(g69
g50
NtRp77
(dp78
g53
(dp79
S'_valign'
p80
S'top'
p81
ssg62
g65
sg55
(lp82
S':'
asbag48
(g69
g50
NtRp83
(dp84
g53
(dp85
sg62
g65
sg55
(lp86
g48
(g49
g50
NtRp87
(dp88
g53
(dp89
g61
I5
ssg62
g83
sg55
(lp90
S'False'
p91
asbasbasbag48
(g64
g50
NtRp92
(dp93
g53
(dp94
sg62
g58
sg55
(lp95
g48
(g69
g50
NtRp96
(dp97
g53
(dp98
g73
g74
ssg62
g92
sg55
(lp99
S'application'
p100
asbag48
(g69
g50
NtRp101
(dp102
g53
(dp103
g80
g81
ssg62
g92
sg55
(lp104
S':'
asbag48
(g69
g50
NtRp105
(dp106
g53
(dp107
sg62
g92
sg55
(lp108
g48
(g49
g50
NtRp109
(dp110
g53
(dp111
g61
I5
ssg62
g105
sg55
(lp112
S'Gabb1'
p113
asbasbasbag48
(g64
g50
NtRp114
(dp115
g53
(dp116
sg62
g58
sg55
(lp117
g48
(g69
g50
NtRp118
(dp119
g53
(dp120
g73
g74
ssg62
g114
sg55
(lp121
g27
asbag48
(g69
g50
NtRp122
(dp123
g53
(dp124
g80
g81
ssg62
g114
sg55
(lp125
S':'
asbag48
(g69
g50
NtRp126
(dp127
g53
(dp128
sg62
g114
sg55
(lp129
g48
(g49
g50
NtRp130
(dp131
g53
(dp132
g61
I5
ssg62
g126
sg55
(lp133
g48
(g57
g50
NtRp134
(dp135
g53
(dp136
g61
I4
ssg62
Nsg55
(lp137
sbasbasbasbag48
(g64
g50
NtRp138
(dp139
g53
(dp140
sg62
g58
sg55
(lp141
g48
(g69
g50
NtRp142
(dp143
g53
(dp144
g73
g74
ssg62
g138
sg55
(lp145
S'body'
p146
asbag48
(g69
g50
NtRp147
(dp148
g53
(dp149
g80
g81
ssg62
g138
sg55
(lp150
S':'
asbag48
(g69
g50
NtRp151
(dp152
g53
(dp153
sg62
g138
sg55
(lp154
g48
(g49
g50
NtRp155
(dp156
g53
(dp157
g61
I5
ssg62
g151
sg55
(lp158
S'<cStringIO.StringO object at 0x08568EC0>'
p159
asbasbasbag48
(g64
g50
NtRp160
(dp161
g53
(dp162
sg62
g58
sg55
(lp163
g48
(g69
g50
NtRp164
(dp165
g53
(dp166
g73
g74
ssg62
g160
sg55
(lp167
S'client'
p168
asbag48
(g69
g50
NtRp169
(dp170
g53
(dp171
g80
g81
ssg62
g160
sg55
(lp172
S':'
asbag48
(g69
g50
NtRp173
(dp174
g53
(dp175
sg62
g160
sg55
(lp176
g48
(g49
g50
NtRp177
(dp178
g53
(dp179
g61
I5
ssg62
g173
sg55
(lp180
S'127.0.0.1'
p181
asbasbasbag48
(g64
g50
NtRp182
(dp183
g53
(dp184
sg62
g58
sg55
(lp185
g48
(g69
g50
NtRp186
(dp187
g53
(dp188
g73
g74
ssg62
g182
sg55
(lp189
S'controller'
p190
asbag48
(g69
g50
NtRp191
(dp192
g53
(dp193
g80
g81
ssg62
g182
sg55
(lp194
S':'
asbag48
(g69
g50
NtRp195
(dp196
g53
(dp197
sg62
g182
sg55
(lp198
g48
(g49
g50
NtRp199
(dp200
g53
(dp201
g61
I5
ssg62
g195
sg55
(lp202
S'fb_serv'
p203
asbasbasbag48
(g64
g50
NtRp204
(dp205
g53
(dp206
sg62
g58
sg55
(lp207
g48
(g69
g50
NtRp208
(dp209
g53
(dp210
g73
g74
ssg62
g204
sg55
(lp211
S'cookies'
p212
asbag48
(g69
g50
NtRp213
(dp214
g53
(dp215
g80
g81
ssg62
g204
sg55
(lp216
S':'
asbag48
(g69
g50
NtRp217
(dp218
g53
(dp219
sg62
g204
sg55
(lp220
g48
(g49
g50
NtRp221
(dp222
g53
(dp223
g61
I5
ssg62
g217
sg55
(lp224
g48
(g57
g50
NtRp225
(dp226
g53
(dp227
g61
I4
ssg62
Nsg55
(lp228
g48
(g64
g50
NtRp229
(dp230
g53
(dp231
sg62
g225
sg55
(lp232
g48
(g69
g50
NtRp233
(dp234
g53
(dp235
g73
g74
ssg62
g229
sg55
(lp236
S'session_id_admin'
p237
asbag48
(g69
g50
NtRp238
(dp239
g53
(dp240
g80
g81
ssg62
g229
sg55
(lp241
S':'
asbag48
(g69
g50
NtRp242
(dp243
g53
(dp244
sg62
g229
sg55
(lp245
g48
(g49
g50
NtRp246
(dp247
g53
(dp248
g61
I4
ssg62
g242
sg55
(lp249
g48
(g57
g50
NtRp250
(dp251
g53
(dp252
g61
I3
ssg62
Nsg55
(lp253
g48
(g64
g50
NtRp254
(dp255
g53
(dp256
sg62
g250
sg55
(lp257
g48
(g69
g50
NtRp258
(dp259
g53
(dp260
g73
g74
ssg62
g254
sg55
(lp261
S'comment'
p262
asbag48
(g69
g50
NtRp263
(dp264
g53
(dp265
g80
g81
ssg62
g254
sg55
(lp266
S':'
asbag48
(g69
g50
NtRp267
(dp268
g53
(dp269
sg62
g254
sg55
(lp270
g48
(g49
g50
NtRp271
(dp272
g53
(dp273
g61
I3
ssg62
g267
sg55
(lp274
S''
asbasbasbag48
(g64
g50
NtRp275
(dp276
g53
(dp277
sg62
g250
sg55
(lp278
g48
(g69
g50
NtRp279
(dp280
g53
(dp281
g73
g74
ssg62
g275
sg55
(lp282
S'domain'
p283
asbag48
(g69
g50
NtRp284
(dp285
g53
(dp286
g80
g81
ssg62
g275
sg55
(lp287
S':'
asbag48
(g69
g50
NtRp288
(dp289
g53
(dp290
sg62
g275
sg55
(lp291
g48
(g49
g50
NtRp292
(dp293
g53
(dp294
g61
I3
ssg62
g288
sg55
(lp295
S''
asbasbasbag48
(g64
g50
NtRp296
(dp297
g53
(dp298
sg62
g250
sg55
(lp299
g48
(g69
g50
NtRp300
(dp301
g53
(dp302
g73
g74
ssg62
g296
sg55
(lp303
S'expires'
p304
asbag48
(g69
g50
NtRp305
(dp306
g53
(dp307
g80
g81
ssg62
g296
sg55
(lp308
S':'
asbag48
(g69
g50
NtRp309
(dp310
g53
(dp311
sg62
g296
sg55
(lp312
g48
(g49
g50
NtRp313
(dp314
g53
(dp315
g61
I3
ssg62
g309
sg55
(lp316
S''
asbasbasbag48
(g64
g50
NtRp317
(dp318
g53
(dp319
sg62
g250
sg55
(lp320
g48
(g69
g50
NtRp321
(dp322
g53
(dp323
g73
g74
ssg62
g317
sg55
(lp324
S'max-age'
p325
asbag48
(g69
g50
NtRp326
(dp327
g53
(dp328
g80
g81
ssg62
g317
sg55
(lp329
S':'
asbag48
(g69
g50
NtRp330
(dp331
g53
(dp332
sg62
g317
sg55
(lp333
g48
(g49
g50
NtRp334
(dp335
g53
(dp336
g61
I3
ssg62
g330
sg55
(lp337
S''
asbasbasbag48
(g64
g50
NtRp338
(dp339
g53
(dp340
sg62
g250
sg55
(lp341
g48
(g69
g50
NtRp342
(dp343
g53
(dp344
g73
g74
ssg62
g338
sg55
(lp345
S'path'
p346
asbag48
(g69
g50
NtRp347
(dp348
g53
(dp349
g80
g81
ssg62
g338
sg55
(lp350
S':'
asbag48
(g69
g50
NtRp351
(dp352
g53
(dp353
sg62
g338
sg55
(lp354
g48
(g49
g50
NtRp355
(dp356
g53
(dp357
g61
I3
ssg62
g351
sg55
(lp358
S''
asbasbasbag48
(g64
g50
NtRp359
(dp360
g53
(dp361
sg62
g250
sg55
(lp362
g48
(g69
g50
NtRp363
(dp364
g53
(dp365
g73
g74
ssg62
g359
sg55
(lp366
S'secure'
p367
asbag48
(g69
g50
NtRp368
(dp369
g53
(dp370
g80
g81
ssg62
g359
sg55
(lp371
S':'
asbag48
(g69
g50
NtRp372
(dp373
g53
(dp374
sg62
g359
sg55
(lp375
g48
(g49
g50
NtRp376
(dp377
g53
(dp378
g61
I3
ssg62
g372
sg55
(lp379
S''
asbasbasbag48
(g64
g50
NtRp380
(dp381
g53
(dp382
sg62
g250
sg55
(lp383
g48
(g69
g50
NtRp384
(dp385
g53
(dp386
g73
g74
ssg62
g380
sg55
(lp387
S'version'
p388
asbag48
(g69
g50
NtRp389
(dp390
g53
(dp391
g80
g81
ssg62
g380
sg55
(lp392
S':'
asbag48
(g69
g50
NtRp393
(dp394
g53
(dp395
sg62
g380
sg55
(lp396
g48
(g49
g50
NtRp397
(dp398
g53
(dp399
g61
I3
ssg62
g393
sg55
(lp400
S''
asbasbasbasbasbasbasbag48
(g64
g50
NtRp401
(dp402
g53
(dp403
sg62
g225
sg55
(lp404
g48
(g69
g50
NtRp405
(dp406
g53
(dp407
g73
g74
ssg62
g401
sg55
(lp408
S'session_id_gabb1'
p409
asbag48
(g69
g50
NtRp410
(dp411
g53
(dp412
g80
g81
ssg62
g401
sg55
(lp413
S':'
asbag48
(g69
g50
NtRp414
(dp415
g53
(dp416
sg62
g401
sg55
(lp417
g48
(g49
g50
NtRp418
(dp419
g53
(dp420
g61
I4
ssg62
g414
sg55
(lp421
g48
(g57
g50
NtRp422
(dp423
g53
(dp424
g61
I3
ssg62
Nsg55
(lp425
g48
(g64
g50
NtRp426
(dp427
g53
(dp428
sg62
g422
sg55
(lp429
g48
(g69
g50
NtRp430
(dp431
g53
(dp432
g73
g74
ssg62
g426
sg55
(lp433
g262
asbag48
(g69
g50
NtRp434
(dp435
g53
(dp436
g80
g81
ssg62
g426
sg55
(lp437
S':'
asbag48
(g69
g50
NtRp438
(dp439
g53
(dp440
sg62
g426
sg55
(lp441
g48
(g49
g50
NtRp442
(dp443
g53
(dp444
g61
I3
ssg62
g438
sg55
(lp445
S''
asbasbasbag48
(g64
g50
NtRp446
(dp447
g53
(dp448
sg62
g422
sg55
(lp449
g48
(g69
g50
NtRp450
(dp451
g53
(dp452
g73
g74
ssg62
g446
sg55
(lp453
g283
asbag48
(g69
g50
NtRp454
(dp455
g53
(dp456
g80
g81
ssg62
g446
sg55
(lp457
S':'
asbag48
(g69
g50
NtRp458
(dp459
g53
(dp460
sg62
g446
sg55
(lp461
g48
(g49
g50
NtRp462
(dp463
g53
(dp464
g61
I3
ssg62
g458
sg55
(lp465
S''
asbasbasbag48
(g64
g50
NtRp466
(dp467
g53
(dp468
sg62
g422
sg55
(lp469
g48
(g69
g50
NtRp470
(dp471
g53
(dp472
g73
g74
ssg62
g466
sg55
(lp473
g304
asbag48
(g69
g50
NtRp474
(dp475
g53
(dp476
g80
g81
ssg62
g466
sg55
(lp477
S':'
asbag48
(g69
g50
NtRp478
(dp479
g53
(dp480
sg62
g466
sg55
(lp481
g48
(g49
g50
NtRp482
(dp483
g53
(dp484
g61
I3
ssg62
g478
sg55
(lp485
S''
asbasbasbag48
(g64
g50
NtRp486
(dp487
g53
(dp488
sg62
g422
sg55
(lp489
g48
(g69
g50
NtRp490
(dp491
g53
(dp492
g73
g74
ssg62
g486
sg55
(lp493
g325
asbag48
(g69
g50
NtRp494
(dp495
g53
(dp496
g80
g81
ssg62
g486
sg55
(lp497
S':'
asbag48
(g69
g50
NtRp498
(dp499
g53
(dp500
sg62
g486
sg55
(lp501
g48
(g49
g50
NtRp502
(dp503
g53
(dp504
g61
I3
ssg62
g498
sg55
(lp505
S''
asbasbasbag48
(g64
g50
NtRp506
(dp507
g53
(dp508
sg62
g422
sg55
(lp509
g48
(g69
g50
NtRp510
(dp511
g53
(dp512
g73
g74
ssg62
g506
sg55
(lp513
g346
asbag48
(g69
g50
NtRp514
(dp515
g53
(dp516
g80
g81
ssg62
g506
sg55
(lp517
S':'
asbag48
(g69
g50
NtRp518
(dp519
g53
(dp520
sg62
g506
sg55
(lp521
g48
(g49
g50
NtRp522
(dp523
g53
(dp524
g61
I3
ssg62
g518
sg55
(lp525
S''
asbasbasbag48
(g64
g50
NtRp526
(dp527
g53
(dp528
sg62
g422
sg55
(lp529
g48
(g69
g50
NtRp530
(dp531
g53
(dp532
g73
g74
ssg62
g526
sg55
(lp533
g367
asbag48
(g69
g50
NtRp534
(dp535
g53
(dp536
g80
g81
ssg62
g526
sg55
(lp537
S':'
asbag48
(g69
g50
NtRp538
(dp539
g53
(dp540
sg62
g526
sg55
(lp541
g48
(g49
g50
NtRp542
(dp543
g53
(dp544
g61
I3
ssg62
g538
sg55
(lp545
S''
asbasbasbag48
(g64
g50
NtRp546
(dp547
g53
(dp548
sg62
g422
sg55
(lp549
g48
(g69
g50
NtRp550
(dp551
g53
(dp552
g73
g74
ssg62
g546
sg55
(lp553
g388
asbag48
(g69
g50
NtRp554
(dp555
g53
(dp556
g80
g81
ssg62
g546
sg55
(lp557
S':'
asbag48
(g69
g50
NtRp558
(dp559
g53
(dp560
sg62
g546
sg55
(lp561
g48
(g49
g50
NtRp562
(dp563
g53
(dp564
g61
I3
ssg62
g558
sg55
(lp565
S''
asbasbasbasbasbasbasbag48
(g64
g50
NtRp566
(dp567
g53
(dp568
sg62
g225
sg55
(lp569
g48
(g69
g50
NtRp570
(dp571
g53
(dp572
g73
g74
ssg62
g566
sg55
(lp573
S'session_id_ojtest'
p574
asbag48
(g69
g50
NtRp575
(dp576
g53
(dp577
g80
g81
ssg62
g566
sg55
(lp578
S':'
asbag48
(g69
g50
NtRp579
(dp580
g53
(dp581
sg62
g566
sg55
(lp582
g48
(g49
g50
NtRp583
(dp584
g53
(dp585
g61
I4
ssg62
g579
sg55
(lp586
g48
(g57
g50
NtRp587
(dp588
g53
(dp589
g61
I3
ssg62
Nsg55
(lp590
g48
(g64
g50
NtRp591
(dp592
g53
(dp593
sg62
g587
sg55
(lp594
g48
(g69
g50
NtRp595
(dp596
g53
(dp597
g73
g74
ssg62
g591
sg55
(lp598
g262
asbag48
(g69
g50
NtRp599
(dp600
g53
(dp601
g80
g81
ssg62
g591
sg55
(lp602
S':'
asbag48
(g69
g50
NtRp603
(dp604
g53
(dp605
sg62
g591
sg55
(lp606
g48
(g49
g50
NtRp607
(dp608
g53
(dp609
g61
I3
ssg62
g603
sg55
(lp610
S''
asbasbasbag48
(g64
g50
NtRp611
(dp612
g53
(dp613
sg62
g587
sg55
(lp614
g48
(g69
g50
NtRp615
(dp616
g53
(dp617
g73
g74
ssg62
g611
sg55
(lp618
g283
asbag48
(g69
g50
NtRp619
(dp620
g53
(dp621
g80
g81
ssg62
g611
sg55
(lp622
S':'
asbag48
(g69
g50
NtRp623
(dp624
g53
(dp625
sg62
g611
sg55
(lp626
g48
(g49
g50
NtRp627
(dp628
g53
(dp629
g61
I3
ssg62
g623
sg55
(lp630
S''
asbasbasbag48
(g64
g50
NtRp631
(dp632
g53
(dp633
sg62
g587
sg55
(lp634
g48
(g69
g50
NtRp635
(dp636
g53
(dp637
g73
g74
ssg62
g631
sg55
(lp638
g304
asbag48
(g69
g50
NtRp639
(dp640
g53
(dp641
g80
g81
ssg62
g631
sg55
(lp642
S':'
asbag48
(g69
g50
NtRp643
(dp644
g53
(dp645
sg62
g631
sg55
(lp646
g48
(g49
g50
NtRp647
(dp648
g53
(dp649
g61
I3
ssg62
g643
sg55
(lp650
S''
asbasbasbag48
(g64
g50
NtRp651
(dp652
g53
(dp653
sg62
g587
sg55
(lp654
g48
(g69
g50
NtRp655
(dp656
g53
(dp657
g73
g74
ssg62
g651
sg55
(lp658
g325
asbag48
(g69
g50
NtRp659
(dp660
g53
(dp661
g80
g81
ssg62
g651
sg55
(lp662
S':'
asbag48
(g69
g50
NtRp663
(dp664
g53
(dp665
sg62
g651
sg55
(lp666
g48
(g49
g50
NtRp667
(dp668
g53
(dp669
g61
I3
ssg62
g663
sg55
(lp670
S''
asbasbasbag48
(g64
g50
NtRp671
(dp672
g53
(dp673
sg62
g587
sg55
(lp674
g48
(g69
g50
NtRp675
(dp676
g53
(dp677
g73
g74
ssg62
g671
sg55
(lp678
g346
asbag48
(g69
g50
NtRp679
(dp680
g53
(dp681
g80
g81
ssg62
g671
sg55
(lp682
S':'
asbag48
(g69
g50
NtRp683
(dp684
g53
(dp685
sg62
g671
sg55
(lp686
g48
(g49
g50
NtRp687
(dp688
g53
(dp689
g61
I3
ssg62
g683
sg55
(lp690
S''
asbasbasbag48
(g64
g50
NtRp691
(dp692
g53
(dp693
sg62
g587
sg55
(lp694
g48
(g69
g50
NtRp695
(dp696
g53
(dp697
g73
g74
ssg62
g691
sg55
(lp698
g367
asbag48
(g69
g50
NtRp699
(dp700
g53
(dp701
g80
g81
ssg62
g691
sg55
(lp702
S':'
asbag48
(g69
g50
NtRp703
(dp704
g53
(dp705
sg62
g691
sg55
(lp706
g48
(g49
g50
NtRp707
(dp708
g53
(dp709
g61
I3
ssg62
g703
sg55
(lp710
S''
asbasbasbag48
(g64
g50
NtRp711
(dp712
g53
(dp713
sg62
g587
sg55
(lp714
g48
(g69
g50
NtRp715
(dp716
g53
(dp717
g73
g74
ssg62
g711
sg55
(lp718
g388
asbag48
(g69
g50
NtRp719
(dp720
g53
(dp721
g80
g81
ssg62
g711
sg55
(lp722
S':'
asbag48
(g69
g50
NtRp723
(dp724
g53
(dp725
sg62
g711
sg55
(lp726
g48
(g49
g50
NtRp727
(dp728
g53
(dp729
g61
I3
ssg62
g723
sg55
(lp730
S''
asbasbasbasbasbasbasbag48
(g64
g50
NtRp731
(dp732
g53
(dp733
sg62
g225
sg55
(lp734
g48
(g69
g50
NtRp735
(dp736
g53
(dp737
g73
g74
ssg62
g731
sg55
(lp738
S'session_id_welcome'
p739
asbag48
(g69
g50
NtRp740
(dp741
g53
(dp742
g80
g81
ssg62
g731
sg55
(lp743
S':'
asbag48
(g69
g50
NtRp744
(dp745
g53
(dp746
sg62
g731
sg55
(lp747
g48
(g49
g50
NtRp748
(dp749
g53
(dp750
g61
I4
ssg62
g744
sg55
(lp751
g48
(g57
g50
NtRp752
(dp753
g53
(dp754
g61
I3
ssg62
Nsg55
(lp755
g48
(g64
g50
NtRp756
(dp757
g53
(dp758
sg62
g752
sg55
(lp759
g48
(g69
g50
NtRp760
(dp761
g53
(dp762
g73
g74
ssg62
g756
sg55
(lp763
g262
asbag48
(g69
g50
NtRp764
(dp765
g53
(dp766
g80
g81
ssg62
g756
sg55
(lp767
S':'
asbag48
(g69
g50
NtRp768
(dp769
g53
(dp770
sg62
g756
sg55
(lp771
g48
(g49
g50
NtRp772
(dp773
g53
(dp774
g61
I3
ssg62
g768
sg55
(lp775
S''
asbasbasbag48
(g64
g50
NtRp776
(dp777
g53
(dp778
sg62
g752
sg55
(lp779
g48
(g69
g50
NtRp780
(dp781
g53
(dp782
g73
g74
ssg62
g776
sg55
(lp783
g283
asbag48
(g69
g50
NtRp784
(dp785
g53
(dp786
g80
g81
ssg62
g776
sg55
(lp787
S':'
asbag48
(g69
g50
NtRp788
(dp789
g53
(dp790
sg62
g776
sg55
(lp791
g48
(g49
g50
NtRp792
(dp793
g53
(dp794
g61
I3
ssg62
g788
sg55
(lp795
S''
asbasbasbag48
(g64
g50
NtRp796
(dp797
g53
(dp798
sg62
g752
sg55
(lp799
g48
(g69
g50
NtRp800
(dp801
g53
(dp802
g73
g74
ssg62
g796
sg55
(lp803
g304
asbag48
(g69
g50
NtRp804
(dp805
g53
(dp806
g80
g81
ssg62
g796
sg55
(lp807
S':'
asbag48
(g69
g50
NtRp808
(dp809
g53
(dp810
sg62
g796
sg55
(lp811
g48
(g49
g50
NtRp812
(dp813
g53
(dp814
g61
I3
ssg62
g808
sg55
(lp815
S''
asbasbasbag48
(g64
g50
NtRp816
(dp817
g53
(dp818
sg62
g752
sg55
(lp819
g48
(g69
g50
NtRp820
(dp821
g53
(dp822
g73
g74
ssg62
g816
sg55
(lp823
g325
asbag48
(g69
g50
NtRp824
(dp825
g53
(dp826
g80
g81
ssg62
g816
sg55
(lp827
S':'
asbag48
(g69
g50
NtRp828
(dp829
g53
(dp830
sg62
g816
sg55
(lp831
g48
(g49
g50
NtRp832
(dp833
g53
(dp834
g61
I3
ssg62
g828
sg55
(lp835
S''
asbasbasbag48
(g64
g50
NtRp836
(dp837
g53
(dp838
sg62
g752
sg55
(lp839
g48
(g69
g50
NtRp840
(dp841
g53
(dp842
g73
g74
ssg62
g836
sg55
(lp843
g346
asbag48
(g69
g50
NtRp844
(dp845
g53
(dp846
g80
g81
ssg62
g836
sg55
(lp847
S':'
asbag48
(g69
g50
NtRp848
(dp849
g53
(dp850
sg62
g836
sg55
(lp851
g48
(g49
g50
NtRp852
(dp853
g53
(dp854
g61
I3
ssg62
g848
sg55
(lp855
S''
asbasbasbag48
(g64
g50
NtRp856
(dp857
g53
(dp858
sg62
g752
sg55
(lp859
g48
(g69
g50
NtRp860
(dp861
g53
(dp862
g73
g74
ssg62
g856
sg55
(lp863
g367
asbag48
(g69
g50
NtRp864
(dp865
g53
(dp866
g80
g81
ssg62
g856
sg55
(lp867
S':'
asbag48
(g69
g50
NtRp868
(dp869
g53
(dp870
sg62
g856
sg55
(lp871
g48
(g49
g50
NtRp872
(dp873
g53
(dp874
g61
I3
ssg62
g868
sg55
(lp875
S''
asbasbasbag48
(g64
g50
NtRp876
(dp877
g53
(dp878
sg62
g752
sg55
(lp879
g48
(g69
g50
NtRp880
(dp881
g53
(dp882
g73
g74
ssg62
g876
sg55
(lp883
g388
asbag48
(g69
g50
NtRp884
(dp885
g53
(dp886
g80
g81
ssg62
g876
sg55
(lp887
S':'
asbag48
(g69
g50
NtRp888
(dp889
g53
(dp890
sg62
g876
sg55
(lp891
g48
(g49
g50
NtRp892
(dp893
g53
(dp894
g61
I3
ssg62
g888
sg55
(lp895
S''
asbasbasbasbasbasbasbasbasbasbasbag48
(g64
g50
NtRp896
(dp897
g53
(dp898
sg62
g58
sg55
(lp899
g48
(g69
g50
NtRp900
(dp901
g53
(dp902
g73
g74
ssg62
g896
sg55
(lp903
S'env'
p904
asbag48
(g69
g50
NtRp905
(dp906
g53
(dp907
g80
g81
ssg62
g896
sg55
(lp908
S':'
asbag48
(g69
g50
NtRp909
(dp910
g53
(dp911
sg62
g896
sg55
(lp912
g48
(g49
g50
NtRp913
(dp914
g53
(dp915
g61
I5
ssg62
g909
sg55
(lp916
g48
(g57
g50
NtRp917
(dp918
g53
(dp919
g61
I4
ssg62
Nsg55
(lp920
g48
(g64
g50
NtRp921
(dp922
g53
(dp923
sg62
g917
sg55
(lp924
g48
(g69
g50
NtRp925
(dp926
g53
(dp927
g73
g74
ssg62
g921
sg55
(lp928
S'app_folders'
p929
asbag48
(g69
g50
NtRp930
(dp931
g53
(dp932
g80
g81
ssg62
g921
sg55
(lp933
S':'
asbag48
(g69
g50
NtRp934
(dp935
g53
(dp936
sg62
g921
sg55
(lp937
g48
(g49
g50
NtRp938
(dp939
g53
(dp940
g61
I4
ssg62
g934
sg55
(lp941
S"set(['D:\\\\git_projs\\\\Gabblista\\\\web2py\\\\web2py\\\\applications\\\\gabb1\\\\', 'D:\\\\git_projs\\\\Gabblista\\\\web2py\\\\web2py\\\\applications\\\\Gabb1\\\\', 'D:\\\\git_projs\\\\Gabblista\\\\web2py\\\\web2py\\\\applications\\\\admin\\\\', 'D:\\\\git_projs\\\\Gabblista\\\\web2py\\\\web2py\\\\applications\\\\welcome\\\\'])"
p942
asbasbasbag48
(g64
g50
NtRp943
(dp944
g53
(dp945
sg62
g917
sg55
(lp946
g48
(g69
g50
NtRp947
(dp948
g53
(dp949
g73
g74
ssg62
g943
sg55
(lp950
S'applications_parent'
p951
asbag48
(g69
g50
NtRp952
(dp953
g53
(dp954
g80
g81
ssg62
g943
sg55
(lp955
S':'
asbag48
(g69
g50
NtRp956
(dp957
g53
(dp958
sg62
g943
sg55
(lp959
g48
(g49
g50
NtRp960
(dp961
g53
(dp962
g61
I4
ssg62
g956
sg55
(lp963
S'D:\\git_projs\\Gabblista\\web2py\\web2py'
p964
asbasbasbag48
(g64
g50
NtRp965
(dp966
g53
(dp967
sg62
g917
sg55
(lp968
g48
(g69
g50
NtRp969
(dp970
g53
(dp971
g73
g74
ssg62
g965
sg55
(lp972
S'cmd_args'
p973
asbag48
(g69
g50
NtRp974
(dp975
g53
(dp976
g80
g81
ssg62
g965
sg55
(lp977
S':'
asbag48
(g69
g50
NtRp978
(dp979
g53
(dp980
sg62
g965
sg55
(lp981
g48
(g49
g50
NtRp982
(dp983
g53
(dp984
g61
I4
ssg62
g978
sg55
(lp985
g48
(g57
g50
NtRp986
(dp987
g53
(dp988
g61
I3
ssg62
Nsg55
(lp989
sbasbasbasbag48
(g64
g50
NtRp990
(dp991
g53
(dp992
sg62
g917
sg55
(lp993
g48
(g69
g50
NtRp994
(dp995
g53
(dp996
g73
g74
ssg62
g990
sg55
(lp997
S'cmd_options'
p998
asbag48
(g69
g50
NtRp999
(dp1000
g53
(dp1001
g80
g81
ssg62
g990
sg55
(lp1002
S':'
asbag48
(g69
g50
NtRp1003
(dp1004
g53
(dp1005
sg62
g990
sg55
(lp1006
g48
(g49
g50
NtRp1007
(dp1008
g53
(dp1009
g61
I4
ssg62
g1003
sg55
(lp1010
S"<Values at 0x325b800: {'verbose': False, 'ip': '127.0.0.1', 'shutdown_timeout': 5, 'taskbar': False, 'nocron': False, 'pid_filename': 'httpserver.pid', 'maxthreads': None, 'softcron': False, 'server_name': 'John-PC', 'bpython': False, 'nogui': False, 'port': 8000, 'extcron': False, 'debuglevel': 30, 'test': None, 'folder': 'D:\\\\git_projs\\\\Gabblista\\\\web2py\\\\web2py', 'config': '', 'import_models': False, 'winservice': '', 'shell': None, 'run': '', 'log_filename': 'httpserver.log', 'args': [''], 'ssl_ca_certificate': None, 'scheduler': None, 'profiler_filename': None, 'ssl_private_key': '', 'password': '<ask>', 'request_queue_size': 5, 'ssl_certificate': '', 'cronjob': False, 'plain': False, 'quiet': False, 'interfaces': None, 'minthreads': None, 'timeout': 10, 'numthreads': None, 'nobanner': False}>"
p1011
asbasbasbag48
(g64
g50
NtRp1012
(dp1013
g53
(dp1014
sg62
g917
sg55
(lp1015
g48
(g69
g50
NtRp1016
(dp1017
g53
(dp1018
g73
g74
ssg62
g1012
sg55
(lp1019
S'db_sessions'
p1020
asbag48
(g69
g50
NtRp1021
(dp1022
g53
(dp1023
g80
g81
ssg62
g1012
sg55
(lp1024
S':'
asbag48
(g69
g50
NtRp1025
(dp1026
g53
(dp1027
sg62
g1012
sg55
(lp1028
g48
(g49
g50
NtRp1029
(dp1030
g53
(dp1031
g61
I4
ssg62
g1025
sg55
(lp1032
S'set([])'
p1033
asbasbasbag48
(g64
g50
NtRp1034
(dp1035
g53
(dp1036
sg62
g917
sg55
(lp1037
g48
(g69
g50
NtRp1038
(dp1039
g53
(dp1040
g73
g74
ssg62
g1034
sg55
(lp1041
S'debugging'
p1042
asbag48
(g69
g50
NtRp1043
(dp1044
g53
(dp1045
g80
g81
ssg62
g1034
sg55
(lp1046
S':'
asbag48
(g69
g50
NtRp1047
(dp1048
g53
(dp1049
sg62
g1034
sg55
(lp1050
g48
(g49
g50
NtRp1051
(dp1052
g53
(dp1053
g61
I4
ssg62
g1047
sg55
(lp1054
g91
asbasbasbag48
(g64
g50
NtRp1055
(dp1056
g53
(dp1057
sg62
g917
sg55
(lp1058
g48
(g69
g50
NtRp1059
(dp1060
g53
(dp1061
g73
g74
ssg62
g1055
sg55
(lp1062
S'gluon_parent'
p1063
asbag48
(g69
g50
NtRp1064
(dp1065
g53
(dp1066
g80
g81
ssg62
g1055
sg55
(lp1067
S':'
asbag48
(g69
g50
NtRp1068
(dp1069
g53
(dp1070
sg62
g1055
sg55
(lp1071
g48
(g49
g50
NtRp1072
(dp1073
g53
(dp1074
g61
I4
ssg62
g1068
sg55
(lp1075
S'D:\\git_projs\\Gabblista\\web2py\\web2py'
p1076
asbasbasbag48
(g64
g50
NtRp1077
(dp1078
g53
(dp1079
sg62
g917
sg55
(lp1080
g48
(g69
g50
NtRp1081
(dp1082
g53
(dp1083
g73
g74
ssg62
g1077
sg55
(lp1084
S'http_accept'
p1085
asbag48
(g69
g50
NtRp1086
(dp1087
g53
(dp1088
g80
g81
ssg62
g1077
sg55
(lp1089
S':'
asbag48
(g69
g50
NtRp1090
(dp1091
g53
(dp1092
sg62
g1077
sg55
(lp1093
g48
(g49
g50
NtRp1094
(dp1095
g53
(dp1096
g61
I4
ssg62
g1090
sg55
(lp1097
S'*/*'
p1098
asbasbasbag48
(g64
g50
NtRp1099
(dp1100
g53
(dp1101
sg62
g917
sg55
(lp1102
g48
(g69
g50
NtRp1103
(dp1104
g53
(dp1105
g73
g74
ssg62
g1099
sg55
(lp1106
S'http_accept_charset'
p1107
asbag48
(g69
g50
NtRp1108
(dp1109
g53
(dp1110
g80
g81
ssg62
g1099
sg55
(lp1111
S':'
asbag48
(g69
g50
NtRp1112
(dp1113
g53
(dp1114
sg62
g1099
sg55
(lp1115
g48
(g49
g50
NtRp1116
(dp1117
g53
(dp1118
g61
I4
ssg62
g1112
sg55
(lp1119
S'ISO-8859-1,utf-8;q=0.7,*;q=0.3'
p1120
asbasbasbag48
(g64
g50
NtRp1121
(dp1122
g53
(dp1123
sg62
g917
sg55
(lp1124
g48
(g69
g50
NtRp1125
(dp1126
g53
(dp1127
g73
g74
ssg62
g1121
sg55
(lp1128
S'http_accept_encoding'
p1129
asbag48
(g69
g50
NtRp1130
(dp1131
g53
(dp1132
g80
g81
ssg62
g1121
sg55
(lp1133
S':'
asbag48
(g69
g50
NtRp1134
(dp1135
g53
(dp1136
sg62
g1121
sg55
(lp1137
g48
(g49
g50
NtRp1138
(dp1139
g53
(dp1140
g61
I4
ssg62
g1134
sg55
(lp1141
S'gzip,deflate,sdch'
p1142
asbasbasbag48
(g64
g50
NtRp1143
(dp1144
g53
(dp1145
sg62
g917
sg55
(lp1146
g48
(g69
g50
NtRp1147
(dp1148
g53
(dp1149
g73
g74
ssg62
g1143
sg55
(lp1150
S'http_accept_language'
p1151
asbag48
(g69
g50
NtRp1152
(dp1153
g53
(dp1154
g80
g81
ssg62
g1143
sg55
(lp1155
S':'
asbag48
(g69
g50
NtRp1156
(dp1157
g53
(dp1158
sg62
g1143
sg55
(lp1159
g48
(g49
g50
NtRp1160
(dp1161
g53
(dp1162
g61
I4
ssg62
g1156
sg55
(lp1163
S'en-US,en;q=0.8'
p1164
asbasbasbag48
(g64
g50
NtRp1165
(dp1166
g53
(dp1167
sg62
g917
sg55
(lp1168
g48
(g69
g50
NtRp1169
(dp1170
g53
(dp1171
g73
g74
ssg62
g1165
sg55
(lp1172
S'http_connection'
p1173
asbag48
(g69
g50
NtRp1174
(dp1175
g53
(dp1176
g80
g81
ssg62
g1165
sg55
(lp1177
S':'
asbag48
(g69
g50
NtRp1178
(dp1179
g53
(dp1180
sg62
g1165
sg55
(lp1181
g48
(g49
g50
NtRp1182
(dp1183
g53
(dp1184
g61
I4
ssg62
g1178
sg55
(lp1185
S'keep-alive'
p1186
asbasbasbag48
(g64
g50
NtRp1187
(dp1188
g53
(dp1189
sg62
g917
sg55
(lp1190
g48
(g69
g50
NtRp1191
(dp1192
g53
(dp1193
g73
g74
ssg62
g1187
sg55
(lp1194
S'http_cookie'
p1195
asbag48
(g69
g50
NtRp1196
(dp1197
g53
(dp1198
g80
g81
ssg62
g1187
sg55
(lp1199
S':'
asbag48
(g69
g50
NtRp1200
(dp1201
g53
(dp1202
sg62
g1187
sg55
(lp1203
g48
(g49
g50
NtRp1204
(dp1205
g53
(dp1206
g61
I4
ssg62
g1200
sg55
(lp1207
S'session_id_ojtest="1673:0b3a82b6-d697-4763-b7ae-5776f137ef68"; session_id_admin=127.0.0.1-36373dbf-d82c-4405-b2a1-4903a4e5c8b4; session_id_gabb1=127.0.0.1-d70f1b64-8c0a-4b00-8f09-d96539cead70; session_id_welcome=127.0.0.1-65fbea29-a7f8-49d2-b8f8-4bef6f57111e'
p1208
asbasbasbag48
(g64
g50
NtRp1209
(dp1210
g53
(dp1211
sg62
g917
sg55
(lp1212
g48
(g69
g50
NtRp1213
(dp1214
g53
(dp1215
g73
g74
ssg62
g1209
sg55
(lp1216
S'http_host'
p1217
asbag48
(g69
g50
NtRp1218
(dp1219
g53
(dp1220
g80
g81
ssg62
g1209
sg55
(lp1221
S':'
asbag48
(g69
g50
NtRp1222
(dp1223
g53
(dp1224
sg62
g1209
sg55
(lp1225
g48
(g49
g50
NtRp1226
(dp1227
g53
(dp1228
g61
I4
ssg62
g1222
sg55
(lp1229
S'127.0.0.1:8000'
p1230
asbasbasbag48
(g64
g50
NtRp1231
(dp1232
g53
(dp1233
sg62
g917
sg55
(lp1234
g48
(g69
g50
NtRp1235
(dp1236
g53
(dp1237
g73
g74
ssg62
g1231
sg55
(lp1238
S'http_user_agent'
p1239
asbag48
(g69
g50
NtRp1240
(dp1241
g53
(dp1242
g80
g81
ssg62
g1231
sg55
(lp1243
S':'
asbag48
(g69
g50
NtRp1244
(dp1245
g53
(dp1246
sg62
g1231
sg55
(lp1247
g48
(g49
g50
NtRp1248
(dp1249
g53
(dp1250
g61
I4
ssg62
g1244
sg55
(lp1251
S'Mozilla/5.0 (Windows NT 6.1; WOW64) AppleWebKit/535.7 (KHTML, like Gecko) Chrome/16.0.912.75 Safari/535.7'
p1252
asbasbasbag48
(g64
g50
NtRp1253
(dp1254
g53
(dp1255
sg62
g917
sg55
(lp1256
g48
(g69
g50
NtRp1257
(dp1258
g53
(dp1259
g73
g74
ssg62
g1253
sg55
(lp1260
S'is_jython'
p1261
asbag48
(g69
g50
NtRp1262
(dp1263
g53
(dp1264
g80
g81
ssg62
g1253
sg55
(lp1265
S':'
asbag48
(g69
g50
NtRp1266
(dp1267
g53
(dp1268
sg62
g1253
sg55
(lp1269
g48
(g49
g50
NtRp1270
(dp1271
g53
(dp1272
g61
I4
ssg62
g1266
sg55
(lp1273
g91
asbasbasbag48
(g64
g50
NtRp1274
(dp1275
g53
(dp1276
sg62
g917
sg55
(lp1277
g48
(g69
g50
NtRp1278
(dp1279
g53
(dp1280
g73
g74
ssg62
g1274
sg55
(lp1281
S'path_info'
p1282
asbag48
(g69
g50
NtRp1283
(dp1284
g53
(dp1285
g80
g81
ssg62
g1274
sg55
(lp1286
S':'
asbag48
(g69
g50
NtRp1287
(dp1288
g53
(dp1289
sg62
g1274
sg55
(lp1290
g48
(g49
g50
NtRp1291
(dp1292
g53
(dp1293
g61
I4
ssg62
g1287
sg55
(lp1294
S'/Gabb1/fb_serv/serve_player_data.txt'
p1295
asbasbasbag48
(g64
g50
NtRp1296
(dp1297
g53
(dp1298
sg62
g917
sg55
(lp1299
g48
(g69
g50
NtRp1300
(dp1301
g53
(dp1302
g73
g74
ssg62
g1296
sg55
(lp1303
S'query_string'
p1304
asbag48
(g69
g50
NtRp1305
(dp1306
g53
(dp1307
g80
g81
ssg62
g1296
sg55
(lp1308
S':'
asbag48
(g69
g50
NtRp1309
(dp1310
g53
(dp1311
sg62
g1296
sg55
(lp1312
g48
(g49
g50
NtRp1313
(dp1314
g53
(dp1315
g61
I4
ssg62
g1309
sg55
(lp1316
S'game%5Fid=0&opponent%5Fid=2&gsCacheBusterID=1327004326100&player%5Fid=1&purpose=audit'
p1317
asbasbasbag48
(g64
g50
NtRp1318
(dp1319
g53
(dp1320
sg62
g917
sg55
(lp1321
g48
(g69
g50
NtRp1322
(dp1323
g53
(dp1324
g73
g74
ssg62
g1318
sg55
(lp1325
S'remote_addr'
p1326
asbag48
(g69
g50
NtRp1327
(dp1328
g53
(dp1329
g80
g81
ssg62
g1318
sg55
(lp1330
S':'
asbag48
(g69
g50
NtRp1331
(dp1332
g53
(dp1333
sg62
g1318
sg55
(lp1334
g48
(g49
g50
NtRp1335
(dp1336
g53
(dp1337
g61
I4
ssg62
g1331
sg55
(lp1338
g181
asbasbasbag48
(g64
g50
NtRp1339
(dp1340
g53
(dp1341
sg62
g917
sg55
(lp1342
g48
(g69
g50
NtRp1343
(dp1344
g53
(dp1345
g73
g74
ssg62
g1339
sg55
(lp1346
S'remote_port'
p1347
asbag48
(g69
g50
NtRp1348
(dp1349
g53
(dp1350
g80
g81
ssg62
g1339
sg55
(lp1351
S':'
asbag48
(g69
g50
NtRp1352
(dp1353
g53
(dp1354
sg62
g1339
sg55
(lp1355
g48
(g49
g50
NtRp1356
(dp1357
g53
(dp1358
g61
I4
ssg62
g1352
sg55
(lp1359
S'65407'
p1360
asbasbasbag48
(g64
g50
NtRp1361
(dp1362
g53
(dp1363
sg62
g917
sg55
(lp1364
g48
(g69
g50
NtRp1365
(dp1366
g53
(dp1367
g73
g74
ssg62
g1361
sg55
(lp1368
S'request_method'
p1369
asbag48
(g69
g50
NtRp1370
(dp1371
g53
(dp1372
g80
g81
ssg62
g1361
sg55
(lp1373
S':'
asbag48
(g69
g50
NtRp1374
(dp1375
g53
(dp1376
sg62
g1361
sg55
(lp1377
g48
(g49
g50
NtRp1378
(dp1379
g53
(dp1380
g61
I4
ssg62
g1374
sg55
(lp1381
S'GET'
p1382
asbasbasbag48
(g64
g50
NtRp1383
(dp1384
g53
(dp1385
sg62
g917
sg55
(lp1386
g48
(g69
g50
NtRp1387
(dp1388
g53
(dp1389
g73
g74
ssg62
g1383
sg55
(lp1390
S'request_uri'
p1391
asbag48
(g69
g50
NtRp1392
(dp1393
g53
(dp1394
g80
g81
ssg62
g1383
sg55
(lp1395
S':'
asbag48
(g69
g50
NtRp1396
(dp1397
g53
(dp1398
sg62
g1383
sg55
(lp1399
g48
(g49
g50
NtRp1400
(dp1401
g53
(dp1402
g61
I4
ssg62
g1396
sg55
(lp1403
S'/Gabb1/fb_serv/serve_player_data.txt?game%5Fid=0&opponent%5Fid=2&gsCacheBusterID=1327004326100&player%5Fid=1&purpose=audit'
p1404
asbasbasbag48
(g64
g50
NtRp1405
(dp1406
g53
(dp1407
sg62
g917
sg55
(lp1408
g48
(g69
g50
NtRp1409
(dp1410
g53
(dp1411
g73
g74
ssg62
g1405
sg55
(lp1412
S'script_name'
p1413
asbag48
(g69
g50
NtRp1414
(dp1415
g53
(dp1416
g80
g81
ssg62
g1405
sg55
(lp1417
S':'
asbag48
(g69
g50
NtRp1418
(dp1419
g53
(dp1420
sg62
g1405
sg55
(lp1421
g48
(g49
g50
NtRp1422
(dp1423
g53
(dp1424
g61
I4
ssg62
g1418
sg55
(lp1425
S''
asbasbasbag48
(g64
g50
NtRp1426
(dp1427
g53
(dp1428
sg62
g917
sg55
(lp1429
g48
(g69
g50
NtRp1430
(dp1431
g53
(dp1432
g73
g74
ssg62
g1426
sg55
(lp1433
S'server_name'
p1434
asbag48
(g69
g50
NtRp1435
(dp1436
g53
(dp1437
g80
g81
ssg62
g1426
sg55
(lp1438
S':'
asbag48
(g69
g50
NtRp1439
(dp1440
g53
(dp1441
sg62
g1426
sg55
(lp1442
g48
(g49
g50
NtRp1443
(dp1444
g53
(dp1445
g61
I4
ssg62
g1439
sg55
(lp1446
S'John-PC'
p1447
asbasbasbag48
(g64
g50
NtRp1448
(dp1449
g53
(dp1450
sg62
g917
sg55
(lp1451
g48
(g69
g50
NtRp1452
(dp1453
g53
(dp1454
g73
g74
ssg62
g1448
sg55
(lp1455
S'server_port'
p1456
asbag48
(g69
g50
NtRp1457
(dp1458
g53
(dp1459
g80
g81
ssg62
g1448
sg55
(lp1460
S':'
asbag48
(g69
g50
NtRp1461
(dp1462
g53
(dp1463
sg62
g1448
sg55
(lp1464
g48
(g49
g50
NtRp1465
(dp1466
g53
(dp1467
g61
I4
ssg62
g1461
sg55
(lp1468
S'8000'
p1469
asbasbasbag48
(g64
g50
NtRp1470
(dp1471
g53
(dp1472
sg62
g917
sg55
(lp1473
g48
(g69
g50
NtRp1474
(dp1475
g53
(dp1476
g73
g74
ssg62
g1470
sg55
(lp1477
S'server_protocol'
p1478
asbag48
(g69
g50
NtRp1479
(dp1480
g53
(dp1481
g80
g81
ssg62
g1470
sg55
(lp1482
S':'
asbag48
(g69
g50
NtRp1483
(dp1484
g53
(dp1485
sg62
g1470
sg55
(lp1486
g48
(g49
g50
NtRp1487
(dp1488
g53
(dp1489
g61
I4
ssg62
g1483
sg55
(lp1490
S'HTTP/1.1'
p1491
asbasbasbag48
(g64
g50
NtRp1492
(dp1493
g53
(dp1494
sg62
g917
sg55
(lp1495
g48
(g69
g50
NtRp1496
(dp1497
g53
(dp1498
g73
g74
ssg62
g1492
sg55
(lp1499
S'server_software'
p1500
asbag48
(g69
g50
NtRp1501
(dp1502
g53
(dp1503
g80
g81
ssg62
g1492
sg55
(lp1504
S':'
asbag48
(g69
g50
NtRp1505
(dp1506
g53
(dp1507
sg62
g1492
sg55
(lp1508
g48
(g49
g50
NtRp1509
(dp1510
g53
(dp1511
g61
I4
ssg62
g1505
sg55
(lp1512
S'Rocket 1.2.4'
p1513
asbasbasbag48
(g64
g50
NtRp1514
(dp1515
g53
(dp1516
sg62
g917
sg55
(lp1517
g48
(g69
g50
NtRp1518
(dp1519
g53
(dp1520
g73
g74
ssg62
g1514
sg55
(lp1521
S'web2py_crontype'
p1522
asbag48
(g69
g50
NtRp1523
(dp1524
g53
(dp1525
g80
g81
ssg62
g1514
sg55
(lp1526
S':'
asbag48
(g69
g50
NtRp1527
(dp1528
g53
(dp1529
sg62
g1514
sg55
(lp1530
g48
(g49
g50
NtRp1531
(dp1532
g53
(dp1533
g61
I4
ssg62
g1527
sg55
(lp1534
S'hard'
p1535
asbasbasbag48
(g64
g50
NtRp1536
(dp1537
g53
(dp1538
sg62
g917
sg55
(lp1539
g48
(g69
g50
NtRp1540
(dp1541
g53
(dp1542
g73
g74
ssg62
g1536
sg55
(lp1543
S'web2py_original_uri'
p1544
asbag48
(g69
g50
NtRp1545
(dp1546
g53
(dp1547
g80
g81
ssg62
g1536
sg55
(lp1548
S':'
asbag48
(g69
g50
NtRp1549
(dp1550
g53
(dp1551
sg62
g1536
sg55
(lp1552
g48
(g49
g50
NtRp1553
(dp1554
g53
(dp1555
g61
I4
ssg62
g1549
sg55
(lp1556
S'/Gabb1/fb_serv/serve_player_data.txt?game%5Fid=0&opponent%5Fid=2&gsCacheBusterID=1327004326100&player%5Fid=1&purpose=audit'
p1557
asbasbasbag48
(g64
g50
NtRp1558
(dp1559
g53
(dp1560
sg62
g917
sg55
(lp1561
g48
(g69
g50
NtRp1562
(dp1563
g53
(dp1564
g73
g74
ssg62
g1558
sg55
(lp1565
S'web2py_path'
p1566
asbag48
(g69
g50
NtRp1567
(dp1568
g53
(dp1569
g80
g81
ssg62
g1558
sg55
(lp1570
S':'
asbag48
(g69
g50
NtRp1571
(dp1572
g53
(dp1573
sg62
g1558
sg55
(lp1574
g48
(g49
g50
NtRp1575
(dp1576
g53
(dp1577
g61
I4
ssg62
g1571
sg55
(lp1578
g964
asbasbasbag48
(g64
g50
NtRp1579
(dp1580
g53
(dp1581
sg62
g917
sg55
(lp1582
g48
(g69
g50
NtRp1583
(dp1584
g53
(dp1585
g73
g74
ssg62
g1579
sg55
(lp1586
S'web2py_version'
p1587
asbag48
(g69
g50
NtRp1588
(dp1589
g53
(dp1590
g80
g81
ssg62
g1579
sg55
(lp1591
S':'
asbag48
(g69
g50
NtRp1592
(dp1593
g53
(dp1594
sg62
g1579
sg55
(lp1595
g48
(g49
g50
NtRp1596
(dp1597
g53
(dp1598
g61
I4
ssg62
g1592
sg55
(lp1599
g48
(g57
g50
NtRp1600
(dp1601
g53
(dp1602
g61
I3
ssg62
Nsg55
(lp1603
g48
(g64
g50
NtRp1604
(dp1605
g53
(dp1606
sg62
g1600
sg55
(lp1607
g48
(g69
g50
NtRp1608
(dp1609
g53
(dp1610
sg62
g1604
sg55
(lp1611
g48
(g49
g50
NtRp1612
(dp1613
g53
(dp1614
g61
I3
ssg62
g1608
sg55
(lp1615
S'1'
asbasbasbag48
(g64
g50
NtRp1616
(dp1617
g53
(dp1618
sg62
g1600
sg55
(lp1619
g48
(g69
g50
NtRp1620
(dp1621
g53
(dp1622
sg62
g1616
sg55
(lp1623
g48
(g49
g50
NtRp1624
(dp1625
g53
(dp1626
g61
I3
ssg62
g1620
sg55
(lp1627
S'99'
p1628
asbasbasbag48
(g64
g50
NtRp1629
(dp1630
g53
(dp1631
sg62
g1600
sg55
(lp1632
g48
(g69
g50
NtRp1633
(dp1634
g53
(dp1635
sg62
g1629
sg55
(lp1636
g48
(g49
g50
NtRp1637
(dp1638
g53
(dp1639
g61
I3
ssg62
g1633
sg55
(lp1640
S'2'
asbasbasbag48
(g64
g50
NtRp1641
(dp1642
g53
(dp1643
sg62
g1600
sg55
(lp1644
g48
(g69
g50
NtRp1645
(dp1646
g53
(dp1647
sg62
g1641
sg55
(lp1648
g48
(g49
g50
NtRp1649
(dp1650
g53
(dp1651
g61
I3
ssg62
g1645
sg55
(lp1652
S'datetime.datetime(2011, 9, 26, 6, 55, 33)'
p1653
asbasbasbag48
(g64
g50
NtRp1654
(dp1655
g53
(dp1656
sg62
g1600
sg55
(lp1657
g48
(g69
g50
NtRp1658
(dp1659
g53
(dp1660
sg62
g1654
sg55
(lp1661
g48
(g49
g50
NtRp1662
(dp1663
g53
(dp1664
g61
I3
ssg62
g1658
sg55
(lp1665
S'stable'
p1666
asbasbasbasbasbasbasbag48
(g64
g50
NtRp1667
(dp1668
g53
(dp1669
sg62
g917
sg55
(lp1670
g48
(g69
g50
NtRp1671
(dp1672
g53
(dp1673
g73
g74
ssg62
g1667
sg55
(lp1674
S'wsgi_errors'
p1675
asbag48
(g69
g50
NtRp1676
(dp1677
g53
(dp1678
g80
g81
ssg62
g1667
sg55
(lp1679
S':'
asbag48
(g69
g50
NtRp1680
(dp1681
g53
(dp1682
sg62
g1667
sg55
(lp1683
g48
(g49
g50
NtRp1684
(dp1685
g53
(dp1686
g61
I4
ssg62
g1680
sg55
(lp1687
S"<open file '<stderr>', mode 'w' at 0x01D300B0>"
p1688
asbasbasbag48
(g64
g50
NtRp1689
(dp1690
g53
(dp1691
sg62
g917
sg55
(lp1692
g48
(g69
g50
NtRp1693
(dp1694
g53
(dp1695
g73
g74
ssg62
g1689
sg55
(lp1696
S'wsgi_file_wrapper'
p1697
asbag48
(g69
g50
NtRp1698
(dp1699
g53
(dp1700
g80
g81
ssg62
g1689
sg55
(lp1701
S':'
asbag48
(g69
g50
NtRp1702
(dp1703
g53
(dp1704
sg62
g1689
sg55
(lp1705
g48
(g49
g50
NtRp1706
(dp1707
g53
(dp1708
g61
I4
ssg62
g1702
sg55
(lp1709
S'<class wsgiref.util.FileWrapper at 0x0318A600>'
p1710
asbasbasbag48
(g64
g50
NtRp1711
(dp1712
g53
(dp1713
sg62
g917
sg55
(lp1714
g48
(g69
g50
NtRp1715
(dp1716
g53
(dp1717
g73
g74
ssg62
g1711
sg55
(lp1718
S'wsgi_input'
p1719
asbag48
(g69
g50
NtRp1720
(dp1721
g53
(dp1722
g80
g81
ssg62
g1711
sg55
(lp1723
S':'
asbag48
(g69
g50
NtRp1724
(dp1725
g53
(dp1726
sg62
g1711
sg55
(lp1727
g48
(g49
g50
NtRp1728
(dp1729
g53
(dp1730
g61
I4
ssg62
g1724
sg55
(lp1731
S'<socket._fileobject object at 0x089DE3B0>'
p1732
asbasbasbag48
(g64
g50
NtRp1733
(dp1734
g53
(dp1735
sg62
g917
sg55
(lp1736
g48
(g69
g50
NtRp1737
(dp1738
g53
(dp1739
g73
g74
ssg62
g1733
sg55
(lp1740
S'wsgi_multiprocess'
p1741
asbag48
(g69
g50
NtRp1742
(dp1743
g53
(dp1744
g80
g81
ssg62
g1733
sg55
(lp1745
S':'
asbag48
(g69
g50
NtRp1746
(dp1747
g53
(dp1748
sg62
g1733
sg55
(lp1749
g48
(g49
g50
NtRp1750
(dp1751
g53
(dp1752
g61
I4
ssg62
g1746
sg55
(lp1753
g91
asbasbasbag48
(g64
g50
NtRp1754
(dp1755
g53
(dp1756
sg62
g917
sg55
(lp1757
g48
(g69
g50
NtRp1758
(dp1759
g53
(dp1760
g73
g74
ssg62
g1754
sg55
(lp1761
S'wsgi_multithread'
p1762
asbag48
(g69
g50
NtRp1763
(dp1764
g53
(dp1765
g80
g81
ssg62
g1754
sg55
(lp1766
S':'
asbag48
(g69
g50
NtRp1767
(dp1768
g53
(dp1769
sg62
g1754
sg55
(lp1770
g48
(g49
g50
NtRp1771
(dp1772
g53
(dp1773
g61
I4
ssg62
g1767
sg55
(lp1774
S'True'
p1775
asbasbasbag48
(g64
g50
NtRp1776
(dp1777
g53
(dp1778
sg62
g917
sg55
(lp1779
g48
(g69
g50
NtRp1780
(dp1781
g53
(dp1782
g73
g74
ssg62
g1776
sg55
(lp1783
S'wsgi_run_once'
p1784
asbag48
(g69
g50
NtRp1785
(dp1786
g53
(dp1787
g80
g81
ssg62
g1776
sg55
(lp1788
S':'
asbag48
(g69
g50
NtRp1789
(dp1790
g53
(dp1791
sg62
g1776
sg55
(lp1792
g48
(g49
g50
NtRp1793
(dp1794
g53
(dp1795
g61
I4
ssg62
g1789
sg55
(lp1796
g91
asbasbasbag48
(g64
g50
NtRp1797
(dp1798
g53
(dp1799
sg62
g917
sg55
(lp1800
g48
(g69
g50
NtRp1801
(dp1802
g53
(dp1803
g73
g74
ssg62
g1797
sg55
(lp1804
S'wsgi_url_scheme'
p1805
asbag48
(g69
g50
NtRp1806
(dp1807
g53
(dp1808
g80
g81
ssg62
g1797
sg55
(lp1809
S':'
asbag48
(g69
g50
NtRp1810
(dp1811
g53
(dp1812
sg62
g1797
sg55
(lp1813
g48
(g49
g50
NtRp1814
(dp1815
g53
(dp1816
g61
I4
ssg62
g1810
sg55
(lp1817
S'http'
p1818
asbasbasbag48
(g64
g50
NtRp1819
(dp1820
g53
(dp1821
sg62
g917
sg55
(lp1822
g48
(g69
g50
NtRp1823
(dp1824
g53
(dp1825
g73
g74
ssg62
g1819
sg55
(lp1826
S'wsgi_version'
p1827
asbag48
(g69
g50
NtRp1828
(dp1829
g53
(dp1830
g80
g81
ssg62
g1819
sg55
(lp1831
S':'
asbag48
(g69
g50
NtRp1832
(dp1833
g53
(dp1834
sg62
g1819
sg55
(lp1835
g48
(g49
g50
NtRp1836
(dp1837
g53
(dp1838
g61
I4
ssg62
g1832
sg55
(lp1839
g48
(g57
g50
NtRp1840
(dp1841
g53
(dp1842
g61
I3
ssg62
Nsg55
(lp1843
g48
(g64
g50
NtRp1844
(dp1845
g53
(dp1846
sg62
g1840
sg55
(lp1847
g48
(g69
g50
NtRp1848
(dp1849
g53
(dp1850
sg62
g1844
sg55
(lp1851
g48
(g49
g50
NtRp1852
(dp1853
g53
(dp1854
g61
I3
ssg62
g1848
sg55
(lp1855
S'1'
asbasbasbag48
(g64
g50
NtRp1856
(dp1857
g53
(dp1858
sg62
g1840
sg55
(lp1859
g48
(g69
g50
NtRp1860
(dp1861
g53
(dp1862
sg62
g1856
sg55
(lp1863
g48
(g49
g50
NtRp1864
(dp1865
g53
(dp1866
g61
I3
ssg62
g1860
sg55
(lp1867
S'0'
asbasbasbasbasbasbasbasbasbasbasbag48
(g64
g50
NtRp1868
(dp1869
g53
(dp1870
sg62
g58
sg55
(lp1871
g48
(g69
g50
NtRp1872
(dp1873
g53
(dp1874
g73
g74
ssg62
g1868
sg55
(lp1875
S'extension'
p1876
asbag48
(g69
g50
NtRp1877
(dp1878
g53
(dp1879
g80
g81
ssg62
g1868
sg55
(lp1880
S':'
asbag48
(g69
g50
NtRp1881
(dp1882
g53
(dp1883
sg62
g1868
sg55
(lp1884
g48
(g49
g50
NtRp1885
(dp1886
g53
(dp1887
g61
I5
ssg62
g1881
sg55
(lp1888
S'txt'
p1889
asbasbasbag48
(g64
g50
NtRp1890
(dp1891
g53
(dp1892
sg62
g58
sg55
(lp1893
g48
(g69
g50
NtRp1894
(dp1895
g53
(dp1896
g73
g74
ssg62
g1890
sg55
(lp1897
S'folder'
p1898
asbag48
(g69
g50
NtRp1899
(dp1900
g53
(dp1901
g80
g81
ssg62
g1890
sg55
(lp1902
S':'
asbag48
(g69
g50
NtRp1903
(dp1904
g53
(dp1905
sg62
g1890
sg55
(lp1906
g48
(g49
g50
NtRp1907
(dp1908
g53
(dp1909
g61
I5
ssg62
g1903
sg55
(lp1910
S'D:\\git_projs\\Gabblista\\web2py\\web2py\\applications\\Gabb1\\'
p1911
asbasbasbag48
(g64
g50
NtRp1912
(dp1913
g53
(dp1914
sg62
g58
sg55
(lp1915
g48
(g69
g50
NtRp1916
(dp1917
g53
(dp1918
g73
g74
ssg62
g1912
sg55
(lp1919
S'function'
p1920
asbag48
(g69
g50
NtRp1921
(dp1922
g53
(dp1923
g80
g81
ssg62
g1912
sg55
(lp1924
S':'
asbag48
(g69
g50
NtRp1925
(dp1926
g53
(dp1927
sg62
g1912
sg55
(lp1928
g48
(g49
g50
NtRp1929
(dp1930
g53
(dp1931
g61
I5
ssg62
g1925
sg55
(lp1932
S'serve_player_data'
p1933
asbasbasbag48
(g64
g50
NtRp1934
(dp1935
g53
(dp1936
sg62
g58
sg55
(lp1937
g48
(g69
g50
NtRp1938
(dp1939
g53
(dp1940
g73
g74
ssg62
g1934
sg55
(lp1941
S'get_vars'
p1942
asbag48
(g69
g50
NtRp1943
(dp1944
g53
(dp1945
g80
g81
ssg62
g1934
sg55
(lp1946
S':'
asbag48
(g69
g50
NtRp1947
(dp1948
g53
(dp1949
sg62
g1934
sg55
(lp1950
g48
(g49
g50
NtRp1951
(dp1952
g53
(dp1953
g61
I5
ssg62
g1947
sg55
(lp1954
g48
(g57
g50
NtRp1955
(dp1956
g53
(dp1957
g61
I4
ssg62
Nsg55
(lp1958
g48
(g64
g50
NtRp1959
(dp1960
g53
(dp1961
sg62
g1955
sg55
(lp1962
g48
(g69
g50
NtRp1963
(dp1964
g53
(dp1965
g73
g74
ssg62
g1959
sg55
(lp1966
S'game_id'
p1967
asbag48
(g69
g50
NtRp1968
(dp1969
g53
(dp1970
g80
g81
ssg62
g1959
sg55
(lp1971
S':'
asbag48
(g69
g50
NtRp1972
(dp1973
g53
(dp1974
sg62
g1959
sg55
(lp1975
g48
(g49
g50
NtRp1976
(dp1977
g53
(dp1978
g61
I4
ssg62
g1972
sg55
(lp1979
S'0'
asbasbasbag48
(g64
g50
NtRp1980
(dp1981
g53
(dp1982
sg62
g1955
sg55
(lp1983
g48
(g69
g50
NtRp1984
(dp1985
g53
(dp1986
g73
g74
ssg62
g1980
sg55
(lp1987
S'gsCacheBusterID'
p1988
asbag48
(g69
g50
NtRp1989
(dp1990
g53
(dp1991
g80
g81
ssg62
g1980
sg55
(lp1992
S':'
asbag48
(g69
g50
NtRp1993
(dp1994
g53
(dp1995
sg62
g1980
sg55
(lp1996
g48
(g49
g50
NtRp1997
(dp1998
g53
(dp1999
g61
I4
ssg62
g1993
sg55
(lp2000
S'1327004326100'
p2001
asbasbasbag48
(g64
g50
NtRp2002
(dp2003
g53
(dp2004
sg62
g1955
sg55
(lp2005
g48
(g69
g50
NtRp2006
(dp2007
g53
(dp2008
g73
g74
ssg62
g2002
sg55
(lp2009
S'opponent_id'
p2010
asbag48
(g69
g50
NtRp2011
(dp2012
g53
(dp2013
g80
g81
ssg62
g2002
sg55
(lp2014
S':'
asbag48
(g69
g50
NtRp2015
(dp2016
g53
(dp2017
sg62
g2002
sg55
(lp2018
g48
(g49
g50
NtRp2019
(dp2020
g53
(dp2021
g61
I4
ssg62
g2015
sg55
(lp2022
S'2'
asbasbasbag48
(g64
g50
NtRp2023
(dp2024
g53
(dp2025
sg62
g1955
sg55
(lp2026
g48
(g69
g50
NtRp2027
(dp2028
g53
(dp2029
g73
g74
ssg62
g2023
sg55
(lp2030
S'player_id'
p2031
asbag48
(g69
g50
NtRp2032
(dp2033
g53
(dp2034
g80
g81
ssg62
g2023
sg55
(lp2035
S':'
asbag48
(g69
g50
NtRp2036
(dp2037
g53
(dp2038
sg62
g2023
sg55
(lp2039
g48
(g49
g50
NtRp2040
(dp2041
g53
(dp2042
g61
I4
ssg62
g2036
sg55
(lp2043
S'1'
asbasbasbag48
(g64
g50
NtRp2044
(dp2045
g53
(dp2046
sg62
g1955
sg55
(lp2047
g48
(g69
g50
NtRp2048
(dp2049
g53
(dp2050
g73
g74
ssg62
g2044
sg55
(lp2051
S'purpose'
p2052
asbag48
(g69
g50
NtRp2053
(dp2054
g53
(dp2055
g80
g81
ssg62
g2044
sg55
(lp2056
S':'
asbag48
(g69
g50
NtRp2057
(dp2058
g53
(dp2059
sg62
g2044
sg55
(lp2060
g48
(g49
g50
NtRp2061
(dp2062
g53
(dp2063
g61
I4
ssg62
g2057
sg55
(lp2064
S'audit'
p2065
asbasbasbasbasbasbasbag48
(g64
g50
NtRp2066
(dp2067
g53
(dp2068
sg62
g58
sg55
(lp2069
g48
(g69
g50
NtRp2070
(dp2071
g53
(dp2072
g73
g74
ssg62
g2066
sg55
(lp2073
S'global_settings'
p2074
asbag48
(g69
g50
NtRp2075
(dp2076
g53
(dp2077
g80
g81
ssg62
g2066
sg55
(lp2078
S':'
asbag48
(g69
g50
NtRp2079
(dp2080
g53
(dp2081
sg62
g2066
sg55
(lp2082
g48
(g49
g50
NtRp2083
(dp2084
g53
(dp2085
g61
I5
ssg62
g2079
sg55
(lp2086
g48
(g57
g50
NtRp2087
(dp2088
g53
(dp2089
g61
I4
ssg62
Nsg55
(lp2090
g48
(g64
g50
NtRp2091
(dp2092
g53
(dp2093
sg62
g2087
sg55
(lp2094
g48
(g69
g50
NtRp2095
(dp2096
g53
(dp2097
g73
g74
ssg62
g2091
sg55
(lp2098
g929
asbag48
(g69
g50
NtRp2099
(dp2100
g53
(dp2101
g80
g81
ssg62
g2091
sg55
(lp2102
S':'
asbag48
(g69
g50
NtRp2103
(dp2104
g53
(dp2105
sg62
g2091
sg55
(lp2106
g48
(g49
g50
NtRp2107
(dp2108
g53
(dp2109
g61
I4
ssg62
g2103
sg55
(lp2110
S"set(['D:\\\\git_projs\\\\Gabblista\\\\web2py\\\\web2py\\\\applications\\\\gabb1\\\\', 'D:\\\\git_projs\\\\Gabblista\\\\web2py\\\\web2py\\\\applications\\\\Gabb1\\\\', 'D:\\\\git_projs\\\\Gabblista\\\\web2py\\\\web2py\\\\applications\\\\admin\\\\', 'D:\\\\git_projs\\\\Gabblista\\\\web2py\\\\web2py\\\\applications\\\\welcome\\\\'])"
p2111
asbasbasbag48
(g64
g50
NtRp2112
(dp2113
g53
(dp2114
sg62
g2087
sg55
(lp2115
g48
(g69
g50
NtRp2116
(dp2117
g53
(dp2118
g73
g74
ssg62
g2112
sg55
(lp2119
g951
asbag48
(g69
g50
NtRp2120
(dp2121
g53
(dp2122
g80
g81
ssg62
g2112
sg55
(lp2123
S':'
asbag48
(g69
g50
NtRp2124
(dp2125
g53
(dp2126
sg62
g2112
sg55
(lp2127
g48
(g49
g50
NtRp2128
(dp2129
g53
(dp2130
g61
I4
ssg62
g2124
sg55
(lp2131
g964
asbasbasbag48
(g64
g50
NtRp2132
(dp2133
g53
(dp2134
sg62
g2087
sg55
(lp2135
g48
(g69
g50
NtRp2136
(dp2137
g53
(dp2138
g73
g74
ssg62
g2132
sg55
(lp2139
g973
asbag48
(g69
g50
NtRp2140
(dp2141
g53
(dp2142
g80
g81
ssg62
g2132
sg55
(lp2143
S':'
asbag48
(g69
g50
NtRp2144
(dp2145
g53
(dp2146
sg62
g2132
sg55
(lp2147
g48
(g49
g50
NtRp2148
(dp2149
g53
(dp2150
g61
I4
ssg62
g2144
sg55
(lp2151
g48
(g57
g50
NtRp2152
(dp2153
g53
(dp2154
g61
I3
ssg62
Nsg55
(lp2155
sbasbasbasbag48
(g64
g50
NtRp2156
(dp2157
g53
(dp2158
sg62
g2087
sg55
(lp2159
g48
(g69
g50
NtRp2160
(dp2161
g53
(dp2162
g73
g74
ssg62
g2156
sg55
(lp2163
g998
asbag48
(g69
g50
NtRp2164
(dp2165
g53
(dp2166
g80
g81
ssg62
g2156
sg55
(lp2167
S':'
asbag48
(g69
g50
NtRp2168
(dp2169
g53
(dp2170
sg62
g2156
sg55
(lp2171
g48
(g49
g50
NtRp2172
(dp2173
g53
(dp2174
g61
I4
ssg62
g2168
sg55
(lp2175
S"<Values at 0x325b800: {'verbose': False, 'ip': '127.0.0.1', 'shutdown_timeout': 5, 'taskbar': False, 'nocron': False, 'pid_filename': 'httpserver.pid', 'maxthreads': None, 'softcron': False, 'server_name': 'John-PC', 'bpython': False, 'nogui': False, 'port': 8000, 'extcron': False, 'debuglevel': 30, 'test': None, 'folder': 'D:\\\\git_projs\\\\Gabblista\\\\web2py\\\\web2py', 'config': '', 'import_models': False, 'winservice': '', 'shell': None, 'run': '', 'log_filename': 'httpserver.log', 'args': [''], 'ssl_ca_certificate': None, 'scheduler': None, 'profiler_filename': None, 'ssl_private_key': '', 'password': '<ask>', 'request_queue_size': 5, 'ssl_certificate': '', 'cronjob': False, 'plain': False, 'quiet': False, 'interfaces': None, 'minthreads': None, 'timeout': 10, 'numthreads': None, 'nobanner': False}>"
p2176
asbasbasbag48
(g64
g50
NtRp2177
(dp2178
g53
(dp2179
sg62
g2087
sg55
(lp2180
g48
(g69
g50
NtRp2181
(dp2182
g53
(dp2183
g73
g74
ssg62
g2177
sg55
(lp2184
g1020
asbag48
(g69
g50
NtRp2185
(dp2186
g53
(dp2187
g80
g81
ssg62
g2177
sg55
(lp2188
S':'
asbag48
(g69
g50
NtRp2189
(dp2190
g53
(dp2191
sg62
g2177
sg55
(lp2192
g48
(g49
g50
NtRp2193
(dp2194
g53
(dp2195
g61
I4
ssg62
g2189
sg55
(lp2196
S'set([])'
p2197
asbasbasbag48
(g64
g50
NtRp2198
(dp2199
g53
(dp2200
sg62
g2087
sg55
(lp2201
g48
(g69
g50
NtRp2202
(dp2203
g53
(dp2204
g73
g74
ssg62
g2198
sg55
(lp2205
g1042
asbag48
(g69
g50
NtRp2206
(dp2207
g53
(dp2208
g80
g81
ssg62
g2198
sg55
(lp2209
S':'
asbag48
(g69
g50
NtRp2210
(dp2211
g53
(dp2212
sg62
g2198
sg55
(lp2213
g48
(g49
g50
NtRp2214
(dp2215
g53
(dp2216
g61
I4
ssg62
g2210
sg55
(lp2217
g91
asbasbasbag48
(g64
g50
NtRp2218
(dp2219
g53
(dp2220
sg62
g2087
sg55
(lp2221
g48
(g69
g50
NtRp2222
(dp2223
g53
(dp2224
g73
g74
ssg62
g2218
sg55
(lp2225
g1063
asbag48
(g69
g50
NtRp2226
(dp2227
g53
(dp2228
g80
g81
ssg62
g2218
sg55
(lp2229
S':'
asbag48
(g69
g50
NtRp2230
(dp2231
g53
(dp2232
sg62
g2218
sg55
(lp2233
g48
(g49
g50
NtRp2234
(dp2235
g53
(dp2236
g61
I4
ssg62
g2230
sg55
(lp2237
g1076
asbasbasbag48
(g64
g50
NtRp2238
(dp2239
g53
(dp2240
sg62
g2087
sg55
(lp2241
g48
(g69
g50
NtRp2242
(dp2243
g53
(dp2244
g73
g74
ssg62
g2238
sg55
(lp2245
g1261
asbag48
(g69
g50
NtRp2246
(dp2247
g53
(dp2248
g80
g81
ssg62
g2238
sg55
(lp2249
S':'
asbag48
(g69
g50
NtRp2250
(dp2251
g53
(dp2252
sg62
g2238
sg55
(lp2253
g48
(g49
g50
NtRp2254
(dp2255
g53
(dp2256
g61
I4
ssg62
g2250
sg55
(lp2257
g91
asbasbasbag48
(g64
g50
NtRp2258
(dp2259
g53
(dp2260
sg62
g2087
sg55
(lp2261
g48
(g69
g50
NtRp2262
(dp2263
g53
(dp2264
g73
g74
ssg62
g2258
sg55
(lp2265
g1522
asbag48
(g69
g50
NtRp2266
(dp2267
g53
(dp2268
g80
g81
ssg62
g2258
sg55
(lp2269
S':'
asbag48
(g69
g50
NtRp2270
(dp2271
g53
(dp2272
sg62
g2258
sg55
(lp2273
g48
(g49
g50
NtRp2274
(dp2275
g53
(dp2276
g61
I4
ssg62
g2270
sg55
(lp2277
g1535
asbasbasbag48
(g64
g50
NtRp2278
(dp2279
g53
(dp2280
sg62
g2087
sg55
(lp2281
g48
(g69
g50
NtRp2282
(dp2283
g53
(dp2284
g73
g74
ssg62
g2278
sg55
(lp2285
g1587
asbag48
(g69
g50
NtRp2286
(dp2287
g53
(dp2288
g80
g81
ssg62
g2278
sg55
(lp2289
S':'
asbag48
(g69
g50
NtRp2290
(dp2291
g53
(dp2292
sg62
g2278
sg55
(lp2293
g48
(g49
g50
NtRp2294
(dp2295
g53
(dp2296
g61
I4
ssg62
g2290
sg55
(lp2297
g48
(g57
g50
NtRp2298
(dp2299
g53
(dp2300
g61
I3
ssg62
Nsg55
(lp2301
g48
(g64
g50
NtRp2302
(dp2303
g53
(dp2304
sg62
g2298
sg55
(lp2305
g48
(g69
g50
NtRp2306
(dp2307
g53
(dp2308
sg62
g2302
sg55
(lp2309
g48
(g49
g50
NtRp2310
(dp2311
g53
(dp2312
g61
I3
ssg62
g2306
sg55
(lp2313
S'1'
asbasbasbag48
(g64
g50
NtRp2314
(dp2315
g53
(dp2316
sg62
g2298
sg55
(lp2317
g48
(g69
g50
NtRp2318
(dp2319
g53
(dp2320
sg62
g2314
sg55
(lp2321
g48
(g49
g50
NtRp2322
(dp2323
g53
(dp2324
g61
I3
ssg62
g2318
sg55
(lp2325
S'99'
p2326
asbasbasbag48
(g64
g50
NtRp2327
(dp2328
g53
(dp2329
sg62
g2298
sg55
(lp2330
g48
(g69
g50
NtRp2331
(dp2332
g53
(dp2333
sg62
g2327
sg55
(lp2334
g48
(g49
g50
NtRp2335
(dp2336
g53
(dp2337
g61
I3
ssg62
g2331
sg55
(lp2338
S'2'
asbasbasbag48
(g64
g50
NtRp2339
(dp2340
g53
(dp2341
sg62
g2298
sg55
(lp2342
g48
(g69
g50
NtRp2343
(dp2344
g53
(dp2345
sg62
g2339
sg55
(lp2346
g48
(g49
g50
NtRp2347
(dp2348
g53
(dp2349
g61
I3
ssg62
g2343
sg55
(lp2350
S'datetime.datetime(2011, 9, 26, 6, 55, 33)'
p2351
asbasbasbag48
(g64
g50
NtRp2352
(dp2353
g53
(dp2354
sg62
g2298
sg55
(lp2355
g48
(g69
g50
NtRp2356
(dp2357
g53
(dp2358
sg62
g2352
sg55
(lp2359
g48
(g49
g50
NtRp2360
(dp2361
g53
(dp2362
g61
I3
ssg62
g2356
sg55
(lp2363
g1666
asbasbasbasbasbasbasbasbasbasbasbag48
(g64
g50
NtRp2364
(dp2365
g53
(dp2366
sg62
g58
sg55
(lp2367
g48
(g69
g50
NtRp2368
(dp2369
g53
(dp2370
g73
g74
ssg62
g2364
sg55
(lp2371
S'is_https'
p2372
asbag48
(g69
g50
NtRp2373
(dp2374
g53
(dp2375
g80
g81
ssg62
g2364
sg55
(lp2376
S':'
asbag48
(g69
g50
NtRp2377
(dp2378
g53
(dp2379
sg62
g2364
sg55
(lp2380
g48
(g49
g50
NtRp2381
(dp2382
g53
(dp2383
g61
I5
ssg62
g2377
sg55
(lp2384
g91
asbasbasbag48
(g64
g50
NtRp2385
(dp2386
g53
(dp2387
sg62
g58
sg55
(lp2388
g48
(g69
g50
NtRp2389
(dp2390
g53
(dp2391
g73
g74
ssg62
g2385
sg55
(lp2392
S'is_local'
p2393
asbag48
(g69
g50
NtRp2394
(dp2395
g53
(dp2396
g80
g81
ssg62
g2385
sg55
(lp2397
S':'
asbag48
(g69
g50
NtRp2398
(dp2399
g53
(dp2400
sg62
g2385
sg55
(lp2401
g48
(g49
g50
NtRp2402
(dp2403
g53
(dp2404
g61
I5
ssg62
g2398
sg55
(lp2405
g1775
asbasbasbag48
(g64
g50
NtRp2406
(dp2407
g53
(dp2408
sg62
g58
sg55
(lp2409
g48
(g69
g50
NtRp2410
(dp2411
g53
(dp2412
g73
g74
ssg62
g2406
sg55
(lp2413
S'is_restful'
p2414
asbag48
(g69
g50
NtRp2415
(dp2416
g53
(dp2417
g80
g81
ssg62
g2406
sg55
(lp2418
S':'
asbag48
(g69
g50
NtRp2419
(dp2420
g53
(dp2421
sg62
g2406
sg55
(lp2422
g48
(g49
g50
NtRp2423
(dp2424
g53
(dp2425
g61
I5
ssg62
g2419
sg55
(lp2426
g91
asbasbasbag48
(g64
g50
NtRp2427
(dp2428
g53
(dp2429
sg62
g58
sg55
(lp2430
g48
(g69
g50
NtRp2431
(dp2432
g53
(dp2433
g73
g74
ssg62
g2427
sg55
(lp2434
S'now'
p2435
asbag48
(g69
g50
NtRp2436
(dp2437
g53
(dp2438
g80
g81
ssg62
g2427
sg55
(lp2439
S':'
asbag48
(g69
g50
NtRp2440
(dp2441
g53
(dp2442
sg62
g2427
sg55
(lp2443
g48
(g49
g50
NtRp2444
(dp2445
g53
(dp2446
g61
I5
ssg62
g2440
sg55
(lp2447
S'datetime.datetime(2012, 1, 19, 15, 18, 46, 176000)'
p2448
asbasbasbag48
(g64
g50
NtRp2449
(dp2450
g53
(dp2451
sg62
g58
sg55
(lp2452
g48
(g69
g50
NtRp2453
(dp2454
g53
(dp2455
g73
g74
ssg62
g2449
sg55
(lp2456
S'post_vars'
p2457
asbag48
(g69
g50
NtRp2458
(dp2459
g53
(dp2460
g80
g81
ssg62
g2449
sg55
(lp2461
S':'
asbag48
(g69
g50
NtRp2462
(dp2463
g53
(dp2464
sg62
g2449
sg55
(lp2465
g48
(g49
g50
NtRp2466
(dp2467
g53
(dp2468
g61
I5
ssg62
g2462
sg55
(lp2469
g48
(g57
g50
NtRp2470
(dp2471
g53
(dp2472
g61
I4
ssg62
Nsg55
(lp2473
sbasbasbasbag48
(g64
g50
NtRp2474
(dp2475
g53
(dp2476
sg62
g58
sg55
(lp2477
g48
(g69
g50
NtRp2478
(dp2479
g53
(dp2480
g73
g74
ssg62
g2474
sg55
(lp2481
S'raw_extension'
p2482
asbag48
(g69
g50
NtRp2483
(dp2484
g53
(dp2485
g80
g81
ssg62
g2474
sg55
(lp2486
S':'
asbag48
(g69
g50
NtRp2487
(dp2488
g53
(dp2489
sg62
g2474
sg55
(lp2490
g48
(g49
g50
NtRp2491
(dp2492
g53
(dp2493
g61
I5
ssg62
g2487
sg55
(lp2494
g1889
asbasbasbag48
(g64
g50
NtRp2495
(dp2496
g53
(dp2497
sg62
g58
sg55
(lp2498
g48
(g69
g50
NtRp2499
(dp2500
g53
(dp2501
g73
g74
ssg62
g2495
sg55
(lp2502
S'url'
p2503
asbag48
(g69
g50
NtRp2504
(dp2505
g53
(dp2506
g80
g81
ssg62
g2495
sg55
(lp2507
S':'
asbag48
(g69
g50
NtRp2508
(dp2509
g53
(dp2510
sg62
g2495
sg55
(lp2511
g48
(g49
g50
NtRp2512
(dp2513
g53
(dp2514
g61
I5
ssg62
g2508
sg55
(lp2515
S'/Gabb1/fb_serv/serve_player_data.txt'
p2516
asbasbasbag48
(g64
g50
NtRp2517
(dp2518
g53
(dp2519
sg62
g58
sg55
(lp2520
g48
(g69
g50
NtRp2521
(dp2522
g53
(dp2523
g73
g74
ssg62
g2517
sg55
(lp2524
S'utcnow'
p2525
asbag48
(g69
g50
NtRp2526
(dp2527
g53
(dp2528
g80
g81
ssg62
g2517
sg55
(lp2529
S':'
asbag48
(g69
g50
NtRp2530
(dp2531
g53
(dp2532
sg62
g2517
sg55
(lp2533
g48
(g49
g50
NtRp2534
(dp2535
g53
(dp2536
g61
I5
ssg62
g2530
sg55
(lp2537
S'datetime.datetime(2012, 1, 19, 20, 18, 46, 176000)'
p2538
asbasbasbag48
(g64
g50
NtRp2539
(dp2540
g53
(dp2541
sg62
g58
sg55
(lp2542
g48
(g69
g50
NtRp2543
(dp2544
g53
(dp2545
g73
g74
ssg62
g2539
sg55
(lp2546
S'uuid'
p2547
asbag48
(g69
g50
NtRp2548
(dp2549
g53
(dp2550
g80
g81
ssg62
g2539
sg55
(lp2551
S':'
asbag48
(g69
g50
NtRp2552
(dp2553
g53
(dp2554
sg62
g2539
sg55
(lp2555
g48
(g49
g50
NtRp2556
(dp2557
g53
(dp2558
g61
I5
ssg62
g2552
sg55
(lp2559
S'Gabb1/127.0.0.1.2012-01-19.15-18-46.5399db47-e41b-43b8-afe4-cc440adf4f40'
p2560
asbasbasbag48
(g64
g50
NtRp2561
(dp2562
g53
(dp2563
sg62
g58
sg55
(lp2564
g48
(g69
g50
NtRp2565
(dp2566
g53
(dp2567
g73
g74
ssg62
g2561
sg55
(lp2568
S'vars'
p2569
asbag48
(g69
g50
NtRp2570
(dp2571
g53
(dp2572
g80
g81
ssg62
g2561
sg55
(lp2573
S':'
asbag48
(g69
g50
NtRp2574
(dp2575
g53
(dp2576
sg62
g2561
sg55
(lp2577
g48
(g49
g50
NtRp2578
(dp2579
g53
(dp2580
g61
I5
ssg62
g2574
sg55
(lp2581
g48
(g57
g50
NtRp2582
(dp2583
g53
(dp2584
g61
I4
ssg62
Nsg55
(lp2585
g48
(g64
g50
NtRp2586
(dp2587
g53
(dp2588
sg62
g2582
sg55
(lp2589
g48
(g69
g50
NtRp2590
(dp2591
g53
(dp2592
g73
g74
ssg62
g2586
sg55
(lp2593
g1967
asbag48
(g69
g50
NtRp2594
(dp2595
g53
(dp2596
g80
g81
ssg62
g2586
sg55
(lp2597
S':'
asbag48
(g69
g50
NtRp2598
(dp2599
g53
(dp2600
sg62
g2586
sg55
(lp2601
g48
(g49
g50
NtRp2602
(dp2603
g53
(dp2604
g61
I4
ssg62
g2598
sg55
(lp2605
S'0'
asbasbasbag48
(g64
g50
NtRp2606
(dp2607
g53
(dp2608
sg62
g2582
sg55
(lp2609
g48
(g69
g50
NtRp2610
(dp2611
g53
(dp2612
g73
g74
ssg62
g2606
sg55
(lp2613
g1988
asbag48
(g69
g50
NtRp2614
(dp2615
g53
(dp2616
g80
g81
ssg62
g2606
sg55
(lp2617
S':'
asbag48
(g69
g50
NtRp2618
(dp2619
g53
(dp2620
sg62
g2606
sg55
(lp2621
g48
(g49
g50
NtRp2622
(dp2623
g53
(dp2624
g61
I4
ssg62
g2618
sg55
(lp2625
g2001
asbasbasbag48
(g64
g50
NtRp2626
(dp2627
g53
(dp2628
sg62
g2582
sg55
(lp2629
g48
(g69
g50
NtRp2630
(dp2631
g53
(dp2632
g73
g74
ssg62
g2626
sg55
(lp2633
g2010
asbag48
(g69
g50
NtRp2634
(dp2635
g53
(dp2636
g80
g81
ssg62
g2626
sg55
(lp2637
S':'
asbag48
(g69
g50
NtRp2638
(dp2639
g53
(dp2640
sg62
g2626
sg55
(lp2641
g48
(g49
g50
NtRp2642
(dp2643
g53
(dp2644
g61
I4
ssg62
g2638
sg55
(lp2645
S'2'
asbasbasbag48
(g64
g50
NtRp2646
(dp2647
g53
(dp2648
sg62
g2582
sg55
(lp2649
g48
(g69
g50
NtRp2650
(dp2651
g53
(dp2652
g73
g74
ssg62
g2646
sg55
(lp2653
g2031
asbag48
(g69
g50
NtRp2654
(dp2655
g53
(dp2656
g80
g81
ssg62
g2646
sg55
(lp2657
S':'
asbag48
(g69
g50
NtRp2658
(dp2659
g53
(dp2660
sg62
g2646
sg55
(lp2661
g48
(g49
g50
NtRp2662
(dp2663
g53
(dp2664
g61
I4
ssg62
g2658
sg55
(lp2665
S'1'
asbasbasbag48
(g64
g50
NtRp2666
(dp2667
g53
(dp2668
sg62
g2582
sg55
(lp2669
g48
(g69
g50
NtRp2670
(dp2671
g53
(dp2672
g73
g74
ssg62
g2666
sg55
(lp2673
g2052
asbag48
(g69
g50
NtRp2674
(dp2675
g53
(dp2676
g80
g81
ssg62
g2666
sg55
(lp2677
S':'
asbag48
(g69
g50
NtRp2678
(dp2679
g53
(dp2680
sg62
g2666
sg55
(lp2681
g48
(g49
g50
NtRp2682
(dp2683
g53
(dp2684
g61
I4
ssg62
g2678
sg55
(lp2685
g2065
asbasbasbasbasbasbasbag48
(g64
g50
NtRp2686
(dp2687
g53
(dp2688
sg62
g58
sg55
(lp2689
g48
(g69
g50
NtRp2690
(dp2691
g53
(dp2692
g73
g74
ssg62
g2686
sg55
(lp2693
S'wsgi'
p2694
asbag48
(g69
g50
NtRp2695
(dp2696
g53
(dp2697
g80
g81
ssg62
g2686
sg55
(lp2698
S':'
asbag48
(g69
g50
NtRp2699
(dp2700
g53
(dp2701
sg62
g2686
sg55
(lp2702
g48
(g49
g50
NtRp2703
(dp2704
g53
(dp2705
g61
I5
ssg62
g2699
sg55
(lp2706
g48
(g57
g50
NtRp2707
(dp2708
g53
(dp2709
g61
I4
ssg62
Nsg55
(lp2710
g48
(g64
g50
NtRp2711
(dp2712
g53
(dp2713
sg62
g2707
sg55
(lp2714
g48
(g69
g50
NtRp2715
(dp2716
g53
(dp2717
g73
g74
ssg62
g2711
sg55
(lp2718
S'environ'
p2719
asbag48
(g69
g50
NtRp2720
(dp2721
g53
(dp2722
g80
g81
ssg62
g2711
sg55
(lp2723
S':'
asbag48
(g69
g50
NtRp2724
(dp2725
g53
(dp2726
sg62
g2711
sg55
(lp2727
g48
(g49
g50
NtRp2728
(dp2729
g53
(dp2730
g61
I4
ssg62
g2724
sg55
(lp2731
g48
(g57
g50
NtRp2732
(dp2733
g53
(dp2734
g61
I3
ssg62
Nsg55
(lp2735
g48
(g64
g50
NtRp2736
(dp2737
g53
(dp2738
sg62
g2732
sg55
(lp2739
g48
(g69
g50
NtRp2740
(dp2741
g53
(dp2742
g73
g74
ssg62
g2736
sg55
(lp2743
S'HTTP_ACCEPT'
p2744
asbag48
(g69
g50
NtRp2745
(dp2746
g53
(dp2747
g80
g81
ssg62
g2736
sg55
(lp2748
S':'
asbag48
(g69
g50
NtRp2749
(dp2750
g53
(dp2751
sg62
g2736
sg55
(lp2752
g48
(g49
g50
NtRp2753
(dp2754
g53
(dp2755
g61
I3
ssg62
g2749
sg55
(lp2756
g1098
asbasbasbag48
(g64
g50
NtRp2757
(dp2758
g53
(dp2759
sg62
g2732
sg55
(lp2760
g48
(g69
g50
NtRp2761
(dp2762
g53
(dp2763
g73
g74
ssg62
g2757
sg55
(lp2764
S'HTTP_ACCEPT_CHARSET'
p2765
asbag48
(g69
g50
NtRp2766
(dp2767
g53
(dp2768
g80
g81
ssg62
g2757
sg55
(lp2769
S':'
asbag48
(g69
g50
NtRp2770
(dp2771
g53
(dp2772
sg62
g2757
sg55
(lp2773
g48
(g49
g50
NtRp2774
(dp2775
g53
(dp2776
g61
I3
ssg62
g2770
sg55
(lp2777
g1120
asbasbasbag48
(g64
g50
NtRp2778
(dp2779
g53
(dp2780
sg62
g2732
sg55
(lp2781
g48
(g69
g50
NtRp2782
(dp2783
g53
(dp2784
g73
g74
ssg62
g2778
sg55
(lp2785
S'HTTP_ACCEPT_ENCODING'
p2786
asbag48
(g69
g50
NtRp2787
(dp2788
g53
(dp2789
g80
g81
ssg62
g2778
sg55
(lp2790
S':'
asbag48
(g69
g50
NtRp2791
(dp2792
g53
(dp2793
sg62
g2778
sg55
(lp2794
g48
(g49
g50
NtRp2795
(dp2796
g53
(dp2797
g61
I3
ssg62
g2791
sg55
(lp2798
g1142
asbasbasbag48
(g64
g50
NtRp2799
(dp2800
g53
(dp2801
sg62
g2732
sg55
(lp2802
g48
(g69
g50
NtRp2803
(dp2804
g53
(dp2805
g73
g74
ssg62
g2799
sg55
(lp2806
S'HTTP_ACCEPT_LANGUAGE'
p2807
asbag48
(g69
g50
NtRp2808
(dp2809
g53
(dp2810
g80
g81
ssg62
g2799
sg55
(lp2811
S':'
asbag48
(g69
g50
NtRp2812
(dp2813
g53
(dp2814
sg62
g2799
sg55
(lp2815
g48
(g49
g50
NtRp2816
(dp2817
g53
(dp2818
g61
I3
ssg62
g2812
sg55
(lp2819
g1164
asbasbasbag48
(g64
g50
NtRp2820
(dp2821
g53
(dp2822
sg62
g2732
sg55
(lp2823
g48
(g69
g50
NtRp2824
(dp2825
g53
(dp2826
g73
g74
ssg62
g2820
sg55
(lp2827
S'HTTP_CONNECTION'
p2828
asbag48
(g69
g50
NtRp2829
(dp2830
g53
(dp2831
g80
g81
ssg62
g2820
sg55
(lp2832
S':'
asbag48
(g69
g50
NtRp2833
(dp2834
g53
(dp2835
sg62
g2820
sg55
(lp2836
g48
(g49
g50
NtRp2837
(dp2838
g53
(dp2839
g61
I3
ssg62
g2833
sg55
(lp2840
g1186
asbasbasbag48
(g64
g50
NtRp2841
(dp2842
g53
(dp2843
sg62
g2732
sg55
(lp2844
g48
(g69
g50
NtRp2845
(dp2846
g53
(dp2847
g73
g74
ssg62
g2841
sg55
(lp2848
S'HTTP_COOKIE'
p2849
asbag48
(g69
g50
NtRp2850
(dp2851
g53
(dp2852
g80
g81
ssg62
g2841
sg55
(lp2853
S':'
asbag48
(g69
g50
NtRp2854
(dp2855
g53
(dp2856
sg62
g2841
sg55
(lp2857
g48
(g49
g50
NtRp2858
(dp2859
g53
(dp2860
g61
I3
ssg62
g2854
sg55
(lp2861
g1208
asbasbasbag48
(g64
g50
NtRp2862
(dp2863
g53
(dp2864
sg62
g2732
sg55
(lp2865
g48
(g69
g50
NtRp2866
(dp2867
g53
(dp2868
g73
g74
ssg62
g2862
sg55
(lp2869
S'HTTP_HOST'
p2870
asbag48
(g69
g50
NtRp2871
(dp2872
g53
(dp2873
g80
g81
ssg62
g2862
sg55
(lp2874
S':'
asbag48
(g69
g50
NtRp2875
(dp2876
g53
(dp2877
sg62
g2862
sg55
(lp2878
g48
(g49
g50
NtRp2879
(dp2880
g53
(dp2881
g61
I3
ssg62
g2875
sg55
(lp2882
g1230
asbasbasbag48
(g64
g50
NtRp2883
(dp2884
g53
(dp2885
sg62
g2732
sg55
(lp2886
g48
(g69
g50
NtRp2887
(dp2888
g53
(dp2889
g73
g74
ssg62
g2883
sg55
(lp2890
S'HTTP_USER_AGENT'
p2891
asbag48
(g69
g50
NtRp2892
(dp2893
g53
(dp2894
g80
g81
ssg62
g2883
sg55
(lp2895
S':'
asbag48
(g69
g50
NtRp2896
(dp2897
g53
(dp2898
sg62
g2883
sg55
(lp2899
g48
(g49
g50
NtRp2900
(dp2901
g53
(dp2902
g61
I3
ssg62
g2896
sg55
(lp2903
g1252
asbasbasbag48
(g64
g50
NtRp2904
(dp2905
g53
(dp2906
sg62
g2732
sg55
(lp2907
g48
(g69
g50
NtRp2908
(dp2909
g53
(dp2910
g73
g74
ssg62
g2904
sg55
(lp2911
S'PATH_INFO'
p2912
asbag48
(g69
g50
NtRp2913
(dp2914
g53
(dp2915
g80
g81
ssg62
g2904
sg55
(lp2916
S':'
asbag48
(g69
g50
NtRp2917
(dp2918
g53
(dp2919
sg62
g2904
sg55
(lp2920
g48
(g49
g50
NtRp2921
(dp2922
g53
(dp2923
g61
I3
ssg62
g2917
sg55
(lp2924
g1295
asbasbasbag48
(g64
g50
NtRp2925
(dp2926
g53
(dp2927
sg62
g2732
sg55
(lp2928
g48
(g69
g50
NtRp2929
(dp2930
g53
(dp2931
g73
g74
ssg62
g2925
sg55
(lp2932
S'QUERY_STRING'
p2933
asbag48
(g69
g50
NtRp2934
(dp2935
g53
(dp2936
g80
g81
ssg62
g2925
sg55
(lp2937
S':'
asbag48
(g69
g50
NtRp2938
(dp2939
g53
(dp2940
sg62
g2925
sg55
(lp2941
g48
(g49
g50
NtRp2942
(dp2943
g53
(dp2944
g61
I3
ssg62
g2938
sg55
(lp2945
g1317
asbasbasbag48
(g64
g50
NtRp2946
(dp2947
g53
(dp2948
sg62
g2732
sg55
(lp2949
g48
(g69
g50
NtRp2950
(dp2951
g53
(dp2952
g73
g74
ssg62
g2946
sg55
(lp2953
S'REMOTE_ADDR'
p2954
asbag48
(g69
g50
NtRp2955
(dp2956
g53
(dp2957
g80
g81
ssg62
g2946
sg55
(lp2958
S':'
asbag48
(g69
g50
NtRp2959
(dp2960
g53
(dp2961
sg62
g2946
sg55
(lp2962
g48
(g49
g50
NtRp2963
(dp2964
g53
(dp2965
g61
I3
ssg62
g2959
sg55
(lp2966
g181
asbasbasbag48
(g64
g50
NtRp2967
(dp2968
g53
(dp2969
sg62
g2732
sg55
(lp2970
g48
(g69
g50
NtRp2971
(dp2972
g53
(dp2973
g73
g74
ssg62
g2967
sg55
(lp2974
S'REMOTE_PORT'
p2975
asbag48
(g69
g50
NtRp2976
(dp2977
g53
(dp2978
g80
g81
ssg62
g2967
sg55
(lp2979
S':'
asbag48
(g69
g50
NtRp2980
(dp2981
g53
(dp2982
sg62
g2967
sg55
(lp2983
g48
(g49
g50
NtRp2984
(dp2985
g53
(dp2986
g61
I3
ssg62
g2980
sg55
(lp2987
g1360
asbasbasbag48
(g64
g50
NtRp2988
(dp2989
g53
(dp2990
sg62
g2732
sg55
(lp2991
g48
(g69
g50
NtRp2992
(dp2993
g53
(dp2994
g73
g74
ssg62
g2988
sg55
(lp2995
S'REQUEST_METHOD'
p2996
asbag48
(g69
g50
NtRp2997
(dp2998
g53
(dp2999
g80
g81
ssg62
g2988
sg55
(lp3000
S':'
asbag48
(g69
g50
NtRp3001
(dp3002
g53
(dp3003
sg62
g2988
sg55
(lp3004
g48
(g49
g50
NtRp3005
(dp3006
g53
(dp3007
g61
I3
ssg62
g3001
sg55
(lp3008
g1382
asbasbasbag48
(g64
g50
NtRp3009
(dp3010
g53
(dp3011
sg62
g2732
sg55
(lp3012
g48
(g69
g50
NtRp3013
(dp3014
g53
(dp3015
g73
g74
ssg62
g3009
sg55
(lp3016
S'REQUEST_URI'
p3017
asbag48
(g69
g50
NtRp3018
(dp3019
g53
(dp3020
g80
g81
ssg62
g3009
sg55
(lp3021
S':'
asbag48
(g69
g50
NtRp3022
(dp3023
g53
(dp3024
sg62
g3009
sg55
(lp3025
g48
(g49
g50
NtRp3026
(dp3027
g53
(dp3028
g61
I3
ssg62
g3022
sg55
(lp3029
g1404
asbasbasbag48
(g64
g50
NtRp3030
(dp3031
g53
(dp3032
sg62
g2732
sg55
(lp3033
g48
(g69
g50
NtRp3034
(dp3035
g53
(dp3036
g73
g74
ssg62
g3030
sg55
(lp3037
S'SCRIPT_NAME'
p3038
asbag48
(g69
g50
NtRp3039
(dp3040
g53
(dp3041
g80
g81
ssg62
g3030
sg55
(lp3042
S':'
asbag48
(g69
g50
NtRp3043
(dp3044
g53
(dp3045
sg62
g3030
sg55
(lp3046
g48
(g49
g50
NtRp3047
(dp3048
g53
(dp3049
g61
I3
ssg62
g3043
sg55
(lp3050
S''
asbasbasbag48
(g64
g50
NtRp3051
(dp3052
g53
(dp3053
sg62
g2732
sg55
(lp3054
g48
(g69
g50
NtRp3055
(dp3056
g53
(dp3057
g73
g74
ssg62
g3051
sg55
(lp3058
S'SERVER_NAME'
p3059
asbag48
(g69
g50
NtRp3060
(dp3061
g53
(dp3062
g80
g81
ssg62
g3051
sg55
(lp3063
S':'
asbag48
(g69
g50
NtRp3064
(dp3065
g53
(dp3066
sg62
g3051
sg55
(lp3067
g48
(g49
g50
NtRp3068
(dp3069
g53
(dp3070
g61
I3
ssg62
g3064
sg55
(lp3071
g1447
asbasbasbag48
(g64
g50
NtRp3072
(dp3073
g53
(dp3074
sg62
g2732
sg55
(lp3075
g48
(g69
g50
NtRp3076
(dp3077
g53
(dp3078
g73
g74
ssg62
g3072
sg55
(lp3079
S'SERVER_PORT'
p3080
asbag48
(g69
g50
NtRp3081
(dp3082
g53
(dp3083
g80
g81
ssg62
g3072
sg55
(lp3084
S':'
asbag48
(g69
g50
NtRp3085
(dp3086
g53
(dp3087
sg62
g3072
sg55
(lp3088
g48
(g49
g50
NtRp3089
(dp3090
g53
(dp3091
g61
I3
ssg62
g3085
sg55
(lp3092
g1469
asbasbasbag48
(g64
g50
NtRp3093
(dp3094
g53
(dp3095
sg62
g2732
sg55
(lp3096
g48
(g69
g50
NtRp3097
(dp3098
g53
(dp3099
g73
g74
ssg62
g3093
sg55
(lp3100
S'SERVER_PROTOCOL'
p3101
asbag48
(g69
g50
NtRp3102
(dp3103
g53
(dp3104
g80
g81
ssg62
g3093
sg55
(lp3105
S':'
asbag48
(g69
g50
NtRp3106
(dp3107
g53
(dp3108
sg62
g3093
sg55
(lp3109
g48
(g49
g50
NtRp3110
(dp3111
g53
(dp3112
g61
I3
ssg62
g3106
sg55
(lp3113
g1491
asbasbasbag48
(g64
g50
NtRp3114
(dp3115
g53
(dp3116
sg62
g2732
sg55
(lp3117
g48
(g69
g50
NtRp3118
(dp3119
g53
(dp3120
g73
g74
ssg62
g3114
sg55
(lp3121
S'SERVER_SOFTWARE'
p3122
asbag48
(g69
g50
NtRp3123
(dp3124
g53
(dp3125
g80
g81
ssg62
g3114
sg55
(lp3126
S':'
asbag48
(g69
g50
NtRp3127
(dp3128
g53
(dp3129
sg62
g3114
sg55
(lp3130
g48
(g49
g50
NtRp3131
(dp3132
g53
(dp3133
g61
I3
ssg62
g3127
sg55
(lp3134
g1513
asbasbasbag48
(g64
g50
NtRp3135
(dp3136
g53
(dp3137
sg62
g2732
sg55
(lp3138
g48
(g69
g50
NtRp3139
(dp3140
g53
(dp3141
g73
g74
ssg62
g3135
sg55
(lp3142
S'WEB2PY_ORIGINAL_URI'
p3143
asbag48
(g69
g50
NtRp3144
(dp3145
g53
(dp3146
g80
g81
ssg62
g3135
sg55
(lp3147
S':'
asbag48
(g69
g50
NtRp3148
(dp3149
g53
(dp3150
sg62
g3135
sg55
(lp3151
g48
(g49
g50
NtRp3152
(dp3153
g53
(dp3154
g61
I3
ssg62
g3148
sg55
(lp3155
g1557
asbasbasbag48
(g64
g50
NtRp3156
(dp3157
g53
(dp3158
sg62
g2732
sg55
(lp3159
g48
(g69
g50
NtRp3160
(dp3161
g53
(dp3162
g73
g74
ssg62
g3156
sg55
(lp3163
S'wsgi.errors'
p3164
asbag48
(g69
g50
NtRp3165
(dp3166
g53
(dp3167
g80
g81
ssg62
g3156
sg55
(lp3168
S':'
asbag48
(g69
g50
NtRp3169
(dp3170
g53
(dp3171
sg62
g3156
sg55
(lp3172
g48
(g49
g50
NtRp3173
(dp3174
g53
(dp3175
g61
I3
ssg62
g3169
sg55
(lp3176
S"<open file '<stderr>', mode 'w' at 0x01D300B0>"
p3177
asbasbasbag48
(g64
g50
NtRp3178
(dp3179
g53
(dp3180
sg62
g2732
sg55
(lp3181
g48
(g69
g50
NtRp3182
(dp3183
g53
(dp3184
g73
g74
ssg62
g3178
sg55
(lp3185
S'wsgi.file_wrapper'
p3186
asbag48
(g69
g50
NtRp3187
(dp3188
g53
(dp3189
g80
g81
ssg62
g3178
sg55
(lp3190
S':'
asbag48
(g69
g50
NtRp3191
(dp3192
g53
(dp3193
sg62
g3178
sg55
(lp3194
g48
(g49
g50
NtRp3195
(dp3196
g53
(dp3197
g61
I3
ssg62
g3191
sg55
(lp3198
S'<class wsgiref.util.FileWrapper at 0x0318A600>'
p3199
asbasbasbag48
(g64
g50
NtRp3200
(dp3201
g53
(dp3202
sg62
g2732
sg55
(lp3203
g48
(g69
g50
NtRp3204
(dp3205
g53
(dp3206
g73
g74
ssg62
g3200
sg55
(lp3207
S'wsgi.input'
p3208
asbag48
(g69
g50
NtRp3209
(dp3210
g53
(dp3211
g80
g81
ssg62
g3200
sg55
(lp3212
S':'
asbag48
(g69
g50
NtRp3213
(dp3214
g53
(dp3215
sg62
g3200
sg55
(lp3216
g48
(g49
g50
NtRp3217
(dp3218
g53
(dp3219
g61
I3
ssg62
g3213
sg55
(lp3220
S'<cStringIO.StringO object at 0x08568EC0>'
p3221
asbasbasbag48
(g64
g50
NtRp3222
(dp3223
g53
(dp3224
sg62
g2732
sg55
(lp3225
g48
(g69
g50
NtRp3226
(dp3227
g53
(dp3228
g73
g74
ssg62
g3222
sg55
(lp3229
S'wsgi.multiprocess'
p3230
asbag48
(g69
g50
NtRp3231
(dp3232
g53
(dp3233
g80
g81
ssg62
g3222
sg55
(lp3234
S':'
asbag48
(g69
g50
NtRp3235
(dp3236
g53
(dp3237
sg62
g3222
sg55
(lp3238
g48
(g49
g50
NtRp3239
(dp3240
g53
(dp3241
g61
I3
ssg62
g3235
sg55
(lp3242
g91
asbasbasbag48
(g64
g50
NtRp3243
(dp3244
g53
(dp3245
sg62
g2732
sg55
(lp3246
g48
(g69
g50
NtRp3247
(dp3248
g53
(dp3249
g73
g74
ssg62
g3243
sg55
(lp3250
S'wsgi.multithread'
p3251
asbag48
(g69
g50
NtRp3252
(dp3253
g53
(dp3254
g80
g81
ssg62
g3243
sg55
(lp3255
S':'
asbag48
(g69
g50
NtRp3256
(dp3257
g53
(dp3258
sg62
g3243
sg55
(lp3259
g48
(g49
g50
NtRp3260
(dp3261
g53
(dp3262
g61
I3
ssg62
g3256
sg55
(lp3263
g1775
asbasbasbag48
(g64
g50
NtRp3264
(dp3265
g53
(dp3266
sg62
g2732
sg55
(lp3267
g48
(g69
g50
NtRp3268
(dp3269
g53
(dp3270
g73
g74
ssg62
g3264
sg55
(lp3271
S'wsgi.run_once'
p3272
asbag48
(g69
g50
NtRp3273
(dp3274
g53
(dp3275
g80
g81
ssg62
g3264
sg55
(lp3276
S':'
asbag48
(g69
g50
NtRp3277
(dp3278
g53
(dp3279
sg62
g3264
sg55
(lp3280
g48
(g49
g50
NtRp3281
(dp3282
g53
(dp3283
g61
I3
ssg62
g3277
sg55
(lp3284
g91
asbasbasbag48
(g64
g50
NtRp3285
(dp3286
g53
(dp3287
sg62
g2732
sg55
(lp3288
g48
(g69
g50
NtRp3289
(dp3290
g53
(dp3291
g73
g74
ssg62
g3285
sg55
(lp3292
S'wsgi.url_scheme'
p3293
asbag48
(g69
g50
NtRp3294
(dp3295
g53
(dp3296
g80
g81
ssg62
g3285
sg55
(lp3297
S':'
asbag48
(g69
g50
NtRp3298
(dp3299
g53
(dp3300
sg62
g3285
sg55
(lp3301
g48
(g49
g50
NtRp3302
(dp3303
g53
(dp3304
g61
I3
ssg62
g3298
sg55
(lp3305
g1818
asbasbasbag48
(g64
g50
NtRp3306
(dp3307
g53
(dp3308
sg62
g2732
sg55
(lp3309
g48
(g69
g50
NtRp3310
(dp3311
g53
(dp3312
g73
g74
ssg62
g3306
sg55
(lp3313
S'wsgi.version'
p3314
asbag48
(g69
g50
NtRp3315
(dp3316
g53
(dp3317
g80
g81
ssg62
g3306
sg55
(lp3318
S':'
asbag48
(g69
g50
NtRp3319
(dp3320
g53
(dp3321
sg62
g3306
sg55
(lp3322
g48
(g49
g50
NtRp3323
(dp3324
g53
(dp3325
g61
I3
ssg62
g3319
sg55
(lp3326
S'1'
asbasbasbasbasbasbasbasbasbasbasbasbasbsS'frames'
p3327
(lp3328
(dp3329
S'file'
p3330
S'D:\\git_projs\\Gabblista\\web2py\\web2py\\gluon\\restricted.py'
p3331
sS'dump'
p3332
(dp3333
S'environment'
p3334
S"{'A': <class 'gluon.html.A'>, 'Auth': <class 'gluon.tools.Auth'>, 'B': <class 'gluon.html.B'>, 'BEAUTIFY': <class 'gluon.html.BEAUTIFY'>, 'BODY': <class 'gluon.html.BODY'>, 'BR': <class 'gluon.html.BR'>, 'BUTTON': <class 'gluon.html.BUTTON'>, 'CAT': <class 'gluon.html.CAT'>, 'CENTER': <class 'gluon.html.CENTER'>, 'CLEANUP': <class 'gluon.validators.CLEANUP'>, ...}"
p3335
sS'ccode'
p3336
S'<code object <module> at 08178B60, file "D:\\git_...plications\\Gabb1\\controllers/fb_serv.py", line 2>'
p3337
ssS'lnum'
p3338
I194
sS'lines'
p3339
(dp3340
I192
S'        else:'
p3341
sI193
S'            ccode = compile2(code,layer)'
p3342
sI194
S'        exec ccode in environment'
p3343
sI195
S'    except HTTP:'
p3344
sI196
S'        raise'
p3345
sI197
S'    except Exception, error:'
p3346
sI198
S'        # XXX Show exception in Wing IDE if running in debugger'
p3347
sI189
S'    try:'
p3348
sI190
S'        if type(code) == types.CodeType:'
p3349
sI191
S'            ccode = code'
p3350
ssS'call'
p3351
S"(code='# -*- coding: utf-8 -*-\\nfrom random import Rando...sponse._vars=response._caller(serve_player_data)\\n', environment={'A': <class 'gluon.html.A'>, 'Auth': <class 'gluon.tools.Auth'>, 'B': <class 'gluon.html.B'>, 'BEAUTIFY': <class 'gluon.html.BEAUTIFY'>, 'BODY': <class 'gluon.html.BODY'>, 'BR': <class 'gluon.html.BR'>, 'BUTTON': <class 'gluon.html.BUTTON'>, 'CAT': <class 'gluon.html.CAT'>, 'CENTER': <class 'gluon.html.CENTER'>, 'CLEANUP': <class 'gluon.validators.CLEANUP'>, ...}, layer=r'D:\\git_projs\\Gabblista\\web2py\\web2py\\applications\\Gabb1\\controllers/fb_serv.py')"
p3352
sS'func'
p3353
S'restricted'
p3354
sa(dp3355
g3330
S'D:\\git_projs\\Gabblista\\web2py\\web2py\\applications\\Gabb1\\controllers\\fb_serv.py'
p3356
sg3332
(dp3357
sg3338
I119
sg3339
(dp3358
I109
S'    # 1 - 3x - 30%'
p3359
sI110
S'    # 2 - 4x - 10%'
p3360
sI111
S'    rand_int = random.randint(0,10)'
p3361
sI112
S''
sI113
S'    if rand_int < 6:'
p3362
sI114
S'        return "0"'
p3363
sI115
S'    elif rand_int <9:'
p3364
sI116
S'        return "1"'
p3365
sI117
S'    else:'
p3366
sI118
S'        return "2"'
p3367
ssg3351
S'()'
p3368
sg3353
S'<module>'
p3369
sa(dp3370
g3330
S'D:\\git_projs\\Gabblista\\web2py\\web2py\\gluon\\globals.py'
p3371
sg3332
(dp3372
S'self'
p3373
S'undefined'
p3374
sS'f'
S'<function serve_player_data at 0x085716F0>'
p3375
ssg3338
I149
sg3339
(dp3376
I144
S'        self.meta = Storage()      # used by web2py_ajax.html'
p3377
sI145
S'        self.menu = []             # used by the default view layout'
p3378
sI146
S'        self.files = []            # used by web2py_ajax.html'
p3379
sI147
S'        self.generic_patterns = [] # patterns to allow generic views'
p3380
sI148
S'        self._vars = None'
p3381
sI149
S'        self._caller = lambda f: f()'
p3382
sI150
S'        self._view_environment = None'
p3383
sI151
S'        self._custom_commit = None'
p3384
sI152
S'        self._custom_rollback = None'
p3385
sI153
S''
ssg3351
S'(f=<function serve_player_data at 0x085716F0>)'
p3386
sg3353
S'<lambda>'
p3387
sa(dp3388
g3330
S'D:\\git_projs\\Gabblista\\web2py\\web2py\\applications\\Gabb1\\controllers\\fb_serv.py'
p3389
sg3332
(dp3390
S'js_1'
p3391
g3374
ssg3338
I18
sg3339
(dp3392
I13
S''
sI14
S'    player_ID = request.vars.player_ID'
p3393
sI15
S'    opponent_ID = request.vars.opponent_ID'
p3394
sI16
S'    game_ID = request.vars.game_ID'
p3395
sI17
S''
sI18
S'    game_data = get_player_data(player_ID,opponent_ID,game_ID);'
p3396
sI19
S'    return dict(game_data=game_data)'
p3397
sI20
S''
sI21
S'def get_player_data(player_ID,opponent_ID,game_ID):'
p3398
sI22
S''
ssg3351
S'()'
p3399
sg3353
S'serve_player_data'
p3400
sa(dp3401
g3330
S'D:\\git_projs\\Gabblista\\web2py\\web2py\\applications\\Gabb1\\controllers\\fb_serv.py'
p3402
sg3332
(dp3403
S'js_3'
p3404
g3374
ssg3338
I24
sg3339
(dp3405
I19
S'    return dict(game_data=game_data)'
p3406
sI20
S''
sI21
S'def get_player_data(player_ID,opponent_ID,game_ID):'
p3407
sI22
S''
sI23
S'    # Generate the player data'
p3408
sI24
S'    if(int(game_ID)==0):'
p3409
sI25
S'        letter_data = generate_new_letter_data()'
p3410
sI26
S'        event_data = generate_new_event_data()'
p3411
sI27
S'#        db.game_data_table.insert(player_1_ID = int(player_ID),'
p3412
sI28
S'#                                  player_2_ID = int(opponent_ID),'
p3413
ssg3351
S'(player_ID=None, opponent_ID=None, game_ID=None)'
p3414
sg3353
S'get_player_data'
p3415
sasS'pyver'
p3416
S'Python 2.5.4: C:\\python25\\python.exe'
p3417
sS'session'
p3418
g48
(g49
g50
NtRp3419
(dp3420
g53
(dp3421
sg55
(lp3422
g48
(g57
g50
NtRp3423
(dp3424
g53
(dp3425
g61
I5
ssg62
Nsg55
(lp3426
sbasbsS'etype'
p3427
S"<type 'exceptions.TypeError'>"
p3428
sS'date'
p3429
S'Thu Jan 19 15:18:46 2012'
p3430
sS'response'
p3431
g48
(g49
g50
NtRp3432
(dp3433
g53
(dp3434
sg55
(lp3435
g48
(g57
g50
NtRp3436
(dp3437
g53
(dp3438
g61
I5
ssg62
Nsg55
(lp3439
g48
(g64
g50
NtRp3440
(dp3441
g53
(dp3442
sg62
g3436
sg55
(lp3443
g48
(g69
g50
NtRp3444
(dp3445
g53
(dp3446
g73
g74
ssg62
g3440
sg55
(lp3447
g146
asbag48
(g69
g50
NtRp3448
(dp3449
g53
(dp3450
g80
g81
ssg62
g3440
sg55
(lp3451
S':'
asbag48
(g69
g50
NtRp3452
(dp3453
g53
(dp3454
sg62
g3440
sg55
(lp3455
g48
(g49
g50
NtRp3456
(dp3457
g53
(dp3458
g61
I5
ssg62
g3452
sg55
(lp3459
S'<cStringIO.StringO object at 0x086BB720>'
p3460
asbasbasbag48
(g64
g50
NtRp3461
(dp3462
g53
(dp3463
sg62
g3436
sg55
(lp3464
g48
(g69
g50
NtRp3465
(dp3466
g53
(dp3467
g73
g74
ssg62
g3461
sg55
(lp3468
g212
asbag48
(g69
g50
NtRp3469
(dp3470
g53
(dp3471
g80
g81
ssg62
g3461
sg55
(lp3472
S':'
asbag48
(g69
g50
NtRp3473
(dp3474
g53
(dp3475
sg62
g3461
sg55
(lp3476
g48
(g49
g50
NtRp3477
(dp3478
g53
(dp3479
g61
I5
ssg62
g3473
sg55
(lp3480
g48
(g57
g50
NtRp3481
(dp3482
g53
(dp3483
g61
I4
ssg62
Nsg55
(lp3484
g48
(g64
g50
NtRp3485
(dp3486
g53
(dp3487
sg62
g3481
sg55
(lp3488
g48
(g69
g50
NtRp3489
(dp3490
g53
(dp3491
g73
g74
ssg62
g3485
sg55
(lp3492
S'session_id_gabb1'
p3493
asbag48
(g69
g50
NtRp3494
(dp3495
g53
(dp3496
g80
g81
ssg62
g3485
sg55
(lp3497
S':'
asbag48
(g69
g50
NtRp3498
(dp3499
g53
(dp3500
sg62
g3485
sg55
(lp3501
g48
(g49
g50
NtRp3502
(dp3503
g53
(dp3504
g61
I4
ssg62
g3498
sg55
(lp3505
g48
(g57
g50
NtRp3506
(dp3507
g53
(dp3508
g61
I3
ssg62
Nsg55
(lp3509
g48
(g64
g50
NtRp3510
(dp3511
g53
(dp3512
sg62
g3506
sg55
(lp3513
g48
(g69
g50
NtRp3514
(dp3515
g53
(dp3516
g73
g74
ssg62
g3510
sg55
(lp3517
g262
asbag48
(g69
g50
NtRp3518
(dp3519
g53
(dp3520
g80
g81
ssg62
g3510
sg55
(lp3521
S':'
asbag48
(g69
g50
NtRp3522
(dp3523
g53
(dp3524
sg62
g3510
sg55
(lp3525
g48
(g49
g50
NtRp3526
(dp3527
g53
(dp3528
g61
I3
ssg62
g3522
sg55
(lp3529
S''
asbasbasbag48
(g64
g50
NtRp3530
(dp3531
g53
(dp3532
sg62
g3506
sg55
(lp3533
g48
(g69
g50
NtRp3534
(dp3535
g53
(dp3536
g73
g74
ssg62
g3530
sg55
(lp3537
g283
asbag48
(g69
g50
NtRp3538
(dp3539
g53
(dp3540
g80
g81
ssg62
g3530
sg55
(lp3541
S':'
asbag48
(g69
g50
NtRp3542
(dp3543
g53
(dp3544
sg62
g3530
sg55
(lp3545
g48
(g49
g50
NtRp3546
(dp3547
g53
(dp3548
g61
I3
ssg62
g3542
sg55
(lp3549
S''
asbasbasbag48
(g64
g50
NtRp3550
(dp3551
g53
(dp3552
sg62
g3506
sg55
(lp3553
g48
(g69
g50
NtRp3554
(dp3555
g53
(dp3556
g73
g74
ssg62
g3550
sg55
(lp3557
g304
asbag48
(g69
g50
NtRp3558
(dp3559
g53
(dp3560
g80
g81
ssg62
g3550
sg55
(lp3561
S':'
asbag48
(g69
g50
NtRp3562
(dp3563
g53
(dp3564
sg62
g3550
sg55
(lp3565
g48
(g49
g50
NtRp3566
(dp3567
g53
(dp3568
g61
I3
ssg62
g3562
sg55
(lp3569
S''
asbasbasbag48
(g64
g50
NtRp3570
(dp3571
g53
(dp3572
sg62
g3506
sg55
(lp3573
g48
(g69
g50
NtRp3574
(dp3575
g53
(dp3576
g73
g74
ssg62
g3570
sg55
(lp3577
g325
asbag48
(g69
g50
NtRp3578
(dp3579
g53
(dp3580
g80
g81
ssg62
g3570
sg55
(lp3581
S':'
asbag48
(g69
g50
NtRp3582
(dp3583
g53
(dp3584
sg62
g3570
sg55
(lp3585
g48
(g49
g50
NtRp3586
(dp3587
g53
(dp3588
g61
I3
ssg62
g3582
sg55
(lp3589
S''
asbasbasbag48
(g64
g50
NtRp3590
(dp3591
g53
(dp3592
sg62
g3506
sg55
(lp3593
g48
(g69
g50
NtRp3594
(dp3595
g53
(dp3596
g73
g74
ssg62
g3590
sg55
(lp3597
g346
asbag48
(g69
g50
NtRp3598
(dp3599
g53
(dp3600
g80
g81
ssg62
g3590
sg55
(lp3601
S':'
asbag48
(g69
g50
NtRp3602
(dp3603
g53
(dp3604
sg62
g3590
sg55
(lp3605
g48
(g49
g50
NtRp3606
(dp3607
g53
(dp3608
g61
I3
ssg62
g3602
sg55
(lp3609
S'/'
asbasbasbag48
(g64
g50
NtRp3610
(dp3611
g53
(dp3612
sg62
g3506
sg55
(lp3613
g48
(g69
g50
NtRp3614
(dp3615
g53
(dp3616
g73
g74
ssg62
g3610
sg55
(lp3617
g367
asbag48
(g69
g50
NtRp3618
(dp3619
g53
(dp3620
g80
g81
ssg62
g3610
sg55
(lp3621
S':'
asbag48
(g69
g50
NtRp3622
(dp3623
g53
(dp3624
sg62
g3610
sg55
(lp3625
g48
(g49
g50
NtRp3626
(dp3627
g53
(dp3628
g61
I3
ssg62
g3622
sg55
(lp3629
S''
asbasbasbag48
(g64
g50
NtRp3630
(dp3631
g53
(dp3632
sg62
g3506
sg55
(lp3633
g48
(g69
g50
NtRp3634
(dp3635
g53
(dp3636
g73
g74
ssg62
g3630
sg55
(lp3637
g388
asbag48
(g69
g50
NtRp3638
(dp3639
g53
(dp3640
g80
g81
ssg62
g3630
sg55
(lp3641
S':'
asbag48
(g69
g50
NtRp3642
(dp3643
g53
(dp3644
sg62
g3630
sg55
(lp3645
g48
(g49
g50
NtRp3646
(dp3647
g53
(dp3648
g61
I3
ssg62
g3642
sg55
(lp3649
S''
asbasbasbasbasbasbasbasbasbasbasbag48
(g64
g50
NtRp3650
(dp3651
g53
(dp3652
sg62
g3436
sg55
(lp3653
g48
(g69
g50
NtRp3654
(dp3655
g53
(dp3656
g73
g74
ssg62
g3650
sg55
(lp3657
S'files'
p3658
asbag48
(g69
g50
NtRp3659
(dp3660
g53
(dp3661
g80
g81
ssg62
g3650
sg55
(lp3662
S':'
asbag48
(g69
g50
NtRp3663
(dp3664
g53
(dp3665
sg62
g3650
sg55
(lp3666
g48
(g49
g50
NtRp3667
(dp3668
g53
(dp3669
g61
I5
ssg62
g3663
sg55
(lp3670
g48
(g57
g50
NtRp3671
(dp3672
g53
(dp3673
g61
I4
ssg62
Nsg55
(lp3674
sbasbasbasbag48
(g64
g50
NtRp3675
(dp3676
g53
(dp3677
sg62
g3436
sg55
(lp3678
g48
(g69
g50
NtRp3679
(dp3680
g53
(dp3681
g73
g74
ssg62
g3675
sg55
(lp3682
S'flash'
p3683
asbag48
(g69
g50
NtRp3684
(dp3685
g53
(dp3686
g80
g81
ssg62
g3675
sg55
(lp3687
S':'
asbag48
(g69
g50
NtRp3688
(dp3689
g53
(dp3690
sg62
g3675
sg55
(lp3691
g48
(g49
g50
NtRp3692
(dp3693
g53
(dp3694
g61
I5
ssg62
g3688
sg55
(lp3695
S''
asbasbasbag48
(g64
g50
NtRp3696
(dp3697
g53
(dp3698
sg62
g3436
sg55
(lp3699
g48
(g69
g50
NtRp3700
(dp3701
g53
(dp3702
g73
g74
ssg62
g3696
sg55
(lp3703
S'generic_patterns'
p3704
asbag48
(g69
g50
NtRp3705
(dp3706
g53
(dp3707
g80
g81
ssg62
g3696
sg55
(lp3708
S':'
asbag48
(g69
g50
NtRp3709
(dp3710
g53
(dp3711
sg62
g3696
sg55
(lp3712
g48
(g49
g50
NtRp3713
(dp3714
g53
(dp3715
g61
I5
ssg62
g3709
sg55
(lp3716
g48
(g57
g50
NtRp3717
(dp3718
g53
(dp3719
g61
I4
ssg62
Nsg55
(lp3720
g48
(g64
g50
NtRp3721
(dp3722
g53
(dp3723
sg62
g3717
sg55
(lp3724
g48
(g69
g50
NtRp3725
(dp3726
g53
(dp3727
sg62
g3721
sg55
(lp3728
g48
(g49
g50
NtRp3729
(dp3730
g53
(dp3731
g61
I4
ssg62
g3725
sg55
(lp3732
S'*'
asbasbasbasbasbasbasbag48
(g64
g50
NtRp3733
(dp3734
g53
(dp3735
sg62
g3436
sg55
(lp3736
g48
(g69
g50
NtRp3737
(dp3738
g53
(dp3739
g73
g74
ssg62
g3733
sg55
(lp3740
S'headers'
p3741
asbag48
(g69
g50
NtRp3742
(dp3743
g53
(dp3744
g80
g81
ssg62
g3733
sg55
(lp3745
S':'
asbag48
(g69
g50
NtRp3746
(dp3747
g53
(dp3748
sg62
g3733
sg55
(lp3749
g48
(g49
g50
NtRp3750
(dp3751
g53
(dp3752
g61
I5
ssg62
g3746
sg55
(lp3753
g48
(g57
g50
NtRp3754
(dp3755
g53
(dp3756
g61
I4
ssg62
Nsg55
(lp3757
g48
(g64
g50
NtRp3758
(dp3759
g53
(dp3760
sg62
g3754
sg55
(lp3761
g48
(g69
g50
NtRp3762
(dp3763
g53
(dp3764
g73
g74
ssg62
g3758
sg55
(lp3765
S'Cache-Control'
p3766
asbag48
(g69
g50
NtRp3767
(dp3768
g53
(dp3769
g80
g81
ssg62
g3758
sg55
(lp3770
S':'
asbag48
(g69
g50
NtRp3771
(dp3772
g53
(dp3773
sg62
g3758
sg55
(lp3774
g48
(g49
g50
NtRp3775
(dp3776
g53
(dp3777
g61
I4
ssg62
g3771
sg55
(lp3778
S'no-store, no-cache, must-revalidate, post-check=0, pre-check=0'
p3779
asbasbasbag48
(g64
g50
NtRp3780
(dp3781
g53
(dp3782
sg62
g3754
sg55
(lp3783
g48
(g69
g50
NtRp3784
(dp3785
g53
(dp3786
g73
g74
ssg62
g3780
sg55
(lp3787
S'Content-Type'
p3788
asbag48
(g69
g50
NtRp3789
(dp3790
g53
(dp3791
g80
g81
ssg62
g3780
sg55
(lp3792
S':'
asbag48
(g69
g50
NtRp3793
(dp3794
g53
(dp3795
sg62
g3780
sg55
(lp3796
g48
(g49
g50
NtRp3797
(dp3798
g53
(dp3799
g61
I4
ssg62
g3793
sg55
(lp3800
S'text/plain; charset=utf-8'
p3801
asbasbasbag48
(g64
g50
NtRp3802
(dp3803
g53
(dp3804
sg62
g3754
sg55
(lp3805
g48
(g69
g50
NtRp3806
(dp3807
g53
(dp3808
g73
g74
ssg62
g3802
sg55
(lp3809
S'Expires'
p3810
asbag48
(g69
g50
NtRp3811
(dp3812
g53
(dp3813
g80
g81
ssg62
g3802
sg55
(lp3814
S':'
asbag48
(g69
g50
NtRp3815
(dp3816
g53
(dp3817
sg62
g3802
sg55
(lp3818
g48
(g49
g50
NtRp3819
(dp3820
g53
(dp3821
g61
I4
ssg62
g3815
sg55
(lp3822
S'Thu, 19 Jan 2012 20:18:46 GMT'
p3823
asbasbasbag48
(g64
g50
NtRp3824
(dp3825
g53
(dp3826
sg62
g3754
sg55
(lp3827
g48
(g69
g50
NtRp3828
(dp3829
g53
(dp3830
g73
g74
ssg62
g3824
sg55
(lp3831
S'NingNang'
p3832
asbag48
(g69
g50
NtRp3833
(dp3834
g53
(dp3835
g80
g81
ssg62
g3824
sg55
(lp3836
S':'
asbag48
(g69
g50
NtRp3837
(dp3838
g53
(dp3839
sg62
g3824
sg55
(lp3840
g48
(g49
g50
NtRp3841
(dp3842
g53
(dp3843
g61
I4
ssg62
g3837
sg55
(lp3844
S'Nong'
p3845
asbasbasbag48
(g64
g50
NtRp3846
(dp3847
g53
(dp3848
sg62
g3754
sg55
(lp3849
g48
(g69
g50
NtRp3850
(dp3851
g53
(dp3852
g73
g74
ssg62
g3846
sg55
(lp3853
S'Pragma'
p3854
asbag48
(g69
g50
NtRp3855
(dp3856
g53
(dp3857
g80
g81
ssg62
g3846
sg55
(lp3858
S':'
asbag48
(g69
g50
NtRp3859
(dp3860
g53
(dp3861
sg62
g3846
sg55
(lp3862
g48
(g49
g50
NtRp3863
(dp3864
g53
(dp3865
g61
I4
ssg62
g3859
sg55
(lp3866
S'no-cache'
p3867
asbasbasbasbasbasbasbag48
(g64
g50
NtRp3868
(dp3869
g53
(dp3870
sg62
g3436
sg55
(lp3871
g48
(g69
g50
NtRp3872
(dp3873
g53
(dp3874
g73
g74
ssg62
g3868
sg55
(lp3875
S'menu'
p3876
asbag48
(g69
g50
NtRp3877
(dp3878
g53
(dp3879
g80
g81
ssg62
g3868
sg55
(lp3880
S':'
asbag48
(g69
g50
NtRp3881
(dp3882
g53
(dp3883
sg62
g3868
sg55
(lp3884
g48
(g49
g50
NtRp3885
(dp3886
g53
(dp3887
g61
I5
ssg62
g3881
sg55
(lp3888
g48
(g57
g50
NtRp3889
(dp3890
g53
(dp3891
g61
I4
ssg62
Nsg55
(lp3892
g48
(g64
g50
NtRp3893
(dp3894
g53
(dp3895
sg62
g3889
sg55
(lp3896
g48
(g69
g50
NtRp3897
(dp3898
g53
(dp3899
sg62
g3893
sg55
(lp3900
g48
(g49
g50
NtRp3901
(dp3902
g53
(dp3903
g61
I4
ssg62
g3897
sg55
(lp3904
g48
(g57
g50
NtRp3905
(dp3906
g53
(dp3907
g61
I3
ssg62
Nsg55
(lp3908
g48
(g64
g50
NtRp3909
(dp3910
g53
(dp3911
sg62
g3905
sg55
(lp3912
g48
(g69
g50
NtRp3913
(dp3914
g53
(dp3915
sg62
g3909
sg55
(lp3916
g48
(g49
g50
NtRp3917
(dp3918
g53
(dp3919
g61
I3
ssg62
g3913
sg55
(lp3920
cgluon.languages
lazyT_unpickle
p3921
(S's\x04\x00\x00\x00Home'
tRp3922
asbasbasbag48
(g64
g50
NtRp3923
(dp3924
g53
(dp3925
sg62
g3905
sg55
(lp3926
g48
(g69
g50
NtRp3927
(dp3928
g53
(dp3929
sg62
g3923
sg55
(lp3930
g48
(g49
g50
NtRp3931
(dp3932
g53
(dp3933
g61
I3
ssg62
g3927
sg55
(lp3934
g91
asbasbasbag48
(g64
g50
NtRp3935
(dp3936
g53
(dp3937
sg62
g3905
sg55
(lp3938
g48
(g69
g50
NtRp3939
(dp3940
g53
(dp3941
sg62
g3935
sg55
(lp3942
g48
(g49
g50
NtRp3943
(dp3944
g53
(dp3945
g61
I3
ssg62
g3939
sg55
(lp3946
S'/Gabb1/default/index.txt'
p3947
asbasbasbag48
(g64
g50
NtRp3948
(dp3949
g53
(dp3950
sg62
g3905
sg55
(lp3951
g48
(g69
g50
NtRp3952
(dp3953
g53
(dp3954
sg62
g3948
sg55
(lp3955
g48
(g49
g50
NtRp3956
(dp3957
g53
(dp3958
g61
I3
ssg62
g3952
sg55
(lp3959
g48
(g57
g50
NtRp3960
(dp3961
g53
(dp3962
g61
I2
ssg62
Nsg55
(lp3963
sbasbasbasbasbasbasbasbag48
(g64
g50
NtRp3964
(dp3965
g53
(dp3966
sg62
g3889
sg55
(lp3967
g48
(g69
g50
NtRp3968
(dp3969
g53
(dp3970
sg62
g3964
sg55
(lp3971
g48
(g49
g50
NtRp3972
(dp3973
g53
(dp3974
g61
I4
ssg62
g3968
sg55
(lp3975
g48
(g57
g50
NtRp3976
(dp3977
g53
(dp3978
g61
I3
ssg62
Nsg55
(lp3979
g48
(g64
g50
NtRp3980
(dp3981
g53
(dp3982
sg62
g3976
sg55
(lp3983
g48
(g69
g50
NtRp3984
(dp3985
g53
(dp3986
sg62
g3980
sg55
(lp3987
g48
(g49
g50
NtRp3988
(dp3989
g53
(dp3990
g61
I3
ssg62
g3984
sg55
(lp3991
g3921
(S's\x08\x00\x00\x00This App'
tRp3992
asbasbasbag48
(g64
g50
NtRp3993
(dp3994
g53
(dp3995
sg62
g3976
sg55
(lp3996
g48
(g69
g50
NtRp3997
(dp3998
g53
(dp3999
sg62
g3993
sg55
(lp4000
g48
(g49
g50
NtRp4001
(dp4002
g53
(dp4003
g61
I3
ssg62
g3997
sg55
(lp4004
g91
asbasbasbag48
(g64
g50
NtRp4005
(dp4006
g53
(dp4007
sg62
g3976
sg55
(lp4008
g48
(g69
g50
NtRp4009
(dp4010
g53
(dp4011
sg62
g4005
sg55
(lp4012
g48
(g49
g50
NtRp4013
(dp4014
g53
(dp4015
g61
I3
ssg62
g4009
sg55
(lp4016
S'/admin/default/design/Gabb1.txt'
p4017
asbasbasbag48
(g64
g50
NtRp4018
(dp4019
g53
(dp4020
sg62
g3976
sg55
(lp4021
g48
(g69
g50
NtRp4022
(dp4023
g53
(dp4024
sg62
g4018
sg55
(lp4025
g48
(g49
g50
NtRp4026
(dp4027
g53
(dp4028
g61
I3
ssg62
g4022
sg55
(lp4029
g48
(g57
g50
NtRp4030
(dp4031
g53
(dp4032
g61
I2
ssg62
Nsg55
(lp4033
g48
(g64
g50
NtRp4034
(dp4035
g53
(dp4036
sg62
g4030
sg55
(lp4037
g48
(g69
g50
NtRp4038
(dp4039
g53
(dp4040
sg62
g4034
sg55
(lp4041
g48
(g49
g50
NtRp4042
(dp4043
g53
(dp4044
g61
I2
ssg62
g4038
sg55
(lp4045
g48
(g57
g50
NtRp4046
(dp4047
g53
(dp4048
g61
I1
ssg62
Nsg55
(lp4049
g48
(g64
g50
NtRp4050
(dp4051
g53
(dp4052
sg62
g4046
sg55
(lp4053
g48
(g69
g50
NtRp4054
(dp4055
g53
(dp4056
sg62
g4050
sg55
(lp4057
g48
(g49
g50
NtRp4058
(dp4059
g53
(dp4060
g61
I1
ssg62
g4054
sg55
(lp4061
g3921
(S's\n\x00\x00\x00Controller'
tRp4062
asbasbasbag48
(g64
g50
NtRp4063
(dp4064
g53
(dp4065
sg62
g4046
sg55
(lp4066
g48
(g69
g50
NtRp4067
(dp4068
g53
(dp4069
sg62
g4063
sg55
(lp4070
g48
(g49
g50
NtRp4071
(dp4072
g53
(dp4073
g61
I1
ssg62
g4067
sg55
(lp4074
I00
asbasbasbag48
(g64
g50
NtRp4075
(dp4076
g53
(dp4077
sg62
g4046
sg55
(lp4078
g48
(g69
g50
NtRp4079
(dp4080
g53
(dp4081
sg62
g4075
sg55
(lp4082
g48
(g49
g50
NtRp4083
(dp4084
g53
(dp4085
g61
I1
ssg62
g4079
sg55
(lp4086
S'/admin/default/edit/Gabb1/controllers/fb_serv.py'
p4087
asbasbasbasbasbasbasbag48
(g64
g50
NtRp4088
(dp4089
g53
(dp4090
sg62
g4030
sg55
(lp4091
g48
(g69
g50
NtRp4092
(dp4093
g53
(dp4094
sg62
g4088
sg55
(lp4095
g48
(g49
g50
NtRp4096
(dp4097
g53
(dp4098
g61
I2
ssg62
g4092
sg55
(lp4099
g48
(g57
g50
NtRp4100
(dp4101
g53
(dp4102
g61
I1
ssg62
Nsg55
(lp4103
g48
(g64
g50
NtRp4104
(dp4105
g53
(dp4106
sg62
g4100
sg55
(lp4107
g48
(g69
g50
NtRp4108
(dp4109
g53
(dp4110
sg62
g4104
sg55
(lp4111
g48
(g49
g50
NtRp4112
(dp4113
g53
(dp4114
g61
I1
ssg62
g4108
sg55
(lp4115
g3921
(S's\x04\x00\x00\x00View'
tRp4116
asbasbasbag48
(g64
g50
NtRp4117
(dp4118
g53
(dp4119
sg62
g4100
sg55
(lp4120
g48
(g69
g50
NtRp4121
(dp4122
g53
(dp4123
sg62
g4117
sg55
(lp4124
g48
(g49
g50
NtRp4125
(dp4126
g53
(dp4127
g61
I1
ssg62
g4121
sg55
(lp4128
I00
asbasbasbag48
(g64
g50
NtRp4129
(dp4130
g53
(dp4131
sg62
g4100
sg55
(lp4132
g48
(g69
g50
NtRp4133
(dp4134
g53
(dp4135
sg62
g4129
sg55
(lp4136
g48
(g49
g50
NtRp4137
(dp4138
g53
(dp4139
g61
I1
ssg62
g4133
sg55
(lp4140
S'/admin/default/edit/Gabb1/views/fb_serv/serve_player_data.txt'
p4141
asbasbasbasbasbasbasbag48
(g64
g50
NtRp4142
(dp4143
g53
(dp4144
sg62
g4030
sg55
(lp4145
g48
(g69
g50
NtRp4146
(dp4147
g53
(dp4148
sg62
g4142
sg55
(lp4149
g48
(g49
g50
NtRp4150
(dp4151
g53
(dp4152
g61
I2
ssg62
g4146
sg55
(lp4153
g48
(g57
g50
NtRp4154
(dp4155
g53
(dp4156
g61
I1
ssg62
Nsg55
(lp4157
g48
(g64
g50
NtRp4158
(dp4159
g53
(dp4160
sg62
g4154
sg55
(lp4161
g48
(g69
g50
NtRp4162
(dp4163
g53
(dp4164
sg62
g4158
sg55
(lp4165
g48
(g49
g50
NtRp4166
(dp4167
g53
(dp4168
g61
I1
ssg62
g4162
sg55
(lp4169
g3921
(S's\x06\x00\x00\x00Layout'
tRp4170
asbasbasbag48
(g64
g50
NtRp4171
(dp4172
g53
(dp4173
sg62
g4154
sg55
(lp4174
g48
(g69
g50
NtRp4175
(dp4176
g53
(dp4177
sg62
g4171
sg55
(lp4178
g48
(g49
g50
NtRp4179
(dp4180
g53
(dp4181
g61
I1
ssg62
g4175
sg55
(lp4182
I00
asbasbasbag48
(g64
g50
NtRp4183
(dp4184
g53
(dp4185
sg62
g4154
sg55
(lp4186
g48
(g69
g50
NtRp4187
(dp4188
g53
(dp4189
sg62
g4183
sg55
(lp4190
g48
(g49
g50
NtRp4191
(dp4192
g53
(dp4193
g61
I1
ssg62
g4187
sg55
(lp4194
S'/admin/default/edit/Gabb1/views/layout.html'
p4195
asbasbasbasbasbasbasbag48
(g64
g50
NtRp4196
(dp4197
g53
(dp4198
sg62
g4030
sg55
(lp4199
g48
(g69
g50
NtRp4200
(dp4201
g53
(dp4202
sg62
g4196
sg55
(lp4203
g48
(g49
g50
NtRp4204
(dp4205
g53
(dp4206
g61
I2
ssg62
g4200
sg55
(lp4207
g48
(g57
g50
NtRp4208
(dp4209
g53
(dp4210
g61
I1
ssg62
Nsg55
(lp4211
g48
(g64
g50
NtRp4212
(dp4213
g53
(dp4214
sg62
g4208
sg55
(lp4215
g48
(g69
g50
NtRp4216
(dp4217
g53
(dp4218
sg62
g4212
sg55
(lp4219
g48
(g49
g50
NtRp4220
(dp4221
g53
(dp4222
g61
I1
ssg62
g4216
sg55
(lp4223
g3921
(S's\n\x00\x00\x00Stylesheet'
tRp4224
asbasbasbag48
(g64
g50
NtRp4225
(dp4226
g53
(dp4227
sg62
g4208
sg55
(lp4228
g48
(g69
g50
NtRp4229
(dp4230
g53
(dp4231
sg62
g4225
sg55
(lp4232
g48
(g49
g50
NtRp4233
(dp4234
g53
(dp4235
g61
I1
ssg62
g4229
sg55
(lp4236
I00
asbasbasbag48
(g64
g50
NtRp4237
(dp4238
g53
(dp4239
sg62
g4208
sg55
(lp4240
g48
(g69
g50
NtRp4241
(dp4242
g53
(dp4243
sg62
g4237
sg55
(lp4244
g48
(g49
g50
NtRp4245
(dp4246
g53
(dp4247
g61
I1
ssg62
g4241
sg55
(lp4248
S'/admin/default/edit/Gabb1/static/base.css'
p4249
asbasbasbasbasbasbasbag48
(g64
g50
NtRp4250
(dp4251
g53
(dp4252
sg62
g4030
sg55
(lp4253
g48
(g69
g50
NtRp4254
(dp4255
g53
(dp4256
sg62
g4250
sg55
(lp4257
g48
(g49
g50
NtRp4258
(dp4259
g53
(dp4260
g61
I2
ssg62
g4254
sg55
(lp4261
g48
(g57
g50
NtRp4262
(dp4263
g53
(dp4264
g61
I1
ssg62
Nsg55
(lp4265
g48
(g64
g50
NtRp4266
(dp4267
g53
(dp4268
sg62
g4262
sg55
(lp4269
g48
(g69
g50
NtRp4270
(dp4271
g53
(dp4272
sg62
g4266
sg55
(lp4273
g48
(g49
g50
NtRp4274
(dp4275
g53
(dp4276
g61
I1
ssg62
g4270
sg55
(lp4277
g3921
(S's\x08\x00\x00\x00DB Model'
tRp4278
asbasbasbag48
(g64
g50
NtRp4279
(dp4280
g53
(dp4281
sg62
g4262
sg55
(lp4282
g48
(g69
g50
NtRp4283
(dp4284
g53
(dp4285
sg62
g4279
sg55
(lp4286
g48
(g49
g50
NtRp4287
(dp4288
g53
(dp4289
g61
I1
ssg62
g4283
sg55
(lp4290
I00
asbasbasbag48
(g64
g50
NtRp4291
(dp4292
g53
(dp4293
sg62
g4262
sg55
(lp4294
g48
(g69
g50
NtRp4295
(dp4296
g53
(dp4297
sg62
g4291
sg55
(lp4298
g48
(g49
g50
NtRp4299
(dp4300
g53
(dp4301
g61
I1
ssg62
g4295
sg55
(lp4302
S'/admin/default/edit/Gabb1/models/db.py'
p4303
asbasbasbasbasbasbasbag48
(g64
g50
NtRp4304
(dp4305
g53
(dp4306
sg62
g4030
sg55
(lp4307
g48
(g69
g50
NtRp4308
(dp4309
g53
(dp4310
sg62
g4304
sg55
(lp4311
g48
(g49
g50
NtRp4312
(dp4313
g53
(dp4314
g61
I2
ssg62
g4308
sg55
(lp4315
g48
(g57
g50
NtRp4316
(dp4317
g53
(dp4318
g61
I1
ssg62
Nsg55
(lp4319
g48
(g64
g50
NtRp4320
(dp4321
g53
(dp4322
sg62
g4316
sg55
(lp4323
g48
(g69
g50
NtRp4324
(dp4325
g53
(dp4326
sg62
g4320
sg55
(lp4327
g48
(g49
g50
NtRp4328
(dp4329
g53
(dp4330
g61
I1
ssg62
g4324
sg55
(lp4331
g3921
(S's\n\x00\x00\x00Menu Model'
tRp4332
asbasbasbag48
(g64
g50
NtRp4333
(dp4334
g53
(dp4335
sg62
g4316
sg55
(lp4336
g48
(g69
g50
NtRp4337
(dp4338
g53
(dp4339
sg62
g4333
sg55
(lp4340
g48
(g49
g50
NtRp4341
(dp4342
g53
(dp4343
g61
I1
ssg62
g4337
sg55
(lp4344
I00
asbasbasbag48
(g64
g50
NtRp4345
(dp4346
g53
(dp4347
sg62
g4316
sg55
(lp4348
g48
(g69
g50
NtRp4349
(dp4350
g53
(dp4351
sg62
g4345
sg55
(lp4352
g48
(g49
g50
NtRp4353
(dp4354
g53
(dp4355
g61
I1
ssg62
g4349
sg55
(lp4356
S'/admin/default/edit/Gabb1/models/menu.py'
p4357
asbasbasbasbasbasbasbag48
(g64
g50
NtRp4358
(dp4359
g53
(dp4360
sg62
g4030
sg55
(lp4361
g48
(g69
g50
NtRp4362
(dp4363
g53
(dp4364
sg62
g4358
sg55
(lp4365
g48
(g49
g50
NtRp4366
(dp4367
g53
(dp4368
g61
I2
ssg62
g4362
sg55
(lp4369
g48
(g57
g50
NtRp4370
(dp4371
g53
(dp4372
g61
I1
ssg62
Nsg55
(lp4373
g48
(g64
g50
NtRp4374
(dp4375
g53
(dp4376
sg62
g4370
sg55
(lp4377
g48
(g69
g50
NtRp4378
(dp4379
g53
(dp4380
sg62
g4374
sg55
(lp4381
g48
(g49
g50
NtRp4382
(dp4383
g53
(dp4384
g61
I1
ssg62
g4378
sg55
(lp4385
g3921
(S's\x08\x00\x00\x00Database'
tRp4386
asbasbasbag48
(g64
g50
NtRp4387
(dp4388
g53
(dp4389
sg62
g4370
sg55
(lp4390
g48
(g69
g50
NtRp4391
(dp4392
g53
(dp4393
sg62
g4387
sg55
(lp4394
g48
(g49
g50
NtRp4395
(dp4396
g53
(dp4397
g61
I1
ssg62
g4391
sg55
(lp4398
I00
asbasbasbag48
(g64
g50
NtRp4399
(dp4400
g53
(dp4401
sg62
g4370
sg55
(lp4402
g48
(g69
g50
NtRp4403
(dp4404
g53
(dp4405
sg62
g4399
sg55
(lp4406
g48
(g49
g50
NtRp4407
(dp4408
g53
(dp4409
g61
I1
ssg62
g4403
sg55
(lp4410
S'/Gabb1/appadmin/index.txt'
p4411
asbasbasbasbasbasbasbag48
(g64
g50
NtRp4412
(dp4413
g53
(dp4414
sg62
g4030
sg55
(lp4415
g48
(g69
g50
NtRp4416
(dp4417
g53
(dp4418
sg62
g4412
sg55
(lp4419
g48
(g49
g50
NtRp4420
(dp4421
g53
(dp4422
g61
I2
ssg62
g4416
sg55
(lp4423
g48
(g57
g50
NtRp4424
(dp4425
g53
(dp4426
g61
I1
ssg62
Nsg55
(lp4427
g48
(g64
g50
NtRp4428
(dp4429
g53
(dp4430
sg62
g4424
sg55
(lp4431
g48
(g69
g50
NtRp4432
(dp4433
g53
(dp4434
sg62
g4428
sg55
(lp4435
g48
(g49
g50
NtRp4436
(dp4437
g53
(dp4438
g61
I1
ssg62
g4432
sg55
(lp4439
g3921
(S's\x06\x00\x00\x00Errors'
tRp4440
asbasbasbag48
(g64
g50
NtRp4441
(dp4442
g53
(dp4443
sg62
g4424
sg55
(lp4444
g48
(g69
g50
NtRp4445
(dp4446
g53
(dp4447
sg62
g4441
sg55
(lp4448
g48
(g49
g50
NtRp4449
(dp4450
g53
(dp4451
g61
I1
ssg62
g4445
sg55
(lp4452
I00
asbasbasbag48
(g64
g50
NtRp4453
(dp4454
g53
(dp4455
sg62
g4424
sg55
(lp4456
g48
(g69
g50
NtRp4457
(dp4458
g53
(dp4459
sg62
g4453
sg55
(lp4460
g48
(g49
g50
NtRp4461
(dp4462
g53
(dp4463
g61
I1
ssg62
g4457
sg55
(lp4464
S'/admin/default/errors/Gabb1.txt'
p4465
asbasbasbasbasbasbasbag48
(g64
g50
NtRp4466
(dp4467
g53
(dp4468
sg62
g4030
sg55
(lp4469
g48
(g69
g50
NtRp4470
(dp4471
g53
(dp4472
sg62
g4466
sg55
(lp4473
g48
(g49
g50
NtRp4474
(dp4475
g53
(dp4476
g61
I2
ssg62
g4470
sg55
(lp4477
g48
(g57
g50
NtRp4478
(dp4479
g53
(dp4480
g61
I1
ssg62
Nsg55
(lp4481
g48
(g64
g50
NtRp4482
(dp4483
g53
(dp4484
sg62
g4478
sg55
(lp4485
g48
(g69
g50
NtRp4486
(dp4487
g53
(dp4488
sg62
g4482
sg55
(lp4489
g48
(g49
g50
NtRp4490
(dp4491
g53
(dp4492
g61
I1
ssg62
g4486
sg55
(lp4493
g3921
(S's\x05\x00\x00\x00About'
tRp4494
asbasbasbag48
(g64
g50
NtRp4495
(dp4496
g53
(dp4497
sg62
g4478
sg55
(lp4498
g48
(g69
g50
NtRp4499
(dp4500
g53
(dp4501
sg62
g4495
sg55
(lp4502
g48
(g49
g50
NtRp4503
(dp4504
g53
(dp4505
g61
I1
ssg62
g4499
sg55
(lp4506
I00
asbasbasbag48
(g64
g50
NtRp4507
(dp4508
g53
(dp4509
sg62
g4478
sg55
(lp4510
g48
(g69
g50
NtRp4511
(dp4512
g53
(dp4513
sg62
g4507
sg55
(lp4514
g48
(g49
g50
NtRp4515
(dp4516
g53
(dp4517
g61
I1
ssg62
g4511
sg55
(lp4518
S'/admin/default/about/Gabb1.txt'
p4519
asbasbasbasbasbasbasbasbasbasbasbasbasbasbasbag48
(g64
g50
NtRp4520
(dp4521
g53
(dp4522
sg62
g3889
sg55
(lp4523
g48
(g69
g50
NtRp4524
(dp4525
g53
(dp4526
sg62
g4520
sg55
(lp4527
g48
(g49
g50
NtRp4528
(dp4529
g53
(dp4530
g61
I4
ssg62
g4524
sg55
(lp4531
g48
(g57
g50
NtRp4532
(dp4533
g53
(dp4534
g61
I3
ssg62
Nsg55
(lp4535
g48
(g64
g50
NtRp4536
(dp4537
g53
(dp4538
sg62
g4532
sg55
(lp4539
g48
(g69
g50
NtRp4540
(dp4541
g53
(dp4542
sg62
g4536
sg55
(lp4543
g48
(g49
g50
NtRp4544
(dp4545
g53
(dp4546
g61
I3
ssg62
g4540
sg55
(lp4547
g3921
(S's\t\x00\x00\x00Resources'
tRp4548
asbasbasbag48
(g64
g50
NtRp4549
(dp4550
g53
(dp4551
sg62
g4532
sg55
(lp4552
g48
(g69
g50
NtRp4553
(dp4554
g53
(dp4555
sg62
g4549
sg55
(lp4556
g48
(g49
g50
NtRp4557
(dp4558
g53
(dp4559
g61
I3
ssg62
g4553
sg55
(lp4560
g91
asbasbasbag48
(g64
g50
NtRp4561
(dp4562
g53
(dp4563
sg62
g4532
sg55
(lp4564
g48
(g69
g50
NtRp4565
(dp4566
g53
(dp4567
sg62
g4561
sg55
(lp4568
g48
(g49
g50
NtRp4569
(dp4570
g53
(dp4571
g61
I3
ssg62
g4565
sg55
(lp4572
S'None'
p4573
asbasbasbag48
(g64
g50
NtRp4574
(dp4575
g53
(dp4576
sg62
g4532
sg55
(lp4577
g48
(g69
g50
NtRp4578
(dp4579
g53
(dp4580
sg62
g4574
sg55
(lp4581
g48
(g49
g50
NtRp4582
(dp4583
g53
(dp4584
g61
I3
ssg62
g4578
sg55
(lp4585
g48
(g57
g50
NtRp4586
(dp4587
g53
(dp4588
g61
I2
ssg62
Nsg55
(lp4589
g48
(g64
g50
NtRp4590
(dp4591
g53
(dp4592
sg62
g4586
sg55
(lp4593
g48
(g69
g50
NtRp4594
(dp4595
g53
(dp4596
sg62
g4590
sg55
(lp4597
g48
(g49
g50
NtRp4598
(dp4599
g53
(dp4600
g61
I2
ssg62
g4594
sg55
(lp4601
g48
(g57
g50
NtRp4602
(dp4603
g53
(dp4604
g61
I1
ssg62
Nsg55
(lp4605
g48
(g64
g50
NtRp4606
(dp4607
g53
(dp4608
sg62
g4602
sg55
(lp4609
g48
(g69
g50
NtRp4610
(dp4611
g53
(dp4612
sg62
g4606
sg55
(lp4613
g48
(g49
g50
NtRp4614
(dp4615
g53
(dp4616
g61
I1
ssg62
g4610
sg55
(lp4617
g3921
(S's\r\x00\x00\x00Documentation'
tRp4618
asbasbasbag48
(g64
g50
NtRp4619
(dp4620
g53
(dp4621
sg62
g4602
sg55
(lp4622
g48
(g69
g50
NtRp4623
(dp4624
g53
(dp4625
sg62
g4619
sg55
(lp4626
g48
(g49
g50
NtRp4627
(dp4628
g53
(dp4629
g61
I1
ssg62
g4623
sg55
(lp4630
I00
asbasbasbag48
(g64
g50
NtRp4631
(dp4632
g53
(dp4633
sg62
g4602
sg55
(lp4634
g48
(g69
g50
NtRp4635
(dp4636
g53
(dp4637
sg62
g4631
sg55
(lp4638
g48
(g49
g50
NtRp4639
(dp4640
g53
(dp4641
g61
I1
ssg62
g4635
sg55
(lp4642
S'http://www.web2py.com/book'
p4643
asbasbasbag48
(g64
g50
NtRp4644
(dp4645
g53
(dp4646
sg62
g4602
sg55
(lp4647
g48
(g69
g50
NtRp4648
(dp4649
g53
(dp4650
sg62
g4644
sg55
(lp4651
g48
(g49
g50
NtRp4652
(dp4653
g53
(dp4654
g61
I1
ssg62
g4648
sg55
(lp4655
(lp4656
(g3921
(S's\x07\x00\x00\x00Preface'
tRp4657
I00
S'http://www.web2py.com/book/default/chapter/00'
p4658
tp4659
a(g3921
(S's\x0c\x00\x00\x00Introduction'
tRp4660
I00
S'http://www.web2py.com/book/default/chapter/01'
p4661
tp4662
a(g3921
(S's\x06\x00\x00\x00Python'
tRp4663
I00
S'http://www.web2py.com/book/default/chapter/02'
p4664
tp4665
a(g3921
(S's\x08\x00\x00\x00Overview'
tRp4666
I00
S'http://www.web2py.com/book/default/chapter/03'
p4667
tp4668
a(g3921
(S's\x08\x00\x00\x00The Core'
tRp4669
I00
S'http://www.web2py.com/book/default/chapter/04'
p4670
tp4671
a(g3921
(S's\t\x00\x00\x00The Views'
tRp4672
I00
S'http://www.web2py.com/book/default/chapter/05'
p4673
tp4674
a(g3921
(S's\x08\x00\x00\x00Database'
tRp4675
I00
S'http://www.web2py.com/book/default/chapter/06'
p4676
tp4677
a(g3921
(S's\x14\x00\x00\x00Forms and Validators'
tRp4678
I00
S'http://www.web2py.com/book/default/chapter/07'
p4679
tp4680
a(g3921
(S's\x0e\x00\x00\x00Access Control'
tRp4681
I00
S'http://www.web2py.com/book/default/chapter/08'
p4682
tp4683
a(g3921
(S's\x08\x00\x00\x00Services'
tRp4684
I00
S'http://www.web2py.com/book/default/chapter/09'
p4685
tp4686
a(g3921
(S's\x0c\x00\x00\x00Ajax Recipes'
tRp4687
I00
S'http://www.web2py.com/book/default/chapter/10'
p4688
tp4689
a(g3921
(S's\x12\x00\x00\x00Deployment Recipes'
tRp4690
I00
S'http://www.web2py.com/book/default/chapter/11'
p4691
tp4692
a(g3921
(S's\r\x00\x00\x00Other Recipes'
tRp4693
I00
S'http://www.web2py.com/book/default/chapter/12'
p4694
tp4695
a(g3921
(S's\r\x00\x00\x00Buy this book'
tRp4696
I00
S'http://stores.lulu.com/web2py'
p4697
tp4698
aasbasbasbasbasbasbasbag48
(g64
g50
NtRp4699
(dp4700
g53
(dp4701
sg62
g4586
sg55
(lp4702
g48
(g69
g50
NtRp4703
(dp4704
g53
(dp4705
sg62
g4699
sg55
(lp4706
g48
(g49
g50
NtRp4707
(dp4708
g53
(dp4709
g61
I2
ssg62
g4703
sg55
(lp4710
g48
(g57
g50
NtRp4711
(dp4712
g53
(dp4713
g61
I1
ssg62
Nsg55
(lp4714
g48
(g64
g50
NtRp4715
(dp4716
g53
(dp4717
sg62
g4711
sg55
(lp4718
g48
(g69
g50
NtRp4719
(dp4720
g53
(dp4721
sg62
g4715
sg55
(lp4722
g48
(g49
g50
NtRp4723
(dp4724
g53
(dp4725
g61
I1
ssg62
g4719
sg55
(lp4726
g3921
(S's\t\x00\x00\x00Community'
tRp4727
asbasbasbag48
(g64
g50
NtRp4728
(dp4729
g53
(dp4730
sg62
g4711
sg55
(lp4731
g48
(g69
g50
NtRp4732
(dp4733
g53
(dp4734
sg62
g4728
sg55
(lp4735
g48
(g49
g50
NtRp4736
(dp4737
g53
(dp4738
g61
I1
ssg62
g4732
sg55
(lp4739
I00
asbasbasbag48
(g64
g50
NtRp4740
(dp4741
g53
(dp4742
sg62
g4711
sg55
(lp4743
g48
(g69
g50
NtRp4744
(dp4745
g53
(dp4746
sg62
g4740
sg55
(lp4747
g48
(g49
g50
NtRp4748
(dp4749
g53
(dp4750
g61
I1
ssg62
g4744
sg55
(lp4751
Nasbasbasbag48
(g64
g50
NtRp4752
(dp4753
g53
(dp4754
sg62
g4711
sg55
(lp4755
g48
(g69
g50
NtRp4756
(dp4757
g53
(dp4758
sg62
g4752
sg55
(lp4759
g48
(g49
g50
NtRp4760
(dp4761
g53
(dp4762
g61
I1
ssg62
g4756
sg55
(lp4763
(lp4764
(g3921
(S's\x06\x00\x00\x00Groups'
tRp4765
I00
S'http://www.web2py.com/examples/default/usergroups'
p4766
tp4767
a(g3921
(S's\x07\x00\x00\x00Twitter'
tRp4768
I00
S'http://twitter.com/web2py'
p4769
tp4770
a(g3921
(S's\t\x00\x00\x00Live chat'
tRp4771
I00
S'http://mibbit.com/?channel=%23web2py&server=irc.mibbit.net'
p4772
tp4773
a(g3921
(S's\n\x00\x00\x00User Voice'
tRp4774
I00
S'http://web2py.uservoice.com/'
p4775
tp4776
aasbasbasbasbasbasbasbag48
(g64
g50
NtRp4777
(dp4778
g53
(dp4779
sg62
g4586
sg55
(lp4780
g48
(g69
g50
NtRp4781
(dp4782
g53
(dp4783
sg62
g4777
sg55
(lp4784
g48
(g49
g50
NtRp4785
(dp4786
g53
(dp4787
g61
I2
ssg62
g4781
sg55
(lp4788
g48
(g57
g50
NtRp4789
(dp4790
g53
(dp4791
g61
I1
ssg62
Nsg55
(lp4792
g48
(g64
g50
NtRp4793
(dp4794
g53
(dp4795
sg62
g4789
sg55
(lp4796
g48
(g69
g50
NtRp4797
(dp4798
g53
(dp4799
sg62
g4793
sg55
(lp4800
g48
(g49
g50
NtRp4801
(dp4802
g53
(dp4803
g61
I1
ssg62
g4797
sg55
(lp4804
g3921
(S's\x06\x00\x00\x00Web2py'
tRp4805
asbasbasbag48
(g64
g50
NtRp4806
(dp4807
g53
(dp4808
sg62
g4789
sg55
(lp4809
g48
(g69
g50
NtRp4810
(dp4811
g53
(dp4812
sg62
g4806
sg55
(lp4813
g48
(g49
g50
NtRp4814
(dp4815
g53
(dp4816
g61
I1
ssg62
g4810
sg55
(lp4817
I00
asbasbasbag48
(g64
g50
NtRp4818
(dp4819
g53
(dp4820
sg62
g4789
sg55
(lp4821
g48
(g69
g50
NtRp4822
(dp4823
g53
(dp4824
sg62
g4818
sg55
(lp4825
g48
(g49
g50
NtRp4826
(dp4827
g53
(dp4828
g61
I1
ssg62
g4822
sg55
(lp4829
S'http://www.web2py.com'
p4830
asbasbasbag48
(g64
g50
NtRp4831
(dp4832
g53
(dp4833
sg62
g4789
sg55
(lp4834
g48
(g69
g50
NtRp4835
(dp4836
g53
(dp4837
sg62
g4831
sg55
(lp4838
g48
(g49
g50
NtRp4839
(dp4840
g53
(dp4841
g61
I1
ssg62
g4835
sg55
(lp4842
(lp4843
(g3921
(S's\x08\x00\x00\x00Download'
tRp4844
I00
S'http://www.web2py.com/examples/default/download'
p4845
tp4846
a(g3921
(S's\x07\x00\x00\x00Support'
tRp4847
I00
S'http://www.web2py.com/examples/default/support'
p4848
tp4849
a(g3921
(S's\x0e\x00\x00\x00Quick Examples'
tRp4850
I00
S'http://web2py.com/examples/default/examples'
p4851
tp4852
a(g3921
(S's\x03\x00\x00\x00FAQ'
tRp4853
I00
S'http://web2py.com/AlterEgo'
p4854
tp4855
a(g3921
(S's\x11\x00\x00\x00Free Applications'
tRp4856
I00
S'http://web2py.com/appliances'
p4857
tp4858
a(g3921
(S's\x07\x00\x00\x00Plugins'
tRp4859
I00
S'http://web2py.com/plugins'
p4860
tp4861
a(g3921
(S's\x07\x00\x00\x00Recipes'
tRp4862
I00
S'http://web2pyslices.com/'
p4863
tp4864
a(g3921
(S's\x04\x00\x00\x00Demo'
tRp4865
I00
S'http://web2py.com/demo_admin'
p4866
tp4867
a(g3921
(S's\x08\x00\x00\x00Semantic'
tRp4868
I00
S'http://web2py.com/semantic'
p4869
tp4870
a(g3921
(S's\x07\x00\x00\x00Layouts'
tRp4871
I00
S'http://web2py.com/layouts'
p4872
tp4873
a(g3921
(S's\x06\x00\x00\x00Videos'
tRp4874
I00
S'http://www.web2py.com/examples/default/videos/'
p4875
tp4876
aasbasbasbasbasbasbasbasbasbasbasbasbasbasbasbasbasbasbasbag48
(g64
g50
NtRp4877
(dp4878
g53
(dp4879
sg62
g3436
sg55
(lp4880
g48
(g69
g50
NtRp4881
(dp4882
g53
(dp4883
g73
g74
ssg62
g4877
sg55
(lp4884
S'meta'
p4885
asbag48
(g69
g50
NtRp4886
(dp4887
g53
(dp4888
g80
g81
ssg62
g4877
sg55
(lp4889
S':'
asbag48
(g69
g50
NtRp4890
(dp4891
g53
(dp4892
sg62
g4877
sg55
(lp4893
g48
(g49
g50
NtRp4894
(dp4895
g53
(dp4896
g61
I5
ssg62
g4890
sg55
(lp4897
g48
(g57
g50
NtRp4898
(dp4899
g53
(dp4900
g61
I4
ssg62
Nsg55
(lp4901
g48
(g64
g50
NtRp4902
(dp4903
g53
(dp4904
sg62
g4898
sg55
(lp4905
g48
(g69
g50
NtRp4906
(dp4907
g53
(dp4908
g73
g74
ssg62
g4902
sg55
(lp4909
S'author'
p4910
asbag48
(g69
g50
NtRp4911
(dp4912
g53
(dp4913
g80
g81
ssg62
g4902
sg55
(lp4914
S':'
asbag48
(g69
g50
NtRp4915
(dp4916
g53
(dp4917
sg62
g4902
sg55
(lp4918
g48
(g49
g50
NtRp4919
(dp4920
g53
(dp4921
g61
I4
ssg62
g4915
sg55
(lp4922
S'Your Name <you@example.com>'
p4923
asbasbasbag48
(g64
g50
NtRp4924
(dp4925
g53
(dp4926
sg62
g4898
sg55
(lp4927
g48
(g69
g50
NtRp4928
(dp4929
g53
(dp4930
g73
g74
ssg62
g4924
sg55
(lp4931
S'copyright'
p4932
asbag48
(g69
g50
NtRp4933
(dp4934
g53
(dp4935
g80
g81
ssg62
g4924
sg55
(lp4936
S':'
asbag48
(g69
g50
NtRp4937
(dp4938
g53
(dp4939
sg62
g4924
sg55
(lp4940
g48
(g49
g50
NtRp4941
(dp4942
g53
(dp4943
g61
I4
ssg62
g4937
sg55
(lp4944
S'Copyright 2011'
p4945
asbasbasbag48
(g64
g50
NtRp4946
(dp4947
g53
(dp4948
sg62
g4898
sg55
(lp4949
g48
(g69
g50
NtRp4950
(dp4951
g53
(dp4952
g73
g74
ssg62
g4946
sg55
(lp4953
S'description'
p4954
asbag48
(g69
g50
NtRp4955
(dp4956
g53
(dp4957
g80
g81
ssg62
g4946
sg55
(lp4958
S':'
asbag48
(g69
g50
NtRp4959
(dp4960
g53
(dp4961
sg62
g4946
sg55
(lp4962
g48
(g49
g50
NtRp4963
(dp4964
g53
(dp4965
g61
I4
ssg62
g4959
sg55
(lp4966
S'a cool new app'
p4967
asbasbasbag48
(g64
g50
NtRp4968
(dp4969
g53
(dp4970
sg62
g4898
sg55
(lp4971
g48
(g69
g50
NtRp4972
(dp4973
g53
(dp4974
g73
g74
ssg62
g4968
sg55
(lp4975
S'generator'
p4976
asbag48
(g69
g50
NtRp4977
(dp4978
g53
(dp4979
g80
g81
ssg62
g4968
sg55
(lp4980
S':'
asbag48
(g69
g50
NtRp4981
(dp4982
g53
(dp4983
sg62
g4968
sg55
(lp4984
g48
(g49
g50
NtRp4985
(dp4986
g53
(dp4987
g61
I4
ssg62
g4981
sg55
(lp4988
S'Web2py Web Framework'
p4989
asbasbasbag48
(g64
g50
NtRp4990
(dp4991
g53
(dp4992
sg62
g4898
sg55
(lp4993
g48
(g69
g50
NtRp4994
(dp4995
g53
(dp4996
g73
g74
ssg62
g4990
sg55
(lp4997
S'keywords'
p4998
asbag48
(g69
g50
NtRp4999
(dp5000
g53
(dp5001
g80
g81
ssg62
g4990
sg55
(lp5002
S':'
asbag48
(g69
g50
NtRp5003
(dp5004
g53
(dp5005
sg62
g4990
sg55
(lp5006
g48
(g49
g50
NtRp5007
(dp5008
g53
(dp5009
g61
I4
ssg62
g5003
sg55
(lp5010
S'web2py, python, framework'
p5011
asbasbasbasbasbasbasbag48
(g64
g50
NtRp5012
(dp5013
g53
(dp5014
sg62
g3436
sg55
(lp5015
g48
(g69
g50
NtRp5016
(dp5017
g53
(dp5018
g73
g74
ssg62
g5012
sg55
(lp5019
S'postprocessing'
p5020
asbag48
(g69
g50
NtRp5021
(dp5022
g53
(dp5023
g80
g81
ssg62
g5012
sg55
(lp5024
S':'
asbag48
(g69
g50
NtRp5025
(dp5026
g53
(dp5027
sg62
g5012
sg55
(lp5028
g48
(g49
g50
NtRp5029
(dp5030
g53
(dp5031
g61
I5
ssg62
g5025
sg55
(lp5032
g48
(g57
g50
NtRp5033
(dp5034
g53
(dp5035
g61
I4
ssg62
Nsg55
(lp5036
sbasbasbasbag48
(g64
g50
NtRp5037
(dp5038
g53
(dp5039
sg62
g3436
sg55
(lp5040
g48
(g69
g50
NtRp5041
(dp5042
g53
(dp5043
g73
g74
ssg62
g5037
sg55
(lp5044
S'session_filename'
p5045
asbag48
(g69
g50
NtRp5046
(dp5047
g53
(dp5048
g80
g81
ssg62
g5037
sg55
(lp5049
S':'
asbag48
(g69
g50
NtRp5050
(dp5051
g53
(dp5052
sg62
g5037
sg55
(lp5053
g48
(g49
g50
NtRp5054
(dp5055
g53
(dp5056
g61
I5
ssg62
g5050
sg55
(lp5057
S'D:\\git_projs\\Gabblista\\web2py\\web2py\\applications\\Gabb1\\sessions\\127.0.0.1-ef7e678e-ac39-4a20-9608-d0d9f09ebd4c'
p5058
asbasbasbag48
(g64
g50
NtRp5059
(dp5060
g53
(dp5061
sg62
g3436
sg55
(lp5062
g48
(g69
g50
NtRp5063
(dp5064
g53
(dp5065
g73
g74
ssg62
g5059
sg55
(lp5066
S'session_id'
p5067
asbag48
(g69
g50
NtRp5068
(dp5069
g53
(dp5070
g80
g81
ssg62
g5059
sg55
(lp5071
S':'
asbag48
(g69
g50
NtRp5072
(dp5073
g53
(dp5074
sg62
g5059
sg55
(lp5075
g48
(g49
g50
NtRp5076
(dp5077
g53
(dp5078
g61
I5
ssg62
g5072
sg55
(lp5079
S'127.0.0.1-ef7e678e-ac39-4a20-9608-d0d9f09ebd4c'
p5080
asbasbasbag48
(g64
g50
NtRp5081
(dp5082
g53
(dp5083
sg62
g3436
sg55
(lp5084
g48
(g69
g50
NtRp5085
(dp5086
g53
(dp5087
g73
g74
ssg62
g5081
sg55
(lp5088
S'session_id_name'
p5089
asbag48
(g69
g50
NtRp5090
(dp5091
g53
(dp5092
g80
g81
ssg62
g5081
sg55
(lp5093
S':'
asbag48
(g69
g50
NtRp5094
(dp5095
g53
(dp5096
sg62
g5081
sg55
(lp5097
g48
(g49
g50
NtRp5098
(dp5099
g53
(dp5100
g61
I5
ssg62
g5094
sg55
(lp5101
g3493
asbasbasbag48
(g64
g50
NtRp5102
(dp5103
g53
(dp5104
sg62
g3436
sg55
(lp5105
g48
(g69
g50
NtRp5106
(dp5107
g53
(dp5108
g73
g74
ssg62
g5102
sg55
(lp5109
S'session_new'
p5110
asbag48
(g69
g50
NtRp5111
(dp5112
g53
(dp5113
g80
g81
ssg62
g5102
sg55
(lp5114
S':'
asbag48
(g69
g50
NtRp5115
(dp5116
g53
(dp5117
sg62
g5102
sg55
(lp5118
g48
(g49
g50
NtRp5119
(dp5120
g53
(dp5121
g61
I5
ssg62
g5115
sg55
(lp5122
g1775
asbasbasbag48
(g64
g50
NtRp5123
(dp5124
g53
(dp5125
sg62
g3436
sg55
(lp5126
g48
(g69
g50
NtRp5127
(dp5128
g53
(dp5129
g73
g74
ssg62
g5123
sg55
(lp5130
S'status'
p5131
asbag48
(g69
g50
NtRp5132
(dp5133
g53
(dp5134
g80
g81
ssg62
g5123
sg55
(lp5135
S':'
asbag48
(g69
g50
NtRp5136
(dp5137
g53
(dp5138
sg62
g5123
sg55
(lp5139
g48
(g49
g50
NtRp5140
(dp5141
g53
(dp5142
g61
I5
ssg62
g5136
sg55
(lp5143
S'200'
p5144
asbasbasbag48
(g64
g50
NtRp5145
(dp5146
g53
(dp5147
sg62
g3436
sg55
(lp5148
g48
(g69
g50
NtRp5149
(dp5150
g53
(dp5151
g73
g74
ssg62
g5145
sg55
(lp5152
S'subtitle'
p5153
asbag48
(g69
g50
NtRp5154
(dp5155
g53
(dp5156
g80
g81
ssg62
g5145
sg55
(lp5157
S':'
asbag48
(g69
g50
NtRp5158
(dp5159
g53
(dp5160
sg62
g5145
sg55
(lp5161
g48
(g49
g50
NtRp5162
(dp5163
g53
(dp5164
g61
I5
ssg62
g5158
sg55
(lp5165
g3921
(S's\r\x00\x00\x00customize me!'
tRp5166
asbasbasbag48
(g64
g50
NtRp5167
(dp5168
g53
(dp5169
sg62
g3436
sg55
(lp5170
g48
(g69
g50
NtRp5171
(dp5172
g53
(dp5173
g73
g74
ssg62
g5167
sg55
(lp5174
S'title'
p5175
asbag48
(g69
g50
NtRp5176
(dp5177
g53
(dp5178
g80
g81
ssg62
g5167
sg55
(lp5179
S':'
asbag48
(g69
g50
NtRp5180
(dp5181
g53
(dp5182
sg62
g5167
sg55
(lp5183
g48
(g49
g50
NtRp5184
(dp5185
g53
(dp5186
g61
I5
ssg62
g5180
sg55
(lp5187
g113
asbasbasbag48
(g64
g50
NtRp5188
(dp5189
g53
(dp5190
sg62
g3436
sg55
(lp5191
g48
(g69
g50
NtRp5192
(dp5193
g53
(dp5194
g73
g74
ssg62
g5188
sg55
(lp5195
g2547
asbag48
(g69
g50
NtRp5196
(dp5197
g53
(dp5198
g80
g81
ssg62
g5188
sg55
(lp5199
S':'
asbag48
(g69
g50
NtRp5200
(dp5201
g53
(dp5202
sg62
g5188
sg55
(lp5203
g48
(g49
g50
NtRp5204
(dp5205
g53
(dp5206
g61
I5
ssg62
g5200
sg55
(lp5207
g2560
asbasbasbag48
(g64
g50
NtRp5208
(dp5209
g53
(dp5210
sg62
g3436
sg55
(lp5211
g48
(g69
g50
NtRp5212
(dp5213
g53
(dp5214
g73
g74
ssg62
g5208
sg55
(lp5215
S'view'
p5216
asbag48
(g69
g50
NtRp5217
(dp5218
g53
(dp5219
g80
g81
ssg62
g5208
sg55
(lp5220
S':'
asbag48
(g69
g50
NtRp5221
(dp5222
g53
(dp5223
sg62
g5208
sg55
(lp5224
g48
(g49
g50
NtRp5225
(dp5226
g53
(dp5227
g61
I5
ssg62
g5221
sg55
(lp5228
S'fb_serv/serve_player_data.txt'
p5229
asbasbasbasbasbsS'locals'
p5230
(dp5231
S'player_ID'
p5232
S'None'
p5233
sS'game_ID'
p5234
S'None'
p5235
sS'opponent_ID'
p5236
S'None'
p5237
sssS'traceback'
p5238
S'Traceback (most recent call last):\n  File "D:\\git_projs\\Gabblista\\web2py\\web2py\\gluon\\restricted.py", line 194, in restricted\n    exec ccode in environment\n  File "D:\\git_projs\\Gabblista\\web2py\\web2py\\applications\\Gabb1\\controllers/fb_serv.py", line 119, in <module>\n  File "D:\\git_projs\\Gabblista\\web2py\\web2py\\gluon\\globals.py", line 149, in <lambda>\n    self._caller = lambda f: f()\n  File "D:\\git_projs\\Gabblista\\web2py\\web2py\\applications\\Gabb1\\controllers/fb_serv.py", line 18, in serve_player_data\n    game_data = get_player_data(player_ID,opponent_ID,game_ID);\n  File "D:\\git_projs\\Gabblista\\web2py\\web2py\\applications\\Gabb1\\controllers/fb_serv.py", line 24, in get_player_data\n    if(int(game_ID)==0):\nTypeError: int() argument must be a string or a number, not \'NoneType\'\n'
p5239
s.