(dp1
S'output'
p2
S''
sS'layer'
p3
S'D:\\git_projs\\Gabblista\\web2py\\web2py\\applications\\Gabb1\\controllers/fb_serv.py'
p4
sS'code'
p5
S'# -*- coding: utf-8 -*-\nfrom random import Random\n\ndef game():\n    return dict(message="test")\n\ndef serve_dict():\n    # Serves the generic dictionary \n    return dict(message="Jack the dict in here")\n\n# Stored as string, parsed into XML\ndef serve_player_data():\n    \n    player_ID = request.vars.player_ID\n    opponent_ID = request.vars.opponent_ID\n    game_ID = request.vars.game_ID\n    \n    game_data = get_player_data(player_ID,opponent_ID,game_ID);\n    return dict(game_data=game_data)\n\ndef get_player_data(player_ID,opponent_ID,game_ID):\n    \n    # Generate the player data\n    if(int(game_ID)==0):\n        letter_data = generate_new_letter_data()\n        event_data = generate_new_event_data()\n#        db.game_data_table.insert(player_1_ID = int(player_ID),\n#                                  player_2_ID = int(opponent_ID),\n#                                  event_string = str(event_data),\n#                                  letter_string = str(letter_data)\n#                                  )\n        game_data = letter_data + "&" + event_data\n    else:\n        game_row = db(db.game_data_table.id==int(game_ID)).select().first()\n        game_data = str(game_row.game_events_string)\n        \n    return game_data\n\ndef generate_new_letter_data():\n\n    NUM_LETTERS = 12\n    letter_string = get_random_letters(NUM_LETTERS)\n    return letter_string\n\ndef generate_new_event_data():\n    # Go through and generate game data\n    NUM_EVENTS = 24 # 2 MINUTES. 1 EVENT EVERY 5 SECS\n    random_letter_events_string = get_random_letter_events_string(NUM_EVENTS/2)\n    random_mult_events_string = get_random_mult_events_string(NUM_EVENTS/2)\n    return random_letter_events_string + random_mult_events_string\n\ndef get_random_letter_events_string(len_req):\n    letter_event = "0"\n    num_events = 0\n    random_letter_events = ""\n    while num_events < len_req:\n        random_letter_events += letter_event # Generate a new type\n        random_letter_events += ","\n        random_letter_events += get_random_letters(1) # Generate a new letter\n        random_letter_events += ","\n        random_letter_events += get_random_location() # Generate a new location\n        random_letter_events += "*"\n        num_events += 1\n    \n    return random_letter_events\n\ndef get_random_mult_events_string(len_req):\n    random_mult_events_string = ""\n    mult_event = "1"\n    num_events = 0\n\n    while num_events < len_req:\n        random_mult_events_string += mult_event # Generate a new type\n        random_mult_events_string += ","\n        random_mult_events_string += get_new_mult_type() # Generate new mult tpye\n        random_mult_events_string += ","\n        random_mult_events_string += get_random_location() # Generate a new location\n        random_mult_events_string += "*"\n        num_events+=1\n    return random_mult_events_string\n\n\ndef get_random_letters(len_req):\n    import random\n    # ord - letter to ASCII\n    # chr - ASCII to letter\n    #A - 65\n    # Z- 90\n    \n    A = 65\n    Z = 90\n    rand_letter_string =""\n    while len(rand_letter_string) < len_req:\n        rand_int = random.randint(A,Z)\n        rand_letter_string+= chr(rand_int)\n        \n    return rand_letter_string\n\ndef get_random_location():\n    import random\n    # 0-based 12-tile index\n    # 0 <= X <= 11\n    return str(random.randint(0,11))\n\n\ndef get_new_mult_type():\n    import random\n    # 0 - 2x - 60%\n    # 1 - 3x - 30%\n    # 2 - 4x - 10%\n    rand_int = random.randint(0,10)\n    \n    if rand_int < 6:\n        return "0"\n    elif rand_int <9:\n        return "1"\n    else:\n        return "2"\nresponse._vars=response._caller(serve_player_data)\n'
p6
sS'snapshot'
p7
(dp8
S'exception'
p9
(dp10
S'__hash__'
p11
S"<method-wrapper '__hash__' of exceptions.TypeError object at 0x080C0E18>"
p12
sS'__setattr__'
p13
S"<method-wrapper '__setattr__' of exceptions.TypeError object at 0x080C0E18>"
p14
sS'__reduce_ex__'
p15
S'<built-in method __reduce_ex__ of exceptions.TypeError object at 0x080C0E18>'
p16
sS'__getslice__'
p17
S"<method-wrapper '__getslice__' of exceptions.TypeError object at 0x080C0E18>"
p18
sS'__getitem__'
p19
S"<method-wrapper '__getitem__' of exceptions.TypeError object at 0x080C0E18>"
p20
sS'__setstate__'
p21
S'<built-in method __setstate__ of exceptions.TypeError object at 0x080C0E18>'
p22
sS'__reduce__'
p23
S'<built-in method __reduce__ of exceptions.TypeError object at 0x080C0E18>'
p24
sS'__str__'
p25
S"<method-wrapper '__str__' of exceptions.TypeError object at 0x080C0E18>"
p26
sS'args'
p27
S'("int() argument must be a string or a number, not \'NoneType\'",)'
p28
sS'__getattribute__'
p29
S"<method-wrapper '__getattribute__' of exceptions.TypeError object at 0x080C0E18>"
p30
sS'__class__'
p31
S"<type 'exceptions.TypeError'>"
p32
sS'__delattr__'
p33
S"<method-wrapper '__delattr__' of exceptions.TypeError object at 0x080C0E18>"
p34
sS'__repr__'
p35
S"<method-wrapper '__repr__' of exceptions.TypeError object at 0x080C0E18>"
p36
sS'__dict__'
p37
S'{}'
p38
sS'__doc__'
p39
S"'Inappropriate argument type.'"
p40
sS'__init__'
p41
S"<method-wrapper '__init__' of exceptions.TypeError object at 0x080C0E18>"
p42
sS'__new__'
p43
S'<built-in method __new__ of type object at 0x1E1CCD78>'
p44
ssS'evalue'
p45
S"int() argument must be a string or a number, not 'NoneType'"
p46
sS'request'
p47
ccopy_reg
_reconstructor
p48
(cgluon.html
BEAUTIFY
p49
c__builtin__
object
p50
NtRp51
(dp52
S'attributes'
p53
(dp54
sS'components'
p55
(lp56
g48
(cgluon.html
TABLE
p57
g50
NtRp58
(dp59
g53
(dp60
S'level'
p61
I5
ssS'parent'
p62
Nsg55
(lp63
g48
(cgluon.html
TR
p64
g50
NtRp65
(dp66
g53
(dp67
sg62
g58
sg55
(lp68
g48
(cgluon.html
TD
p69
g50
NtRp70
(dp71
g53
(dp72
S'_style'
p73
S'font-weight:bold;'
p74
ssg62
g65
sg55
(lp75
S'ajax'
p76
asbag48
(g69
g50
NtRp77
(dp78
g53
(dp79
S'_valign'
p80
S'top'
p81
ssg62
g65
sg55
(lp82
S':'
asbag48
(g69
g50
NtRp83
(dp84
g53
(dp85
sg62
g65
sg55
(lp86
g48
(g49
g50
NtRp87
(dp88
g53
(dp89
g61
I5
ssg62
g83
sg55
(lp90
S'False'
p91
asbasbasbag48
(g64
g50
NtRp92
(dp93
g53
(dp94
sg62
g58
sg55
(lp95
g48
(g69
g50
NtRp96
(dp97
g53
(dp98
g73
g74
ssg62
g92
sg55
(lp99
S'application'
p100
asbag48
(g69
g50
NtRp101
(dp102
g53
(dp103
g80
g81
ssg62
g92
sg55
(lp104
S':'
asbag48
(g69
g50
NtRp105
(dp106
g53
(dp107
sg62
g92
sg55
(lp108
g48
(g49
g50
NtRp109
(dp110
g53
(dp111
g61
I5
ssg62
g105
sg55
(lp112
S'Gabb1'
p113
asbasbasbag48
(g64
g50
NtRp114
(dp115
g53
(dp116
sg62
g58
sg55
(lp117
g48
(g69
g50
NtRp118
(dp119
g53
(dp120
g73
g74
ssg62
g114
sg55
(lp121
g27
asbag48
(g69
g50
NtRp122
(dp123
g53
(dp124
g80
g81
ssg62
g114
sg55
(lp125
S':'
asbag48
(g69
g50
NtRp126
(dp127
g53
(dp128
sg62
g114
sg55
(lp129
g48
(g49
g50
NtRp130
(dp131
g53
(dp132
g61
I5
ssg62
g126
sg55
(lp133
g48
(g57
g50
NtRp134
(dp135
g53
(dp136
g61
I4
ssg62
Nsg55
(lp137
sbasbasbasbag48
(g64
g50
NtRp138
(dp139
g53
(dp140
sg62
g58
sg55
(lp141
g48
(g69
g50
NtRp142
(dp143
g53
(dp144
g73
g74
ssg62
g138
sg55
(lp145
S'body'
p146
asbag48
(g69
g50
NtRp147
(dp148
g53
(dp149
g80
g81
ssg62
g138
sg55
(lp150
S':'
asbag48
(g69
g50
NtRp151
(dp152
g53
(dp153
sg62
g138
sg55
(lp154
g48
(g49
g50
NtRp155
(dp156
g53
(dp157
g61
I5
ssg62
g151
sg55
(lp158
S'<cStringIO.StringO object at 0x0868B740>'
p159
asbasbasbag48
(g64
g50
NtRp160
(dp161
g53
(dp162
sg62
g58
sg55
(lp163
g48
(g69
g50
NtRp164
(dp165
g53
(dp166
g73
g74
ssg62
g160
sg55
(lp167
S'client'
p168
asbag48
(g69
g50
NtRp169
(dp170
g53
(dp171
g80
g81
ssg62
g160
sg55
(lp172
S':'
asbag48
(g69
g50
NtRp173
(dp174
g53
(dp175
sg62
g160
sg55
(lp176
g48
(g49
g50
NtRp177
(dp178
g53
(dp179
g61
I5
ssg62
g173
sg55
(lp180
S'127.0.0.1'
p181
asbasbasbag48
(g64
g50
NtRp182
(dp183
g53
(dp184
sg62
g58
sg55
(lp185
g48
(g69
g50
NtRp186
(dp187
g53
(dp188
g73
g74
ssg62
g182
sg55
(lp189
S'controller'
p190
asbag48
(g69
g50
NtRp191
(dp192
g53
(dp193
g80
g81
ssg62
g182
sg55
(lp194
S':'
asbag48
(g69
g50
NtRp195
(dp196
g53
(dp197
sg62
g182
sg55
(lp198
g48
(g49
g50
NtRp199
(dp200
g53
(dp201
g61
I5
ssg62
g195
sg55
(lp202
S'fb_serv'
p203
asbasbasbag48
(g64
g50
NtRp204
(dp205
g53
(dp206
sg62
g58
sg55
(lp207
g48
(g69
g50
NtRp208
(dp209
g53
(dp210
g73
g74
ssg62
g204
sg55
(lp211
S'cookies'
p212
asbag48
(g69
g50
NtRp213
(dp214
g53
(dp215
g80
g81
ssg62
g204
sg55
(lp216
S':'
asbag48
(g69
g50
NtRp217
(dp218
g53
(dp219
sg62
g204
sg55
(lp220
g48
(g49
g50
NtRp221
(dp222
g53
(dp223
g61
I5
ssg62
g217
sg55
(lp224
g48
(g57
g50
NtRp225
(dp226
g53
(dp227
g61
I4
ssg62
Nsg55
(lp228
g48
(g64
g50
NtRp229
(dp230
g53
(dp231
sg62
g225
sg55
(lp232
g48
(g69
g50
NtRp233
(dp234
g53
(dp235
g73
g74
ssg62
g229
sg55
(lp236
S'session_id_admin'
p237
asbag48
(g69
g50
NtRp238
(dp239
g53
(dp240
g80
g81
ssg62
g229
sg55
(lp241
S':'
asbag48
(g69
g50
NtRp242
(dp243
g53
(dp244
sg62
g229
sg55
(lp245
g48
(g49
g50
NtRp246
(dp247
g53
(dp248
g61
I4
ssg62
g242
sg55
(lp249
g48
(g57
g50
NtRp250
(dp251
g53
(dp252
g61
I3
ssg62
Nsg55
(lp253
g48
(g64
g50
NtRp254
(dp255
g53
(dp256
sg62
g250
sg55
(lp257
g48
(g69
g50
NtRp258
(dp259
g53
(dp260
g73
g74
ssg62
g254
sg55
(lp261
S'comment'
p262
asbag48
(g69
g50
NtRp263
(dp264
g53
(dp265
g80
g81
ssg62
g254
sg55
(lp266
S':'
asbag48
(g69
g50
NtRp267
(dp268
g53
(dp269
sg62
g254
sg55
(lp270
g48
(g49
g50
NtRp271
(dp272
g53
(dp273
g61
I3
ssg62
g267
sg55
(lp274
S''
asbasbasbag48
(g64
g50
NtRp275
(dp276
g53
(dp277
sg62
g250
sg55
(lp278
g48
(g69
g50
NtRp279
(dp280
g53
(dp281
g73
g74
ssg62
g275
sg55
(lp282
S'domain'
p283
asbag48
(g69
g50
NtRp284
(dp285
g53
(dp286
g80
g81
ssg62
g275
sg55
(lp287
S':'
asbag48
(g69
g50
NtRp288
(dp289
g53
(dp290
sg62
g275
sg55
(lp291
g48
(g49
g50
NtRp292
(dp293
g53
(dp294
g61
I3
ssg62
g288
sg55
(lp295
S''
asbasbasbag48
(g64
g50
NtRp296
(dp297
g53
(dp298
sg62
g250
sg55
(lp299
g48
(g69
g50
NtRp300
(dp301
g53
(dp302
g73
g74
ssg62
g296
sg55
(lp303
S'expires'
p304
asbag48
(g69
g50
NtRp305
(dp306
g53
(dp307
g80
g81
ssg62
g296
sg55
(lp308
S':'
asbag48
(g69
g50
NtRp309
(dp310
g53
(dp311
sg62
g296
sg55
(lp312
g48
(g49
g50
NtRp313
(dp314
g53
(dp315
g61
I3
ssg62
g309
sg55
(lp316
S''
asbasbasbag48
(g64
g50
NtRp317
(dp318
g53
(dp319
sg62
g250
sg55
(lp320
g48
(g69
g50
NtRp321
(dp322
g53
(dp323
g73
g74
ssg62
g317
sg55
(lp324
S'max-age'
p325
asbag48
(g69
g50
NtRp326
(dp327
g53
(dp328
g80
g81
ssg62
g317
sg55
(lp329
S':'
asbag48
(g69
g50
NtRp330
(dp331
g53
(dp332
sg62
g317
sg55
(lp333
g48
(g49
g50
NtRp334
(dp335
g53
(dp336
g61
I3
ssg62
g330
sg55
(lp337
S''
asbasbasbag48
(g64
g50
NtRp338
(dp339
g53
(dp340
sg62
g250
sg55
(lp341
g48
(g69
g50
NtRp342
(dp343
g53
(dp344
g73
g74
ssg62
g338
sg55
(lp345
S'path'
p346
asbag48
(g69
g50
NtRp347
(dp348
g53
(dp349
g80
g81
ssg62
g338
sg55
(lp350
S':'
asbag48
(g69
g50
NtRp351
(dp352
g53
(dp353
sg62
g338
sg55
(lp354
g48
(g49
g50
NtRp355
(dp356
g53
(dp357
g61
I3
ssg62
g351
sg55
(lp358
S''
asbasbasbag48
(g64
g50
NtRp359
(dp360
g53
(dp361
sg62
g250
sg55
(lp362
g48
(g69
g50
NtRp363
(dp364
g53
(dp365
g73
g74
ssg62
g359
sg55
(lp366
S'secure'
p367
asbag48
(g69
g50
NtRp368
(dp369
g53
(dp370
g80
g81
ssg62
g359
sg55
(lp371
S':'
asbag48
(g69
g50
NtRp372
(dp373
g53
(dp374
sg62
g359
sg55
(lp375
g48
(g49
g50
NtRp376
(dp377
g53
(dp378
g61
I3
ssg62
g372
sg55
(lp379
S''
asbasbasbag48
(g64
g50
NtRp380
(dp381
g53
(dp382
sg62
g250
sg55
(lp383
g48
(g69
g50
NtRp384
(dp385
g53
(dp386
g73
g74
ssg62
g380
sg55
(lp387
S'version'
p388
asbag48
(g69
g50
NtRp389
(dp390
g53
(dp391
g80
g81
ssg62
g380
sg55
(lp392
S':'
asbag48
(g69
g50
NtRp393
(dp394
g53
(dp395
sg62
g380
sg55
(lp396
g48
(g49
g50
NtRp397
(dp398
g53
(dp399
g61
I3
ssg62
g393
sg55
(lp400
S''
asbasbasbasbasbasbasbag48
(g64
g50
NtRp401
(dp402
g53
(dp403
sg62
g225
sg55
(lp404
g48
(g69
g50
NtRp405
(dp406
g53
(dp407
g73
g74
ssg62
g401
sg55
(lp408
S'session_id_gabb1'
p409
asbag48
(g69
g50
NtRp410
(dp411
g53
(dp412
g80
g81
ssg62
g401
sg55
(lp413
S':'
asbag48
(g69
g50
NtRp414
(dp415
g53
(dp416
sg62
g401
sg55
(lp417
g48
(g49
g50
NtRp418
(dp419
g53
(dp420
g61
I4
ssg62
g414
sg55
(lp421
g48
(g57
g50
NtRp422
(dp423
g53
(dp424
g61
I3
ssg62
Nsg55
(lp425
g48
(g64
g50
NtRp426
(dp427
g53
(dp428
sg62
g422
sg55
(lp429
g48
(g69
g50
NtRp430
(dp431
g53
(dp432
g73
g74
ssg62
g426
sg55
(lp433
g262
asbag48
(g69
g50
NtRp434
(dp435
g53
(dp436
g80
g81
ssg62
g426
sg55
(lp437
S':'
asbag48
(g69
g50
NtRp438
(dp439
g53
(dp440
sg62
g426
sg55
(lp441
g48
(g49
g50
NtRp442
(dp443
g53
(dp444
g61
I3
ssg62
g438
sg55
(lp445
S''
asbasbasbag48
(g64
g50
NtRp446
(dp447
g53
(dp448
sg62
g422
sg55
(lp449
g48
(g69
g50
NtRp450
(dp451
g53
(dp452
g73
g74
ssg62
g446
sg55
(lp453
g283
asbag48
(g69
g50
NtRp454
(dp455
g53
(dp456
g80
g81
ssg62
g446
sg55
(lp457
S':'
asbag48
(g69
g50
NtRp458
(dp459
g53
(dp460
sg62
g446
sg55
(lp461
g48
(g49
g50
NtRp462
(dp463
g53
(dp464
g61
I3
ssg62
g458
sg55
(lp465
S''
asbasbasbag48
(g64
g50
NtRp466
(dp467
g53
(dp468
sg62
g422
sg55
(lp469
g48
(g69
g50
NtRp470
(dp471
g53
(dp472
g73
g74
ssg62
g466
sg55
(lp473
g304
asbag48
(g69
g50
NtRp474
(dp475
g53
(dp476
g80
g81
ssg62
g466
sg55
(lp477
S':'
asbag48
(g69
g50
NtRp478
(dp479
g53
(dp480
sg62
g466
sg55
(lp481
g48
(g49
g50
NtRp482
(dp483
g53
(dp484
g61
I3
ssg62
g478
sg55
(lp485
S''
asbasbasbag48
(g64
g50
NtRp486
(dp487
g53
(dp488
sg62
g422
sg55
(lp489
g48
(g69
g50
NtRp490
(dp491
g53
(dp492
g73
g74
ssg62
g486
sg55
(lp493
g325
asbag48
(g69
g50
NtRp494
(dp495
g53
(dp496
g80
g81
ssg62
g486
sg55
(lp497
S':'
asbag48
(g69
g50
NtRp498
(dp499
g53
(dp500
sg62
g486
sg55
(lp501
g48
(g49
g50
NtRp502
(dp503
g53
(dp504
g61
I3
ssg62
g498
sg55
(lp505
S''
asbasbasbag48
(g64
g50
NtRp506
(dp507
g53
(dp508
sg62
g422
sg55
(lp509
g48
(g69
g50
NtRp510
(dp511
g53
(dp512
g73
g74
ssg62
g506
sg55
(lp513
g346
asbag48
(g69
g50
NtRp514
(dp515
g53
(dp516
g80
g81
ssg62
g506
sg55
(lp517
S':'
asbag48
(g69
g50
NtRp518
(dp519
g53
(dp520
sg62
g506
sg55
(lp521
g48
(g49
g50
NtRp522
(dp523
g53
(dp524
g61
I3
ssg62
g518
sg55
(lp525
S''
asbasbasbag48
(g64
g50
NtRp526
(dp527
g53
(dp528
sg62
g422
sg55
(lp529
g48
(g69
g50
NtRp530
(dp531
g53
(dp532
g73
g74
ssg62
g526
sg55
(lp533
g367
asbag48
(g69
g50
NtRp534
(dp535
g53
(dp536
g80
g81
ssg62
g526
sg55
(lp537
S':'
asbag48
(g69
g50
NtRp538
(dp539
g53
(dp540
sg62
g526
sg55
(lp541
g48
(g49
g50
NtRp542
(dp543
g53
(dp544
g61
I3
ssg62
g538
sg55
(lp545
S''
asbasbasbag48
(g64
g50
NtRp546
(dp547
g53
(dp548
sg62
g422
sg55
(lp549
g48
(g69
g50
NtRp550
(dp551
g53
(dp552
g73
g74
ssg62
g546
sg55
(lp553
g388
asbag48
(g69
g50
NtRp554
(dp555
g53
(dp556
g80
g81
ssg62
g546
sg55
(lp557
S':'
asbag48
(g69
g50
NtRp558
(dp559
g53
(dp560
sg62
g546
sg55
(lp561
g48
(g49
g50
NtRp562
(dp563
g53
(dp564
g61
I3
ssg62
g558
sg55
(lp565
S''
asbasbasbasbasbasbasbag48
(g64
g50
NtRp566
(dp567
g53
(dp568
sg62
g225
sg55
(lp569
g48
(g69
g50
NtRp570
(dp571
g53
(dp572
g73
g74
ssg62
g566
sg55
(lp573
S'session_id_ojtest'
p574
asbag48
(g69
g50
NtRp575
(dp576
g53
(dp577
g80
g81
ssg62
g566
sg55
(lp578
S':'
asbag48
(g69
g50
NtRp579
(dp580
g53
(dp581
sg62
g566
sg55
(lp582
g48
(g49
g50
NtRp583
(dp584
g53
(dp585
g61
I4
ssg62
g579
sg55
(lp586
g48
(g57
g50
NtRp587
(dp588
g53
(dp589
g61
I3
ssg62
Nsg55
(lp590
g48
(g64
g50
NtRp591
(dp592
g53
(dp593
sg62
g587
sg55
(lp594
g48
(g69
g50
NtRp595
(dp596
g53
(dp597
g73
g74
ssg62
g591
sg55
(lp598
g262
asbag48
(g69
g50
NtRp599
(dp600
g53
(dp601
g80
g81
ssg62
g591
sg55
(lp602
S':'
asbag48
(g69
g50
NtRp603
(dp604
g53
(dp605
sg62
g591
sg55
(lp606
g48
(g49
g50
NtRp607
(dp608
g53
(dp609
g61
I3
ssg62
g603
sg55
(lp610
S''
asbasbasbag48
(g64
g50
NtRp611
(dp612
g53
(dp613
sg62
g587
sg55
(lp614
g48
(g69
g50
NtRp615
(dp616
g53
(dp617
g73
g74
ssg62
g611
sg55
(lp618
g283
asbag48
(g69
g50
NtRp619
(dp620
g53
(dp621
g80
g81
ssg62
g611
sg55
(lp622
S':'
asbag48
(g69
g50
NtRp623
(dp624
g53
(dp625
sg62
g611
sg55
(lp626
g48
(g49
g50
NtRp627
(dp628
g53
(dp629
g61
I3
ssg62
g623
sg55
(lp630
S''
asbasbasbag48
(g64
g50
NtRp631
(dp632
g53
(dp633
sg62
g587
sg55
(lp634
g48
(g69
g50
NtRp635
(dp636
g53
(dp637
g73
g74
ssg62
g631
sg55
(lp638
g304
asbag48
(g69
g50
NtRp639
(dp640
g53
(dp641
g80
g81
ssg62
g631
sg55
(lp642
S':'
asbag48
(g69
g50
NtRp643
(dp644
g53
(dp645
sg62
g631
sg55
(lp646
g48
(g49
g50
NtRp647
(dp648
g53
(dp649
g61
I3
ssg62
g643
sg55
(lp650
S''
asbasbasbag48
(g64
g50
NtRp651
(dp652
g53
(dp653
sg62
g587
sg55
(lp654
g48
(g69
g50
NtRp655
(dp656
g53
(dp657
g73
g74
ssg62
g651
sg55
(lp658
g325
asbag48
(g69
g50
NtRp659
(dp660
g53
(dp661
g80
g81
ssg62
g651
sg55
(lp662
S':'
asbag48
(g69
g50
NtRp663
(dp664
g53
(dp665
sg62
g651
sg55
(lp666
g48
(g49
g50
NtRp667
(dp668
g53
(dp669
g61
I3
ssg62
g663
sg55
(lp670
S''
asbasbasbag48
(g64
g50
NtRp671
(dp672
g53
(dp673
sg62
g587
sg55
(lp674
g48
(g69
g50
NtRp675
(dp676
g53
(dp677
g73
g74
ssg62
g671
sg55
(lp678
g346
asbag48
(g69
g50
NtRp679
(dp680
g53
(dp681
g80
g81
ssg62
g671
sg55
(lp682
S':'
asbag48
(g69
g50
NtRp683
(dp684
g53
(dp685
sg62
g671
sg55
(lp686
g48
(g49
g50
NtRp687
(dp688
g53
(dp689
g61
I3
ssg62
g683
sg55
(lp690
S''
asbasbasbag48
(g64
g50
NtRp691
(dp692
g53
(dp693
sg62
g587
sg55
(lp694
g48
(g69
g50
NtRp695
(dp696
g53
(dp697
g73
g74
ssg62
g691
sg55
(lp698
g367
asbag48
(g69
g50
NtRp699
(dp700
g53
(dp701
g80
g81
ssg62
g691
sg55
(lp702
S':'
asbag48
(g69
g50
NtRp703
(dp704
g53
(dp705
sg62
g691
sg55
(lp706
g48
(g49
g50
NtRp707
(dp708
g53
(dp709
g61
I3
ssg62
g703
sg55
(lp710
S''
asbasbasbag48
(g64
g50
NtRp711
(dp712
g53
(dp713
sg62
g587
sg55
(lp714
g48
(g69
g50
NtRp715
(dp716
g53
(dp717
g73
g74
ssg62
g711
sg55
(lp718
g388
asbag48
(g69
g50
NtRp719
(dp720
g53
(dp721
g80
g81
ssg62
g711
sg55
(lp722
S':'
asbag48
(g69
g50
NtRp723
(dp724
g53
(dp725
sg62
g711
sg55
(lp726
g48
(g49
g50
NtRp727
(dp728
g53
(dp729
g61
I3
ssg62
g723
sg55
(lp730
S''
asbasbasbasbasbasbasbag48
(g64
g50
NtRp731
(dp732
g53
(dp733
sg62
g225
sg55
(lp734
g48
(g69
g50
NtRp735
(dp736
g53
(dp737
g73
g74
ssg62
g731
sg55
(lp738
S'session_id_welcome'
p739
asbag48
(g69
g50
NtRp740
(dp741
g53
(dp742
g80
g81
ssg62
g731
sg55
(lp743
S':'
asbag48
(g69
g50
NtRp744
(dp745
g53
(dp746
sg62
g731
sg55
(lp747
g48
(g49
g50
NtRp748
(dp749
g53
(dp750
g61
I4
ssg62
g744
sg55
(lp751
g48
(g57
g50
NtRp752
(dp753
g53
(dp754
g61
I3
ssg62
Nsg55
(lp755
g48
(g64
g50
NtRp756
(dp757
g53
(dp758
sg62
g752
sg55
(lp759
g48
(g69
g50
NtRp760
(dp761
g53
(dp762
g73
g74
ssg62
g756
sg55
(lp763
g262
asbag48
(g69
g50
NtRp764
(dp765
g53
(dp766
g80
g81
ssg62
g756
sg55
(lp767
S':'
asbag48
(g69
g50
NtRp768
(dp769
g53
(dp770
sg62
g756
sg55
(lp771
g48
(g49
g50
NtRp772
(dp773
g53
(dp774
g61
I3
ssg62
g768
sg55
(lp775
S''
asbasbasbag48
(g64
g50
NtRp776
(dp777
g53
(dp778
sg62
g752
sg55
(lp779
g48
(g69
g50
NtRp780
(dp781
g53
(dp782
g73
g74
ssg62
g776
sg55
(lp783
g283
asbag48
(g69
g50
NtRp784
(dp785
g53
(dp786
g80
g81
ssg62
g776
sg55
(lp787
S':'
asbag48
(g69
g50
NtRp788
(dp789
g53
(dp790
sg62
g776
sg55
(lp791
g48
(g49
g50
NtRp792
(dp793
g53
(dp794
g61
I3
ssg62
g788
sg55
(lp795
S''
asbasbasbag48
(g64
g50
NtRp796
(dp797
g53
(dp798
sg62
g752
sg55
(lp799
g48
(g69
g50
NtRp800
(dp801
g53
(dp802
g73
g74
ssg62
g796
sg55
(lp803
g304
asbag48
(g69
g50
NtRp804
(dp805
g53
(dp806
g80
g81
ssg62
g796
sg55
(lp807
S':'
asbag48
(g69
g50
NtRp808
(dp809
g53
(dp810
sg62
g796
sg55
(lp811
g48
(g49
g50
NtRp812
(dp813
g53
(dp814
g61
I3
ssg62
g808
sg55
(lp815
S''
asbasbasbag48
(g64
g50
NtRp816
(dp817
g53
(dp818
sg62
g752
sg55
(lp819
g48
(g69
g50
NtRp820
(dp821
g53
(dp822
g73
g74
ssg62
g816
sg55
(lp823
g325
asbag48
(g69
g50
NtRp824
(dp825
g53
(dp826
g80
g81
ssg62
g816
sg55
(lp827
S':'
asbag48
(g69
g50
NtRp828
(dp829
g53
(dp830
sg62
g816
sg55
(lp831
g48
(g49
g50
NtRp832
(dp833
g53
(dp834
g61
I3
ssg62
g828
sg55
(lp835
S''
asbasbasbag48
(g64
g50
NtRp836
(dp837
g53
(dp838
sg62
g752
sg55
(lp839
g48
(g69
g50
NtRp840
(dp841
g53
(dp842
g73
g74
ssg62
g836
sg55
(lp843
g346
asbag48
(g69
g50
NtRp844
(dp845
g53
(dp846
g80
g81
ssg62
g836
sg55
(lp847
S':'
asbag48
(g69
g50
NtRp848
(dp849
g53
(dp850
sg62
g836
sg55
(lp851
g48
(g49
g50
NtRp852
(dp853
g53
(dp854
g61
I3
ssg62
g848
sg55
(lp855
S''
asbasbasbag48
(g64
g50
NtRp856
(dp857
g53
(dp858
sg62
g752
sg55
(lp859
g48
(g69
g50
NtRp860
(dp861
g53
(dp862
g73
g74
ssg62
g856
sg55
(lp863
g367
asbag48
(g69
g50
NtRp864
(dp865
g53
(dp866
g80
g81
ssg62
g856
sg55
(lp867
S':'
asbag48
(g69
g50
NtRp868
(dp869
g53
(dp870
sg62
g856
sg55
(lp871
g48
(g49
g50
NtRp872
(dp873
g53
(dp874
g61
I3
ssg62
g868
sg55
(lp875
S''
asbasbasbag48
(g64
g50
NtRp876
(dp877
g53
(dp878
sg62
g752
sg55
(lp879
g48
(g69
g50
NtRp880
(dp881
g53
(dp882
g73
g74
ssg62
g876
sg55
(lp883
g388
asbag48
(g69
g50
NtRp884
(dp885
g53
(dp886
g80
g81
ssg62
g876
sg55
(lp887
S':'
asbag48
(g69
g50
NtRp888
(dp889
g53
(dp890
sg62
g876
sg55
(lp891
g48
(g49
g50
NtRp892
(dp893
g53
(dp894
g61
I3
ssg62
g888
sg55
(lp895
S''
asbasbasbasbasbasbasbasbasbasbasbag48
(g64
g50
NtRp896
(dp897
g53
(dp898
sg62
g58
sg55
(lp899
g48
(g69
g50
NtRp900
(dp901
g53
(dp902
g73
g74
ssg62
g896
sg55
(lp903
S'env'
p904
asbag48
(g69
g50
NtRp905
(dp906
g53
(dp907
g80
g81
ssg62
g896
sg55
(lp908
S':'
asbag48
(g69
g50
NtRp909
(dp910
g53
(dp911
sg62
g896
sg55
(lp912
g48
(g49
g50
NtRp913
(dp914
g53
(dp915
g61
I5
ssg62
g909
sg55
(lp916
g48
(g57
g50
NtRp917
(dp918
g53
(dp919
g61
I4
ssg62
Nsg55
(lp920
g48
(g64
g50
NtRp921
(dp922
g53
(dp923
sg62
g917
sg55
(lp924
g48
(g69
g50
NtRp925
(dp926
g53
(dp927
g73
g74
ssg62
g921
sg55
(lp928
S'app_folders'
p929
asbag48
(g69
g50
NtRp930
(dp931
g53
(dp932
g80
g81
ssg62
g921
sg55
(lp933
S':'
asbag48
(g69
g50
NtRp934
(dp935
g53
(dp936
sg62
g921
sg55
(lp937
g48
(g49
g50
NtRp938
(dp939
g53
(dp940
g61
I4
ssg62
g934
sg55
(lp941
S"set(['D:\\\\git_projs\\\\Gabblista\\\\web2py\\\\web2py\\\\applications\\\\gabb1\\\\', 'D:\\\\git_projs\\\\Gabblista\\\\web2py\\\\web2py\\\\applications\\\\Gabb1\\\\', 'D:\\\\git_projs\\\\Gabblista\\\\web2py\\\\web2py\\\\applications\\\\admin\\\\', 'D:\\\\git_projs\\\\Gabblista\\\\web2py\\\\web2py\\\\applications\\\\welcome\\\\'])"
p942
asbasbasbag48
(g64
g50
NtRp943
(dp944
g53
(dp945
sg62
g917
sg55
(lp946
g48
(g69
g50
NtRp947
(dp948
g53
(dp949
g73
g74
ssg62
g943
sg55
(lp950
S'applications_parent'
p951
asbag48
(g69
g50
NtRp952
(dp953
g53
(dp954
g80
g81
ssg62
g943
sg55
(lp955
S':'
asbag48
(g69
g50
NtRp956
(dp957
g53
(dp958
sg62
g943
sg55
(lp959
g48
(g49
g50
NtRp960
(dp961
g53
(dp962
g61
I4
ssg62
g956
sg55
(lp963
S'D:\\git_projs\\Gabblista\\web2py\\web2py'
p964
asbasbasbag48
(g64
g50
NtRp965
(dp966
g53
(dp967
sg62
g917
sg55
(lp968
g48
(g69
g50
NtRp969
(dp970
g53
(dp971
g73
g74
ssg62
g965
sg55
(lp972
S'cmd_args'
p973
asbag48
(g69
g50
NtRp974
(dp975
g53
(dp976
g80
g81
ssg62
g965
sg55
(lp977
S':'
asbag48
(g69
g50
NtRp978
(dp979
g53
(dp980
sg62
g965
sg55
(lp981
g48
(g49
g50
NtRp982
(dp983
g53
(dp984
g61
I4
ssg62
g978
sg55
(lp985
g48
(g57
g50
NtRp986
(dp987
g53
(dp988
g61
I3
ssg62
Nsg55
(lp989
sbasbasbasbag48
(g64
g50
NtRp990
(dp991
g53
(dp992
sg62
g917
sg55
(lp993
g48
(g69
g50
NtRp994
(dp995
g53
(dp996
g73
g74
ssg62
g990
sg55
(lp997
S'cmd_options'
p998
asbag48
(g69
g50
NtRp999
(dp1000
g53
(dp1001
g80
g81
ssg62
g990
sg55
(lp1002
S':'
asbag48
(g69
g50
NtRp1003
(dp1004
g53
(dp1005
sg62
g990
sg55
(lp1006
g48
(g49
g50
NtRp1007
(dp1008
g53
(dp1009
g61
I4
ssg62
g1003
sg55
(lp1010
S"<Values at 0x325b800: {'verbose': False, 'ip': '127.0.0.1', 'shutdown_timeout': 5, 'taskbar': False, 'nocron': False, 'pid_filename': 'httpserver.pid', 'maxthreads': None, 'softcron': False, 'server_name': 'John-PC', 'bpython': False, 'nogui': False, 'port': 8000, 'extcron': False, 'debuglevel': 30, 'test': None, 'folder': 'D:\\\\git_projs\\\\Gabblista\\\\web2py\\\\web2py', 'config': '', 'import_models': False, 'winservice': '', 'shell': None, 'run': '', 'log_filename': 'httpserver.log', 'args': [''], 'ssl_ca_certificate': None, 'scheduler': None, 'profiler_filename': None, 'ssl_private_key': '', 'password': '<ask>', 'request_queue_size': 5, 'ssl_certificate': '', 'cronjob': False, 'plain': False, 'quiet': False, 'interfaces': None, 'minthreads': None, 'timeout': 10, 'numthreads': None, 'nobanner': False}>"
p1011
asbasbasbag48
(g64
g50
NtRp1012
(dp1013
g53
(dp1014
sg62
g917
sg55
(lp1015
g48
(g69
g50
NtRp1016
(dp1017
g53
(dp1018
g73
g74
ssg62
g1012
sg55
(lp1019
S'db_sessions'
p1020
asbag48
(g69
g50
NtRp1021
(dp1022
g53
(dp1023
g80
g81
ssg62
g1012
sg55
(lp1024
S':'
asbag48
(g69
g50
NtRp1025
(dp1026
g53
(dp1027
sg62
g1012
sg55
(lp1028
g48
(g49
g50
NtRp1029
(dp1030
g53
(dp1031
g61
I4
ssg62
g1025
sg55
(lp1032
S'set([])'
p1033
asbasbasbag48
(g64
g50
NtRp1034
(dp1035
g53
(dp1036
sg62
g917
sg55
(lp1037
g48
(g69
g50
NtRp1038
(dp1039
g53
(dp1040
g73
g74
ssg62
g1034
sg55
(lp1041
S'debugging'
p1042
asbag48
(g69
g50
NtRp1043
(dp1044
g53
(dp1045
g80
g81
ssg62
g1034
sg55
(lp1046
S':'
asbag48
(g69
g50
NtRp1047
(dp1048
g53
(dp1049
sg62
g1034
sg55
(lp1050
g48
(g49
g50
NtRp1051
(dp1052
g53
(dp1053
g61
I4
ssg62
g1047
sg55
(lp1054
g91
asbasbasbag48
(g64
g50
NtRp1055
(dp1056
g53
(dp1057
sg62
g917
sg55
(lp1058
g48
(g69
g50
NtRp1059
(dp1060
g53
(dp1061
g73
g74
ssg62
g1055
sg55
(lp1062
S'gluon_parent'
p1063
asbag48
(g69
g50
NtRp1064
(dp1065
g53
(dp1066
g80
g81
ssg62
g1055
sg55
(lp1067
S':'
asbag48
(g69
g50
NtRp1068
(dp1069
g53
(dp1070
sg62
g1055
sg55
(lp1071
g48
(g49
g50
NtRp1072
(dp1073
g53
(dp1074
g61
I4
ssg62
g1068
sg55
(lp1075
S'D:\\git_projs\\Gabblista\\web2py\\web2py'
p1076
asbasbasbag48
(g64
g50
NtRp1077
(dp1078
g53
(dp1079
sg62
g917
sg55
(lp1080
g48
(g69
g50
NtRp1081
(dp1082
g53
(dp1083
g73
g74
ssg62
g1077
sg55
(lp1084
S'http_accept'
p1085
asbag48
(g69
g50
NtRp1086
(dp1087
g53
(dp1088
g80
g81
ssg62
g1077
sg55
(lp1089
S':'
asbag48
(g69
g50
NtRp1090
(dp1091
g53
(dp1092
sg62
g1077
sg55
(lp1093
g48
(g49
g50
NtRp1094
(dp1095
g53
(dp1096
g61
I4
ssg62
g1090
sg55
(lp1097
S'text/html,application/xhtml+xml,application/xml;q=0.9,*/*;q=0.8'
p1098
asbasbasbag48
(g64
g50
NtRp1099
(dp1100
g53
(dp1101
sg62
g917
sg55
(lp1102
g48
(g69
g50
NtRp1103
(dp1104
g53
(dp1105
g73
g74
ssg62
g1099
sg55
(lp1106
S'http_accept_charset'
p1107
asbag48
(g69
g50
NtRp1108
(dp1109
g53
(dp1110
g80
g81
ssg62
g1099
sg55
(lp1111
S':'
asbag48
(g69
g50
NtRp1112
(dp1113
g53
(dp1114
sg62
g1099
sg55
(lp1115
g48
(g49
g50
NtRp1116
(dp1117
g53
(dp1118
g61
I4
ssg62
g1112
sg55
(lp1119
S'ISO-8859-1,utf-8;q=0.7,*;q=0.3'
p1120
asbasbasbag48
(g64
g50
NtRp1121
(dp1122
g53
(dp1123
sg62
g917
sg55
(lp1124
g48
(g69
g50
NtRp1125
(dp1126
g53
(dp1127
g73
g74
ssg62
g1121
sg55
(lp1128
S'http_accept_encoding'
p1129
asbag48
(g69
g50
NtRp1130
(dp1131
g53
(dp1132
g80
g81
ssg62
g1121
sg55
(lp1133
S':'
asbag48
(g69
g50
NtRp1134
(dp1135
g53
(dp1136
sg62
g1121
sg55
(lp1137
g48
(g49
g50
NtRp1138
(dp1139
g53
(dp1140
g61
I4
ssg62
g1134
sg55
(lp1141
S'gzip,deflate,sdch'
p1142
asbasbasbag48
(g64
g50
NtRp1143
(dp1144
g53
(dp1145
sg62
g917
sg55
(lp1146
g48
(g69
g50
NtRp1147
(dp1148
g53
(dp1149
g73
g74
ssg62
g1143
sg55
(lp1150
S'http_accept_language'
p1151
asbag48
(g69
g50
NtRp1152
(dp1153
g53
(dp1154
g80
g81
ssg62
g1143
sg55
(lp1155
S':'
asbag48
(g69
g50
NtRp1156
(dp1157
g53
(dp1158
sg62
g1143
sg55
(lp1159
g48
(g49
g50
NtRp1160
(dp1161
g53
(dp1162
g61
I4
ssg62
g1156
sg55
(lp1163
S'en-US,en;q=0.8'
p1164
asbasbasbag48
(g64
g50
NtRp1165
(dp1166
g53
(dp1167
sg62
g917
sg55
(lp1168
g48
(g69
g50
NtRp1169
(dp1170
g53
(dp1171
g73
g74
ssg62
g1165
sg55
(lp1172
S'http_connection'
p1173
asbag48
(g69
g50
NtRp1174
(dp1175
g53
(dp1176
g80
g81
ssg62
g1165
sg55
(lp1177
S':'
asbag48
(g69
g50
NtRp1178
(dp1179
g53
(dp1180
sg62
g1165
sg55
(lp1181
g48
(g49
g50
NtRp1182
(dp1183
g53
(dp1184
g61
I4
ssg62
g1178
sg55
(lp1185
S'keep-alive'
p1186
asbasbasbag48
(g64
g50
NtRp1187
(dp1188
g53
(dp1189
sg62
g917
sg55
(lp1190
g48
(g69
g50
NtRp1191
(dp1192
g53
(dp1193
g73
g74
ssg62
g1187
sg55
(lp1194
S'http_cookie'
p1195
asbag48
(g69
g50
NtRp1196
(dp1197
g53
(dp1198
g80
g81
ssg62
g1187
sg55
(lp1199
S':'
asbag48
(g69
g50
NtRp1200
(dp1201
g53
(dp1202
sg62
g1187
sg55
(lp1203
g48
(g49
g50
NtRp1204
(dp1205
g53
(dp1206
g61
I4
ssg62
g1200
sg55
(lp1207
S'session_id_ojtest="1673:0b3a82b6-d697-4763-b7ae-5776f137ef68"; session_id_admin=127.0.0.1-36373dbf-d82c-4405-b2a1-4903a4e5c8b4; session_id_gabb1=127.0.0.1-d70f1b64-8c0a-4b00-8f09-d96539cead70; session_id_welcome=127.0.0.1-65fbea29-a7f8-49d2-b8f8-4bef6f57111e'
p1208
asbasbasbag48
(g64
g50
NtRp1209
(dp1210
g53
(dp1211
sg62
g917
sg55
(lp1212
g48
(g69
g50
NtRp1213
(dp1214
g53
(dp1215
g73
g74
ssg62
g1209
sg55
(lp1216
S'http_host'
p1217
asbag48
(g69
g50
NtRp1218
(dp1219
g53
(dp1220
g80
g81
ssg62
g1209
sg55
(lp1221
S':'
asbag48
(g69
g50
NtRp1222
(dp1223
g53
(dp1224
sg62
g1209
sg55
(lp1225
g48
(g49
g50
NtRp1226
(dp1227
g53
(dp1228
g61
I4
ssg62
g1222
sg55
(lp1229
S'127.0.0.1:8000'
p1230
asbasbasbag48
(g64
g50
NtRp1231
(dp1232
g53
(dp1233
sg62
g917
sg55
(lp1234
g48
(g69
g50
NtRp1235
(dp1236
g53
(dp1237
g73
g74
ssg62
g1231
sg55
(lp1238
S'http_user_agent'
p1239
asbag48
(g69
g50
NtRp1240
(dp1241
g53
(dp1242
g80
g81
ssg62
g1231
sg55
(lp1243
S':'
asbag48
(g69
g50
NtRp1244
(dp1245
g53
(dp1246
sg62
g1231
sg55
(lp1247
g48
(g49
g50
NtRp1248
(dp1249
g53
(dp1250
g61
I4
ssg62
g1244
sg55
(lp1251
S'Mozilla/5.0 (Windows NT 6.1; WOW64) AppleWebKit/535.7 (KHTML, like Gecko) Chrome/16.0.912.75 Safari/535.7'
p1252
asbasbasbag48
(g64
g50
NtRp1253
(dp1254
g53
(dp1255
sg62
g917
sg55
(lp1256
g48
(g69
g50
NtRp1257
(dp1258
g53
(dp1259
g73
g74
ssg62
g1253
sg55
(lp1260
S'is_jython'
p1261
asbag48
(g69
g50
NtRp1262
(dp1263
g53
(dp1264
g80
g81
ssg62
g1253
sg55
(lp1265
S':'
asbag48
(g69
g50
NtRp1266
(dp1267
g53
(dp1268
sg62
g1253
sg55
(lp1269
g48
(g49
g50
NtRp1270
(dp1271
g53
(dp1272
g61
I4
ssg62
g1266
sg55
(lp1273
g91
asbasbasbag48
(g64
g50
NtRp1274
(dp1275
g53
(dp1276
sg62
g917
sg55
(lp1277
g48
(g69
g50
NtRp1278
(dp1279
g53
(dp1280
g73
g74
ssg62
g1274
sg55
(lp1281
S'path_info'
p1282
asbag48
(g69
g50
NtRp1283
(dp1284
g53
(dp1285
g80
g81
ssg62
g1274
sg55
(lp1286
S':'
asbag48
(g69
g50
NtRp1287
(dp1288
g53
(dp1289
sg62
g1274
sg55
(lp1290
g48
(g49
g50
NtRp1291
(dp1292
g53
(dp1293
g61
I4
ssg62
g1287
sg55
(lp1294
S'/Gabb1/fb_serv/serve_player_data.txt'
p1295
asbasbasbag48
(g64
g50
NtRp1296
(dp1297
g53
(dp1298
sg62
g917
sg55
(lp1299
g48
(g69
g50
NtRp1300
(dp1301
g53
(dp1302
g73
g74
ssg62
g1296
sg55
(lp1303
S'query_string'
p1304
asbag48
(g69
g50
NtRp1305
(dp1306
g53
(dp1307
g80
g81
ssg62
g1296
sg55
(lp1308
S':'
asbag48
(g69
g50
NtRp1309
(dp1310
g53
(dp1311
sg62
g1296
sg55
(lp1312
g48
(g49
g50
NtRp1313
(dp1314
g53
(dp1315
g61
I4
ssg62
g1309
sg55
(lp1316
S'player_id=1&opponent_id=2&game_id=0'
p1317
asbasbasbag48
(g64
g50
NtRp1318
(dp1319
g53
(dp1320
sg62
g917
sg55
(lp1321
g48
(g69
g50
NtRp1322
(dp1323
g53
(dp1324
g73
g74
ssg62
g1318
sg55
(lp1325
S'remote_addr'
p1326
asbag48
(g69
g50
NtRp1327
(dp1328
g53
(dp1329
g80
g81
ssg62
g1318
sg55
(lp1330
S':'
asbag48
(g69
g50
NtRp1331
(dp1332
g53
(dp1333
sg62
g1318
sg55
(lp1334
g48
(g49
g50
NtRp1335
(dp1336
g53
(dp1337
g61
I4
ssg62
g1331
sg55
(lp1338
g181
asbasbasbag48
(g64
g50
NtRp1339
(dp1340
g53
(dp1341
sg62
g917
sg55
(lp1342
g48
(g69
g50
NtRp1343
(dp1344
g53
(dp1345
g73
g74
ssg62
g1339
sg55
(lp1346
S'remote_port'
p1347
asbag48
(g69
g50
NtRp1348
(dp1349
g53
(dp1350
g80
g81
ssg62
g1339
sg55
(lp1351
S':'
asbag48
(g69
g50
NtRp1352
(dp1353
g53
(dp1354
sg62
g1339
sg55
(lp1355
g48
(g49
g50
NtRp1356
(dp1357
g53
(dp1358
g61
I4
ssg62
g1352
sg55
(lp1359
S'65413'
p1360
asbasbasbag48
(g64
g50
NtRp1361
(dp1362
g53
(dp1363
sg62
g917
sg55
(lp1364
g48
(g69
g50
NtRp1365
(dp1366
g53
(dp1367
g73
g74
ssg62
g1361
sg55
(lp1368
S'request_method'
p1369
asbag48
(g69
g50
NtRp1370
(dp1371
g53
(dp1372
g80
g81
ssg62
g1361
sg55
(lp1373
S':'
asbag48
(g69
g50
NtRp1374
(dp1375
g53
(dp1376
sg62
g1361
sg55
(lp1377
g48
(g49
g50
NtRp1378
(dp1379
g53
(dp1380
g61
I4
ssg62
g1374
sg55
(lp1381
S'GET'
p1382
asbasbasbag48
(g64
g50
NtRp1383
(dp1384
g53
(dp1385
sg62
g917
sg55
(lp1386
g48
(g69
g50
NtRp1387
(dp1388
g53
(dp1389
g73
g74
ssg62
g1383
sg55
(lp1390
S'request_uri'
p1391
asbag48
(g69
g50
NtRp1392
(dp1393
g53
(dp1394
g80
g81
ssg62
g1383
sg55
(lp1395
S':'
asbag48
(g69
g50
NtRp1396
(dp1397
g53
(dp1398
sg62
g1383
sg55
(lp1399
g48
(g49
g50
NtRp1400
(dp1401
g53
(dp1402
g61
I4
ssg62
g1396
sg55
(lp1403
S'/Gabb1/fb_serv/serve_player_data.txt?player_id=1&opponent_id=2&game_id=0'
p1404
asbasbasbag48
(g64
g50
NtRp1405
(dp1406
g53
(dp1407
sg62
g917
sg55
(lp1408
g48
(g69
g50
NtRp1409
(dp1410
g53
(dp1411
g73
g74
ssg62
g1405
sg55
(lp1412
S'script_name'
p1413
asbag48
(g69
g50
NtRp1414
(dp1415
g53
(dp1416
g80
g81
ssg62
g1405
sg55
(lp1417
S':'
asbag48
(g69
g50
NtRp1418
(dp1419
g53
(dp1420
sg62
g1405
sg55
(lp1421
g48
(g49
g50
NtRp1422
(dp1423
g53
(dp1424
g61
I4
ssg62
g1418
sg55
(lp1425
S''
asbasbasbag48
(g64
g50
NtRp1426
(dp1427
g53
(dp1428
sg62
g917
sg55
(lp1429
g48
(g69
g50
NtRp1430
(dp1431
g53
(dp1432
g73
g74
ssg62
g1426
sg55
(lp1433
S'server_name'
p1434
asbag48
(g69
g50
NtRp1435
(dp1436
g53
(dp1437
g80
g81
ssg62
g1426
sg55
(lp1438
S':'
asbag48
(g69
g50
NtRp1439
(dp1440
g53
(dp1441
sg62
g1426
sg55
(lp1442
g48
(g49
g50
NtRp1443
(dp1444
g53
(dp1445
g61
I4
ssg62
g1439
sg55
(lp1446
S'John-PC'
p1447
asbasbasbag48
(g64
g50
NtRp1448
(dp1449
g53
(dp1450
sg62
g917
sg55
(lp1451
g48
(g69
g50
NtRp1452
(dp1453
g53
(dp1454
g73
g74
ssg62
g1448
sg55
(lp1455
S'server_port'
p1456
asbag48
(g69
g50
NtRp1457
(dp1458
g53
(dp1459
g80
g81
ssg62
g1448
sg55
(lp1460
S':'
asbag48
(g69
g50
NtRp1461
(dp1462
g53
(dp1463
sg62
g1448
sg55
(lp1464
g48
(g49
g50
NtRp1465
(dp1466
g53
(dp1467
g61
I4
ssg62
g1461
sg55
(lp1468
S'8000'
p1469
asbasbasbag48
(g64
g50
NtRp1470
(dp1471
g53
(dp1472
sg62
g917
sg55
(lp1473
g48
(g69
g50
NtRp1474
(dp1475
g53
(dp1476
g73
g74
ssg62
g1470
sg55
(lp1477
S'server_protocol'
p1478
asbag48
(g69
g50
NtRp1479
(dp1480
g53
(dp1481
g80
g81
ssg62
g1470
sg55
(lp1482
S':'
asbag48
(g69
g50
NtRp1483
(dp1484
g53
(dp1485
sg62
g1470
sg55
(lp1486
g48
(g49
g50
NtRp1487
(dp1488
g53
(dp1489
g61
I4
ssg62
g1483
sg55
(lp1490
S'HTTP/1.1'
p1491
asbasbasbag48
(g64
g50
NtRp1492
(dp1493
g53
(dp1494
sg62
g917
sg55
(lp1495
g48
(g69
g50
NtRp1496
(dp1497
g53
(dp1498
g73
g74
ssg62
g1492
sg55
(lp1499
S'server_software'
p1500
asbag48
(g69
g50
NtRp1501
(dp1502
g53
(dp1503
g80
g81
ssg62
g1492
sg55
(lp1504
S':'
asbag48
(g69
g50
NtRp1505
(dp1506
g53
(dp1507
sg62
g1492
sg55
(lp1508
g48
(g49
g50
NtRp1509
(dp1510
g53
(dp1511
g61
I4
ssg62
g1505
sg55
(lp1512
S'Rocket 1.2.4'
p1513
asbasbasbag48
(g64
g50
NtRp1514
(dp1515
g53
(dp1516
sg62
g917
sg55
(lp1517
g48
(g69
g50
NtRp1518
(dp1519
g53
(dp1520
g73
g74
ssg62
g1514
sg55
(lp1521
S'web2py_crontype'
p1522
asbag48
(g69
g50
NtRp1523
(dp1524
g53
(dp1525
g80
g81
ssg62
g1514
sg55
(lp1526
S':'
asbag48
(g69
g50
NtRp1527
(dp1528
g53
(dp1529
sg62
g1514
sg55
(lp1530
g48
(g49
g50
NtRp1531
(dp1532
g53
(dp1533
g61
I4
ssg62
g1527
sg55
(lp1534
S'hard'
p1535
asbasbasbag48
(g64
g50
NtRp1536
(dp1537
g53
(dp1538
sg62
g917
sg55
(lp1539
g48
(g69
g50
NtRp1540
(dp1541
g53
(dp1542
g73
g74
ssg62
g1536
sg55
(lp1543
S'web2py_original_uri'
p1544
asbag48
(g69
g50
NtRp1545
(dp1546
g53
(dp1547
g80
g81
ssg62
g1536
sg55
(lp1548
S':'
asbag48
(g69
g50
NtRp1549
(dp1550
g53
(dp1551
sg62
g1536
sg55
(lp1552
g48
(g49
g50
NtRp1553
(dp1554
g53
(dp1555
g61
I4
ssg62
g1549
sg55
(lp1556
S'/Gabb1/fb_serv/serve_player_data.txt?player_id=1&opponent_id=2&game_id=0'
p1557
asbasbasbag48
(g64
g50
NtRp1558
(dp1559
g53
(dp1560
sg62
g917
sg55
(lp1561
g48
(g69
g50
NtRp1562
(dp1563
g53
(dp1564
g73
g74
ssg62
g1558
sg55
(lp1565
S'web2py_path'
p1566
asbag48
(g69
g50
NtRp1567
(dp1568
g53
(dp1569
g80
g81
ssg62
g1558
sg55
(lp1570
S':'
asbag48
(g69
g50
NtRp1571
(dp1572
g53
(dp1573
sg62
g1558
sg55
(lp1574
g48
(g49
g50
NtRp1575
(dp1576
g53
(dp1577
g61
I4
ssg62
g1571
sg55
(lp1578
g964
asbasbasbag48
(g64
g50
NtRp1579
(dp1580
g53
(dp1581
sg62
g917
sg55
(lp1582
g48
(g69
g50
NtRp1583
(dp1584
g53
(dp1585
g73
g74
ssg62
g1579
sg55
(lp1586
S'web2py_version'
p1587
asbag48
(g69
g50
NtRp1588
(dp1589
g53
(dp1590
g80
g81
ssg62
g1579
sg55
(lp1591
S':'
asbag48
(g69
g50
NtRp1592
(dp1593
g53
(dp1594
sg62
g1579
sg55
(lp1595
g48
(g49
g50
NtRp1596
(dp1597
g53
(dp1598
g61
I4
ssg62
g1592
sg55
(lp1599
g48
(g57
g50
NtRp1600
(dp1601
g53
(dp1602
g61
I3
ssg62
Nsg55
(lp1603
g48
(g64
g50
NtRp1604
(dp1605
g53
(dp1606
sg62
g1600
sg55
(lp1607
g48
(g69
g50
NtRp1608
(dp1609
g53
(dp1610
sg62
g1604
sg55
(lp1611
g48
(g49
g50
NtRp1612
(dp1613
g53
(dp1614
g61
I3
ssg62
g1608
sg55
(lp1615
S'1'
asbasbasbag48
(g64
g50
NtRp1616
(dp1617
g53
(dp1618
sg62
g1600
sg55
(lp1619
g48
(g69
g50
NtRp1620
(dp1621
g53
(dp1622
sg62
g1616
sg55
(lp1623
g48
(g49
g50
NtRp1624
(dp1625
g53
(dp1626
g61
I3
ssg62
g1620
sg55
(lp1627
S'99'
p1628
asbasbasbag48
(g64
g50
NtRp1629
(dp1630
g53
(dp1631
sg62
g1600
sg55
(lp1632
g48
(g69
g50
NtRp1633
(dp1634
g53
(dp1635
sg62
g1629
sg55
(lp1636
g48
(g49
g50
NtRp1637
(dp1638
g53
(dp1639
g61
I3
ssg62
g1633
sg55
(lp1640
S'2'
asbasbasbag48
(g64
g50
NtRp1641
(dp1642
g53
(dp1643
sg62
g1600
sg55
(lp1644
g48
(g69
g50
NtRp1645
(dp1646
g53
(dp1647
sg62
g1641
sg55
(lp1648
g48
(g49
g50
NtRp1649
(dp1650
g53
(dp1651
g61
I3
ssg62
g1645
sg55
(lp1652
S'datetime.datetime(2011, 9, 26, 6, 55, 33)'
p1653
asbasbasbag48
(g64
g50
NtRp1654
(dp1655
g53
(dp1656
sg62
g1600
sg55
(lp1657
g48
(g69
g50
NtRp1658
(dp1659
g53
(dp1660
sg62
g1654
sg55
(lp1661
g48
(g49
g50
NtRp1662
(dp1663
g53
(dp1664
g61
I3
ssg62
g1658
sg55
(lp1665
S'stable'
p1666
asbasbasbasbasbasbasbag48
(g64
g50
NtRp1667
(dp1668
g53
(dp1669
sg62
g917
sg55
(lp1670
g48
(g69
g50
NtRp1671
(dp1672
g53
(dp1673
g73
g74
ssg62
g1667
sg55
(lp1674
S'wsgi_errors'
p1675
asbag48
(g69
g50
NtRp1676
(dp1677
g53
(dp1678
g80
g81
ssg62
g1667
sg55
(lp1679
S':'
asbag48
(g69
g50
NtRp1680
(dp1681
g53
(dp1682
sg62
g1667
sg55
(lp1683
g48
(g49
g50
NtRp1684
(dp1685
g53
(dp1686
g61
I4
ssg62
g1680
sg55
(lp1687
S"<open file '<stderr>', mode 'w' at 0x01D300B0>"
p1688
asbasbasbag48
(g64
g50
NtRp1689
(dp1690
g53
(dp1691
sg62
g917
sg55
(lp1692
g48
(g69
g50
NtRp1693
(dp1694
g53
(dp1695
g73
g74
ssg62
g1689
sg55
(lp1696
S'wsgi_file_wrapper'
p1697
asbag48
(g69
g50
NtRp1698
(dp1699
g53
(dp1700
g80
g81
ssg62
g1689
sg55
(lp1701
S':'
asbag48
(g69
g50
NtRp1702
(dp1703
g53
(dp1704
sg62
g1689
sg55
(lp1705
g48
(g49
g50
NtRp1706
(dp1707
g53
(dp1708
g61
I4
ssg62
g1702
sg55
(lp1709
S'<class wsgiref.util.FileWrapper at 0x0318A600>'
p1710
asbasbasbag48
(g64
g50
NtRp1711
(dp1712
g53
(dp1713
sg62
g917
sg55
(lp1714
g48
(g69
g50
NtRp1715
(dp1716
g53
(dp1717
g73
g74
ssg62
g1711
sg55
(lp1718
S'wsgi_input'
p1719
asbag48
(g69
g50
NtRp1720
(dp1721
g53
(dp1722
g80
g81
ssg62
g1711
sg55
(lp1723
S':'
asbag48
(g69
g50
NtRp1724
(dp1725
g53
(dp1726
sg62
g1711
sg55
(lp1727
g48
(g49
g50
NtRp1728
(dp1729
g53
(dp1730
g61
I4
ssg62
g1724
sg55
(lp1731
S'<socket._fileobject object at 0x035E60B0>'
p1732
asbasbasbag48
(g64
g50
NtRp1733
(dp1734
g53
(dp1735
sg62
g917
sg55
(lp1736
g48
(g69
g50
NtRp1737
(dp1738
g53
(dp1739
g73
g74
ssg62
g1733
sg55
(lp1740
S'wsgi_multiprocess'
p1741
asbag48
(g69
g50
NtRp1742
(dp1743
g53
(dp1744
g80
g81
ssg62
g1733
sg55
(lp1745
S':'
asbag48
(g69
g50
NtRp1746
(dp1747
g53
(dp1748
sg62
g1733
sg55
(lp1749
g48
(g49
g50
NtRp1750
(dp1751
g53
(dp1752
g61
I4
ssg62
g1746
sg55
(lp1753
g91
asbasbasbag48
(g64
g50
NtRp1754
(dp1755
g53
(dp1756
sg62
g917
sg55
(lp1757
g48
(g69
g50
NtRp1758
(dp1759
g53
(dp1760
g73
g74
ssg62
g1754
sg55
(lp1761
S'wsgi_multithread'
p1762
asbag48
(g69
g50
NtRp1763
(dp1764
g53
(dp1765
g80
g81
ssg62
g1754
sg55
(lp1766
S':'
asbag48
(g69
g50
NtRp1767
(dp1768
g53
(dp1769
sg62
g1754
sg55
(lp1770
g48
(g49
g50
NtRp1771
(dp1772
g53
(dp1773
g61
I4
ssg62
g1767
sg55
(lp1774
S'True'
p1775
asbasbasbag48
(g64
g50
NtRp1776
(dp1777
g53
(dp1778
sg62
g917
sg55
(lp1779
g48
(g69
g50
NtRp1780
(dp1781
g53
(dp1782
g73
g74
ssg62
g1776
sg55
(lp1783
S'wsgi_run_once'
p1784
asbag48
(g69
g50
NtRp1785
(dp1786
g53
(dp1787
g80
g81
ssg62
g1776
sg55
(lp1788
S':'
asbag48
(g69
g50
NtRp1789
(dp1790
g53
(dp1791
sg62
g1776
sg55
(lp1792
g48
(g49
g50
NtRp1793
(dp1794
g53
(dp1795
g61
I4
ssg62
g1789
sg55
(lp1796
g91
asbasbasbag48
(g64
g50
NtRp1797
(dp1798
g53
(dp1799
sg62
g917
sg55
(lp1800
g48
(g69
g50
NtRp1801
(dp1802
g53
(dp1803
g73
g74
ssg62
g1797
sg55
(lp1804
S'wsgi_url_scheme'
p1805
asbag48
(g69
g50
NtRp1806
(dp1807
g53
(dp1808
g80
g81
ssg62
g1797
sg55
(lp1809
S':'
asbag48
(g69
g50
NtRp1810
(dp1811
g53
(dp1812
sg62
g1797
sg55
(lp1813
g48
(g49
g50
NtRp1814
(dp1815
g53
(dp1816
g61
I4
ssg62
g1810
sg55
(lp1817
S'http'
p1818
asbasbasbag48
(g64
g50
NtRp1819
(dp1820
g53
(dp1821
sg62
g917
sg55
(lp1822
g48
(g69
g50
NtRp1823
(dp1824
g53
(dp1825
g73
g74
ssg62
g1819
sg55
(lp1826
S'wsgi_version'
p1827
asbag48
(g69
g50
NtRp1828
(dp1829
g53
(dp1830
g80
g81
ssg62
g1819
sg55
(lp1831
S':'
asbag48
(g69
g50
NtRp1832
(dp1833
g53
(dp1834
sg62
g1819
sg55
(lp1835
g48
(g49
g50
NtRp1836
(dp1837
g53
(dp1838
g61
I4
ssg62
g1832
sg55
(lp1839
g48
(g57
g50
NtRp1840
(dp1841
g53
(dp1842
g61
I3
ssg62
Nsg55
(lp1843
g48
(g64
g50
NtRp1844
(dp1845
g53
(dp1846
sg62
g1840
sg55
(lp1847
g48
(g69
g50
NtRp1848
(dp1849
g53
(dp1850
sg62
g1844
sg55
(lp1851
g48
(g49
g50
NtRp1852
(dp1853
g53
(dp1854
g61
I3
ssg62
g1848
sg55
(lp1855
S'1'
asbasbasbag48
(g64
g50
NtRp1856
(dp1857
g53
(dp1858
sg62
g1840
sg55
(lp1859
g48
(g69
g50
NtRp1860
(dp1861
g53
(dp1862
sg62
g1856
sg55
(lp1863
g48
(g49
g50
NtRp1864
(dp1865
g53
(dp1866
g61
I3
ssg62
g1860
sg55
(lp1867
S'0'
asbasbasbasbasbasbasbasbasbasbasbag48
(g64
g50
NtRp1868
(dp1869
g53
(dp1870
sg62
g58
sg55
(lp1871
g48
(g69
g50
NtRp1872
(dp1873
g53
(dp1874
g73
g74
ssg62
g1868
sg55
(lp1875
S'extension'
p1876
asbag48
(g69
g50
NtRp1877
(dp1878
g53
(dp1879
g80
g81
ssg62
g1868
sg55
(lp1880
S':'
asbag48
(g69
g50
NtRp1881
(dp1882
g53
(dp1883
sg62
g1868
sg55
(lp1884
g48
(g49
g50
NtRp1885
(dp1886
g53
(dp1887
g61
I5
ssg62
g1881
sg55
(lp1888
S'txt'
p1889
asbasbasbag48
(g64
g50
NtRp1890
(dp1891
g53
(dp1892
sg62
g58
sg55
(lp1893
g48
(g69
g50
NtRp1894
(dp1895
g53
(dp1896
g73
g74
ssg62
g1890
sg55
(lp1897
S'folder'
p1898
asbag48
(g69
g50
NtRp1899
(dp1900
g53
(dp1901
g80
g81
ssg62
g1890
sg55
(lp1902
S':'
asbag48
(g69
g50
NtRp1903
(dp1904
g53
(dp1905
sg62
g1890
sg55
(lp1906
g48
(g49
g50
NtRp1907
(dp1908
g53
(dp1909
g61
I5
ssg62
g1903
sg55
(lp1910
S'D:\\git_projs\\Gabblista\\web2py\\web2py\\applications\\Gabb1\\'
p1911
asbasbasbag48
(g64
g50
NtRp1912
(dp1913
g53
(dp1914
sg62
g58
sg55
(lp1915
g48
(g69
g50
NtRp1916
(dp1917
g53
(dp1918
g73
g74
ssg62
g1912
sg55
(lp1919
S'function'
p1920
asbag48
(g69
g50
NtRp1921
(dp1922
g53
(dp1923
g80
g81
ssg62
g1912
sg55
(lp1924
S':'
asbag48
(g69
g50
NtRp1925
(dp1926
g53
(dp1927
sg62
g1912
sg55
(lp1928
g48
(g49
g50
NtRp1929
(dp1930
g53
(dp1931
g61
I5
ssg62
g1925
sg55
(lp1932
S'serve_player_data'
p1933
asbasbasbag48
(g64
g50
NtRp1934
(dp1935
g53
(dp1936
sg62
g58
sg55
(lp1937
g48
(g69
g50
NtRp1938
(dp1939
g53
(dp1940
g73
g74
ssg62
g1934
sg55
(lp1941
S'get_vars'
p1942
asbag48
(g69
g50
NtRp1943
(dp1944
g53
(dp1945
g80
g81
ssg62
g1934
sg55
(lp1946
S':'
asbag48
(g69
g50
NtRp1947
(dp1948
g53
(dp1949
sg62
g1934
sg55
(lp1950
g48
(g49
g50
NtRp1951
(dp1952
g53
(dp1953
g61
I5
ssg62
g1947
sg55
(lp1954
g48
(g57
g50
NtRp1955
(dp1956
g53
(dp1957
g61
I4
ssg62
Nsg55
(lp1958
g48
(g64
g50
NtRp1959
(dp1960
g53
(dp1961
sg62
g1955
sg55
(lp1962
g48
(g69
g50
NtRp1963
(dp1964
g53
(dp1965
g73
g74
ssg62
g1959
sg55
(lp1966
S'game_id'
p1967
asbag48
(g69
g50
NtRp1968
(dp1969
g53
(dp1970
g80
g81
ssg62
g1959
sg55
(lp1971
S':'
asbag48
(g69
g50
NtRp1972
(dp1973
g53
(dp1974
sg62
g1959
sg55
(lp1975
g48
(g49
g50
NtRp1976
(dp1977
g53
(dp1978
g61
I4
ssg62
g1972
sg55
(lp1979
S'0'
asbasbasbag48
(g64
g50
NtRp1980
(dp1981
g53
(dp1982
sg62
g1955
sg55
(lp1983
g48
(g69
g50
NtRp1984
(dp1985
g53
(dp1986
g73
g74
ssg62
g1980
sg55
(lp1987
S'opponent_id'
p1988
asbag48
(g69
g50
NtRp1989
(dp1990
g53
(dp1991
g80
g81
ssg62
g1980
sg55
(lp1992
S':'
asbag48
(g69
g50
NtRp1993
(dp1994
g53
(dp1995
sg62
g1980
sg55
(lp1996
g48
(g49
g50
NtRp1997
(dp1998
g53
(dp1999
g61
I4
ssg62
g1993
sg55
(lp2000
S'2'
asbasbasbag48
(g64
g50
NtRp2001
(dp2002
g53
(dp2003
sg62
g1955
sg55
(lp2004
g48
(g69
g50
NtRp2005
(dp2006
g53
(dp2007
g73
g74
ssg62
g2001
sg55
(lp2008
S'player_id'
p2009
asbag48
(g69
g50
NtRp2010
(dp2011
g53
(dp2012
g80
g81
ssg62
g2001
sg55
(lp2013
S':'
asbag48
(g69
g50
NtRp2014
(dp2015
g53
(dp2016
sg62
g2001
sg55
(lp2017
g48
(g49
g50
NtRp2018
(dp2019
g53
(dp2020
g61
I4
ssg62
g2014
sg55
(lp2021
S'1'
asbasbasbasbasbasbasbag48
(g64
g50
NtRp2022
(dp2023
g53
(dp2024
sg62
g58
sg55
(lp2025
g48
(g69
g50
NtRp2026
(dp2027
g53
(dp2028
g73
g74
ssg62
g2022
sg55
(lp2029
S'global_settings'
p2030
asbag48
(g69
g50
NtRp2031
(dp2032
g53
(dp2033
g80
g81
ssg62
g2022
sg55
(lp2034
S':'
asbag48
(g69
g50
NtRp2035
(dp2036
g53
(dp2037
sg62
g2022
sg55
(lp2038
g48
(g49
g50
NtRp2039
(dp2040
g53
(dp2041
g61
I5
ssg62
g2035
sg55
(lp2042
g48
(g57
g50
NtRp2043
(dp2044
g53
(dp2045
g61
I4
ssg62
Nsg55
(lp2046
g48
(g64
g50
NtRp2047
(dp2048
g53
(dp2049
sg62
g2043
sg55
(lp2050
g48
(g69
g50
NtRp2051
(dp2052
g53
(dp2053
g73
g74
ssg62
g2047
sg55
(lp2054
g929
asbag48
(g69
g50
NtRp2055
(dp2056
g53
(dp2057
g80
g81
ssg62
g2047
sg55
(lp2058
S':'
asbag48
(g69
g50
NtRp2059
(dp2060
g53
(dp2061
sg62
g2047
sg55
(lp2062
g48
(g49
g50
NtRp2063
(dp2064
g53
(dp2065
g61
I4
ssg62
g2059
sg55
(lp2066
S"set(['D:\\\\git_projs\\\\Gabblista\\\\web2py\\\\web2py\\\\applications\\\\gabb1\\\\', 'D:\\\\git_projs\\\\Gabblista\\\\web2py\\\\web2py\\\\applications\\\\Gabb1\\\\', 'D:\\\\git_projs\\\\Gabblista\\\\web2py\\\\web2py\\\\applications\\\\admin\\\\', 'D:\\\\git_projs\\\\Gabblista\\\\web2py\\\\web2py\\\\applications\\\\welcome\\\\'])"
p2067
asbasbasbag48
(g64
g50
NtRp2068
(dp2069
g53
(dp2070
sg62
g2043
sg55
(lp2071
g48
(g69
g50
NtRp2072
(dp2073
g53
(dp2074
g73
g74
ssg62
g2068
sg55
(lp2075
g951
asbag48
(g69
g50
NtRp2076
(dp2077
g53
(dp2078
g80
g81
ssg62
g2068
sg55
(lp2079
S':'
asbag48
(g69
g50
NtRp2080
(dp2081
g53
(dp2082
sg62
g2068
sg55
(lp2083
g48
(g49
g50
NtRp2084
(dp2085
g53
(dp2086
g61
I4
ssg62
g2080
sg55
(lp2087
g964
asbasbasbag48
(g64
g50
NtRp2088
(dp2089
g53
(dp2090
sg62
g2043
sg55
(lp2091
g48
(g69
g50
NtRp2092
(dp2093
g53
(dp2094
g73
g74
ssg62
g2088
sg55
(lp2095
g973
asbag48
(g69
g50
NtRp2096
(dp2097
g53
(dp2098
g80
g81
ssg62
g2088
sg55
(lp2099
S':'
asbag48
(g69
g50
NtRp2100
(dp2101
g53
(dp2102
sg62
g2088
sg55
(lp2103
g48
(g49
g50
NtRp2104
(dp2105
g53
(dp2106
g61
I4
ssg62
g2100
sg55
(lp2107
g48
(g57
g50
NtRp2108
(dp2109
g53
(dp2110
g61
I3
ssg62
Nsg55
(lp2111
sbasbasbasbag48
(g64
g50
NtRp2112
(dp2113
g53
(dp2114
sg62
g2043
sg55
(lp2115
g48
(g69
g50
NtRp2116
(dp2117
g53
(dp2118
g73
g74
ssg62
g2112
sg55
(lp2119
g998
asbag48
(g69
g50
NtRp2120
(dp2121
g53
(dp2122
g80
g81
ssg62
g2112
sg55
(lp2123
S':'
asbag48
(g69
g50
NtRp2124
(dp2125
g53
(dp2126
sg62
g2112
sg55
(lp2127
g48
(g49
g50
NtRp2128
(dp2129
g53
(dp2130
g61
I4
ssg62
g2124
sg55
(lp2131
S"<Values at 0x325b800: {'verbose': False, 'ip': '127.0.0.1', 'shutdown_timeout': 5, 'taskbar': False, 'nocron': False, 'pid_filename': 'httpserver.pid', 'maxthreads': None, 'softcron': False, 'server_name': 'John-PC', 'bpython': False, 'nogui': False, 'port': 8000, 'extcron': False, 'debuglevel': 30, 'test': None, 'folder': 'D:\\\\git_projs\\\\Gabblista\\\\web2py\\\\web2py', 'config': '', 'import_models': False, 'winservice': '', 'shell': None, 'run': '', 'log_filename': 'httpserver.log', 'args': [''], 'ssl_ca_certificate': None, 'scheduler': None, 'profiler_filename': None, 'ssl_private_key': '', 'password': '<ask>', 'request_queue_size': 5, 'ssl_certificate': '', 'cronjob': False, 'plain': False, 'quiet': False, 'interfaces': None, 'minthreads': None, 'timeout': 10, 'numthreads': None, 'nobanner': False}>"
p2132
asbasbasbag48
(g64
g50
NtRp2133
(dp2134
g53
(dp2135
sg62
g2043
sg55
(lp2136
g48
(g69
g50
NtRp2137
(dp2138
g53
(dp2139
g73
g74
ssg62
g2133
sg55
(lp2140
g1020
asbag48
(g69
g50
NtRp2141
(dp2142
g53
(dp2143
g80
g81
ssg62
g2133
sg55
(lp2144
S':'
asbag48
(g69
g50
NtRp2145
(dp2146
g53
(dp2147
sg62
g2133
sg55
(lp2148
g48
(g49
g50
NtRp2149
(dp2150
g53
(dp2151
g61
I4
ssg62
g2145
sg55
(lp2152
S'set([])'
p2153
asbasbasbag48
(g64
g50
NtRp2154
(dp2155
g53
(dp2156
sg62
g2043
sg55
(lp2157
g48
(g69
g50
NtRp2158
(dp2159
g53
(dp2160
g73
g74
ssg62
g2154
sg55
(lp2161
g1042
asbag48
(g69
g50
NtRp2162
(dp2163
g53
(dp2164
g80
g81
ssg62
g2154
sg55
(lp2165
S':'
asbag48
(g69
g50
NtRp2166
(dp2167
g53
(dp2168
sg62
g2154
sg55
(lp2169
g48
(g49
g50
NtRp2170
(dp2171
g53
(dp2172
g61
I4
ssg62
g2166
sg55
(lp2173
g91
asbasbasbag48
(g64
g50
NtRp2174
(dp2175
g53
(dp2176
sg62
g2043
sg55
(lp2177
g48
(g69
g50
NtRp2178
(dp2179
g53
(dp2180
g73
g74
ssg62
g2174
sg55
(lp2181
g1063
asbag48
(g69
g50
NtRp2182
(dp2183
g53
(dp2184
g80
g81
ssg62
g2174
sg55
(lp2185
S':'
asbag48
(g69
g50
NtRp2186
(dp2187
g53
(dp2188
sg62
g2174
sg55
(lp2189
g48
(g49
g50
NtRp2190
(dp2191
g53
(dp2192
g61
I4
ssg62
g2186
sg55
(lp2193
g1076
asbasbasbag48
(g64
g50
NtRp2194
(dp2195
g53
(dp2196
sg62
g2043
sg55
(lp2197
g48
(g69
g50
NtRp2198
(dp2199
g53
(dp2200
g73
g74
ssg62
g2194
sg55
(lp2201
g1261
asbag48
(g69
g50
NtRp2202
(dp2203
g53
(dp2204
g80
g81
ssg62
g2194
sg55
(lp2205
S':'
asbag48
(g69
g50
NtRp2206
(dp2207
g53
(dp2208
sg62
g2194
sg55
(lp2209
g48
(g49
g50
NtRp2210
(dp2211
g53
(dp2212
g61
I4
ssg62
g2206
sg55
(lp2213
g91
asbasbasbag48
(g64
g50
NtRp2214
(dp2215
g53
(dp2216
sg62
g2043
sg55
(lp2217
g48
(g69
g50
NtRp2218
(dp2219
g53
(dp2220
g73
g74
ssg62
g2214
sg55
(lp2221
g1522
asbag48
(g69
g50
NtRp2222
(dp2223
g53
(dp2224
g80
g81
ssg62
g2214
sg55
(lp2225
S':'
asbag48
(g69
g50
NtRp2226
(dp2227
g53
(dp2228
sg62
g2214
sg55
(lp2229
g48
(g49
g50
NtRp2230
(dp2231
g53
(dp2232
g61
I4
ssg62
g2226
sg55
(lp2233
g1535
asbasbasbag48
(g64
g50
NtRp2234
(dp2235
g53
(dp2236
sg62
g2043
sg55
(lp2237
g48
(g69
g50
NtRp2238
(dp2239
g53
(dp2240
g73
g74
ssg62
g2234
sg55
(lp2241
g1587
asbag48
(g69
g50
NtRp2242
(dp2243
g53
(dp2244
g80
g81
ssg62
g2234
sg55
(lp2245
S':'
asbag48
(g69
g50
NtRp2246
(dp2247
g53
(dp2248
sg62
g2234
sg55
(lp2249
g48
(g49
g50
NtRp2250
(dp2251
g53
(dp2252
g61
I4
ssg62
g2246
sg55
(lp2253
g48
(g57
g50
NtRp2254
(dp2255
g53
(dp2256
g61
I3
ssg62
Nsg55
(lp2257
g48
(g64
g50
NtRp2258
(dp2259
g53
(dp2260
sg62
g2254
sg55
(lp2261
g48
(g69
g50
NtRp2262
(dp2263
g53
(dp2264
sg62
g2258
sg55
(lp2265
g48
(g49
g50
NtRp2266
(dp2267
g53
(dp2268
g61
I3
ssg62
g2262
sg55
(lp2269
S'1'
asbasbasbag48
(g64
g50
NtRp2270
(dp2271
g53
(dp2272
sg62
g2254
sg55
(lp2273
g48
(g69
g50
NtRp2274
(dp2275
g53
(dp2276
sg62
g2270
sg55
(lp2277
g48
(g49
g50
NtRp2278
(dp2279
g53
(dp2280
g61
I3
ssg62
g2274
sg55
(lp2281
S'99'
p2282
asbasbasbag48
(g64
g50
NtRp2283
(dp2284
g53
(dp2285
sg62
g2254
sg55
(lp2286
g48
(g69
g50
NtRp2287
(dp2288
g53
(dp2289
sg62
g2283
sg55
(lp2290
g48
(g49
g50
NtRp2291
(dp2292
g53
(dp2293
g61
I3
ssg62
g2287
sg55
(lp2294
S'2'
asbasbasbag48
(g64
g50
NtRp2295
(dp2296
g53
(dp2297
sg62
g2254
sg55
(lp2298
g48
(g69
g50
NtRp2299
(dp2300
g53
(dp2301
sg62
g2295
sg55
(lp2302
g48
(g49
g50
NtRp2303
(dp2304
g53
(dp2305
g61
I3
ssg62
g2299
sg55
(lp2306
S'datetime.datetime(2011, 9, 26, 6, 55, 33)'
p2307
asbasbasbag48
(g64
g50
NtRp2308
(dp2309
g53
(dp2310
sg62
g2254
sg55
(lp2311
g48
(g69
g50
NtRp2312
(dp2313
g53
(dp2314
sg62
g2308
sg55
(lp2315
g48
(g49
g50
NtRp2316
(dp2317
g53
(dp2318
g61
I3
ssg62
g2312
sg55
(lp2319
g1666
asbasbasbasbasbasbasbasbasbasbasbag48
(g64
g50
NtRp2320
(dp2321
g53
(dp2322
sg62
g58
sg55
(lp2323
g48
(g69
g50
NtRp2324
(dp2325
g53
(dp2326
g73
g74
ssg62
g2320
sg55
(lp2327
S'is_https'
p2328
asbag48
(g69
g50
NtRp2329
(dp2330
g53
(dp2331
g80
g81
ssg62
g2320
sg55
(lp2332
S':'
asbag48
(g69
g50
NtRp2333
(dp2334
g53
(dp2335
sg62
g2320
sg55
(lp2336
g48
(g49
g50
NtRp2337
(dp2338
g53
(dp2339
g61
I5
ssg62
g2333
sg55
(lp2340
g91
asbasbasbag48
(g64
g50
NtRp2341
(dp2342
g53
(dp2343
sg62
g58
sg55
(lp2344
g48
(g69
g50
NtRp2345
(dp2346
g53
(dp2347
g73
g74
ssg62
g2341
sg55
(lp2348
S'is_local'
p2349
asbag48
(g69
g50
NtRp2350
(dp2351
g53
(dp2352
g80
g81
ssg62
g2341
sg55
(lp2353
S':'
asbag48
(g69
g50
NtRp2354
(dp2355
g53
(dp2356
sg62
g2341
sg55
(lp2357
g48
(g49
g50
NtRp2358
(dp2359
g53
(dp2360
g61
I5
ssg62
g2354
sg55
(lp2361
g1775
asbasbasbag48
(g64
g50
NtRp2362
(dp2363
g53
(dp2364
sg62
g58
sg55
(lp2365
g48
(g69
g50
NtRp2366
(dp2367
g53
(dp2368
g73
g74
ssg62
g2362
sg55
(lp2369
S'is_restful'
p2370
asbag48
(g69
g50
NtRp2371
(dp2372
g53
(dp2373
g80
g81
ssg62
g2362
sg55
(lp2374
S':'
asbag48
(g69
g50
NtRp2375
(dp2376
g53
(dp2377
sg62
g2362
sg55
(lp2378
g48
(g49
g50
NtRp2379
(dp2380
g53
(dp2381
g61
I5
ssg62
g2375
sg55
(lp2382
g91
asbasbasbag48
(g64
g50
NtRp2383
(dp2384
g53
(dp2385
sg62
g58
sg55
(lp2386
g48
(g69
g50
NtRp2387
(dp2388
g53
(dp2389
g73
g74
ssg62
g2383
sg55
(lp2390
S'now'
p2391
asbag48
(g69
g50
NtRp2392
(dp2393
g53
(dp2394
g80
g81
ssg62
g2383
sg55
(lp2395
S':'
asbag48
(g69
g50
NtRp2396
(dp2397
g53
(dp2398
sg62
g2383
sg55
(lp2399
g48
(g49
g50
NtRp2400
(dp2401
g53
(dp2402
g61
I5
ssg62
g2396
sg55
(lp2403
S'datetime.datetime(2012, 1, 19, 15, 19, 1, 585000)'
p2404
asbasbasbag48
(g64
g50
NtRp2405
(dp2406
g53
(dp2407
sg62
g58
sg55
(lp2408
g48
(g69
g50
NtRp2409
(dp2410
g53
(dp2411
g73
g74
ssg62
g2405
sg55
(lp2412
S'post_vars'
p2413
asbag48
(g69
g50
NtRp2414
(dp2415
g53
(dp2416
g80
g81
ssg62
g2405
sg55
(lp2417
S':'
asbag48
(g69
g50
NtRp2418
(dp2419
g53
(dp2420
sg62
g2405
sg55
(lp2421
g48
(g49
g50
NtRp2422
(dp2423
g53
(dp2424
g61
I5
ssg62
g2418
sg55
(lp2425
g48
(g57
g50
NtRp2426
(dp2427
g53
(dp2428
g61
I4
ssg62
Nsg55
(lp2429
sbasbasbasbag48
(g64
g50
NtRp2430
(dp2431
g53
(dp2432
sg62
g58
sg55
(lp2433
g48
(g69
g50
NtRp2434
(dp2435
g53
(dp2436
g73
g74
ssg62
g2430
sg55
(lp2437
S'raw_extension'
p2438
asbag48
(g69
g50
NtRp2439
(dp2440
g53
(dp2441
g80
g81
ssg62
g2430
sg55
(lp2442
S':'
asbag48
(g69
g50
NtRp2443
(dp2444
g53
(dp2445
sg62
g2430
sg55
(lp2446
g48
(g49
g50
NtRp2447
(dp2448
g53
(dp2449
g61
I5
ssg62
g2443
sg55
(lp2450
g1889
asbasbasbag48
(g64
g50
NtRp2451
(dp2452
g53
(dp2453
sg62
g58
sg55
(lp2454
g48
(g69
g50
NtRp2455
(dp2456
g53
(dp2457
g73
g74
ssg62
g2451
sg55
(lp2458
S'url'
p2459
asbag48
(g69
g50
NtRp2460
(dp2461
g53
(dp2462
g80
g81
ssg62
g2451
sg55
(lp2463
S':'
asbag48
(g69
g50
NtRp2464
(dp2465
g53
(dp2466
sg62
g2451
sg55
(lp2467
g48
(g49
g50
NtRp2468
(dp2469
g53
(dp2470
g61
I5
ssg62
g2464
sg55
(lp2471
S'/Gabb1/fb_serv/serve_player_data.txt'
p2472
asbasbasbag48
(g64
g50
NtRp2473
(dp2474
g53
(dp2475
sg62
g58
sg55
(lp2476
g48
(g69
g50
NtRp2477
(dp2478
g53
(dp2479
g73
g74
ssg62
g2473
sg55
(lp2480
S'utcnow'
p2481
asbag48
(g69
g50
NtRp2482
(dp2483
g53
(dp2484
g80
g81
ssg62
g2473
sg55
(lp2485
S':'
asbag48
(g69
g50
NtRp2486
(dp2487
g53
(dp2488
sg62
g2473
sg55
(lp2489
g48
(g49
g50
NtRp2490
(dp2491
g53
(dp2492
g61
I5
ssg62
g2486
sg55
(lp2493
S'datetime.datetime(2012, 1, 19, 20, 19, 1, 585000)'
p2494
asbasbasbag48
(g64
g50
NtRp2495
(dp2496
g53
(dp2497
sg62
g58
sg55
(lp2498
g48
(g69
g50
NtRp2499
(dp2500
g53
(dp2501
g73
g74
ssg62
g2495
sg55
(lp2502
S'uuid'
p2503
asbag48
(g69
g50
NtRp2504
(dp2505
g53
(dp2506
g80
g81
ssg62
g2495
sg55
(lp2507
S':'
asbag48
(g69
g50
NtRp2508
(dp2509
g53
(dp2510
sg62
g2495
sg55
(lp2511
g48
(g49
g50
NtRp2512
(dp2513
g53
(dp2514
g61
I5
ssg62
g2508
sg55
(lp2515
S'Gabb1/127.0.0.1.2012-01-19.15-19-01.695109d9-d9bb-4451-93f8-23329dc81a29'
p2516
asbasbasbag48
(g64
g50
NtRp2517
(dp2518
g53
(dp2519
sg62
g58
sg55
(lp2520
g48
(g69
g50
NtRp2521
(dp2522
g53
(dp2523
g73
g74
ssg62
g2517
sg55
(lp2524
S'vars'
p2525
asbag48
(g69
g50
NtRp2526
(dp2527
g53
(dp2528
g80
g81
ssg62
g2517
sg55
(lp2529
S':'
asbag48
(g69
g50
NtRp2530
(dp2531
g53
(dp2532
sg62
g2517
sg55
(lp2533
g48
(g49
g50
NtRp2534
(dp2535
g53
(dp2536
g61
I5
ssg62
g2530
sg55
(lp2537
g48
(g57
g50
NtRp2538
(dp2539
g53
(dp2540
g61
I4
ssg62
Nsg55
(lp2541
g48
(g64
g50
NtRp2542
(dp2543
g53
(dp2544
sg62
g2538
sg55
(lp2545
g48
(g69
g50
NtRp2546
(dp2547
g53
(dp2548
g73
g74
ssg62
g2542
sg55
(lp2549
g1967
asbag48
(g69
g50
NtRp2550
(dp2551
g53
(dp2552
g80
g81
ssg62
g2542
sg55
(lp2553
S':'
asbag48
(g69
g50
NtRp2554
(dp2555
g53
(dp2556
sg62
g2542
sg55
(lp2557
g48
(g49
g50
NtRp2558
(dp2559
g53
(dp2560
g61
I4
ssg62
g2554
sg55
(lp2561
S'0'
asbasbasbag48
(g64
g50
NtRp2562
(dp2563
g53
(dp2564
sg62
g2538
sg55
(lp2565
g48
(g69
g50
NtRp2566
(dp2567
g53
(dp2568
g73
g74
ssg62
g2562
sg55
(lp2569
g1988
asbag48
(g69
g50
NtRp2570
(dp2571
g53
(dp2572
g80
g81
ssg62
g2562
sg55
(lp2573
S':'
asbag48
(g69
g50
NtRp2574
(dp2575
g53
(dp2576
sg62
g2562
sg55
(lp2577
g48
(g49
g50
NtRp2578
(dp2579
g53
(dp2580
g61
I4
ssg62
g2574
sg55
(lp2581
S'2'
asbasbasbag48
(g64
g50
NtRp2582
(dp2583
g53
(dp2584
sg62
g2538
sg55
(lp2585
g48
(g69
g50
NtRp2586
(dp2587
g53
(dp2588
g73
g74
ssg62
g2582
sg55
(lp2589
g2009
asbag48
(g69
g50
NtRp2590
(dp2591
g53
(dp2592
g80
g81
ssg62
g2582
sg55
(lp2593
S':'
asbag48
(g69
g50
NtRp2594
(dp2595
g53
(dp2596
sg62
g2582
sg55
(lp2597
g48
(g49
g50
NtRp2598
(dp2599
g53
(dp2600
g61
I4
ssg62
g2594
sg55
(lp2601
S'1'
asbasbasbasbasbasbasbag48
(g64
g50
NtRp2602
(dp2603
g53
(dp2604
sg62
g58
sg55
(lp2605
g48
(g69
g50
NtRp2606
(dp2607
g53
(dp2608
g73
g74
ssg62
g2602
sg55
(lp2609
S'wsgi'
p2610
asbag48
(g69
g50
NtRp2611
(dp2612
g53
(dp2613
g80
g81
ssg62
g2602
sg55
(lp2614
S':'
asbag48
(g69
g50
NtRp2615
(dp2616
g53
(dp2617
sg62
g2602
sg55
(lp2618
g48
(g49
g50
NtRp2619
(dp2620
g53
(dp2621
g61
I5
ssg62
g2615
sg55
(lp2622
g48
(g57
g50
NtRp2623
(dp2624
g53
(dp2625
g61
I4
ssg62
Nsg55
(lp2626
g48
(g64
g50
NtRp2627
(dp2628
g53
(dp2629
sg62
g2623
sg55
(lp2630
g48
(g69
g50
NtRp2631
(dp2632
g53
(dp2633
g73
g74
ssg62
g2627
sg55
(lp2634
S'environ'
p2635
asbag48
(g69
g50
NtRp2636
(dp2637
g53
(dp2638
g80
g81
ssg62
g2627
sg55
(lp2639
S':'
asbag48
(g69
g50
NtRp2640
(dp2641
g53
(dp2642
sg62
g2627
sg55
(lp2643
g48
(g49
g50
NtRp2644
(dp2645
g53
(dp2646
g61
I4
ssg62
g2640
sg55
(lp2647
g48
(g57
g50
NtRp2648
(dp2649
g53
(dp2650
g61
I3
ssg62
Nsg55
(lp2651
g48
(g64
g50
NtRp2652
(dp2653
g53
(dp2654
sg62
g2648
sg55
(lp2655
g48
(g69
g50
NtRp2656
(dp2657
g53
(dp2658
g73
g74
ssg62
g2652
sg55
(lp2659
S'HTTP_ACCEPT'
p2660
asbag48
(g69
g50
NtRp2661
(dp2662
g53
(dp2663
g80
g81
ssg62
g2652
sg55
(lp2664
S':'
asbag48
(g69
g50
NtRp2665
(dp2666
g53
(dp2667
sg62
g2652
sg55
(lp2668
g48
(g49
g50
NtRp2669
(dp2670
g53
(dp2671
g61
I3
ssg62
g2665
sg55
(lp2672
g1098
asbasbasbag48
(g64
g50
NtRp2673
(dp2674
g53
(dp2675
sg62
g2648
sg55
(lp2676
g48
(g69
g50
NtRp2677
(dp2678
g53
(dp2679
g73
g74
ssg62
g2673
sg55
(lp2680
S'HTTP_ACCEPT_CHARSET'
p2681
asbag48
(g69
g50
NtRp2682
(dp2683
g53
(dp2684
g80
g81
ssg62
g2673
sg55
(lp2685
S':'
asbag48
(g69
g50
NtRp2686
(dp2687
g53
(dp2688
sg62
g2673
sg55
(lp2689
g48
(g49
g50
NtRp2690
(dp2691
g53
(dp2692
g61
I3
ssg62
g2686
sg55
(lp2693
g1120
asbasbasbag48
(g64
g50
NtRp2694
(dp2695
g53
(dp2696
sg62
g2648
sg55
(lp2697
g48
(g69
g50
NtRp2698
(dp2699
g53
(dp2700
g73
g74
ssg62
g2694
sg55
(lp2701
S'HTTP_ACCEPT_ENCODING'
p2702
asbag48
(g69
g50
NtRp2703
(dp2704
g53
(dp2705
g80
g81
ssg62
g2694
sg55
(lp2706
S':'
asbag48
(g69
g50
NtRp2707
(dp2708
g53
(dp2709
sg62
g2694
sg55
(lp2710
g48
(g49
g50
NtRp2711
(dp2712
g53
(dp2713
g61
I3
ssg62
g2707
sg55
(lp2714
g1142
asbasbasbag48
(g64
g50
NtRp2715
(dp2716
g53
(dp2717
sg62
g2648
sg55
(lp2718
g48
(g69
g50
NtRp2719
(dp2720
g53
(dp2721
g73
g74
ssg62
g2715
sg55
(lp2722
S'HTTP_ACCEPT_LANGUAGE'
p2723
asbag48
(g69
g50
NtRp2724
(dp2725
g53
(dp2726
g80
g81
ssg62
g2715
sg55
(lp2727
S':'
asbag48
(g69
g50
NtRp2728
(dp2729
g53
(dp2730
sg62
g2715
sg55
(lp2731
g48
(g49
g50
NtRp2732
(dp2733
g53
(dp2734
g61
I3
ssg62
g2728
sg55
(lp2735
g1164
asbasbasbag48
(g64
g50
NtRp2736
(dp2737
g53
(dp2738
sg62
g2648
sg55
(lp2739
g48
(g69
g50
NtRp2740
(dp2741
g53
(dp2742
g73
g74
ssg62
g2736
sg55
(lp2743
S'HTTP_CONNECTION'
p2744
asbag48
(g69
g50
NtRp2745
(dp2746
g53
(dp2747
g80
g81
ssg62
g2736
sg55
(lp2748
S':'
asbag48
(g69
g50
NtRp2749
(dp2750
g53
(dp2751
sg62
g2736
sg55
(lp2752
g48
(g49
g50
NtRp2753
(dp2754
g53
(dp2755
g61
I3
ssg62
g2749
sg55
(lp2756
g1186
asbasbasbag48
(g64
g50
NtRp2757
(dp2758
g53
(dp2759
sg62
g2648
sg55
(lp2760
g48
(g69
g50
NtRp2761
(dp2762
g53
(dp2763
g73
g74
ssg62
g2757
sg55
(lp2764
S'HTTP_COOKIE'
p2765
asbag48
(g69
g50
NtRp2766
(dp2767
g53
(dp2768
g80
g81
ssg62
g2757
sg55
(lp2769
S':'
asbag48
(g69
g50
NtRp2770
(dp2771
g53
(dp2772
sg62
g2757
sg55
(lp2773
g48
(g49
g50
NtRp2774
(dp2775
g53
(dp2776
g61
I3
ssg62
g2770
sg55
(lp2777
g1208
asbasbasbag48
(g64
g50
NtRp2778
(dp2779
g53
(dp2780
sg62
g2648
sg55
(lp2781
g48
(g69
g50
NtRp2782
(dp2783
g53
(dp2784
g73
g74
ssg62
g2778
sg55
(lp2785
S'HTTP_HOST'
p2786
asbag48
(g69
g50
NtRp2787
(dp2788
g53
(dp2789
g80
g81
ssg62
g2778
sg55
(lp2790
S':'
asbag48
(g69
g50
NtRp2791
(dp2792
g53
(dp2793
sg62
g2778
sg55
(lp2794
g48
(g49
g50
NtRp2795
(dp2796
g53
(dp2797
g61
I3
ssg62
g2791
sg55
(lp2798
g1230
asbasbasbag48
(g64
g50
NtRp2799
(dp2800
g53
(dp2801
sg62
g2648
sg55
(lp2802
g48
(g69
g50
NtRp2803
(dp2804
g53
(dp2805
g73
g74
ssg62
g2799
sg55
(lp2806
S'HTTP_USER_AGENT'
p2807
asbag48
(g69
g50
NtRp2808
(dp2809
g53
(dp2810
g80
g81
ssg62
g2799
sg55
(lp2811
S':'
asbag48
(g69
g50
NtRp2812
(dp2813
g53
(dp2814
sg62
g2799
sg55
(lp2815
g48
(g49
g50
NtRp2816
(dp2817
g53
(dp2818
g61
I3
ssg62
g2812
sg55
(lp2819
g1252
asbasbasbag48
(g64
g50
NtRp2820
(dp2821
g53
(dp2822
sg62
g2648
sg55
(lp2823
g48
(g69
g50
NtRp2824
(dp2825
g53
(dp2826
g73
g74
ssg62
g2820
sg55
(lp2827
S'PATH_INFO'
p2828
asbag48
(g69
g50
NtRp2829
(dp2830
g53
(dp2831
g80
g81
ssg62
g2820
sg55
(lp2832
S':'
asbag48
(g69
g50
NtRp2833
(dp2834
g53
(dp2835
sg62
g2820
sg55
(lp2836
g48
(g49
g50
NtRp2837
(dp2838
g53
(dp2839
g61
I3
ssg62
g2833
sg55
(lp2840
g1295
asbasbasbag48
(g64
g50
NtRp2841
(dp2842
g53
(dp2843
sg62
g2648
sg55
(lp2844
g48
(g69
g50
NtRp2845
(dp2846
g53
(dp2847
g73
g74
ssg62
g2841
sg55
(lp2848
S'QUERY_STRING'
p2849
asbag48
(g69
g50
NtRp2850
(dp2851
g53
(dp2852
g80
g81
ssg62
g2841
sg55
(lp2853
S':'
asbag48
(g69
g50
NtRp2854
(dp2855
g53
(dp2856
sg62
g2841
sg55
(lp2857
g48
(g49
g50
NtRp2858
(dp2859
g53
(dp2860
g61
I3
ssg62
g2854
sg55
(lp2861
g1317
asbasbasbag48
(g64
g50
NtRp2862
(dp2863
g53
(dp2864
sg62
g2648
sg55
(lp2865
g48
(g69
g50
NtRp2866
(dp2867
g53
(dp2868
g73
g74
ssg62
g2862
sg55
(lp2869
S'REMOTE_ADDR'
p2870
asbag48
(g69
g50
NtRp2871
(dp2872
g53
(dp2873
g80
g81
ssg62
g2862
sg55
(lp2874
S':'
asbag48
(g69
g50
NtRp2875
(dp2876
g53
(dp2877
sg62
g2862
sg55
(lp2878
g48
(g49
g50
NtRp2879
(dp2880
g53
(dp2881
g61
I3
ssg62
g2875
sg55
(lp2882
g181
asbasbasbag48
(g64
g50
NtRp2883
(dp2884
g53
(dp2885
sg62
g2648
sg55
(lp2886
g48
(g69
g50
NtRp2887
(dp2888
g53
(dp2889
g73
g74
ssg62
g2883
sg55
(lp2890
S'REMOTE_PORT'
p2891
asbag48
(g69
g50
NtRp2892
(dp2893
g53
(dp2894
g80
g81
ssg62
g2883
sg55
(lp2895
S':'
asbag48
(g69
g50
NtRp2896
(dp2897
g53
(dp2898
sg62
g2883
sg55
(lp2899
g48
(g49
g50
NtRp2900
(dp2901
g53
(dp2902
g61
I3
ssg62
g2896
sg55
(lp2903
g1360
asbasbasbag48
(g64
g50
NtRp2904
(dp2905
g53
(dp2906
sg62
g2648
sg55
(lp2907
g48
(g69
g50
NtRp2908
(dp2909
g53
(dp2910
g73
g74
ssg62
g2904
sg55
(lp2911
S'REQUEST_METHOD'
p2912
asbag48
(g69
g50
NtRp2913
(dp2914
g53
(dp2915
g80
g81
ssg62
g2904
sg55
(lp2916
S':'
asbag48
(g69
g50
NtRp2917
(dp2918
g53
(dp2919
sg62
g2904
sg55
(lp2920
g48
(g49
g50
NtRp2921
(dp2922
g53
(dp2923
g61
I3
ssg62
g2917
sg55
(lp2924
g1382
asbasbasbag48
(g64
g50
NtRp2925
(dp2926
g53
(dp2927
sg62
g2648
sg55
(lp2928
g48
(g69
g50
NtRp2929
(dp2930
g53
(dp2931
g73
g74
ssg62
g2925
sg55
(lp2932
S'REQUEST_URI'
p2933
asbag48
(g69
g50
NtRp2934
(dp2935
g53
(dp2936
g80
g81
ssg62
g2925
sg55
(lp2937
S':'
asbag48
(g69
g50
NtRp2938
(dp2939
g53
(dp2940
sg62
g2925
sg55
(lp2941
g48
(g49
g50
NtRp2942
(dp2943
g53
(dp2944
g61
I3
ssg62
g2938
sg55
(lp2945
g1404
asbasbasbag48
(g64
g50
NtRp2946
(dp2947
g53
(dp2948
sg62
g2648
sg55
(lp2949
g48
(g69
g50
NtRp2950
(dp2951
g53
(dp2952
g73
g74
ssg62
g2946
sg55
(lp2953
S'SCRIPT_NAME'
p2954
asbag48
(g69
g50
NtRp2955
(dp2956
g53
(dp2957
g80
g81
ssg62
g2946
sg55
(lp2958
S':'
asbag48
(g69
g50
NtRp2959
(dp2960
g53
(dp2961
sg62
g2946
sg55
(lp2962
g48
(g49
g50
NtRp2963
(dp2964
g53
(dp2965
g61
I3
ssg62
g2959
sg55
(lp2966
S''
asbasbasbag48
(g64
g50
NtRp2967
(dp2968
g53
(dp2969
sg62
g2648
sg55
(lp2970
g48
(g69
g50
NtRp2971
(dp2972
g53
(dp2973
g73
g74
ssg62
g2967
sg55
(lp2974
S'SERVER_NAME'
p2975
asbag48
(g69
g50
NtRp2976
(dp2977
g53
(dp2978
g80
g81
ssg62
g2967
sg55
(lp2979
S':'
asbag48
(g69
g50
NtRp2980
(dp2981
g53
(dp2982
sg62
g2967
sg55
(lp2983
g48
(g49
g50
NtRp2984
(dp2985
g53
(dp2986
g61
I3
ssg62
g2980
sg55
(lp2987
g1447
asbasbasbag48
(g64
g50
NtRp2988
(dp2989
g53
(dp2990
sg62
g2648
sg55
(lp2991
g48
(g69
g50
NtRp2992
(dp2993
g53
(dp2994
g73
g74
ssg62
g2988
sg55
(lp2995
S'SERVER_PORT'
p2996
asbag48
(g69
g50
NtRp2997
(dp2998
g53
(dp2999
g80
g81
ssg62
g2988
sg55
(lp3000
S':'
asbag48
(g69
g50
NtRp3001
(dp3002
g53
(dp3003
sg62
g2988
sg55
(lp3004
g48
(g49
g50
NtRp3005
(dp3006
g53
(dp3007
g61
I3
ssg62
g3001
sg55
(lp3008
g1469
asbasbasbag48
(g64
g50
NtRp3009
(dp3010
g53
(dp3011
sg62
g2648
sg55
(lp3012
g48
(g69
g50
NtRp3013
(dp3014
g53
(dp3015
g73
g74
ssg62
g3009
sg55
(lp3016
S'SERVER_PROTOCOL'
p3017
asbag48
(g69
g50
NtRp3018
(dp3019
g53
(dp3020
g80
g81
ssg62
g3009
sg55
(lp3021
S':'
asbag48
(g69
g50
NtRp3022
(dp3023
g53
(dp3024
sg62
g3009
sg55
(lp3025
g48
(g49
g50
NtRp3026
(dp3027
g53
(dp3028
g61
I3
ssg62
g3022
sg55
(lp3029
g1491
asbasbasbag48
(g64
g50
NtRp3030
(dp3031
g53
(dp3032
sg62
g2648
sg55
(lp3033
g48
(g69
g50
NtRp3034
(dp3035
g53
(dp3036
g73
g74
ssg62
g3030
sg55
(lp3037
S'SERVER_SOFTWARE'
p3038
asbag48
(g69
g50
NtRp3039
(dp3040
g53
(dp3041
g80
g81
ssg62
g3030
sg55
(lp3042
S':'
asbag48
(g69
g50
NtRp3043
(dp3044
g53
(dp3045
sg62
g3030
sg55
(lp3046
g48
(g49
g50
NtRp3047
(dp3048
g53
(dp3049
g61
I3
ssg62
g3043
sg55
(lp3050
g1513
asbasbasbag48
(g64
g50
NtRp3051
(dp3052
g53
(dp3053
sg62
g2648
sg55
(lp3054
g48
(g69
g50
NtRp3055
(dp3056
g53
(dp3057
g73
g74
ssg62
g3051
sg55
(lp3058
S'WEB2PY_ORIGINAL_URI'
p3059
asbag48
(g69
g50
NtRp3060
(dp3061
g53
(dp3062
g80
g81
ssg62
g3051
sg55
(lp3063
S':'
asbag48
(g69
g50
NtRp3064
(dp3065
g53
(dp3066
sg62
g3051
sg55
(lp3067
g48
(g49
g50
NtRp3068
(dp3069
g53
(dp3070
g61
I3
ssg62
g3064
sg55
(lp3071
g1557
asbasbasbag48
(g64
g50
NtRp3072
(dp3073
g53
(dp3074
sg62
g2648
sg55
(lp3075
g48
(g69
g50
NtRp3076
(dp3077
g53
(dp3078
g73
g74
ssg62
g3072
sg55
(lp3079
S'wsgi.errors'
p3080
asbag48
(g69
g50
NtRp3081
(dp3082
g53
(dp3083
g80
g81
ssg62
g3072
sg55
(lp3084
S':'
asbag48
(g69
g50
NtRp3085
(dp3086
g53
(dp3087
sg62
g3072
sg55
(lp3088
g48
(g49
g50
NtRp3089
(dp3090
g53
(dp3091
g61
I3
ssg62
g3085
sg55
(lp3092
S"<open file '<stderr>', mode 'w' at 0x01D300B0>"
p3093
asbasbasbag48
(g64
g50
NtRp3094
(dp3095
g53
(dp3096
sg62
g2648
sg55
(lp3097
g48
(g69
g50
NtRp3098
(dp3099
g53
(dp3100
g73
g74
ssg62
g3094
sg55
(lp3101
S'wsgi.file_wrapper'
p3102
asbag48
(g69
g50
NtRp3103
(dp3104
g53
(dp3105
g80
g81
ssg62
g3094
sg55
(lp3106
S':'
asbag48
(g69
g50
NtRp3107
(dp3108
g53
(dp3109
sg62
g3094
sg55
(lp3110
g48
(g49
g50
NtRp3111
(dp3112
g53
(dp3113
g61
I3
ssg62
g3107
sg55
(lp3114
S'<class wsgiref.util.FileWrapper at 0x0318A600>'
p3115
asbasbasbag48
(g64
g50
NtRp3116
(dp3117
g53
(dp3118
sg62
g2648
sg55
(lp3119
g48
(g69
g50
NtRp3120
(dp3121
g53
(dp3122
g73
g74
ssg62
g3116
sg55
(lp3123
S'wsgi.input'
p3124
asbag48
(g69
g50
NtRp3125
(dp3126
g53
(dp3127
g80
g81
ssg62
g3116
sg55
(lp3128
S':'
asbag48
(g69
g50
NtRp3129
(dp3130
g53
(dp3131
sg62
g3116
sg55
(lp3132
g48
(g49
g50
NtRp3133
(dp3134
g53
(dp3135
g61
I3
ssg62
g3129
sg55
(lp3136
S'<cStringIO.StringO object at 0x0868B740>'
p3137
asbasbasbag48
(g64
g50
NtRp3138
(dp3139
g53
(dp3140
sg62
g2648
sg55
(lp3141
g48
(g69
g50
NtRp3142
(dp3143
g53
(dp3144
g73
g74
ssg62
g3138
sg55
(lp3145
S'wsgi.multiprocess'
p3146
asbag48
(g69
g50
NtRp3147
(dp3148
g53
(dp3149
g80
g81
ssg62
g3138
sg55
(lp3150
S':'
asbag48
(g69
g50
NtRp3151
(dp3152
g53
(dp3153
sg62
g3138
sg55
(lp3154
g48
(g49
g50
NtRp3155
(dp3156
g53
(dp3157
g61
I3
ssg62
g3151
sg55
(lp3158
g91
asbasbasbag48
(g64
g50
NtRp3159
(dp3160
g53
(dp3161
sg62
g2648
sg55
(lp3162
g48
(g69
g50
NtRp3163
(dp3164
g53
(dp3165
g73
g74
ssg62
g3159
sg55
(lp3166
S'wsgi.multithread'
p3167
asbag48
(g69
g50
NtRp3168
(dp3169
g53
(dp3170
g80
g81
ssg62
g3159
sg55
(lp3171
S':'
asbag48
(g69
g50
NtRp3172
(dp3173
g53
(dp3174
sg62
g3159
sg55
(lp3175
g48
(g49
g50
NtRp3176
(dp3177
g53
(dp3178
g61
I3
ssg62
g3172
sg55
(lp3179
g1775
asbasbasbag48
(g64
g50
NtRp3180
(dp3181
g53
(dp3182
sg62
g2648
sg55
(lp3183
g48
(g69
g50
NtRp3184
(dp3185
g53
(dp3186
g73
g74
ssg62
g3180
sg55
(lp3187
S'wsgi.run_once'
p3188
asbag48
(g69
g50
NtRp3189
(dp3190
g53
(dp3191
g80
g81
ssg62
g3180
sg55
(lp3192
S':'
asbag48
(g69
g50
NtRp3193
(dp3194
g53
(dp3195
sg62
g3180
sg55
(lp3196
g48
(g49
g50
NtRp3197
(dp3198
g53
(dp3199
g61
I3
ssg62
g3193
sg55
(lp3200
g91
asbasbasbag48
(g64
g50
NtRp3201
(dp3202
g53
(dp3203
sg62
g2648
sg55
(lp3204
g48
(g69
g50
NtRp3205
(dp3206
g53
(dp3207
g73
g74
ssg62
g3201
sg55
(lp3208
S'wsgi.url_scheme'
p3209
asbag48
(g69
g50
NtRp3210
(dp3211
g53
(dp3212
g80
g81
ssg62
g3201
sg55
(lp3213
S':'
asbag48
(g69
g50
NtRp3214
(dp3215
g53
(dp3216
sg62
g3201
sg55
(lp3217
g48
(g49
g50
NtRp3218
(dp3219
g53
(dp3220
g61
I3
ssg62
g3214
sg55
(lp3221
g1818
asbasbasbag48
(g64
g50
NtRp3222
(dp3223
g53
(dp3224
sg62
g2648
sg55
(lp3225
g48
(g69
g50
NtRp3226
(dp3227
g53
(dp3228
g73
g74
ssg62
g3222
sg55
(lp3229
S'wsgi.version'
p3230
asbag48
(g69
g50
NtRp3231
(dp3232
g53
(dp3233
g80
g81
ssg62
g3222
sg55
(lp3234
S':'
asbag48
(g69
g50
NtRp3235
(dp3236
g53
(dp3237
sg62
g3222
sg55
(lp3238
g48
(g49
g50
NtRp3239
(dp3240
g53
(dp3241
g61
I3
ssg62
g3235
sg55
(lp3242
S'1'
asbasbasbasbasbasbasbasbasbasbasbasbasbsS'frames'
p3243
(lp3244
(dp3245
S'file'
p3246
S'D:\\git_projs\\Gabblista\\web2py\\web2py\\gluon\\restricted.py'
p3247
sS'dump'
p3248
(dp3249
S'environment'
p3250
S"{'A': <class 'gluon.html.A'>, 'Auth': <class 'gluon.tools.Auth'>, 'B': <class 'gluon.html.B'>, 'BEAUTIFY': <class 'gluon.html.BEAUTIFY'>, 'BODY': <class 'gluon.html.BODY'>, 'BR': <class 'gluon.html.BR'>, 'BUTTON': <class 'gluon.html.BUTTON'>, 'CAT': <class 'gluon.html.CAT'>, 'CENTER': <class 'gluon.html.CENTER'>, 'CLEANUP': <class 'gluon.validators.CLEANUP'>, ...}"
p3251
sS'ccode'
p3252
S'<code object <module> at 08734458, file "D:\\git_...plications\\Gabb1\\controllers/fb_serv.py", line 2>'
p3253
ssS'lnum'
p3254
I194
sS'lines'
p3255
(dp3256
I192
S'        else:'
p3257
sI193
S'            ccode = compile2(code,layer)'
p3258
sI194
S'        exec ccode in environment'
p3259
sI195
S'    except HTTP:'
p3260
sI196
S'        raise'
p3261
sI197
S'    except Exception, error:'
p3262
sI198
S'        # XXX Show exception in Wing IDE if running in debugger'
p3263
sI189
S'    try:'
p3264
sI190
S'        if type(code) == types.CodeType:'
p3265
sI191
S'            ccode = code'
p3266
ssS'call'
p3267
S"(code='# -*- coding: utf-8 -*-\\nfrom random import Rando...sponse._vars=response._caller(serve_player_data)\\n', environment={'A': <class 'gluon.html.A'>, 'Auth': <class 'gluon.tools.Auth'>, 'B': <class 'gluon.html.B'>, 'BEAUTIFY': <class 'gluon.html.BEAUTIFY'>, 'BODY': <class 'gluon.html.BODY'>, 'BR': <class 'gluon.html.BR'>, 'BUTTON': <class 'gluon.html.BUTTON'>, 'CAT': <class 'gluon.html.CAT'>, 'CENTER': <class 'gluon.html.CENTER'>, 'CLEANUP': <class 'gluon.validators.CLEANUP'>, ...}, layer=r'D:\\git_projs\\Gabblista\\web2py\\web2py\\applications\\Gabb1\\controllers/fb_serv.py')"
p3268
sS'func'
p3269
S'restricted'
p3270
sa(dp3271
g3246
S'D:\\git_projs\\Gabblista\\web2py\\web2py\\applications\\Gabb1\\controllers\\fb_serv.py'
p3272
sg3248
(dp3273
sg3254
I119
sg3255
(dp3274
I109
S'    # 1 - 3x - 30%'
p3275
sI110
S'    # 2 - 4x - 10%'
p3276
sI111
S'    rand_int = random.randint(0,10)'
p3277
sI112
S''
sI113
S'    if rand_int < 6:'
p3278
sI114
S'        return "0"'
p3279
sI115
S'    elif rand_int <9:'
p3280
sI116
S'        return "1"'
p3281
sI117
S'    else:'
p3282
sI118
S'        return "2"'
p3283
ssg3267
S'()'
p3284
sg3269
S'<module>'
p3285
sa(dp3286
g3246
S'D:\\git_projs\\Gabblista\\web2py\\web2py\\gluon\\globals.py'
p3287
sg3248
(dp3288
S'self'
p3289
S'undefined'
p3290
sS'f'
S'<function serve_player_data at 0x086E0CF0>'
p3291
ssg3254
I149
sg3255
(dp3292
I144
S'        self.meta = Storage()      # used by web2py_ajax.html'
p3293
sI145
S'        self.menu = []             # used by the default view layout'
p3294
sI146
S'        self.files = []            # used by web2py_ajax.html'
p3295
sI147
S'        self.generic_patterns = [] # patterns to allow generic views'
p3296
sI148
S'        self._vars = None'
p3297
sI149
S'        self._caller = lambda f: f()'
p3298
sI150
S'        self._view_environment = None'
p3299
sI151
S'        self._custom_commit = None'
p3300
sI152
S'        self._custom_rollback = None'
p3301
sI153
S''
ssg3267
S'(f=<function serve_player_data at 0x086E0CF0>)'
p3302
sg3269
S'<lambda>'
p3303
sa(dp3304
g3246
S'D:\\git_projs\\Gabblista\\web2py\\web2py\\applications\\Gabb1\\controllers\\fb_serv.py'
p3305
sg3248
(dp3306
S'js_1'
p3307
g3290
ssg3254
I18
sg3255
(dp3308
I13
S''
sI14
S'    player_ID = request.vars.player_ID'
p3309
sI15
S'    opponent_ID = request.vars.opponent_ID'
p3310
sI16
S'    game_ID = request.vars.game_ID'
p3311
sI17
S''
sI18
S'    game_data = get_player_data(player_ID,opponent_ID,game_ID);'
p3312
sI19
S'    return dict(game_data=game_data)'
p3313
sI20
S''
sI21
S'def get_player_data(player_ID,opponent_ID,game_ID):'
p3314
sI22
S''
ssg3267
S'()'
p3315
sg3269
S'serve_player_data'
p3316
sa(dp3317
g3246
S'D:\\git_projs\\Gabblista\\web2py\\web2py\\applications\\Gabb1\\controllers\\fb_serv.py'
p3318
sg3248
(dp3319
S'js_3'
p3320
g3290
ssg3254
I24
sg3255
(dp3321
I19
S'    return dict(game_data=game_data)'
p3322
sI20
S''
sI21
S'def get_player_data(player_ID,opponent_ID,game_ID):'
p3323
sI22
S''
sI23
S'    # Generate the player data'
p3324
sI24
S'    if(int(game_ID)==0):'
p3325
sI25
S'        letter_data = generate_new_letter_data()'
p3326
sI26
S'        event_data = generate_new_event_data()'
p3327
sI27
S'#        db.game_data_table.insert(player_1_ID = int(player_ID),'
p3328
sI28
S'#                                  player_2_ID = int(opponent_ID),'
p3329
ssg3267
S'(player_ID=None, opponent_ID=None, game_ID=None)'
p3330
sg3269
S'get_player_data'
p3331
sasS'pyver'
p3332
S'Python 2.5.4: C:\\python25\\python.exe'
p3333
sS'session'
p3334
g48
(g49
g50
NtRp3335
(dp3336
g53
(dp3337
sg55
(lp3338
g48
(g57
g50
NtRp3339
(dp3340
g53
(dp3341
g61
I5
ssg62
Nsg55
(lp3342
sbasbsS'etype'
p3343
S"<type 'exceptions.TypeError'>"
p3344
sS'date'
p3345
S'Thu Jan 19 15:19:02 2012'
p3346
sS'response'
p3347
g48
(g49
g50
NtRp3348
(dp3349
g53
(dp3350
sg55
(lp3351
g48
(g57
g50
NtRp3352
(dp3353
g53
(dp3354
g61
I5
ssg62
Nsg55
(lp3355
g48
(g64
g50
NtRp3356
(dp3357
g53
(dp3358
sg62
g3352
sg55
(lp3359
g48
(g69
g50
NtRp3360
(dp3361
g53
(dp3362
g73
g74
ssg62
g3356
sg55
(lp3363
g146
asbag48
(g69
g50
NtRp3364
(dp3365
g53
(dp3366
g80
g81
ssg62
g3356
sg55
(lp3367
S':'
asbag48
(g69
g50
NtRp3368
(dp3369
g53
(dp3370
sg62
g3356
sg55
(lp3371
g48
(g49
g50
NtRp3372
(dp3373
g53
(dp3374
g61
I5
ssg62
g3368
sg55
(lp3375
S'<cStringIO.StringO object at 0x08698DA0>'
p3376
asbasbasbag48
(g64
g50
NtRp3377
(dp3378
g53
(dp3379
sg62
g3352
sg55
(lp3380
g48
(g69
g50
NtRp3381
(dp3382
g53
(dp3383
g73
g74
ssg62
g3377
sg55
(lp3384
g212
asbag48
(g69
g50
NtRp3385
(dp3386
g53
(dp3387
g80
g81
ssg62
g3377
sg55
(lp3388
S':'
asbag48
(g69
g50
NtRp3389
(dp3390
g53
(dp3391
sg62
g3377
sg55
(lp3392
g48
(g49
g50
NtRp3393
(dp3394
g53
(dp3395
g61
I5
ssg62
g3389
sg55
(lp3396
g48
(g57
g50
NtRp3397
(dp3398
g53
(dp3399
g61
I4
ssg62
Nsg55
(lp3400
g48
(g64
g50
NtRp3401
(dp3402
g53
(dp3403
sg62
g3397
sg55
(lp3404
g48
(g69
g50
NtRp3405
(dp3406
g53
(dp3407
g73
g74
ssg62
g3401
sg55
(lp3408
S'session_id_gabb1'
p3409
asbag48
(g69
g50
NtRp3410
(dp3411
g53
(dp3412
g80
g81
ssg62
g3401
sg55
(lp3413
S':'
asbag48
(g69
g50
NtRp3414
(dp3415
g53
(dp3416
sg62
g3401
sg55
(lp3417
g48
(g49
g50
NtRp3418
(dp3419
g53
(dp3420
g61
I4
ssg62
g3414
sg55
(lp3421
g48
(g57
g50
NtRp3422
(dp3423
g53
(dp3424
g61
I3
ssg62
Nsg55
(lp3425
g48
(g64
g50
NtRp3426
(dp3427
g53
(dp3428
sg62
g3422
sg55
(lp3429
g48
(g69
g50
NtRp3430
(dp3431
g53
(dp3432
g73
g74
ssg62
g3426
sg55
(lp3433
g262
asbag48
(g69
g50
NtRp3434
(dp3435
g53
(dp3436
g80
g81
ssg62
g3426
sg55
(lp3437
S':'
asbag48
(g69
g50
NtRp3438
(dp3439
g53
(dp3440
sg62
g3426
sg55
(lp3441
g48
(g49
g50
NtRp3442
(dp3443
g53
(dp3444
g61
I3
ssg62
g3438
sg55
(lp3445
S''
asbasbasbag48
(g64
g50
NtRp3446
(dp3447
g53
(dp3448
sg62
g3422
sg55
(lp3449
g48
(g69
g50
NtRp3450
(dp3451
g53
(dp3452
g73
g74
ssg62
g3446
sg55
(lp3453
g283
asbag48
(g69
g50
NtRp3454
(dp3455
g53
(dp3456
g80
g81
ssg62
g3446
sg55
(lp3457
S':'
asbag48
(g69
g50
NtRp3458
(dp3459
g53
(dp3460
sg62
g3446
sg55
(lp3461
g48
(g49
g50
NtRp3462
(dp3463
g53
(dp3464
g61
I3
ssg62
g3458
sg55
(lp3465
S''
asbasbasbag48
(g64
g50
NtRp3466
(dp3467
g53
(dp3468
sg62
g3422
sg55
(lp3469
g48
(g69
g50
NtRp3470
(dp3471
g53
(dp3472
g73
g74
ssg62
g3466
sg55
(lp3473
g304
asbag48
(g69
g50
NtRp3474
(dp3475
g53
(dp3476
g80
g81
ssg62
g3466
sg55
(lp3477
S':'
asbag48
(g69
g50
NtRp3478
(dp3479
g53
(dp3480
sg62
g3466
sg55
(lp3481
g48
(g49
g50
NtRp3482
(dp3483
g53
(dp3484
g61
I3
ssg62
g3478
sg55
(lp3485
S''
asbasbasbag48
(g64
g50
NtRp3486
(dp3487
g53
(dp3488
sg62
g3422
sg55
(lp3489
g48
(g69
g50
NtRp3490
(dp3491
g53
(dp3492
g73
g74
ssg62
g3486
sg55
(lp3493
g325
asbag48
(g69
g50
NtRp3494
(dp3495
g53
(dp3496
g80
g81
ssg62
g3486
sg55
(lp3497
S':'
asbag48
(g69
g50
NtRp3498
(dp3499
g53
(dp3500
sg62
g3486
sg55
(lp3501
g48
(g49
g50
NtRp3502
(dp3503
g53
(dp3504
g61
I3
ssg62
g3498
sg55
(lp3505
S''
asbasbasbag48
(g64
g50
NtRp3506
(dp3507
g53
(dp3508
sg62
g3422
sg55
(lp3509
g48
(g69
g50
NtRp3510
(dp3511
g53
(dp3512
g73
g74
ssg62
g3506
sg55
(lp3513
g346
asbag48
(g69
g50
NtRp3514
(dp3515
g53
(dp3516
g80
g81
ssg62
g3506
sg55
(lp3517
S':'
asbag48
(g69
g50
NtRp3518
(dp3519
g53
(dp3520
sg62
g3506
sg55
(lp3521
g48
(g49
g50
NtRp3522
(dp3523
g53
(dp3524
g61
I3
ssg62
g3518
sg55
(lp3525
S'/'
asbasbasbag48
(g64
g50
NtRp3526
(dp3527
g53
(dp3528
sg62
g3422
sg55
(lp3529
g48
(g69
g50
NtRp3530
(dp3531
g53
(dp3532
g73
g74
ssg62
g3526
sg55
(lp3533
g367
asbag48
(g69
g50
NtRp3534
(dp3535
g53
(dp3536
g80
g81
ssg62
g3526
sg55
(lp3537
S':'
asbag48
(g69
g50
NtRp3538
(dp3539
g53
(dp3540
sg62
g3526
sg55
(lp3541
g48
(g49
g50
NtRp3542
(dp3543
g53
(dp3544
g61
I3
ssg62
g3538
sg55
(lp3545
S''
asbasbasbag48
(g64
g50
NtRp3546
(dp3547
g53
(dp3548
sg62
g3422
sg55
(lp3549
g48
(g69
g50
NtRp3550
(dp3551
g53
(dp3552
g73
g74
ssg62
g3546
sg55
(lp3553
g388
asbag48
(g69
g50
NtRp3554
(dp3555
g53
(dp3556
g80
g81
ssg62
g3546
sg55
(lp3557
S':'
asbag48
(g69
g50
NtRp3558
(dp3559
g53
(dp3560
sg62
g3546
sg55
(lp3561
g48
(g49
g50
NtRp3562
(dp3563
g53
(dp3564
g61
I3
ssg62
g3558
sg55
(lp3565
S''
asbasbasbasbasbasbasbasbasbasbasbag48
(g64
g50
NtRp3566
(dp3567
g53
(dp3568
sg62
g3352
sg55
(lp3569
g48
(g69
g50
NtRp3570
(dp3571
g53
(dp3572
g73
g74
ssg62
g3566
sg55
(lp3573
S'files'
p3574
asbag48
(g69
g50
NtRp3575
(dp3576
g53
(dp3577
g80
g81
ssg62
g3566
sg55
(lp3578
S':'
asbag48
(g69
g50
NtRp3579
(dp3580
g53
(dp3581
sg62
g3566
sg55
(lp3582
g48
(g49
g50
NtRp3583
(dp3584
g53
(dp3585
g61
I5
ssg62
g3579
sg55
(lp3586
g48
(g57
g50
NtRp3587
(dp3588
g53
(dp3589
g61
I4
ssg62
Nsg55
(lp3590
sbasbasbasbag48
(g64
g50
NtRp3591
(dp3592
g53
(dp3593
sg62
g3352
sg55
(lp3594
g48
(g69
g50
NtRp3595
(dp3596
g53
(dp3597
g73
g74
ssg62
g3591
sg55
(lp3598
S'flash'
p3599
asbag48
(g69
g50
NtRp3600
(dp3601
g53
(dp3602
g80
g81
ssg62
g3591
sg55
(lp3603
S':'
asbag48
(g69
g50
NtRp3604
(dp3605
g53
(dp3606
sg62
g3591
sg55
(lp3607
g48
(g49
g50
NtRp3608
(dp3609
g53
(dp3610
g61
I5
ssg62
g3604
sg55
(lp3611
S''
asbasbasbag48
(g64
g50
NtRp3612
(dp3613
g53
(dp3614
sg62
g3352
sg55
(lp3615
g48
(g69
g50
NtRp3616
(dp3617
g53
(dp3618
g73
g74
ssg62
g3612
sg55
(lp3619
S'generic_patterns'
p3620
asbag48
(g69
g50
NtRp3621
(dp3622
g53
(dp3623
g80
g81
ssg62
g3612
sg55
(lp3624
S':'
asbag48
(g69
g50
NtRp3625
(dp3626
g53
(dp3627
sg62
g3612
sg55
(lp3628
g48
(g49
g50
NtRp3629
(dp3630
g53
(dp3631
g61
I5
ssg62
g3625
sg55
(lp3632
g48
(g57
g50
NtRp3633
(dp3634
g53
(dp3635
g61
I4
ssg62
Nsg55
(lp3636
g48
(g64
g50
NtRp3637
(dp3638
g53
(dp3639
sg62
g3633
sg55
(lp3640
g48
(g69
g50
NtRp3641
(dp3642
g53
(dp3643
sg62
g3637
sg55
(lp3644
g48
(g49
g50
NtRp3645
(dp3646
g53
(dp3647
g61
I4
ssg62
g3641
sg55
(lp3648
S'*'
asbasbasbasbasbasbasbag48
(g64
g50
NtRp3649
(dp3650
g53
(dp3651
sg62
g3352
sg55
(lp3652
g48
(g69
g50
NtRp3653
(dp3654
g53
(dp3655
g73
g74
ssg62
g3649
sg55
(lp3656
S'headers'
p3657
asbag48
(g69
g50
NtRp3658
(dp3659
g53
(dp3660
g80
g81
ssg62
g3649
sg55
(lp3661
S':'
asbag48
(g69
g50
NtRp3662
(dp3663
g53
(dp3664
sg62
g3649
sg55
(lp3665
g48
(g49
g50
NtRp3666
(dp3667
g53
(dp3668
g61
I5
ssg62
g3662
sg55
(lp3669
g48
(g57
g50
NtRp3670
(dp3671
g53
(dp3672
g61
I4
ssg62
Nsg55
(lp3673
g48
(g64
g50
NtRp3674
(dp3675
g53
(dp3676
sg62
g3670
sg55
(lp3677
g48
(g69
g50
NtRp3678
(dp3679
g53
(dp3680
g73
g74
ssg62
g3674
sg55
(lp3681
S'Cache-Control'
p3682
asbag48
(g69
g50
NtRp3683
(dp3684
g53
(dp3685
g80
g81
ssg62
g3674
sg55
(lp3686
S':'
asbag48
(g69
g50
NtRp3687
(dp3688
g53
(dp3689
sg62
g3674
sg55
(lp3690
g48
(g49
g50
NtRp3691
(dp3692
g53
(dp3693
g61
I4
ssg62
g3687
sg55
(lp3694
S'no-store, no-cache, must-revalidate, post-check=0, pre-check=0'
p3695
asbasbasbag48
(g64
g50
NtRp3696
(dp3697
g53
(dp3698
sg62
g3670
sg55
(lp3699
g48
(g69
g50
NtRp3700
(dp3701
g53
(dp3702
g73
g74
ssg62
g3696
sg55
(lp3703
S'Content-Type'
p3704
asbag48
(g69
g50
NtRp3705
(dp3706
g53
(dp3707
g80
g81
ssg62
g3696
sg55
(lp3708
S':'
asbag48
(g69
g50
NtRp3709
(dp3710
g53
(dp3711
sg62
g3696
sg55
(lp3712
g48
(g49
g50
NtRp3713
(dp3714
g53
(dp3715
g61
I4
ssg62
g3709
sg55
(lp3716
S'text/plain; charset=utf-8'
p3717
asbasbasbag48
(g64
g50
NtRp3718
(dp3719
g53
(dp3720
sg62
g3670
sg55
(lp3721
g48
(g69
g50
NtRp3722
(dp3723
g53
(dp3724
g73
g74
ssg62
g3718
sg55
(lp3725
S'Expires'
p3726
asbag48
(g69
g50
NtRp3727
(dp3728
g53
(dp3729
g80
g81
ssg62
g3718
sg55
(lp3730
S':'
asbag48
(g69
g50
NtRp3731
(dp3732
g53
(dp3733
sg62
g3718
sg55
(lp3734
g48
(g49
g50
NtRp3735
(dp3736
g53
(dp3737
g61
I4
ssg62
g3731
sg55
(lp3738
S'Thu, 19 Jan 2012 20:19:01 GMT'
p3739
asbasbasbag48
(g64
g50
NtRp3740
(dp3741
g53
(dp3742
sg62
g3670
sg55
(lp3743
g48
(g69
g50
NtRp3744
(dp3745
g53
(dp3746
g73
g74
ssg62
g3740
sg55
(lp3747
S'NingNang'
p3748
asbag48
(g69
g50
NtRp3749
(dp3750
g53
(dp3751
g80
g81
ssg62
g3740
sg55
(lp3752
S':'
asbag48
(g69
g50
NtRp3753
(dp3754
g53
(dp3755
sg62
g3740
sg55
(lp3756
g48
(g49
g50
NtRp3757
(dp3758
g53
(dp3759
g61
I4
ssg62
g3753
sg55
(lp3760
S'Nong'
p3761
asbasbasbag48
(g64
g50
NtRp3762
(dp3763
g53
(dp3764
sg62
g3670
sg55
(lp3765
g48
(g69
g50
NtRp3766
(dp3767
g53
(dp3768
g73
g74
ssg62
g3762
sg55
(lp3769
S'Pragma'
p3770
asbag48
(g69
g50
NtRp3771
(dp3772
g53
(dp3773
g80
g81
ssg62
g3762
sg55
(lp3774
S':'
asbag48
(g69
g50
NtRp3775
(dp3776
g53
(dp3777
sg62
g3762
sg55
(lp3778
g48
(g49
g50
NtRp3779
(dp3780
g53
(dp3781
g61
I4
ssg62
g3775
sg55
(lp3782
S'no-cache'
p3783
asbasbasbasbasbasbasbag48
(g64
g50
NtRp3784
(dp3785
g53
(dp3786
sg62
g3352
sg55
(lp3787
g48
(g69
g50
NtRp3788
(dp3789
g53
(dp3790
g73
g74
ssg62
g3784
sg55
(lp3791
S'menu'
p3792
asbag48
(g69
g50
NtRp3793
(dp3794
g53
(dp3795
g80
g81
ssg62
g3784
sg55
(lp3796
S':'
asbag48
(g69
g50
NtRp3797
(dp3798
g53
(dp3799
sg62
g3784
sg55
(lp3800
g48
(g49
g50
NtRp3801
(dp3802
g53
(dp3803
g61
I5
ssg62
g3797
sg55
(lp3804
g48
(g57
g50
NtRp3805
(dp3806
g53
(dp3807
g61
I4
ssg62
Nsg55
(lp3808
g48
(g64
g50
NtRp3809
(dp3810
g53
(dp3811
sg62
g3805
sg55
(lp3812
g48
(g69
g50
NtRp3813
(dp3814
g53
(dp3815
sg62
g3809
sg55
(lp3816
g48
(g49
g50
NtRp3817
(dp3818
g53
(dp3819
g61
I4
ssg62
g3813
sg55
(lp3820
g48
(g57
g50
NtRp3821
(dp3822
g53
(dp3823
g61
I3
ssg62
Nsg55
(lp3824
g48
(g64
g50
NtRp3825
(dp3826
g53
(dp3827
sg62
g3821
sg55
(lp3828
g48
(g69
g50
NtRp3829
(dp3830
g53
(dp3831
sg62
g3825
sg55
(lp3832
g48
(g49
g50
NtRp3833
(dp3834
g53
(dp3835
g61
I3
ssg62
g3829
sg55
(lp3836
cgluon.languages
lazyT_unpickle
p3837
(S's\x04\x00\x00\x00Home'
tRp3838
asbasbasbag48
(g64
g50
NtRp3839
(dp3840
g53
(dp3841
sg62
g3821
sg55
(lp3842
g48
(g69
g50
NtRp3843
(dp3844
g53
(dp3845
sg62
g3839
sg55
(lp3846
g48
(g49
g50
NtRp3847
(dp3848
g53
(dp3849
g61
I3
ssg62
g3843
sg55
(lp3850
g91
asbasbasbag48
(g64
g50
NtRp3851
(dp3852
g53
(dp3853
sg62
g3821
sg55
(lp3854
g48
(g69
g50
NtRp3855
(dp3856
g53
(dp3857
sg62
g3851
sg55
(lp3858
g48
(g49
g50
NtRp3859
(dp3860
g53
(dp3861
g61
I3
ssg62
g3855
sg55
(lp3862
S'/Gabb1/default/index.txt'
p3863
asbasbasbag48
(g64
g50
NtRp3864
(dp3865
g53
(dp3866
sg62
g3821
sg55
(lp3867
g48
(g69
g50
NtRp3868
(dp3869
g53
(dp3870
sg62
g3864
sg55
(lp3871
g48
(g49
g50
NtRp3872
(dp3873
g53
(dp3874
g61
I3
ssg62
g3868
sg55
(lp3875
g48
(g57
g50
NtRp3876
(dp3877
g53
(dp3878
g61
I2
ssg62
Nsg55
(lp3879
sbasbasbasbasbasbasbasbag48
(g64
g50
NtRp3880
(dp3881
g53
(dp3882
sg62
g3805
sg55
(lp3883
g48
(g69
g50
NtRp3884
(dp3885
g53
(dp3886
sg62
g3880
sg55
(lp3887
g48
(g49
g50
NtRp3888
(dp3889
g53
(dp3890
g61
I4
ssg62
g3884
sg55
(lp3891
g48
(g57
g50
NtRp3892
(dp3893
g53
(dp3894
g61
I3
ssg62
Nsg55
(lp3895
g48
(g64
g50
NtRp3896
(dp3897
g53
(dp3898
sg62
g3892
sg55
(lp3899
g48
(g69
g50
NtRp3900
(dp3901
g53
(dp3902
sg62
g3896
sg55
(lp3903
g48
(g49
g50
NtRp3904
(dp3905
g53
(dp3906
g61
I3
ssg62
g3900
sg55
(lp3907
g3837
(S's\x08\x00\x00\x00This App'
tRp3908
asbasbasbag48
(g64
g50
NtRp3909
(dp3910
g53
(dp3911
sg62
g3892
sg55
(lp3912
g48
(g69
g50
NtRp3913
(dp3914
g53
(dp3915
sg62
g3909
sg55
(lp3916
g48
(g49
g50
NtRp3917
(dp3918
g53
(dp3919
g61
I3
ssg62
g3913
sg55
(lp3920
g91
asbasbasbag48
(g64
g50
NtRp3921
(dp3922
g53
(dp3923
sg62
g3892
sg55
(lp3924
g48
(g69
g50
NtRp3925
(dp3926
g53
(dp3927
sg62
g3921
sg55
(lp3928
g48
(g49
g50
NtRp3929
(dp3930
g53
(dp3931
g61
I3
ssg62
g3925
sg55
(lp3932
S'/admin/default/design/Gabb1.txt'
p3933
asbasbasbag48
(g64
g50
NtRp3934
(dp3935
g53
(dp3936
sg62
g3892
sg55
(lp3937
g48
(g69
g50
NtRp3938
(dp3939
g53
(dp3940
sg62
g3934
sg55
(lp3941
g48
(g49
g50
NtRp3942
(dp3943
g53
(dp3944
g61
I3
ssg62
g3938
sg55
(lp3945
g48
(g57
g50
NtRp3946
(dp3947
g53
(dp3948
g61
I2
ssg62
Nsg55
(lp3949
g48
(g64
g50
NtRp3950
(dp3951
g53
(dp3952
sg62
g3946
sg55
(lp3953
g48
(g69
g50
NtRp3954
(dp3955
g53
(dp3956
sg62
g3950
sg55
(lp3957
g48
(g49
g50
NtRp3958
(dp3959
g53
(dp3960
g61
I2
ssg62
g3954
sg55
(lp3961
g48
(g57
g50
NtRp3962
(dp3963
g53
(dp3964
g61
I1
ssg62
Nsg55
(lp3965
g48
(g64
g50
NtRp3966
(dp3967
g53
(dp3968
sg62
g3962
sg55
(lp3969
g48
(g69
g50
NtRp3970
(dp3971
g53
(dp3972
sg62
g3966
sg55
(lp3973
g48
(g49
g50
NtRp3974
(dp3975
g53
(dp3976
g61
I1
ssg62
g3970
sg55
(lp3977
g3837
(S's\n\x00\x00\x00Controller'
tRp3978
asbasbasbag48
(g64
g50
NtRp3979
(dp3980
g53
(dp3981
sg62
g3962
sg55
(lp3982
g48
(g69
g50
NtRp3983
(dp3984
g53
(dp3985
sg62
g3979
sg55
(lp3986
g48
(g49
g50
NtRp3987
(dp3988
g53
(dp3989
g61
I1
ssg62
g3983
sg55
(lp3990
I00
asbasbasbag48
(g64
g50
NtRp3991
(dp3992
g53
(dp3993
sg62
g3962
sg55
(lp3994
g48
(g69
g50
NtRp3995
(dp3996
g53
(dp3997
sg62
g3991
sg55
(lp3998
g48
(g49
g50
NtRp3999
(dp4000
g53
(dp4001
g61
I1
ssg62
g3995
sg55
(lp4002
S'/admin/default/edit/Gabb1/controllers/fb_serv.py'
p4003
asbasbasbasbasbasbasbag48
(g64
g50
NtRp4004
(dp4005
g53
(dp4006
sg62
g3946
sg55
(lp4007
g48
(g69
g50
NtRp4008
(dp4009
g53
(dp4010
sg62
g4004
sg55
(lp4011
g48
(g49
g50
NtRp4012
(dp4013
g53
(dp4014
g61
I2
ssg62
g4008
sg55
(lp4015
g48
(g57
g50
NtRp4016
(dp4017
g53
(dp4018
g61
I1
ssg62
Nsg55
(lp4019
g48
(g64
g50
NtRp4020
(dp4021
g53
(dp4022
sg62
g4016
sg55
(lp4023
g48
(g69
g50
NtRp4024
(dp4025
g53
(dp4026
sg62
g4020
sg55
(lp4027
g48
(g49
g50
NtRp4028
(dp4029
g53
(dp4030
g61
I1
ssg62
g4024
sg55
(lp4031
g3837
(S's\x04\x00\x00\x00View'
tRp4032
asbasbasbag48
(g64
g50
NtRp4033
(dp4034
g53
(dp4035
sg62
g4016
sg55
(lp4036
g48
(g69
g50
NtRp4037
(dp4038
g53
(dp4039
sg62
g4033
sg55
(lp4040
g48
(g49
g50
NtRp4041
(dp4042
g53
(dp4043
g61
I1
ssg62
g4037
sg55
(lp4044
I00
asbasbasbag48
(g64
g50
NtRp4045
(dp4046
g53
(dp4047
sg62
g4016
sg55
(lp4048
g48
(g69
g50
NtRp4049
(dp4050
g53
(dp4051
sg62
g4045
sg55
(lp4052
g48
(g49
g50
NtRp4053
(dp4054
g53
(dp4055
g61
I1
ssg62
g4049
sg55
(lp4056
S'/admin/default/edit/Gabb1/views/fb_serv/serve_player_data.txt'
p4057
asbasbasbasbasbasbasbag48
(g64
g50
NtRp4058
(dp4059
g53
(dp4060
sg62
g3946
sg55
(lp4061
g48
(g69
g50
NtRp4062
(dp4063
g53
(dp4064
sg62
g4058
sg55
(lp4065
g48
(g49
g50
NtRp4066
(dp4067
g53
(dp4068
g61
I2
ssg62
g4062
sg55
(lp4069
g48
(g57
g50
NtRp4070
(dp4071
g53
(dp4072
g61
I1
ssg62
Nsg55
(lp4073
g48
(g64
g50
NtRp4074
(dp4075
g53
(dp4076
sg62
g4070
sg55
(lp4077
g48
(g69
g50
NtRp4078
(dp4079
g53
(dp4080
sg62
g4074
sg55
(lp4081
g48
(g49
g50
NtRp4082
(dp4083
g53
(dp4084
g61
I1
ssg62
g4078
sg55
(lp4085
g3837
(S's\x06\x00\x00\x00Layout'
tRp4086
asbasbasbag48
(g64
g50
NtRp4087
(dp4088
g53
(dp4089
sg62
g4070
sg55
(lp4090
g48
(g69
g50
NtRp4091
(dp4092
g53
(dp4093
sg62
g4087
sg55
(lp4094
g48
(g49
g50
NtRp4095
(dp4096
g53
(dp4097
g61
I1
ssg62
g4091
sg55
(lp4098
I00
asbasbasbag48
(g64
g50
NtRp4099
(dp4100
g53
(dp4101
sg62
g4070
sg55
(lp4102
g48
(g69
g50
NtRp4103
(dp4104
g53
(dp4105
sg62
g4099
sg55
(lp4106
g48
(g49
g50
NtRp4107
(dp4108
g53
(dp4109
g61
I1
ssg62
g4103
sg55
(lp4110
S'/admin/default/edit/Gabb1/views/layout.html'
p4111
asbasbasbasbasbasbasbag48
(g64
g50
NtRp4112
(dp4113
g53
(dp4114
sg62
g3946
sg55
(lp4115
g48
(g69
g50
NtRp4116
(dp4117
g53
(dp4118
sg62
g4112
sg55
(lp4119
g48
(g49
g50
NtRp4120
(dp4121
g53
(dp4122
g61
I2
ssg62
g4116
sg55
(lp4123
g48
(g57
g50
NtRp4124
(dp4125
g53
(dp4126
g61
I1
ssg62
Nsg55
(lp4127
g48
(g64
g50
NtRp4128
(dp4129
g53
(dp4130
sg62
g4124
sg55
(lp4131
g48
(g69
g50
NtRp4132
(dp4133
g53
(dp4134
sg62
g4128
sg55
(lp4135
g48
(g49
g50
NtRp4136
(dp4137
g53
(dp4138
g61
I1
ssg62
g4132
sg55
(lp4139
g3837
(S's\n\x00\x00\x00Stylesheet'
tRp4140
asbasbasbag48
(g64
g50
NtRp4141
(dp4142
g53
(dp4143
sg62
g4124
sg55
(lp4144
g48
(g69
g50
NtRp4145
(dp4146
g53
(dp4147
sg62
g4141
sg55
(lp4148
g48
(g49
g50
NtRp4149
(dp4150
g53
(dp4151
g61
I1
ssg62
g4145
sg55
(lp4152
I00
asbasbasbag48
(g64
g50
NtRp4153
(dp4154
g53
(dp4155
sg62
g4124
sg55
(lp4156
g48
(g69
g50
NtRp4157
(dp4158
g53
(dp4159
sg62
g4153
sg55
(lp4160
g48
(g49
g50
NtRp4161
(dp4162
g53
(dp4163
g61
I1
ssg62
g4157
sg55
(lp4164
S'/admin/default/edit/Gabb1/static/base.css'
p4165
asbasbasbasbasbasbasbag48
(g64
g50
NtRp4166
(dp4167
g53
(dp4168
sg62
g3946
sg55
(lp4169
g48
(g69
g50
NtRp4170
(dp4171
g53
(dp4172
sg62
g4166
sg55
(lp4173
g48
(g49
g50
NtRp4174
(dp4175
g53
(dp4176
g61
I2
ssg62
g4170
sg55
(lp4177
g48
(g57
g50
NtRp4178
(dp4179
g53
(dp4180
g61
I1
ssg62
Nsg55
(lp4181
g48
(g64
g50
NtRp4182
(dp4183
g53
(dp4184
sg62
g4178
sg55
(lp4185
g48
(g69
g50
NtRp4186
(dp4187
g53
(dp4188
sg62
g4182
sg55
(lp4189
g48
(g49
g50
NtRp4190
(dp4191
g53
(dp4192
g61
I1
ssg62
g4186
sg55
(lp4193
g3837
(S's\x08\x00\x00\x00DB Model'
tRp4194
asbasbasbag48
(g64
g50
NtRp4195
(dp4196
g53
(dp4197
sg62
g4178
sg55
(lp4198
g48
(g69
g50
NtRp4199
(dp4200
g53
(dp4201
sg62
g4195
sg55
(lp4202
g48
(g49
g50
NtRp4203
(dp4204
g53
(dp4205
g61
I1
ssg62
g4199
sg55
(lp4206
I00
asbasbasbag48
(g64
g50
NtRp4207
(dp4208
g53
(dp4209
sg62
g4178
sg55
(lp4210
g48
(g69
g50
NtRp4211
(dp4212
g53
(dp4213
sg62
g4207
sg55
(lp4214
g48
(g49
g50
NtRp4215
(dp4216
g53
(dp4217
g61
I1
ssg62
g4211
sg55
(lp4218
S'/admin/default/edit/Gabb1/models/db.py'
p4219
asbasbasbasbasbasbasbag48
(g64
g50
NtRp4220
(dp4221
g53
(dp4222
sg62
g3946
sg55
(lp4223
g48
(g69
g50
NtRp4224
(dp4225
g53
(dp4226
sg62
g4220
sg55
(lp4227
g48
(g49
g50
NtRp4228
(dp4229
g53
(dp4230
g61
I2
ssg62
g4224
sg55
(lp4231
g48
(g57
g50
NtRp4232
(dp4233
g53
(dp4234
g61
I1
ssg62
Nsg55
(lp4235
g48
(g64
g50
NtRp4236
(dp4237
g53
(dp4238
sg62
g4232
sg55
(lp4239
g48
(g69
g50
NtRp4240
(dp4241
g53
(dp4242
sg62
g4236
sg55
(lp4243
g48
(g49
g50
NtRp4244
(dp4245
g53
(dp4246
g61
I1
ssg62
g4240
sg55
(lp4247
g3837
(S's\n\x00\x00\x00Menu Model'
tRp4248
asbasbasbag48
(g64
g50
NtRp4249
(dp4250
g53
(dp4251
sg62
g4232
sg55
(lp4252
g48
(g69
g50
NtRp4253
(dp4254
g53
(dp4255
sg62
g4249
sg55
(lp4256
g48
(g49
g50
NtRp4257
(dp4258
g53
(dp4259
g61
I1
ssg62
g4253
sg55
(lp4260
I00
asbasbasbag48
(g64
g50
NtRp4261
(dp4262
g53
(dp4263
sg62
g4232
sg55
(lp4264
g48
(g69
g50
NtRp4265
(dp4266
g53
(dp4267
sg62
g4261
sg55
(lp4268
g48
(g49
g50
NtRp4269
(dp4270
g53
(dp4271
g61
I1
ssg62
g4265
sg55
(lp4272
S'/admin/default/edit/Gabb1/models/menu.py'
p4273
asbasbasbasbasbasbasbag48
(g64
g50
NtRp4274
(dp4275
g53
(dp4276
sg62
g3946
sg55
(lp4277
g48
(g69
g50
NtRp4278
(dp4279
g53
(dp4280
sg62
g4274
sg55
(lp4281
g48
(g49
g50
NtRp4282
(dp4283
g53
(dp4284
g61
I2
ssg62
g4278
sg55
(lp4285
g48
(g57
g50
NtRp4286
(dp4287
g53
(dp4288
g61
I1
ssg62
Nsg55
(lp4289
g48
(g64
g50
NtRp4290
(dp4291
g53
(dp4292
sg62
g4286
sg55
(lp4293
g48
(g69
g50
NtRp4294
(dp4295
g53
(dp4296
sg62
g4290
sg55
(lp4297
g48
(g49
g50
NtRp4298
(dp4299
g53
(dp4300
g61
I1
ssg62
g4294
sg55
(lp4301
g3837
(S's\x08\x00\x00\x00Database'
tRp4302
asbasbasbag48
(g64
g50
NtRp4303
(dp4304
g53
(dp4305
sg62
g4286
sg55
(lp4306
g48
(g69
g50
NtRp4307
(dp4308
g53
(dp4309
sg62
g4303
sg55
(lp4310
g48
(g49
g50
NtRp4311
(dp4312
g53
(dp4313
g61
I1
ssg62
g4307
sg55
(lp4314
I00
asbasbasbag48
(g64
g50
NtRp4315
(dp4316
g53
(dp4317
sg62
g4286
sg55
(lp4318
g48
(g69
g50
NtRp4319
(dp4320
g53
(dp4321
sg62
g4315
sg55
(lp4322
g48
(g49
g50
NtRp4323
(dp4324
g53
(dp4325
g61
I1
ssg62
g4319
sg55
(lp4326
S'/Gabb1/appadmin/index.txt'
p4327
asbasbasbasbasbasbasbag48
(g64
g50
NtRp4328
(dp4329
g53
(dp4330
sg62
g3946
sg55
(lp4331
g48
(g69
g50
NtRp4332
(dp4333
g53
(dp4334
sg62
g4328
sg55
(lp4335
g48
(g49
g50
NtRp4336
(dp4337
g53
(dp4338
g61
I2
ssg62
g4332
sg55
(lp4339
g48
(g57
g50
NtRp4340
(dp4341
g53
(dp4342
g61
I1
ssg62
Nsg55
(lp4343
g48
(g64
g50
NtRp4344
(dp4345
g53
(dp4346
sg62
g4340
sg55
(lp4347
g48
(g69
g50
NtRp4348
(dp4349
g53
(dp4350
sg62
g4344
sg55
(lp4351
g48
(g49
g50
NtRp4352
(dp4353
g53
(dp4354
g61
I1
ssg62
g4348
sg55
(lp4355
g3837
(S's\x06\x00\x00\x00Errors'
tRp4356
asbasbasbag48
(g64
g50
NtRp4357
(dp4358
g53
(dp4359
sg62
g4340
sg55
(lp4360
g48
(g69
g50
NtRp4361
(dp4362
g53
(dp4363
sg62
g4357
sg55
(lp4364
g48
(g49
g50
NtRp4365
(dp4366
g53
(dp4367
g61
I1
ssg62
g4361
sg55
(lp4368
I00
asbasbasbag48
(g64
g50
NtRp4369
(dp4370
g53
(dp4371
sg62
g4340
sg55
(lp4372
g48
(g69
g50
NtRp4373
(dp4374
g53
(dp4375
sg62
g4369
sg55
(lp4376
g48
(g49
g50
NtRp4377
(dp4378
g53
(dp4379
g61
I1
ssg62
g4373
sg55
(lp4380
S'/admin/default/errors/Gabb1.txt'
p4381
asbasbasbasbasbasbasbag48
(g64
g50
NtRp4382
(dp4383
g53
(dp4384
sg62
g3946
sg55
(lp4385
g48
(g69
g50
NtRp4386
(dp4387
g53
(dp4388
sg62
g4382
sg55
(lp4389
g48
(g49
g50
NtRp4390
(dp4391
g53
(dp4392
g61
I2
ssg62
g4386
sg55
(lp4393
g48
(g57
g50
NtRp4394
(dp4395
g53
(dp4396
g61
I1
ssg62
Nsg55
(lp4397
g48
(g64
g50
NtRp4398
(dp4399
g53
(dp4400
sg62
g4394
sg55
(lp4401
g48
(g69
g50
NtRp4402
(dp4403
g53
(dp4404
sg62
g4398
sg55
(lp4405
g48
(g49
g50
NtRp4406
(dp4407
g53
(dp4408
g61
I1
ssg62
g4402
sg55
(lp4409
g3837
(S's\x05\x00\x00\x00About'
tRp4410
asbasbasbag48
(g64
g50
NtRp4411
(dp4412
g53
(dp4413
sg62
g4394
sg55
(lp4414
g48
(g69
g50
NtRp4415
(dp4416
g53
(dp4417
sg62
g4411
sg55
(lp4418
g48
(g49
g50
NtRp4419
(dp4420
g53
(dp4421
g61
I1
ssg62
g4415
sg55
(lp4422
I00
asbasbasbag48
(g64
g50
NtRp4423
(dp4424
g53
(dp4425
sg62
g4394
sg55
(lp4426
g48
(g69
g50
NtRp4427
(dp4428
g53
(dp4429
sg62
g4423
sg55
(lp4430
g48
(g49
g50
NtRp4431
(dp4432
g53
(dp4433
g61
I1
ssg62
g4427
sg55
(lp4434
S'/admin/default/about/Gabb1.txt'
p4435
asbasbasbasbasbasbasbasbasbasbasbasbasbasbasbag48
(g64
g50
NtRp4436
(dp4437
g53
(dp4438
sg62
g3805
sg55
(lp4439
g48
(g69
g50
NtRp4440
(dp4441
g53
(dp4442
sg62
g4436
sg55
(lp4443
g48
(g49
g50
NtRp4444
(dp4445
g53
(dp4446
g61
I4
ssg62
g4440
sg55
(lp4447
g48
(g57
g50
NtRp4448
(dp4449
g53
(dp4450
g61
I3
ssg62
Nsg55
(lp4451
g48
(g64
g50
NtRp4452
(dp4453
g53
(dp4454
sg62
g4448
sg55
(lp4455
g48
(g69
g50
NtRp4456
(dp4457
g53
(dp4458
sg62
g4452
sg55
(lp4459
g48
(g49
g50
NtRp4460
(dp4461
g53
(dp4462
g61
I3
ssg62
g4456
sg55
(lp4463
g3837
(S's\t\x00\x00\x00Resources'
tRp4464
asbasbasbag48
(g64
g50
NtRp4465
(dp4466
g53
(dp4467
sg62
g4448
sg55
(lp4468
g48
(g69
g50
NtRp4469
(dp4470
g53
(dp4471
sg62
g4465
sg55
(lp4472
g48
(g49
g50
NtRp4473
(dp4474
g53
(dp4475
g61
I3
ssg62
g4469
sg55
(lp4476
g91
asbasbasbag48
(g64
g50
NtRp4477
(dp4478
g53
(dp4479
sg62
g4448
sg55
(lp4480
g48
(g69
g50
NtRp4481
(dp4482
g53
(dp4483
sg62
g4477
sg55
(lp4484
g48
(g49
g50
NtRp4485
(dp4486
g53
(dp4487
g61
I3
ssg62
g4481
sg55
(lp4488
S'None'
p4489
asbasbasbag48
(g64
g50
NtRp4490
(dp4491
g53
(dp4492
sg62
g4448
sg55
(lp4493
g48
(g69
g50
NtRp4494
(dp4495
g53
(dp4496
sg62
g4490
sg55
(lp4497
g48
(g49
g50
NtRp4498
(dp4499
g53
(dp4500
g61
I3
ssg62
g4494
sg55
(lp4501
g48
(g57
g50
NtRp4502
(dp4503
g53
(dp4504
g61
I2
ssg62
Nsg55
(lp4505
g48
(g64
g50
NtRp4506
(dp4507
g53
(dp4508
sg62
g4502
sg55
(lp4509
g48
(g69
g50
NtRp4510
(dp4511
g53
(dp4512
sg62
g4506
sg55
(lp4513
g48
(g49
g50
NtRp4514
(dp4515
g53
(dp4516
g61
I2
ssg62
g4510
sg55
(lp4517
g48
(g57
g50
NtRp4518
(dp4519
g53
(dp4520
g61
I1
ssg62
Nsg55
(lp4521
g48
(g64
g50
NtRp4522
(dp4523
g53
(dp4524
sg62
g4518
sg55
(lp4525
g48
(g69
g50
NtRp4526
(dp4527
g53
(dp4528
sg62
g4522
sg55
(lp4529
g48
(g49
g50
NtRp4530
(dp4531
g53
(dp4532
g61
I1
ssg62
g4526
sg55
(lp4533
g3837
(S's\r\x00\x00\x00Documentation'
tRp4534
asbasbasbag48
(g64
g50
NtRp4535
(dp4536
g53
(dp4537
sg62
g4518
sg55
(lp4538
g48
(g69
g50
NtRp4539
(dp4540
g53
(dp4541
sg62
g4535
sg55
(lp4542
g48
(g49
g50
NtRp4543
(dp4544
g53
(dp4545
g61
I1
ssg62
g4539
sg55
(lp4546
I00
asbasbasbag48
(g64
g50
NtRp4547
(dp4548
g53
(dp4549
sg62
g4518
sg55
(lp4550
g48
(g69
g50
NtRp4551
(dp4552
g53
(dp4553
sg62
g4547
sg55
(lp4554
g48
(g49
g50
NtRp4555
(dp4556
g53
(dp4557
g61
I1
ssg62
g4551
sg55
(lp4558
S'http://www.web2py.com/book'
p4559
asbasbasbag48
(g64
g50
NtRp4560
(dp4561
g53
(dp4562
sg62
g4518
sg55
(lp4563
g48
(g69
g50
NtRp4564
(dp4565
g53
(dp4566
sg62
g4560
sg55
(lp4567
g48
(g49
g50
NtRp4568
(dp4569
g53
(dp4570
g61
I1
ssg62
g4564
sg55
(lp4571
(lp4572
(g3837
(S's\x07\x00\x00\x00Preface'
tRp4573
I00
S'http://www.web2py.com/book/default/chapter/00'
p4574
tp4575
a(g3837
(S's\x0c\x00\x00\x00Introduction'
tRp4576
I00
S'http://www.web2py.com/book/default/chapter/01'
p4577
tp4578
a(g3837
(S's\x06\x00\x00\x00Python'
tRp4579
I00
S'http://www.web2py.com/book/default/chapter/02'
p4580
tp4581
a(g3837
(S's\x08\x00\x00\x00Overview'
tRp4582
I00
S'http://www.web2py.com/book/default/chapter/03'
p4583
tp4584
a(g3837
(S's\x08\x00\x00\x00The Core'
tRp4585
I00
S'http://www.web2py.com/book/default/chapter/04'
p4586
tp4587
a(g3837
(S's\t\x00\x00\x00The Views'
tRp4588
I00
S'http://www.web2py.com/book/default/chapter/05'
p4589
tp4590
a(g3837
(S's\x08\x00\x00\x00Database'
tRp4591
I00
S'http://www.web2py.com/book/default/chapter/06'
p4592
tp4593
a(g3837
(S's\x14\x00\x00\x00Forms and Validators'
tRp4594
I00
S'http://www.web2py.com/book/default/chapter/07'
p4595
tp4596
a(g3837
(S's\x0e\x00\x00\x00Access Control'
tRp4597
I00
S'http://www.web2py.com/book/default/chapter/08'
p4598
tp4599
a(g3837
(S's\x08\x00\x00\x00Services'
tRp4600
I00
S'http://www.web2py.com/book/default/chapter/09'
p4601
tp4602
a(g3837
(S's\x0c\x00\x00\x00Ajax Recipes'
tRp4603
I00
S'http://www.web2py.com/book/default/chapter/10'
p4604
tp4605
a(g3837
(S's\x12\x00\x00\x00Deployment Recipes'
tRp4606
I00
S'http://www.web2py.com/book/default/chapter/11'
p4607
tp4608
a(g3837
(S's\r\x00\x00\x00Other Recipes'
tRp4609
I00
S'http://www.web2py.com/book/default/chapter/12'
p4610
tp4611
a(g3837
(S's\r\x00\x00\x00Buy this book'
tRp4612
I00
S'http://stores.lulu.com/web2py'
p4613
tp4614
aasbasbasbasbasbasbasbag48
(g64
g50
NtRp4615
(dp4616
g53
(dp4617
sg62
g4502
sg55
(lp4618
g48
(g69
g50
NtRp4619
(dp4620
g53
(dp4621
sg62
g4615
sg55
(lp4622
g48
(g49
g50
NtRp4623
(dp4624
g53
(dp4625
g61
I2
ssg62
g4619
sg55
(lp4626
g48
(g57
g50
NtRp4627
(dp4628
g53
(dp4629
g61
I1
ssg62
Nsg55
(lp4630
g48
(g64
g50
NtRp4631
(dp4632
g53
(dp4633
sg62
g4627
sg55
(lp4634
g48
(g69
g50
NtRp4635
(dp4636
g53
(dp4637
sg62
g4631
sg55
(lp4638
g48
(g49
g50
NtRp4639
(dp4640
g53
(dp4641
g61
I1
ssg62
g4635
sg55
(lp4642
g3837
(S's\t\x00\x00\x00Community'
tRp4643
asbasbasbag48
(g64
g50
NtRp4644
(dp4645
g53
(dp4646
sg62
g4627
sg55
(lp4647
g48
(g69
g50
NtRp4648
(dp4649
g53
(dp4650
sg62
g4644
sg55
(lp4651
g48
(g49
g50
NtRp4652
(dp4653
g53
(dp4654
g61
I1
ssg62
g4648
sg55
(lp4655
I00
asbasbasbag48
(g64
g50
NtRp4656
(dp4657
g53
(dp4658
sg62
g4627
sg55
(lp4659
g48
(g69
g50
NtRp4660
(dp4661
g53
(dp4662
sg62
g4656
sg55
(lp4663
g48
(g49
g50
NtRp4664
(dp4665
g53
(dp4666
g61
I1
ssg62
g4660
sg55
(lp4667
Nasbasbasbag48
(g64
g50
NtRp4668
(dp4669
g53
(dp4670
sg62
g4627
sg55
(lp4671
g48
(g69
g50
NtRp4672
(dp4673
g53
(dp4674
sg62
g4668
sg55
(lp4675
g48
(g49
g50
NtRp4676
(dp4677
g53
(dp4678
g61
I1
ssg62
g4672
sg55
(lp4679
(lp4680
(g3837
(S's\x06\x00\x00\x00Groups'
tRp4681
I00
S'http://www.web2py.com/examples/default/usergroups'
p4682
tp4683
a(g3837
(S's\x07\x00\x00\x00Twitter'
tRp4684
I00
S'http://twitter.com/web2py'
p4685
tp4686
a(g3837
(S's\t\x00\x00\x00Live chat'
tRp4687
I00
S'http://mibbit.com/?channel=%23web2py&server=irc.mibbit.net'
p4688
tp4689
a(g3837
(S's\n\x00\x00\x00User Voice'
tRp4690
I00
S'http://web2py.uservoice.com/'
p4691
tp4692
aasbasbasbasbasbasbasbag48
(g64
g50
NtRp4693
(dp4694
g53
(dp4695
sg62
g4502
sg55
(lp4696
g48
(g69
g50
NtRp4697
(dp4698
g53
(dp4699
sg62
g4693
sg55
(lp4700
g48
(g49
g50
NtRp4701
(dp4702
g53
(dp4703
g61
I2
ssg62
g4697
sg55
(lp4704
g48
(g57
g50
NtRp4705
(dp4706
g53
(dp4707
g61
I1
ssg62
Nsg55
(lp4708
g48
(g64
g50
NtRp4709
(dp4710
g53
(dp4711
sg62
g4705
sg55
(lp4712
g48
(g69
g50
NtRp4713
(dp4714
g53
(dp4715
sg62
g4709
sg55
(lp4716
g48
(g49
g50
NtRp4717
(dp4718
g53
(dp4719
g61
I1
ssg62
g4713
sg55
(lp4720
g3837
(S's\x06\x00\x00\x00Web2py'
tRp4721
asbasbasbag48
(g64
g50
NtRp4722
(dp4723
g53
(dp4724
sg62
g4705
sg55
(lp4725
g48
(g69
g50
NtRp4726
(dp4727
g53
(dp4728
sg62
g4722
sg55
(lp4729
g48
(g49
g50
NtRp4730
(dp4731
g53
(dp4732
g61
I1
ssg62
g4726
sg55
(lp4733
I00
asbasbasbag48
(g64
g50
NtRp4734
(dp4735
g53
(dp4736
sg62
g4705
sg55
(lp4737
g48
(g69
g50
NtRp4738
(dp4739
g53
(dp4740
sg62
g4734
sg55
(lp4741
g48
(g49
g50
NtRp4742
(dp4743
g53
(dp4744
g61
I1
ssg62
g4738
sg55
(lp4745
S'http://www.web2py.com'
p4746
asbasbasbag48
(g64
g50
NtRp4747
(dp4748
g53
(dp4749
sg62
g4705
sg55
(lp4750
g48
(g69
g50
NtRp4751
(dp4752
g53
(dp4753
sg62
g4747
sg55
(lp4754
g48
(g49
g50
NtRp4755
(dp4756
g53
(dp4757
g61
I1
ssg62
g4751
sg55
(lp4758
(lp4759
(g3837
(S's\x08\x00\x00\x00Download'
tRp4760
I00
S'http://www.web2py.com/examples/default/download'
p4761
tp4762
a(g3837
(S's\x07\x00\x00\x00Support'
tRp4763
I00
S'http://www.web2py.com/examples/default/support'
p4764
tp4765
a(g3837
(S's\x0e\x00\x00\x00Quick Examples'
tRp4766
I00
S'http://web2py.com/examples/default/examples'
p4767
tp4768
a(g3837
(S's\x03\x00\x00\x00FAQ'
tRp4769
I00
S'http://web2py.com/AlterEgo'
p4770
tp4771
a(g3837
(S's\x11\x00\x00\x00Free Applications'
tRp4772
I00
S'http://web2py.com/appliances'
p4773
tp4774
a(g3837
(S's\x07\x00\x00\x00Plugins'
tRp4775
I00
S'http://web2py.com/plugins'
p4776
tp4777
a(g3837
(S's\x07\x00\x00\x00Recipes'
tRp4778
I00
S'http://web2pyslices.com/'
p4779
tp4780
a(g3837
(S's\x04\x00\x00\x00Demo'
tRp4781
I00
S'http://web2py.com/demo_admin'
p4782
tp4783
a(g3837
(S's\x08\x00\x00\x00Semantic'
tRp4784
I00
S'http://web2py.com/semantic'
p4785
tp4786
a(g3837
(S's\x07\x00\x00\x00Layouts'
tRp4787
I00
S'http://web2py.com/layouts'
p4788
tp4789
a(g3837
(S's\x06\x00\x00\x00Videos'
tRp4790
I00
S'http://www.web2py.com/examples/default/videos/'
p4791
tp4792
aasbasbasbasbasbasbasbasbasbasbasbasbasbasbasbasbasbasbasbag48
(g64
g50
NtRp4793
(dp4794
g53
(dp4795
sg62
g3352
sg55
(lp4796
g48
(g69
g50
NtRp4797
(dp4798
g53
(dp4799
g73
g74
ssg62
g4793
sg55
(lp4800
S'meta'
p4801
asbag48
(g69
g50
NtRp4802
(dp4803
g53
(dp4804
g80
g81
ssg62
g4793
sg55
(lp4805
S':'
asbag48
(g69
g50
NtRp4806
(dp4807
g53
(dp4808
sg62
g4793
sg55
(lp4809
g48
(g49
g50
NtRp4810
(dp4811
g53
(dp4812
g61
I5
ssg62
g4806
sg55
(lp4813
g48
(g57
g50
NtRp4814
(dp4815
g53
(dp4816
g61
I4
ssg62
Nsg55
(lp4817
g48
(g64
g50
NtRp4818
(dp4819
g53
(dp4820
sg62
g4814
sg55
(lp4821
g48
(g69
g50
NtRp4822
(dp4823
g53
(dp4824
g73
g74
ssg62
g4818
sg55
(lp4825
S'author'
p4826
asbag48
(g69
g50
NtRp4827
(dp4828
g53
(dp4829
g80
g81
ssg62
g4818
sg55
(lp4830
S':'
asbag48
(g69
g50
NtRp4831
(dp4832
g53
(dp4833
sg62
g4818
sg55
(lp4834
g48
(g49
g50
NtRp4835
(dp4836
g53
(dp4837
g61
I4
ssg62
g4831
sg55
(lp4838
S'Your Name <you@example.com>'
p4839
asbasbasbag48
(g64
g50
NtRp4840
(dp4841
g53
(dp4842
sg62
g4814
sg55
(lp4843
g48
(g69
g50
NtRp4844
(dp4845
g53
(dp4846
g73
g74
ssg62
g4840
sg55
(lp4847
S'copyright'
p4848
asbag48
(g69
g50
NtRp4849
(dp4850
g53
(dp4851
g80
g81
ssg62
g4840
sg55
(lp4852
S':'
asbag48
(g69
g50
NtRp4853
(dp4854
g53
(dp4855
sg62
g4840
sg55
(lp4856
g48
(g49
g50
NtRp4857
(dp4858
g53
(dp4859
g61
I4
ssg62
g4853
sg55
(lp4860
S'Copyright 2011'
p4861
asbasbasbag48
(g64
g50
NtRp4862
(dp4863
g53
(dp4864
sg62
g4814
sg55
(lp4865
g48
(g69
g50
NtRp4866
(dp4867
g53
(dp4868
g73
g74
ssg62
g4862
sg55
(lp4869
S'description'
p4870
asbag48
(g69
g50
NtRp4871
(dp4872
g53
(dp4873
g80
g81
ssg62
g4862
sg55
(lp4874
S':'
asbag48
(g69
g50
NtRp4875
(dp4876
g53
(dp4877
sg62
g4862
sg55
(lp4878
g48
(g49
g50
NtRp4879
(dp4880
g53
(dp4881
g61
I4
ssg62
g4875
sg55
(lp4882
S'a cool new app'
p4883
asbasbasbag48
(g64
g50
NtRp4884
(dp4885
g53
(dp4886
sg62
g4814
sg55
(lp4887
g48
(g69
g50
NtRp4888
(dp4889
g53
(dp4890
g73
g74
ssg62
g4884
sg55
(lp4891
S'generator'
p4892
asbag48
(g69
g50
NtRp4893
(dp4894
g53
(dp4895
g80
g81
ssg62
g4884
sg55
(lp4896
S':'
asbag48
(g69
g50
NtRp4897
(dp4898
g53
(dp4899
sg62
g4884
sg55
(lp4900
g48
(g49
g50
NtRp4901
(dp4902
g53
(dp4903
g61
I4
ssg62
g4897
sg55
(lp4904
S'Web2py Web Framework'
p4905
asbasbasbag48
(g64
g50
NtRp4906
(dp4907
g53
(dp4908
sg62
g4814
sg55
(lp4909
g48
(g69
g50
NtRp4910
(dp4911
g53
(dp4912
g73
g74
ssg62
g4906
sg55
(lp4913
S'keywords'
p4914
asbag48
(g69
g50
NtRp4915
(dp4916
g53
(dp4917
g80
g81
ssg62
g4906
sg55
(lp4918
S':'
asbag48
(g69
g50
NtRp4919
(dp4920
g53
(dp4921
sg62
g4906
sg55
(lp4922
g48
(g49
g50
NtRp4923
(dp4924
g53
(dp4925
g61
I4
ssg62
g4919
sg55
(lp4926
S'web2py, python, framework'
p4927
asbasbasbasbasbasbasbag48
(g64
g50
NtRp4928
(dp4929
g53
(dp4930
sg62
g3352
sg55
(lp4931
g48
(g69
g50
NtRp4932
(dp4933
g53
(dp4934
g73
g74
ssg62
g4928
sg55
(lp4935
S'postprocessing'
p4936
asbag48
(g69
g50
NtRp4937
(dp4938
g53
(dp4939
g80
g81
ssg62
g4928
sg55
(lp4940
S':'
asbag48
(g69
g50
NtRp4941
(dp4942
g53
(dp4943
sg62
g4928
sg55
(lp4944
g48
(g49
g50
NtRp4945
(dp4946
g53
(dp4947
g61
I5
ssg62
g4941
sg55
(lp4948
g48
(g57
g50
NtRp4949
(dp4950
g53
(dp4951
g61
I4
ssg62
Nsg55
(lp4952
sbasbasbasbag48
(g64
g50
NtRp4953
(dp4954
g53
(dp4955
sg62
g3352
sg55
(lp4956
g48
(g69
g50
NtRp4957
(dp4958
g53
(dp4959
g73
g74
ssg62
g4953
sg55
(lp4960
S'session_filename'
p4961
asbag48
(g69
g50
NtRp4962
(dp4963
g53
(dp4964
g80
g81
ssg62
g4953
sg55
(lp4965
S':'
asbag48
(g69
g50
NtRp4966
(dp4967
g53
(dp4968
sg62
g4953
sg55
(lp4969
g48
(g49
g50
NtRp4970
(dp4971
g53
(dp4972
g61
I5
ssg62
g4966
sg55
(lp4973
S'D:\\git_projs\\Gabblista\\web2py\\web2py\\applications\\Gabb1\\sessions\\127.0.0.1-b4e1edfe-9d4a-4211-9718-32acd6445e50'
p4974
asbasbasbag48
(g64
g50
NtRp4975
(dp4976
g53
(dp4977
sg62
g3352
sg55
(lp4978
g48
(g69
g50
NtRp4979
(dp4980
g53
(dp4981
g73
g74
ssg62
g4975
sg55
(lp4982
S'session_id'
p4983
asbag48
(g69
g50
NtRp4984
(dp4985
g53
(dp4986
g80
g81
ssg62
g4975
sg55
(lp4987
S':'
asbag48
(g69
g50
NtRp4988
(dp4989
g53
(dp4990
sg62
g4975
sg55
(lp4991
g48
(g49
g50
NtRp4992
(dp4993
g53
(dp4994
g61
I5
ssg62
g4988
sg55
(lp4995
S'127.0.0.1-b4e1edfe-9d4a-4211-9718-32acd6445e50'
p4996
asbasbasbag48
(g64
g50
NtRp4997
(dp4998
g53
(dp4999
sg62
g3352
sg55
(lp5000
g48
(g69
g50
NtRp5001
(dp5002
g53
(dp5003
g73
g74
ssg62
g4997
sg55
(lp5004
S'session_id_name'
p5005
asbag48
(g69
g50
NtRp5006
(dp5007
g53
(dp5008
g80
g81
ssg62
g4997
sg55
(lp5009
S':'
asbag48
(g69
g50
NtRp5010
(dp5011
g53
(dp5012
sg62
g4997
sg55
(lp5013
g48
(g49
g50
NtRp5014
(dp5015
g53
(dp5016
g61
I5
ssg62
g5010
sg55
(lp5017
g3409
asbasbasbag48
(g64
g50
NtRp5018
(dp5019
g53
(dp5020
sg62
g3352
sg55
(lp5021
g48
(g69
g50
NtRp5022
(dp5023
g53
(dp5024
g73
g74
ssg62
g5018
sg55
(lp5025
S'session_new'
p5026
asbag48
(g69
g50
NtRp5027
(dp5028
g53
(dp5029
g80
g81
ssg62
g5018
sg55
(lp5030
S':'
asbag48
(g69
g50
NtRp5031
(dp5032
g53
(dp5033
sg62
g5018
sg55
(lp5034
g48
(g49
g50
NtRp5035
(dp5036
g53
(dp5037
g61
I5
ssg62
g5031
sg55
(lp5038
g1775
asbasbasbag48
(g64
g50
NtRp5039
(dp5040
g53
(dp5041
sg62
g3352
sg55
(lp5042
g48
(g69
g50
NtRp5043
(dp5044
g53
(dp5045
g73
g74
ssg62
g5039
sg55
(lp5046
S'status'
p5047
asbag48
(g69
g50
NtRp5048
(dp5049
g53
(dp5050
g80
g81
ssg62
g5039
sg55
(lp5051
S':'
asbag48
(g69
g50
NtRp5052
(dp5053
g53
(dp5054
sg62
g5039
sg55
(lp5055
g48
(g49
g50
NtRp5056
(dp5057
g53
(dp5058
g61
I5
ssg62
g5052
sg55
(lp5059
S'200'
p5060
asbasbasbag48
(g64
g50
NtRp5061
(dp5062
g53
(dp5063
sg62
g3352
sg55
(lp5064
g48
(g69
g50
NtRp5065
(dp5066
g53
(dp5067
g73
g74
ssg62
g5061
sg55
(lp5068
S'subtitle'
p5069
asbag48
(g69
g50
NtRp5070
(dp5071
g53
(dp5072
g80
g81
ssg62
g5061
sg55
(lp5073
S':'
asbag48
(g69
g50
NtRp5074
(dp5075
g53
(dp5076
sg62
g5061
sg55
(lp5077
g48
(g49
g50
NtRp5078
(dp5079
g53
(dp5080
g61
I5
ssg62
g5074
sg55
(lp5081
g3837
(S's\r\x00\x00\x00customize me!'
tRp5082
asbasbasbag48
(g64
g50
NtRp5083
(dp5084
g53
(dp5085
sg62
g3352
sg55
(lp5086
g48
(g69
g50
NtRp5087
(dp5088
g53
(dp5089
g73
g74
ssg62
g5083
sg55
(lp5090
S'title'
p5091
asbag48
(g69
g50
NtRp5092
(dp5093
g53
(dp5094
g80
g81
ssg62
g5083
sg55
(lp5095
S':'
asbag48
(g69
g50
NtRp5096
(dp5097
g53
(dp5098
sg62
g5083
sg55
(lp5099
g48
(g49
g50
NtRp5100
(dp5101
g53
(dp5102
g61
I5
ssg62
g5096
sg55
(lp5103
g113
asbasbasbag48
(g64
g50
NtRp5104
(dp5105
g53
(dp5106
sg62
g3352
sg55
(lp5107
g48
(g69
g50
NtRp5108
(dp5109
g53
(dp5110
g73
g74
ssg62
g5104
sg55
(lp5111
g2503
asbag48
(g69
g50
NtRp5112
(dp5113
g53
(dp5114
g80
g81
ssg62
g5104
sg55
(lp5115
S':'
asbag48
(g69
g50
NtRp5116
(dp5117
g53
(dp5118
sg62
g5104
sg55
(lp5119
g48
(g49
g50
NtRp5120
(dp5121
g53
(dp5122
g61
I5
ssg62
g5116
sg55
(lp5123
g2516
asbasbasbag48
(g64
g50
NtRp5124
(dp5125
g53
(dp5126
sg62
g3352
sg55
(lp5127
g48
(g69
g50
NtRp5128
(dp5129
g53
(dp5130
g73
g74
ssg62
g5124
sg55
(lp5131
S'view'
p5132
asbag48
(g69
g50
NtRp5133
(dp5134
g53
(dp5135
g80
g81
ssg62
g5124
sg55
(lp5136
S':'
asbag48
(g69
g50
NtRp5137
(dp5138
g53
(dp5139
sg62
g5124
sg55
(lp5140
g48
(g49
g50
NtRp5141
(dp5142
g53
(dp5143
g61
I5
ssg62
g5137
sg55
(lp5144
S'fb_serv/serve_player_data.txt'
p5145
asbasbasbasbasbsS'locals'
p5146
(dp5147
S'player_ID'
p5148
S'None'
p5149
sS'game_ID'
p5150
S'None'
p5151
sS'opponent_ID'
p5152
S'None'
p5153
sssS'traceback'
p5154
S'Traceback (most recent call last):\n  File "D:\\git_projs\\Gabblista\\web2py\\web2py\\gluon\\restricted.py", line 194, in restricted\n    exec ccode in environment\n  File "D:\\git_projs\\Gabblista\\web2py\\web2py\\applications\\Gabb1\\controllers/fb_serv.py", line 119, in <module>\n  File "D:\\git_projs\\Gabblista\\web2py\\web2py\\gluon\\globals.py", line 149, in <lambda>\n    self._caller = lambda f: f()\n  File "D:\\git_projs\\Gabblista\\web2py\\web2py\\applications\\Gabb1\\controllers/fb_serv.py", line 18, in serve_player_data\n    game_data = get_player_data(player_ID,opponent_ID,game_ID);\n  File "D:\\git_projs\\Gabblista\\web2py\\web2py\\applications\\Gabb1\\controllers/fb_serv.py", line 24, in get_player_data\n    if(int(game_ID)==0):\nTypeError: int() argument must be a string or a number, not \'NoneType\'\n'
p5155
s.