(dp1
S'output'
p2
S''
sS'layer'
p3
S'D:\\git_projs\\Gabblista\\web2py\\web2py\\applications\\Gabb1\\controllers/fb_serv.py'
p4
sS'code'
p5
S'# -*- coding: utf-8 -*-\nfrom random import Random\n\ndef game():\n    return dict(message="test")\n\ndef serve_dict():\n    # Serves the generic dictionary \n    return dict(message="Jack the dict in here")\n\n# Stored as string, parsed into XML\ndef serve_player_data():\n    \n    player_ID = request.vars.player_ID\n    opponent_ID = request.vars.opponent_ID\n    game_ID = request.vars.game_ID\n    \n    game_data_row = get_player_data(player_ID,opponent_ID,game_ID);\n    return dict(game_data_row=game_data_row)\n\ndef get_player_data(player_ID,opponent_ID,game_ID):\n    \n    # Generate the player data\n    if(int(game_ID)==0):\n        letter_data = generate_new_letter_data()\n        event_data = generate_new_event_data()\n#        db.game_data_table.insert(player_1_ID = int(player_ID),\n#                                  player_2_ID = int(opponent_ID),\n#                                  event_string = str(event_data),\n#                                  letter_string = str(letter_data)\n#                                  )\n        game_data = {}\n        game_data[\'letter_data\'] = letter_data\n        game_data[\'event_data\'] = event_data\n    else:\n        game_row = db(db.game_data_table.id==int(game_ID)).select().first()\n        game_data = str(game_row.game_events_string)\n        \n    return game_data\n\ndef generate_new_letter_data():\n\n    NUM_LETTERS = 12\n    letter_string = get_random_letters(NUM_LETTERS)\n    return letter_string\n\ndef generate_new_event_data():\n    # Go through and generate game data\n    NUM_EVENTS = 24 # 2 MINUTES. 1 EVENT EVERY 5 SECS\n    random_letter_events_string = get_random_letter_events_string(NUM_EVENTS2)\n    random_mult_events_string = get_random_mult_events_string(NUM_EVENTS/2)\n    return random_letter_events_string + random_mult_events_string\n\ndef get_random_letter_events_string(len_req):\n    random_letter_events_string = ""\n    letter_event = "0"\n    num_events = 0\n    \n    while num_events < len_req:\n        random_letter_events += letter_event # Generate a new type\n        random_letter_events += get_random_letters(1) # Generate a new letter\n        random_letter_events += get_random_location() # Generate a new location\n        num_events += 1\n    \n    return random_letter_events_string\n\ndef get_random_mult_events_string(len_req):\n    random_mult_events_string = ""\n    mult_event = "1"\n    num_events = 0\n\n    while num_events < len_req:\n        random_mult_events_string += mult_event # Generate a new type\n        random_mult_events_string += get_new_mult_type() # Generate new mult tpye\n        random_mult_events_string += get_random_location() # Generate a new location\n    \n    return random_mult_events_string\n\n\ndef get_random_letters(len_req):\n    import random\n    # ord - letter to ASCII\n    # chr - ASCII to letter\n    #A - 65\n    # Z- 90\n    \n    A = 65\n    Z = 90\n    \n    while len(rand_letter_string) < len_req:\n        rand_int = random.randint(A,Z)\n        rand_letter_string+= chr(rand_int)\n        \n    return rand_letter_string\n\ndef get_random_location():\n    import random\n    # 0-based 12-tile index\n    # 0 <= X <= 11\n    return str(random.randint(0,11))\n\n\ndef get_new_mult_type():\n    import random\n    # 0 - 2x - 60%\n    # 1 - 3x - 30%\n    # 2 - 4x - 10%\n    rand_int = random.randint(0,10)\n    \n    if rand_int < 6:\n        return "0"\n    elif rand_int <9:\n        return "1"\n    else:\n        return "2"\nresponse._vars=response._caller(serve_player_data)\n'
p6
sS'snapshot'
p7
(dp8
S'exception'
p9
(dp10
S'__hash__'
p11
S"<method-wrapper '__hash__' of exceptions.UnboundLocalError object at 0x035AB788>"
p12
sS'__setattr__'
p13
S"<method-wrapper '__setattr__' of exceptions.UnboundLocalError object at 0x035AB788>"
p14
sS'__reduce_ex__'
p15
S'<built-in method __reduce_ex__ of exceptions.UnboundLocalError object at 0x035AB788>'
p16
sS'__getslice__'
p17
S"<method-wrapper '__getslice__' of exceptions.UnboundLocalError object at 0x035AB788>"
p18
sS'__getitem__'
p19
S"<method-wrapper '__getitem__' of exceptions.UnboundLocalError object at 0x035AB788>"
p20
sS'__setstate__'
p21
S'<built-in method __setstate__ of exceptions.UnboundLocalError object at 0x035AB788>'
p22
sS'__reduce__'
p23
S'<built-in method __reduce__ of exceptions.UnboundLocalError object at 0x035AB788>'
p24
sS'__str__'
p25
S"<method-wrapper '__str__' of exceptions.UnboundLocalError object at 0x035AB788>"
p26
sS'args'
p27
S'("local variable \'rand_letter_string\' referenced before assignment",)'
p28
sS'__getattribute__'
p29
S"<method-wrapper '__getattribute__' of exceptions.UnboundLocalError object at 0x035AB788>"
p30
sS'__class__'
p31
S"<type 'exceptions.UnboundLocalError'>"
p32
sS'__delattr__'
p33
S"<method-wrapper '__delattr__' of exceptions.UnboundLocalError object at 0x035AB788>"
p34
sS'__repr__'
p35
S"<method-wrapper '__repr__' of exceptions.UnboundLocalError object at 0x035AB788>"
p36
sS'__dict__'
p37
S'{}'
p38
sS'__doc__'
p39
S"'Local name referenced but not bound to a value.'"
p40
sS'__init__'
p41
S"<method-wrapper '__init__' of exceptions.UnboundLocalError object at 0x035AB788>"
p42
sS'__new__'
p43
S'<built-in method __new__ of type object at 0x1E1CD9A0>'
p44
ssS'evalue'
p45
S"local variable 'rand_letter_string' referenced before assignment"
p46
sS'request'
p47
ccopy_reg
_reconstructor
p48
(cgluon.html
BEAUTIFY
p49
c__builtin__
object
p50
NtRp51
(dp52
S'attributes'
p53
(dp54
sS'components'
p55
(lp56
g48
(cgluon.html
TABLE
p57
g50
NtRp58
(dp59
g53
(dp60
S'level'
p61
I5
ssS'parent'
p62
Nsg55
(lp63
g48
(cgluon.html
TR
p64
g50
NtRp65
(dp66
g53
(dp67
sg62
g58
sg55
(lp68
g48
(cgluon.html
TD
p69
g50
NtRp70
(dp71
g53
(dp72
S'_style'
p73
S'font-weight:bold;'
p74
ssg62
g65
sg55
(lp75
S'ajax'
p76
asbag48
(g69
g50
NtRp77
(dp78
g53
(dp79
S'_valign'
p80
S'top'
p81
ssg62
g65
sg55
(lp82
S':'
asbag48
(g69
g50
NtRp83
(dp84
g53
(dp85
sg62
g65
sg55
(lp86
g48
(g49
g50
NtRp87
(dp88
g53
(dp89
g61
I5
ssg62
g83
sg55
(lp90
S'False'
p91
asbasbasbag48
(g64
g50
NtRp92
(dp93
g53
(dp94
sg62
g58
sg55
(lp95
g48
(g69
g50
NtRp96
(dp97
g53
(dp98
g73
g74
ssg62
g92
sg55
(lp99
S'application'
p100
asbag48
(g69
g50
NtRp101
(dp102
g53
(dp103
g80
g81
ssg62
g92
sg55
(lp104
S':'
asbag48
(g69
g50
NtRp105
(dp106
g53
(dp107
sg62
g92
sg55
(lp108
g48
(g49
g50
NtRp109
(dp110
g53
(dp111
g61
I5
ssg62
g105
sg55
(lp112
S'Gabb1'
p113
asbasbasbag48
(g64
g50
NtRp114
(dp115
g53
(dp116
sg62
g58
sg55
(lp117
g48
(g69
g50
NtRp118
(dp119
g53
(dp120
g73
g74
ssg62
g114
sg55
(lp121
g27
asbag48
(g69
g50
NtRp122
(dp123
g53
(dp124
g80
g81
ssg62
g114
sg55
(lp125
S':'
asbag48
(g69
g50
NtRp126
(dp127
g53
(dp128
sg62
g114
sg55
(lp129
g48
(g49
g50
NtRp130
(dp131
g53
(dp132
g61
I5
ssg62
g126
sg55
(lp133
g48
(g57
g50
NtRp134
(dp135
g53
(dp136
g61
I4
ssg62
Nsg55
(lp137
sbasbasbasbag48
(g64
g50
NtRp138
(dp139
g53
(dp140
sg62
g58
sg55
(lp141
g48
(g69
g50
NtRp142
(dp143
g53
(dp144
g73
g74
ssg62
g138
sg55
(lp145
S'body'
p146
asbag48
(g69
g50
NtRp147
(dp148
g53
(dp149
g80
g81
ssg62
g138
sg55
(lp150
S':'
asbag48
(g69
g50
NtRp151
(dp152
g53
(dp153
sg62
g138
sg55
(lp154
g48
(g49
g50
NtRp155
(dp156
g53
(dp157
g61
I5
ssg62
g151
sg55
(lp158
S'<cStringIO.StringO object at 0x035E7F80>'
p159
asbasbasbag48
(g64
g50
NtRp160
(dp161
g53
(dp162
sg62
g58
sg55
(lp163
g48
(g69
g50
NtRp164
(dp165
g53
(dp166
g73
g74
ssg62
g160
sg55
(lp167
S'client'
p168
asbag48
(g69
g50
NtRp169
(dp170
g53
(dp171
g80
g81
ssg62
g160
sg55
(lp172
S':'
asbag48
(g69
g50
NtRp173
(dp174
g53
(dp175
sg62
g160
sg55
(lp176
g48
(g49
g50
NtRp177
(dp178
g53
(dp179
g61
I5
ssg62
g173
sg55
(lp180
S'127.0.0.1'
p181
asbasbasbag48
(g64
g50
NtRp182
(dp183
g53
(dp184
sg62
g58
sg55
(lp185
g48
(g69
g50
NtRp186
(dp187
g53
(dp188
g73
g74
ssg62
g182
sg55
(lp189
S'controller'
p190
asbag48
(g69
g50
NtRp191
(dp192
g53
(dp193
g80
g81
ssg62
g182
sg55
(lp194
S':'
asbag48
(g69
g50
NtRp195
(dp196
g53
(dp197
sg62
g182
sg55
(lp198
g48
(g49
g50
NtRp199
(dp200
g53
(dp201
g61
I5
ssg62
g195
sg55
(lp202
S'fb_serv'
p203
asbasbasbag48
(g64
g50
NtRp204
(dp205
g53
(dp206
sg62
g58
sg55
(lp207
g48
(g69
g50
NtRp208
(dp209
g53
(dp210
g73
g74
ssg62
g204
sg55
(lp211
S'cookies'
p212
asbag48
(g69
g50
NtRp213
(dp214
g53
(dp215
g80
g81
ssg62
g204
sg55
(lp216
S':'
asbag48
(g69
g50
NtRp217
(dp218
g53
(dp219
sg62
g204
sg55
(lp220
g48
(g49
g50
NtRp221
(dp222
g53
(dp223
g61
I5
ssg62
g217
sg55
(lp224
g48
(g57
g50
NtRp225
(dp226
g53
(dp227
g61
I4
ssg62
Nsg55
(lp228
g48
(g64
g50
NtRp229
(dp230
g53
(dp231
sg62
g225
sg55
(lp232
g48
(g69
g50
NtRp233
(dp234
g53
(dp235
g73
g74
ssg62
g229
sg55
(lp236
S'session_id_admin'
p237
asbag48
(g69
g50
NtRp238
(dp239
g53
(dp240
g80
g81
ssg62
g229
sg55
(lp241
S':'
asbag48
(g69
g50
NtRp242
(dp243
g53
(dp244
sg62
g229
sg55
(lp245
g48
(g49
g50
NtRp246
(dp247
g53
(dp248
g61
I4
ssg62
g242
sg55
(lp249
g48
(g57
g50
NtRp250
(dp251
g53
(dp252
g61
I3
ssg62
Nsg55
(lp253
g48
(g64
g50
NtRp254
(dp255
g53
(dp256
sg62
g250
sg55
(lp257
g48
(g69
g50
NtRp258
(dp259
g53
(dp260
g73
g74
ssg62
g254
sg55
(lp261
S'comment'
p262
asbag48
(g69
g50
NtRp263
(dp264
g53
(dp265
g80
g81
ssg62
g254
sg55
(lp266
S':'
asbag48
(g69
g50
NtRp267
(dp268
g53
(dp269
sg62
g254
sg55
(lp270
g48
(g49
g50
NtRp271
(dp272
g53
(dp273
g61
I3
ssg62
g267
sg55
(lp274
S''
asbasbasbag48
(g64
g50
NtRp275
(dp276
g53
(dp277
sg62
g250
sg55
(lp278
g48
(g69
g50
NtRp279
(dp280
g53
(dp281
g73
g74
ssg62
g275
sg55
(lp282
S'domain'
p283
asbag48
(g69
g50
NtRp284
(dp285
g53
(dp286
g80
g81
ssg62
g275
sg55
(lp287
S':'
asbag48
(g69
g50
NtRp288
(dp289
g53
(dp290
sg62
g275
sg55
(lp291
g48
(g49
g50
NtRp292
(dp293
g53
(dp294
g61
I3
ssg62
g288
sg55
(lp295
S''
asbasbasbag48
(g64
g50
NtRp296
(dp297
g53
(dp298
sg62
g250
sg55
(lp299
g48
(g69
g50
NtRp300
(dp301
g53
(dp302
g73
g74
ssg62
g296
sg55
(lp303
S'expires'
p304
asbag48
(g69
g50
NtRp305
(dp306
g53
(dp307
g80
g81
ssg62
g296
sg55
(lp308
S':'
asbag48
(g69
g50
NtRp309
(dp310
g53
(dp311
sg62
g296
sg55
(lp312
g48
(g49
g50
NtRp313
(dp314
g53
(dp315
g61
I3
ssg62
g309
sg55
(lp316
S''
asbasbasbag48
(g64
g50
NtRp317
(dp318
g53
(dp319
sg62
g250
sg55
(lp320
g48
(g69
g50
NtRp321
(dp322
g53
(dp323
g73
g74
ssg62
g317
sg55
(lp324
S'max-age'
p325
asbag48
(g69
g50
NtRp326
(dp327
g53
(dp328
g80
g81
ssg62
g317
sg55
(lp329
S':'
asbag48
(g69
g50
NtRp330
(dp331
g53
(dp332
sg62
g317
sg55
(lp333
g48
(g49
g50
NtRp334
(dp335
g53
(dp336
g61
I3
ssg62
g330
sg55
(lp337
S''
asbasbasbag48
(g64
g50
NtRp338
(dp339
g53
(dp340
sg62
g250
sg55
(lp341
g48
(g69
g50
NtRp342
(dp343
g53
(dp344
g73
g74
ssg62
g338
sg55
(lp345
S'path'
p346
asbag48
(g69
g50
NtRp347
(dp348
g53
(dp349
g80
g81
ssg62
g338
sg55
(lp350
S':'
asbag48
(g69
g50
NtRp351
(dp352
g53
(dp353
sg62
g338
sg55
(lp354
g48
(g49
g50
NtRp355
(dp356
g53
(dp357
g61
I3
ssg62
g351
sg55
(lp358
S''
asbasbasbag48
(g64
g50
NtRp359
(dp360
g53
(dp361
sg62
g250
sg55
(lp362
g48
(g69
g50
NtRp363
(dp364
g53
(dp365
g73
g74
ssg62
g359
sg55
(lp366
S'secure'
p367
asbag48
(g69
g50
NtRp368
(dp369
g53
(dp370
g80
g81
ssg62
g359
sg55
(lp371
S':'
asbag48
(g69
g50
NtRp372
(dp373
g53
(dp374
sg62
g359
sg55
(lp375
g48
(g49
g50
NtRp376
(dp377
g53
(dp378
g61
I3
ssg62
g372
sg55
(lp379
S''
asbasbasbag48
(g64
g50
NtRp380
(dp381
g53
(dp382
sg62
g250
sg55
(lp383
g48
(g69
g50
NtRp384
(dp385
g53
(dp386
g73
g74
ssg62
g380
sg55
(lp387
S'version'
p388
asbag48
(g69
g50
NtRp389
(dp390
g53
(dp391
g80
g81
ssg62
g380
sg55
(lp392
S':'
asbag48
(g69
g50
NtRp393
(dp394
g53
(dp395
sg62
g380
sg55
(lp396
g48
(g49
g50
NtRp397
(dp398
g53
(dp399
g61
I3
ssg62
g393
sg55
(lp400
S''
asbasbasbasbasbasbasbag48
(g64
g50
NtRp401
(dp402
g53
(dp403
sg62
g225
sg55
(lp404
g48
(g69
g50
NtRp405
(dp406
g53
(dp407
g73
g74
ssg62
g401
sg55
(lp408
S'session_id_gabb1'
p409
asbag48
(g69
g50
NtRp410
(dp411
g53
(dp412
g80
g81
ssg62
g401
sg55
(lp413
S':'
asbag48
(g69
g50
NtRp414
(dp415
g53
(dp416
sg62
g401
sg55
(lp417
g48
(g49
g50
NtRp418
(dp419
g53
(dp420
g61
I4
ssg62
g414
sg55
(lp421
g48
(g57
g50
NtRp422
(dp423
g53
(dp424
g61
I3
ssg62
Nsg55
(lp425
g48
(g64
g50
NtRp426
(dp427
g53
(dp428
sg62
g422
sg55
(lp429
g48
(g69
g50
NtRp430
(dp431
g53
(dp432
g73
g74
ssg62
g426
sg55
(lp433
g262
asbag48
(g69
g50
NtRp434
(dp435
g53
(dp436
g80
g81
ssg62
g426
sg55
(lp437
S':'
asbag48
(g69
g50
NtRp438
(dp439
g53
(dp440
sg62
g426
sg55
(lp441
g48
(g49
g50
NtRp442
(dp443
g53
(dp444
g61
I3
ssg62
g438
sg55
(lp445
S''
asbasbasbag48
(g64
g50
NtRp446
(dp447
g53
(dp448
sg62
g422
sg55
(lp449
g48
(g69
g50
NtRp450
(dp451
g53
(dp452
g73
g74
ssg62
g446
sg55
(lp453
g283
asbag48
(g69
g50
NtRp454
(dp455
g53
(dp456
g80
g81
ssg62
g446
sg55
(lp457
S':'
asbag48
(g69
g50
NtRp458
(dp459
g53
(dp460
sg62
g446
sg55
(lp461
g48
(g49
g50
NtRp462
(dp463
g53
(dp464
g61
I3
ssg62
g458
sg55
(lp465
S''
asbasbasbag48
(g64
g50
NtRp466
(dp467
g53
(dp468
sg62
g422
sg55
(lp469
g48
(g69
g50
NtRp470
(dp471
g53
(dp472
g73
g74
ssg62
g466
sg55
(lp473
g304
asbag48
(g69
g50
NtRp474
(dp475
g53
(dp476
g80
g81
ssg62
g466
sg55
(lp477
S':'
asbag48
(g69
g50
NtRp478
(dp479
g53
(dp480
sg62
g466
sg55
(lp481
g48
(g49
g50
NtRp482
(dp483
g53
(dp484
g61
I3
ssg62
g478
sg55
(lp485
S''
asbasbasbag48
(g64
g50
NtRp486
(dp487
g53
(dp488
sg62
g422
sg55
(lp489
g48
(g69
g50
NtRp490
(dp491
g53
(dp492
g73
g74
ssg62
g486
sg55
(lp493
g325
asbag48
(g69
g50
NtRp494
(dp495
g53
(dp496
g80
g81
ssg62
g486
sg55
(lp497
S':'
asbag48
(g69
g50
NtRp498
(dp499
g53
(dp500
sg62
g486
sg55
(lp501
g48
(g49
g50
NtRp502
(dp503
g53
(dp504
g61
I3
ssg62
g498
sg55
(lp505
S''
asbasbasbag48
(g64
g50
NtRp506
(dp507
g53
(dp508
sg62
g422
sg55
(lp509
g48
(g69
g50
NtRp510
(dp511
g53
(dp512
g73
g74
ssg62
g506
sg55
(lp513
g346
asbag48
(g69
g50
NtRp514
(dp515
g53
(dp516
g80
g81
ssg62
g506
sg55
(lp517
S':'
asbag48
(g69
g50
NtRp518
(dp519
g53
(dp520
sg62
g506
sg55
(lp521
g48
(g49
g50
NtRp522
(dp523
g53
(dp524
g61
I3
ssg62
g518
sg55
(lp525
S''
asbasbasbag48
(g64
g50
NtRp526
(dp527
g53
(dp528
sg62
g422
sg55
(lp529
g48
(g69
g50
NtRp530
(dp531
g53
(dp532
g73
g74
ssg62
g526
sg55
(lp533
g367
asbag48
(g69
g50
NtRp534
(dp535
g53
(dp536
g80
g81
ssg62
g526
sg55
(lp537
S':'
asbag48
(g69
g50
NtRp538
(dp539
g53
(dp540
sg62
g526
sg55
(lp541
g48
(g49
g50
NtRp542
(dp543
g53
(dp544
g61
I3
ssg62
g538
sg55
(lp545
S''
asbasbasbag48
(g64
g50
NtRp546
(dp547
g53
(dp548
sg62
g422
sg55
(lp549
g48
(g69
g50
NtRp550
(dp551
g53
(dp552
g73
g74
ssg62
g546
sg55
(lp553
g388
asbag48
(g69
g50
NtRp554
(dp555
g53
(dp556
g80
g81
ssg62
g546
sg55
(lp557
S':'
asbag48
(g69
g50
NtRp558
(dp559
g53
(dp560
sg62
g546
sg55
(lp561
g48
(g49
g50
NtRp562
(dp563
g53
(dp564
g61
I3
ssg62
g558
sg55
(lp565
S''
asbasbasbasbasbasbasbag48
(g64
g50
NtRp566
(dp567
g53
(dp568
sg62
g225
sg55
(lp569
g48
(g69
g50
NtRp570
(dp571
g53
(dp572
g73
g74
ssg62
g566
sg55
(lp573
S'session_id_ojtest'
p574
asbag48
(g69
g50
NtRp575
(dp576
g53
(dp577
g80
g81
ssg62
g566
sg55
(lp578
S':'
asbag48
(g69
g50
NtRp579
(dp580
g53
(dp581
sg62
g566
sg55
(lp582
g48
(g49
g50
NtRp583
(dp584
g53
(dp585
g61
I4
ssg62
g579
sg55
(lp586
g48
(g57
g50
NtRp587
(dp588
g53
(dp589
g61
I3
ssg62
Nsg55
(lp590
g48
(g64
g50
NtRp591
(dp592
g53
(dp593
sg62
g587
sg55
(lp594
g48
(g69
g50
NtRp595
(dp596
g53
(dp597
g73
g74
ssg62
g591
sg55
(lp598
g262
asbag48
(g69
g50
NtRp599
(dp600
g53
(dp601
g80
g81
ssg62
g591
sg55
(lp602
S':'
asbag48
(g69
g50
NtRp603
(dp604
g53
(dp605
sg62
g591
sg55
(lp606
g48
(g49
g50
NtRp607
(dp608
g53
(dp609
g61
I3
ssg62
g603
sg55
(lp610
S''
asbasbasbag48
(g64
g50
NtRp611
(dp612
g53
(dp613
sg62
g587
sg55
(lp614
g48
(g69
g50
NtRp615
(dp616
g53
(dp617
g73
g74
ssg62
g611
sg55
(lp618
g283
asbag48
(g69
g50
NtRp619
(dp620
g53
(dp621
g80
g81
ssg62
g611
sg55
(lp622
S':'
asbag48
(g69
g50
NtRp623
(dp624
g53
(dp625
sg62
g611
sg55
(lp626
g48
(g49
g50
NtRp627
(dp628
g53
(dp629
g61
I3
ssg62
g623
sg55
(lp630
S''
asbasbasbag48
(g64
g50
NtRp631
(dp632
g53
(dp633
sg62
g587
sg55
(lp634
g48
(g69
g50
NtRp635
(dp636
g53
(dp637
g73
g74
ssg62
g631
sg55
(lp638
g304
asbag48
(g69
g50
NtRp639
(dp640
g53
(dp641
g80
g81
ssg62
g631
sg55
(lp642
S':'
asbag48
(g69
g50
NtRp643
(dp644
g53
(dp645
sg62
g631
sg55
(lp646
g48
(g49
g50
NtRp647
(dp648
g53
(dp649
g61
I3
ssg62
g643
sg55
(lp650
S''
asbasbasbag48
(g64
g50
NtRp651
(dp652
g53
(dp653
sg62
g587
sg55
(lp654
g48
(g69
g50
NtRp655
(dp656
g53
(dp657
g73
g74
ssg62
g651
sg55
(lp658
g325
asbag48
(g69
g50
NtRp659
(dp660
g53
(dp661
g80
g81
ssg62
g651
sg55
(lp662
S':'
asbag48
(g69
g50
NtRp663
(dp664
g53
(dp665
sg62
g651
sg55
(lp666
g48
(g49
g50
NtRp667
(dp668
g53
(dp669
g61
I3
ssg62
g663
sg55
(lp670
S''
asbasbasbag48
(g64
g50
NtRp671
(dp672
g53
(dp673
sg62
g587
sg55
(lp674
g48
(g69
g50
NtRp675
(dp676
g53
(dp677
g73
g74
ssg62
g671
sg55
(lp678
g346
asbag48
(g69
g50
NtRp679
(dp680
g53
(dp681
g80
g81
ssg62
g671
sg55
(lp682
S':'
asbag48
(g69
g50
NtRp683
(dp684
g53
(dp685
sg62
g671
sg55
(lp686
g48
(g49
g50
NtRp687
(dp688
g53
(dp689
g61
I3
ssg62
g683
sg55
(lp690
S''
asbasbasbag48
(g64
g50
NtRp691
(dp692
g53
(dp693
sg62
g587
sg55
(lp694
g48
(g69
g50
NtRp695
(dp696
g53
(dp697
g73
g74
ssg62
g691
sg55
(lp698
g367
asbag48
(g69
g50
NtRp699
(dp700
g53
(dp701
g80
g81
ssg62
g691
sg55
(lp702
S':'
asbag48
(g69
g50
NtRp703
(dp704
g53
(dp705
sg62
g691
sg55
(lp706
g48
(g49
g50
NtRp707
(dp708
g53
(dp709
g61
I3
ssg62
g703
sg55
(lp710
S''
asbasbasbag48
(g64
g50
NtRp711
(dp712
g53
(dp713
sg62
g587
sg55
(lp714
g48
(g69
g50
NtRp715
(dp716
g53
(dp717
g73
g74
ssg62
g711
sg55
(lp718
g388
asbag48
(g69
g50
NtRp719
(dp720
g53
(dp721
g80
g81
ssg62
g711
sg55
(lp722
S':'
asbag48
(g69
g50
NtRp723
(dp724
g53
(dp725
sg62
g711
sg55
(lp726
g48
(g49
g50
NtRp727
(dp728
g53
(dp729
g61
I3
ssg62
g723
sg55
(lp730
S''
asbasbasbasbasbasbasbag48
(g64
g50
NtRp731
(dp732
g53
(dp733
sg62
g225
sg55
(lp734
g48
(g69
g50
NtRp735
(dp736
g53
(dp737
g73
g74
ssg62
g731
sg55
(lp738
S'session_id_welcome'
p739
asbag48
(g69
g50
NtRp740
(dp741
g53
(dp742
g80
g81
ssg62
g731
sg55
(lp743
S':'
asbag48
(g69
g50
NtRp744
(dp745
g53
(dp746
sg62
g731
sg55
(lp747
g48
(g49
g50
NtRp748
(dp749
g53
(dp750
g61
I4
ssg62
g744
sg55
(lp751
g48
(g57
g50
NtRp752
(dp753
g53
(dp754
g61
I3
ssg62
Nsg55
(lp755
g48
(g64
g50
NtRp756
(dp757
g53
(dp758
sg62
g752
sg55
(lp759
g48
(g69
g50
NtRp760
(dp761
g53
(dp762
g73
g74
ssg62
g756
sg55
(lp763
g262
asbag48
(g69
g50
NtRp764
(dp765
g53
(dp766
g80
g81
ssg62
g756
sg55
(lp767
S':'
asbag48
(g69
g50
NtRp768
(dp769
g53
(dp770
sg62
g756
sg55
(lp771
g48
(g49
g50
NtRp772
(dp773
g53
(dp774
g61
I3
ssg62
g768
sg55
(lp775
S''
asbasbasbag48
(g64
g50
NtRp776
(dp777
g53
(dp778
sg62
g752
sg55
(lp779
g48
(g69
g50
NtRp780
(dp781
g53
(dp782
g73
g74
ssg62
g776
sg55
(lp783
g283
asbag48
(g69
g50
NtRp784
(dp785
g53
(dp786
g80
g81
ssg62
g776
sg55
(lp787
S':'
asbag48
(g69
g50
NtRp788
(dp789
g53
(dp790
sg62
g776
sg55
(lp791
g48
(g49
g50
NtRp792
(dp793
g53
(dp794
g61
I3
ssg62
g788
sg55
(lp795
S''
asbasbasbag48
(g64
g50
NtRp796
(dp797
g53
(dp798
sg62
g752
sg55
(lp799
g48
(g69
g50
NtRp800
(dp801
g53
(dp802
g73
g74
ssg62
g796
sg55
(lp803
g304
asbag48
(g69
g50
NtRp804
(dp805
g53
(dp806
g80
g81
ssg62
g796
sg55
(lp807
S':'
asbag48
(g69
g50
NtRp808
(dp809
g53
(dp810
sg62
g796
sg55
(lp811
g48
(g49
g50
NtRp812
(dp813
g53
(dp814
g61
I3
ssg62
g808
sg55
(lp815
S''
asbasbasbag48
(g64
g50
NtRp816
(dp817
g53
(dp818
sg62
g752
sg55
(lp819
g48
(g69
g50
NtRp820
(dp821
g53
(dp822
g73
g74
ssg62
g816
sg55
(lp823
g325
asbag48
(g69
g50
NtRp824
(dp825
g53
(dp826
g80
g81
ssg62
g816
sg55
(lp827
S':'
asbag48
(g69
g50
NtRp828
(dp829
g53
(dp830
sg62
g816
sg55
(lp831
g48
(g49
g50
NtRp832
(dp833
g53
(dp834
g61
I3
ssg62
g828
sg55
(lp835
S''
asbasbasbag48
(g64
g50
NtRp836
(dp837
g53
(dp838
sg62
g752
sg55
(lp839
g48
(g69
g50
NtRp840
(dp841
g53
(dp842
g73
g74
ssg62
g836
sg55
(lp843
g346
asbag48
(g69
g50
NtRp844
(dp845
g53
(dp846
g80
g81
ssg62
g836
sg55
(lp847
S':'
asbag48
(g69
g50
NtRp848
(dp849
g53
(dp850
sg62
g836
sg55
(lp851
g48
(g49
g50
NtRp852
(dp853
g53
(dp854
g61
I3
ssg62
g848
sg55
(lp855
S''
asbasbasbag48
(g64
g50
NtRp856
(dp857
g53
(dp858
sg62
g752
sg55
(lp859
g48
(g69
g50
NtRp860
(dp861
g53
(dp862
g73
g74
ssg62
g856
sg55
(lp863
g367
asbag48
(g69
g50
NtRp864
(dp865
g53
(dp866
g80
g81
ssg62
g856
sg55
(lp867
S':'
asbag48
(g69
g50
NtRp868
(dp869
g53
(dp870
sg62
g856
sg55
(lp871
g48
(g49
g50
NtRp872
(dp873
g53
(dp874
g61
I3
ssg62
g868
sg55
(lp875
S''
asbasbasbag48
(g64
g50
NtRp876
(dp877
g53
(dp878
sg62
g752
sg55
(lp879
g48
(g69
g50
NtRp880
(dp881
g53
(dp882
g73
g74
ssg62
g876
sg55
(lp883
g388
asbag48
(g69
g50
NtRp884
(dp885
g53
(dp886
g80
g81
ssg62
g876
sg55
(lp887
S':'
asbag48
(g69
g50
NtRp888
(dp889
g53
(dp890
sg62
g876
sg55
(lp891
g48
(g49
g50
NtRp892
(dp893
g53
(dp894
g61
I3
ssg62
g888
sg55
(lp895
S''
asbasbasbasbasbasbasbasbasbasbasbag48
(g64
g50
NtRp896
(dp897
g53
(dp898
sg62
g58
sg55
(lp899
g48
(g69
g50
NtRp900
(dp901
g53
(dp902
g73
g74
ssg62
g896
sg55
(lp903
S'env'
p904
asbag48
(g69
g50
NtRp905
(dp906
g53
(dp907
g80
g81
ssg62
g896
sg55
(lp908
S':'
asbag48
(g69
g50
NtRp909
(dp910
g53
(dp911
sg62
g896
sg55
(lp912
g48
(g49
g50
NtRp913
(dp914
g53
(dp915
g61
I5
ssg62
g909
sg55
(lp916
g48
(g57
g50
NtRp917
(dp918
g53
(dp919
g61
I4
ssg62
Nsg55
(lp920
g48
(g64
g50
NtRp921
(dp922
g53
(dp923
sg62
g917
sg55
(lp924
g48
(g69
g50
NtRp925
(dp926
g53
(dp927
g73
g74
ssg62
g921
sg55
(lp928
S'app_folders'
p929
asbag48
(g69
g50
NtRp930
(dp931
g53
(dp932
g80
g81
ssg62
g921
sg55
(lp933
S':'
asbag48
(g69
g50
NtRp934
(dp935
g53
(dp936
sg62
g921
sg55
(lp937
g48
(g49
g50
NtRp938
(dp939
g53
(dp940
g61
I4
ssg62
g934
sg55
(lp941
S"set(['D:\\\\git_projs\\\\Gabblista\\\\web2py\\\\web2py\\\\applications\\\\gabb1\\\\', 'D:\\\\git_projs\\\\Gabblista\\\\web2py\\\\web2py\\\\applications\\\\Gabb1\\\\', 'D:\\\\git_projs\\\\Gabblista\\\\web2py\\\\web2py\\\\applications\\\\welcome\\\\'])"
p942
asbasbasbag48
(g64
g50
NtRp943
(dp944
g53
(dp945
sg62
g917
sg55
(lp946
g48
(g69
g50
NtRp947
(dp948
g53
(dp949
g73
g74
ssg62
g943
sg55
(lp950
S'applications_parent'
p951
asbag48
(g69
g50
NtRp952
(dp953
g53
(dp954
g80
g81
ssg62
g943
sg55
(lp955
S':'
asbag48
(g69
g50
NtRp956
(dp957
g53
(dp958
sg62
g943
sg55
(lp959
g48
(g49
g50
NtRp960
(dp961
g53
(dp962
g61
I4
ssg62
g956
sg55
(lp963
S'D:\\git_projs\\Gabblista\\web2py\\web2py'
p964
asbasbasbag48
(g64
g50
NtRp965
(dp966
g53
(dp967
sg62
g917
sg55
(lp968
g48
(g69
g50
NtRp969
(dp970
g53
(dp971
g73
g74
ssg62
g965
sg55
(lp972
S'cmd_args'
p973
asbag48
(g69
g50
NtRp974
(dp975
g53
(dp976
g80
g81
ssg62
g965
sg55
(lp977
S':'
asbag48
(g69
g50
NtRp978
(dp979
g53
(dp980
sg62
g965
sg55
(lp981
g48
(g49
g50
NtRp982
(dp983
g53
(dp984
g61
I4
ssg62
g978
sg55
(lp985
g48
(g57
g50
NtRp986
(dp987
g53
(dp988
g61
I3
ssg62
Nsg55
(lp989
sbasbasbasbag48
(g64
g50
NtRp990
(dp991
g53
(dp992
sg62
g917
sg55
(lp993
g48
(g69
g50
NtRp994
(dp995
g53
(dp996
g73
g74
ssg62
g990
sg55
(lp997
S'cmd_options'
p998
asbag48
(g69
g50
NtRp999
(dp1000
g53
(dp1001
g80
g81
ssg62
g990
sg55
(lp1002
S':'
asbag48
(g69
g50
NtRp1003
(dp1004
g53
(dp1005
sg62
g990
sg55
(lp1006
g48
(g49
g50
NtRp1007
(dp1008
g53
(dp1009
g61
I4
ssg62
g1003
sg55
(lp1010
S"<Values at 0x325b800: {'verbose': False, 'ip': '127.0.0.1', 'shutdown_timeout': 5, 'taskbar': False, 'nocron': False, 'pid_filename': 'httpserver.pid', 'maxthreads': None, 'softcron': False, 'server_name': 'John-PC', 'bpython': False, 'nogui': False, 'port': 8000, 'extcron': False, 'debuglevel': 30, 'test': None, 'folder': 'D:\\\\git_projs\\\\Gabblista\\\\web2py\\\\web2py', 'config': '', 'import_models': False, 'winservice': '', 'shell': None, 'run': '', 'log_filename': 'httpserver.log', 'args': [''], 'ssl_ca_certificate': None, 'scheduler': None, 'profiler_filename': None, 'ssl_private_key': '', 'password': '<ask>', 'request_queue_size': 5, 'ssl_certificate': '', 'cronjob': False, 'plain': False, 'quiet': False, 'interfaces': None, 'minthreads': None, 'timeout': 10, 'numthreads': None, 'nobanner': False}>"
p1011
asbasbasbag48
(g64
g50
NtRp1012
(dp1013
g53
(dp1014
sg62
g917
sg55
(lp1015
g48
(g69
g50
NtRp1016
(dp1017
g53
(dp1018
g73
g74
ssg62
g1012
sg55
(lp1019
S'db_sessions'
p1020
asbag48
(g69
g50
NtRp1021
(dp1022
g53
(dp1023
g80
g81
ssg62
g1012
sg55
(lp1024
S':'
asbag48
(g69
g50
NtRp1025
(dp1026
g53
(dp1027
sg62
g1012
sg55
(lp1028
g48
(g49
g50
NtRp1029
(dp1030
g53
(dp1031
g61
I4
ssg62
g1025
sg55
(lp1032
S'set([])'
p1033
asbasbasbag48
(g64
g50
NtRp1034
(dp1035
g53
(dp1036
sg62
g917
sg55
(lp1037
g48
(g69
g50
NtRp1038
(dp1039
g53
(dp1040
g73
g74
ssg62
g1034
sg55
(lp1041
S'debugging'
p1042
asbag48
(g69
g50
NtRp1043
(dp1044
g53
(dp1045
g80
g81
ssg62
g1034
sg55
(lp1046
S':'
asbag48
(g69
g50
NtRp1047
(dp1048
g53
(dp1049
sg62
g1034
sg55
(lp1050
g48
(g49
g50
NtRp1051
(dp1052
g53
(dp1053
g61
I4
ssg62
g1047
sg55
(lp1054
g91
asbasbasbag48
(g64
g50
NtRp1055
(dp1056
g53
(dp1057
sg62
g917
sg55
(lp1058
g48
(g69
g50
NtRp1059
(dp1060
g53
(dp1061
g73
g74
ssg62
g1055
sg55
(lp1062
S'gluon_parent'
p1063
asbag48
(g69
g50
NtRp1064
(dp1065
g53
(dp1066
g80
g81
ssg62
g1055
sg55
(lp1067
S':'
asbag48
(g69
g50
NtRp1068
(dp1069
g53
(dp1070
sg62
g1055
sg55
(lp1071
g48
(g49
g50
NtRp1072
(dp1073
g53
(dp1074
g61
I4
ssg62
g1068
sg55
(lp1075
S'D:\\git_projs\\Gabblista\\web2py\\web2py'
p1076
asbasbasbag48
(g64
g50
NtRp1077
(dp1078
g53
(dp1079
sg62
g917
sg55
(lp1080
g48
(g69
g50
NtRp1081
(dp1082
g53
(dp1083
g73
g74
ssg62
g1077
sg55
(lp1084
S'http_accept'
p1085
asbag48
(g69
g50
NtRp1086
(dp1087
g53
(dp1088
g80
g81
ssg62
g1077
sg55
(lp1089
S':'
asbag48
(g69
g50
NtRp1090
(dp1091
g53
(dp1092
sg62
g1077
sg55
(lp1093
g48
(g49
g50
NtRp1094
(dp1095
g53
(dp1096
g61
I4
ssg62
g1090
sg55
(lp1097
S'text/html,application/xhtml+xml,application/xml;q=0.9,*/*;q=0.8'
p1098
asbasbasbag48
(g64
g50
NtRp1099
(dp1100
g53
(dp1101
sg62
g917
sg55
(lp1102
g48
(g69
g50
NtRp1103
(dp1104
g53
(dp1105
g73
g74
ssg62
g1099
sg55
(lp1106
S'http_accept_charset'
p1107
asbag48
(g69
g50
NtRp1108
(dp1109
g53
(dp1110
g80
g81
ssg62
g1099
sg55
(lp1111
S':'
asbag48
(g69
g50
NtRp1112
(dp1113
g53
(dp1114
sg62
g1099
sg55
(lp1115
g48
(g49
g50
NtRp1116
(dp1117
g53
(dp1118
g61
I4
ssg62
g1112
sg55
(lp1119
S'ISO-8859-1,utf-8;q=0.7,*;q=0.3'
p1120
asbasbasbag48
(g64
g50
NtRp1121
(dp1122
g53
(dp1123
sg62
g917
sg55
(lp1124
g48
(g69
g50
NtRp1125
(dp1126
g53
(dp1127
g73
g74
ssg62
g1121
sg55
(lp1128
S'http_accept_encoding'
p1129
asbag48
(g69
g50
NtRp1130
(dp1131
g53
(dp1132
g80
g81
ssg62
g1121
sg55
(lp1133
S':'
asbag48
(g69
g50
NtRp1134
(dp1135
g53
(dp1136
sg62
g1121
sg55
(lp1137
g48
(g49
g50
NtRp1138
(dp1139
g53
(dp1140
g61
I4
ssg62
g1134
sg55
(lp1141
S'gzip,deflate,sdch'
p1142
asbasbasbag48
(g64
g50
NtRp1143
(dp1144
g53
(dp1145
sg62
g917
sg55
(lp1146
g48
(g69
g50
NtRp1147
(dp1148
g53
(dp1149
g73
g74
ssg62
g1143
sg55
(lp1150
S'http_accept_language'
p1151
asbag48
(g69
g50
NtRp1152
(dp1153
g53
(dp1154
g80
g81
ssg62
g1143
sg55
(lp1155
S':'
asbag48
(g69
g50
NtRp1156
(dp1157
g53
(dp1158
sg62
g1143
sg55
(lp1159
g48
(g49
g50
NtRp1160
(dp1161
g53
(dp1162
g61
I4
ssg62
g1156
sg55
(lp1163
S'en-US,en;q=0.8'
p1164
asbasbasbag48
(g64
g50
NtRp1165
(dp1166
g53
(dp1167
sg62
g917
sg55
(lp1168
g48
(g69
g50
NtRp1169
(dp1170
g53
(dp1171
g73
g74
ssg62
g1165
sg55
(lp1172
S'http_connection'
p1173
asbag48
(g69
g50
NtRp1174
(dp1175
g53
(dp1176
g80
g81
ssg62
g1165
sg55
(lp1177
S':'
asbag48
(g69
g50
NtRp1178
(dp1179
g53
(dp1180
sg62
g1165
sg55
(lp1181
g48
(g49
g50
NtRp1182
(dp1183
g53
(dp1184
g61
I4
ssg62
g1178
sg55
(lp1185
S'keep-alive'
p1186
asbasbasbag48
(g64
g50
NtRp1187
(dp1188
g53
(dp1189
sg62
g917
sg55
(lp1190
g48
(g69
g50
NtRp1191
(dp1192
g53
(dp1193
g73
g74
ssg62
g1187
sg55
(lp1194
S'http_cookie'
p1195
asbag48
(g69
g50
NtRp1196
(dp1197
g53
(dp1198
g80
g81
ssg62
g1187
sg55
(lp1199
S':'
asbag48
(g69
g50
NtRp1200
(dp1201
g53
(dp1202
sg62
g1187
sg55
(lp1203
g48
(g49
g50
NtRp1204
(dp1205
g53
(dp1206
g61
I4
ssg62
g1200
sg55
(lp1207
S'session_id_admin=127.0.0.1-b9895a5f-39cf-4c0f-a274-b3385304c1e5; session_id_ojtest="1673:0b3a82b6-d697-4763-b7ae-5776f137ef68"; session_id_gabb1=127.0.0.1-3bf8ce85-e0ca-4a46-8cd0-e96e868047a2; session_id_welcome=127.0.0.1-6d50c47e-7f62-40fa-b134-ee701fab76a2'
p1208
asbasbasbag48
(g64
g50
NtRp1209
(dp1210
g53
(dp1211
sg62
g917
sg55
(lp1212
g48
(g69
g50
NtRp1213
(dp1214
g53
(dp1215
g73
g74
ssg62
g1209
sg55
(lp1216
S'http_host'
p1217
asbag48
(g69
g50
NtRp1218
(dp1219
g53
(dp1220
g80
g81
ssg62
g1209
sg55
(lp1221
S':'
asbag48
(g69
g50
NtRp1222
(dp1223
g53
(dp1224
sg62
g1209
sg55
(lp1225
g48
(g49
g50
NtRp1226
(dp1227
g53
(dp1228
g61
I4
ssg62
g1222
sg55
(lp1229
S'127.0.0.1:8000'
p1230
asbasbasbag48
(g64
g50
NtRp1231
(dp1232
g53
(dp1233
sg62
g917
sg55
(lp1234
g48
(g69
g50
NtRp1235
(dp1236
g53
(dp1237
g73
g74
ssg62
g1231
sg55
(lp1238
S'http_user_agent'
p1239
asbag48
(g69
g50
NtRp1240
(dp1241
g53
(dp1242
g80
g81
ssg62
g1231
sg55
(lp1243
S':'
asbag48
(g69
g50
NtRp1244
(dp1245
g53
(dp1246
sg62
g1231
sg55
(lp1247
g48
(g49
g50
NtRp1248
(dp1249
g53
(dp1250
g61
I4
ssg62
g1244
sg55
(lp1251
S'Mozilla/5.0 (Windows NT 6.1; WOW64) AppleWebKit/535.7 (KHTML, like Gecko) Chrome/16.0.912.75 Safari/535.7'
p1252
asbasbasbag48
(g64
g50
NtRp1253
(dp1254
g53
(dp1255
sg62
g917
sg55
(lp1256
g48
(g69
g50
NtRp1257
(dp1258
g53
(dp1259
g73
g74
ssg62
g1253
sg55
(lp1260
S'is_jython'
p1261
asbag48
(g69
g50
NtRp1262
(dp1263
g53
(dp1264
g80
g81
ssg62
g1253
sg55
(lp1265
S':'
asbag48
(g69
g50
NtRp1266
(dp1267
g53
(dp1268
sg62
g1253
sg55
(lp1269
g48
(g49
g50
NtRp1270
(dp1271
g53
(dp1272
g61
I4
ssg62
g1266
sg55
(lp1273
g91
asbasbasbag48
(g64
g50
NtRp1274
(dp1275
g53
(dp1276
sg62
g917
sg55
(lp1277
g48
(g69
g50
NtRp1278
(dp1279
g53
(dp1280
g73
g74
ssg62
g1274
sg55
(lp1281
S'path_info'
p1282
asbag48
(g69
g50
NtRp1283
(dp1284
g53
(dp1285
g80
g81
ssg62
g1274
sg55
(lp1286
S':'
asbag48
(g69
g50
NtRp1287
(dp1288
g53
(dp1289
sg62
g1274
sg55
(lp1290
g48
(g49
g50
NtRp1291
(dp1292
g53
(dp1293
g61
I4
ssg62
g1287
sg55
(lp1294
S'/Gabb1/fb_serv/serve_player_data.txt'
p1295
asbasbasbag48
(g64
g50
NtRp1296
(dp1297
g53
(dp1298
sg62
g917
sg55
(lp1299
g48
(g69
g50
NtRp1300
(dp1301
g53
(dp1302
g73
g74
ssg62
g1296
sg55
(lp1303
S'query_string'
p1304
asbag48
(g69
g50
NtRp1305
(dp1306
g53
(dp1307
g80
g81
ssg62
g1296
sg55
(lp1308
S':'
asbag48
(g69
g50
NtRp1309
(dp1310
g53
(dp1311
sg62
g1296
sg55
(lp1312
g48
(g49
g50
NtRp1313
(dp1314
g53
(dp1315
g61
I4
ssg62
g1309
sg55
(lp1316
S'player_ID=0&opponent_ID=1&game_ID=0'
p1317
asbasbasbag48
(g64
g50
NtRp1318
(dp1319
g53
(dp1320
sg62
g917
sg55
(lp1321
g48
(g69
g50
NtRp1322
(dp1323
g53
(dp1324
g73
g74
ssg62
g1318
sg55
(lp1325
S'remote_addr'
p1326
asbag48
(g69
g50
NtRp1327
(dp1328
g53
(dp1329
g80
g81
ssg62
g1318
sg55
(lp1330
S':'
asbag48
(g69
g50
NtRp1331
(dp1332
g53
(dp1333
sg62
g1318
sg55
(lp1334
g48
(g49
g50
NtRp1335
(dp1336
g53
(dp1337
g61
I4
ssg62
g1331
sg55
(lp1338
g181
asbasbasbag48
(g64
g50
NtRp1339
(dp1340
g53
(dp1341
sg62
g917
sg55
(lp1342
g48
(g69
g50
NtRp1343
(dp1344
g53
(dp1345
g73
g74
ssg62
g1339
sg55
(lp1346
S'remote_port'
p1347
asbag48
(g69
g50
NtRp1348
(dp1349
g53
(dp1350
g80
g81
ssg62
g1339
sg55
(lp1351
S':'
asbag48
(g69
g50
NtRp1352
(dp1353
g53
(dp1354
sg62
g1339
sg55
(lp1355
g48
(g49
g50
NtRp1356
(dp1357
g53
(dp1358
g61
I4
ssg62
g1352
sg55
(lp1359
S'64557'
p1360
asbasbasbag48
(g64
g50
NtRp1361
(dp1362
g53
(dp1363
sg62
g917
sg55
(lp1364
g48
(g69
g50
NtRp1365
(dp1366
g53
(dp1367
g73
g74
ssg62
g1361
sg55
(lp1368
S'request_method'
p1369
asbag48
(g69
g50
NtRp1370
(dp1371
g53
(dp1372
g80
g81
ssg62
g1361
sg55
(lp1373
S':'
asbag48
(g69
g50
NtRp1374
(dp1375
g53
(dp1376
sg62
g1361
sg55
(lp1377
g48
(g49
g50
NtRp1378
(dp1379
g53
(dp1380
g61
I4
ssg62
g1374
sg55
(lp1381
S'GET'
p1382
asbasbasbag48
(g64
g50
NtRp1383
(dp1384
g53
(dp1385
sg62
g917
sg55
(lp1386
g48
(g69
g50
NtRp1387
(dp1388
g53
(dp1389
g73
g74
ssg62
g1383
sg55
(lp1390
S'request_uri'
p1391
asbag48
(g69
g50
NtRp1392
(dp1393
g53
(dp1394
g80
g81
ssg62
g1383
sg55
(lp1395
S':'
asbag48
(g69
g50
NtRp1396
(dp1397
g53
(dp1398
sg62
g1383
sg55
(lp1399
g48
(g49
g50
NtRp1400
(dp1401
g53
(dp1402
g61
I4
ssg62
g1396
sg55
(lp1403
S'/Gabb1/fb_serv/serve_player_data.txt?player_ID=0&opponent_ID=1&game_ID=0'
p1404
asbasbasbag48
(g64
g50
NtRp1405
(dp1406
g53
(dp1407
sg62
g917
sg55
(lp1408
g48
(g69
g50
NtRp1409
(dp1410
g53
(dp1411
g73
g74
ssg62
g1405
sg55
(lp1412
S'script_name'
p1413
asbag48
(g69
g50
NtRp1414
(dp1415
g53
(dp1416
g80
g81
ssg62
g1405
sg55
(lp1417
S':'
asbag48
(g69
g50
NtRp1418
(dp1419
g53
(dp1420
sg62
g1405
sg55
(lp1421
g48
(g49
g50
NtRp1422
(dp1423
g53
(dp1424
g61
I4
ssg62
g1418
sg55
(lp1425
S''
asbasbasbag48
(g64
g50
NtRp1426
(dp1427
g53
(dp1428
sg62
g917
sg55
(lp1429
g48
(g69
g50
NtRp1430
(dp1431
g53
(dp1432
g73
g74
ssg62
g1426
sg55
(lp1433
S'server_name'
p1434
asbag48
(g69
g50
NtRp1435
(dp1436
g53
(dp1437
g80
g81
ssg62
g1426
sg55
(lp1438
S':'
asbag48
(g69
g50
NtRp1439
(dp1440
g53
(dp1441
sg62
g1426
sg55
(lp1442
g48
(g49
g50
NtRp1443
(dp1444
g53
(dp1445
g61
I4
ssg62
g1439
sg55
(lp1446
S'John-PC'
p1447
asbasbasbag48
(g64
g50
NtRp1448
(dp1449
g53
(dp1450
sg62
g917
sg55
(lp1451
g48
(g69
g50
NtRp1452
(dp1453
g53
(dp1454
g73
g74
ssg62
g1448
sg55
(lp1455
S'server_port'
p1456
asbag48
(g69
g50
NtRp1457
(dp1458
g53
(dp1459
g80
g81
ssg62
g1448
sg55
(lp1460
S':'
asbag48
(g69
g50
NtRp1461
(dp1462
g53
(dp1463
sg62
g1448
sg55
(lp1464
g48
(g49
g50
NtRp1465
(dp1466
g53
(dp1467
g61
I4
ssg62
g1461
sg55
(lp1468
S'8000'
p1469
asbasbasbag48
(g64
g50
NtRp1470
(dp1471
g53
(dp1472
sg62
g917
sg55
(lp1473
g48
(g69
g50
NtRp1474
(dp1475
g53
(dp1476
g73
g74
ssg62
g1470
sg55
(lp1477
S'server_protocol'
p1478
asbag48
(g69
g50
NtRp1479
(dp1480
g53
(dp1481
g80
g81
ssg62
g1470
sg55
(lp1482
S':'
asbag48
(g69
g50
NtRp1483
(dp1484
g53
(dp1485
sg62
g1470
sg55
(lp1486
g48
(g49
g50
NtRp1487
(dp1488
g53
(dp1489
g61
I4
ssg62
g1483
sg55
(lp1490
S'HTTP/1.1'
p1491
asbasbasbag48
(g64
g50
NtRp1492
(dp1493
g53
(dp1494
sg62
g917
sg55
(lp1495
g48
(g69
g50
NtRp1496
(dp1497
g53
(dp1498
g73
g74
ssg62
g1492
sg55
(lp1499
S'server_software'
p1500
asbag48
(g69
g50
NtRp1501
(dp1502
g53
(dp1503
g80
g81
ssg62
g1492
sg55
(lp1504
S':'
asbag48
(g69
g50
NtRp1505
(dp1506
g53
(dp1507
sg62
g1492
sg55
(lp1508
g48
(g49
g50
NtRp1509
(dp1510
g53
(dp1511
g61
I4
ssg62
g1505
sg55
(lp1512
S'Rocket 1.2.4'
p1513
asbasbasbag48
(g64
g50
NtRp1514
(dp1515
g53
(dp1516
sg62
g917
sg55
(lp1517
g48
(g69
g50
NtRp1518
(dp1519
g53
(dp1520
g73
g74
ssg62
g1514
sg55
(lp1521
S'web2py_crontype'
p1522
asbag48
(g69
g50
NtRp1523
(dp1524
g53
(dp1525
g80
g81
ssg62
g1514
sg55
(lp1526
S':'
asbag48
(g69
g50
NtRp1527
(dp1528
g53
(dp1529
sg62
g1514
sg55
(lp1530
g48
(g49
g50
NtRp1531
(dp1532
g53
(dp1533
g61
I4
ssg62
g1527
sg55
(lp1534
S'hard'
p1535
asbasbasbag48
(g64
g50
NtRp1536
(dp1537
g53
(dp1538
sg62
g917
sg55
(lp1539
g48
(g69
g50
NtRp1540
(dp1541
g53
(dp1542
g73
g74
ssg62
g1536
sg55
(lp1543
S'web2py_original_uri'
p1544
asbag48
(g69
g50
NtRp1545
(dp1546
g53
(dp1547
g80
g81
ssg62
g1536
sg55
(lp1548
S':'
asbag48
(g69
g50
NtRp1549
(dp1550
g53
(dp1551
sg62
g1536
sg55
(lp1552
g48
(g49
g50
NtRp1553
(dp1554
g53
(dp1555
g61
I4
ssg62
g1549
sg55
(lp1556
S'/Gabb1/fb_serv/serve_player_data.txt?player_ID=0&opponent_ID=1&game_ID=0'
p1557
asbasbasbag48
(g64
g50
NtRp1558
(dp1559
g53
(dp1560
sg62
g917
sg55
(lp1561
g48
(g69
g50
NtRp1562
(dp1563
g53
(dp1564
g73
g74
ssg62
g1558
sg55
(lp1565
S'web2py_path'
p1566
asbag48
(g69
g50
NtRp1567
(dp1568
g53
(dp1569
g80
g81
ssg62
g1558
sg55
(lp1570
S':'
asbag48
(g69
g50
NtRp1571
(dp1572
g53
(dp1573
sg62
g1558
sg55
(lp1574
g48
(g49
g50
NtRp1575
(dp1576
g53
(dp1577
g61
I4
ssg62
g1571
sg55
(lp1578
g964
asbasbasbag48
(g64
g50
NtRp1579
(dp1580
g53
(dp1581
sg62
g917
sg55
(lp1582
g48
(g69
g50
NtRp1583
(dp1584
g53
(dp1585
g73
g74
ssg62
g1579
sg55
(lp1586
S'web2py_version'
p1587
asbag48
(g69
g50
NtRp1588
(dp1589
g53
(dp1590
g80
g81
ssg62
g1579
sg55
(lp1591
S':'
asbag48
(g69
g50
NtRp1592
(dp1593
g53
(dp1594
sg62
g1579
sg55
(lp1595
g48
(g49
g50
NtRp1596
(dp1597
g53
(dp1598
g61
I4
ssg62
g1592
sg55
(lp1599
g48
(g57
g50
NtRp1600
(dp1601
g53
(dp1602
g61
I3
ssg62
Nsg55
(lp1603
g48
(g64
g50
NtRp1604
(dp1605
g53
(dp1606
sg62
g1600
sg55
(lp1607
g48
(g69
g50
NtRp1608
(dp1609
g53
(dp1610
sg62
g1604
sg55
(lp1611
g48
(g49
g50
NtRp1612
(dp1613
g53
(dp1614
g61
I3
ssg62
g1608
sg55
(lp1615
S'1'
asbasbasbag48
(g64
g50
NtRp1616
(dp1617
g53
(dp1618
sg62
g1600
sg55
(lp1619
g48
(g69
g50
NtRp1620
(dp1621
g53
(dp1622
sg62
g1616
sg55
(lp1623
g48
(g49
g50
NtRp1624
(dp1625
g53
(dp1626
g61
I3
ssg62
g1620
sg55
(lp1627
S'99'
p1628
asbasbasbag48
(g64
g50
NtRp1629
(dp1630
g53
(dp1631
sg62
g1600
sg55
(lp1632
g48
(g69
g50
NtRp1633
(dp1634
g53
(dp1635
sg62
g1629
sg55
(lp1636
g48
(g49
g50
NtRp1637
(dp1638
g53
(dp1639
g61
I3
ssg62
g1633
sg55
(lp1640
S'2'
asbasbasbag48
(g64
g50
NtRp1641
(dp1642
g53
(dp1643
sg62
g1600
sg55
(lp1644
g48
(g69
g50
NtRp1645
(dp1646
g53
(dp1647
sg62
g1641
sg55
(lp1648
g48
(g49
g50
NtRp1649
(dp1650
g53
(dp1651
g61
I3
ssg62
g1645
sg55
(lp1652
S'datetime.datetime(2011, 9, 26, 6, 55, 33)'
p1653
asbasbasbag48
(g64
g50
NtRp1654
(dp1655
g53
(dp1656
sg62
g1600
sg55
(lp1657
g48
(g69
g50
NtRp1658
(dp1659
g53
(dp1660
sg62
g1654
sg55
(lp1661
g48
(g49
g50
NtRp1662
(dp1663
g53
(dp1664
g61
I3
ssg62
g1658
sg55
(lp1665
S'stable'
p1666
asbasbasbasbasbasbasbag48
(g64
g50
NtRp1667
(dp1668
g53
(dp1669
sg62
g917
sg55
(lp1670
g48
(g69
g50
NtRp1671
(dp1672
g53
(dp1673
g73
g74
ssg62
g1667
sg55
(lp1674
S'wsgi_errors'
p1675
asbag48
(g69
g50
NtRp1676
(dp1677
g53
(dp1678
g80
g81
ssg62
g1667
sg55
(lp1679
S':'
asbag48
(g69
g50
NtRp1680
(dp1681
g53
(dp1682
sg62
g1667
sg55
(lp1683
g48
(g49
g50
NtRp1684
(dp1685
g53
(dp1686
g61
I4
ssg62
g1680
sg55
(lp1687
S"<open file '<stderr>', mode 'w' at 0x01D300B0>"
p1688
asbasbasbag48
(g64
g50
NtRp1689
(dp1690
g53
(dp1691
sg62
g917
sg55
(lp1692
g48
(g69
g50
NtRp1693
(dp1694
g53
(dp1695
g73
g74
ssg62
g1689
sg55
(lp1696
S'wsgi_file_wrapper'
p1697
asbag48
(g69
g50
NtRp1698
(dp1699
g53
(dp1700
g80
g81
ssg62
g1689
sg55
(lp1701
S':'
asbag48
(g69
g50
NtRp1702
(dp1703
g53
(dp1704
sg62
g1689
sg55
(lp1705
g48
(g49
g50
NtRp1706
(dp1707
g53
(dp1708
g61
I4
ssg62
g1702
sg55
(lp1709
S'<class wsgiref.util.FileWrapper at 0x0318A600>'
p1710
asbasbasbag48
(g64
g50
NtRp1711
(dp1712
g53
(dp1713
sg62
g917
sg55
(lp1714
g48
(g69
g50
NtRp1715
(dp1716
g53
(dp1717
g73
g74
ssg62
g1711
sg55
(lp1718
S'wsgi_input'
p1719
asbag48
(g69
g50
NtRp1720
(dp1721
g53
(dp1722
g80
g81
ssg62
g1711
sg55
(lp1723
S':'
asbag48
(g69
g50
NtRp1724
(dp1725
g53
(dp1726
sg62
g1711
sg55
(lp1727
g48
(g49
g50
NtRp1728
(dp1729
g53
(dp1730
g61
I4
ssg62
g1724
sg55
(lp1731
S'<socket._fileobject object at 0x03486EB0>'
p1732
asbasbasbag48
(g64
g50
NtRp1733
(dp1734
g53
(dp1735
sg62
g917
sg55
(lp1736
g48
(g69
g50
NtRp1737
(dp1738
g53
(dp1739
g73
g74
ssg62
g1733
sg55
(lp1740
S'wsgi_multiprocess'
p1741
asbag48
(g69
g50
NtRp1742
(dp1743
g53
(dp1744
g80
g81
ssg62
g1733
sg55
(lp1745
S':'
asbag48
(g69
g50
NtRp1746
(dp1747
g53
(dp1748
sg62
g1733
sg55
(lp1749
g48
(g49
g50
NtRp1750
(dp1751
g53
(dp1752
g61
I4
ssg62
g1746
sg55
(lp1753
g91
asbasbasbag48
(g64
g50
NtRp1754
(dp1755
g53
(dp1756
sg62
g917
sg55
(lp1757
g48
(g69
g50
NtRp1758
(dp1759
g53
(dp1760
g73
g74
ssg62
g1754
sg55
(lp1761
S'wsgi_multithread'
p1762
asbag48
(g69
g50
NtRp1763
(dp1764
g53
(dp1765
g80
g81
ssg62
g1754
sg55
(lp1766
S':'
asbag48
(g69
g50
NtRp1767
(dp1768
g53
(dp1769
sg62
g1754
sg55
(lp1770
g48
(g49
g50
NtRp1771
(dp1772
g53
(dp1773
g61
I4
ssg62
g1767
sg55
(lp1774
S'True'
p1775
asbasbasbag48
(g64
g50
NtRp1776
(dp1777
g53
(dp1778
sg62
g917
sg55
(lp1779
g48
(g69
g50
NtRp1780
(dp1781
g53
(dp1782
g73
g74
ssg62
g1776
sg55
(lp1783
S'wsgi_run_once'
p1784
asbag48
(g69
g50
NtRp1785
(dp1786
g53
(dp1787
g80
g81
ssg62
g1776
sg55
(lp1788
S':'
asbag48
(g69
g50
NtRp1789
(dp1790
g53
(dp1791
sg62
g1776
sg55
(lp1792
g48
(g49
g50
NtRp1793
(dp1794
g53
(dp1795
g61
I4
ssg62
g1789
sg55
(lp1796
g91
asbasbasbag48
(g64
g50
NtRp1797
(dp1798
g53
(dp1799
sg62
g917
sg55
(lp1800
g48
(g69
g50
NtRp1801
(dp1802
g53
(dp1803
g73
g74
ssg62
g1797
sg55
(lp1804
S'wsgi_url_scheme'
p1805
asbag48
(g69
g50
NtRp1806
(dp1807
g53
(dp1808
g80
g81
ssg62
g1797
sg55
(lp1809
S':'
asbag48
(g69
g50
NtRp1810
(dp1811
g53
(dp1812
sg62
g1797
sg55
(lp1813
g48
(g49
g50
NtRp1814
(dp1815
g53
(dp1816
g61
I4
ssg62
g1810
sg55
(lp1817
S'http'
p1818
asbasbasbag48
(g64
g50
NtRp1819
(dp1820
g53
(dp1821
sg62
g917
sg55
(lp1822
g48
(g69
g50
NtRp1823
(dp1824
g53
(dp1825
g73
g74
ssg62
g1819
sg55
(lp1826
S'wsgi_version'
p1827
asbag48
(g69
g50
NtRp1828
(dp1829
g53
(dp1830
g80
g81
ssg62
g1819
sg55
(lp1831
S':'
asbag48
(g69
g50
NtRp1832
(dp1833
g53
(dp1834
sg62
g1819
sg55
(lp1835
g48
(g49
g50
NtRp1836
(dp1837
g53
(dp1838
g61
I4
ssg62
g1832
sg55
(lp1839
g48
(g57
g50
NtRp1840
(dp1841
g53
(dp1842
g61
I3
ssg62
Nsg55
(lp1843
g48
(g64
g50
NtRp1844
(dp1845
g53
(dp1846
sg62
g1840
sg55
(lp1847
g48
(g69
g50
NtRp1848
(dp1849
g53
(dp1850
sg62
g1844
sg55
(lp1851
g48
(g49
g50
NtRp1852
(dp1853
g53
(dp1854
g61
I3
ssg62
g1848
sg55
(lp1855
S'1'
asbasbasbag48
(g64
g50
NtRp1856
(dp1857
g53
(dp1858
sg62
g1840
sg55
(lp1859
g48
(g69
g50
NtRp1860
(dp1861
g53
(dp1862
sg62
g1856
sg55
(lp1863
g48
(g49
g50
NtRp1864
(dp1865
g53
(dp1866
g61
I3
ssg62
g1860
sg55
(lp1867
S'0'
asbasbasbasbasbasbasbasbasbasbasbag48
(g64
g50
NtRp1868
(dp1869
g53
(dp1870
sg62
g58
sg55
(lp1871
g48
(g69
g50
NtRp1872
(dp1873
g53
(dp1874
g73
g74
ssg62
g1868
sg55
(lp1875
S'extension'
p1876
asbag48
(g69
g50
NtRp1877
(dp1878
g53
(dp1879
g80
g81
ssg62
g1868
sg55
(lp1880
S':'
asbag48
(g69
g50
NtRp1881
(dp1882
g53
(dp1883
sg62
g1868
sg55
(lp1884
g48
(g49
g50
NtRp1885
(dp1886
g53
(dp1887
g61
I5
ssg62
g1881
sg55
(lp1888
S'txt'
p1889
asbasbasbag48
(g64
g50
NtRp1890
(dp1891
g53
(dp1892
sg62
g58
sg55
(lp1893
g48
(g69
g50
NtRp1894
(dp1895
g53
(dp1896
g73
g74
ssg62
g1890
sg55
(lp1897
S'folder'
p1898
asbag48
(g69
g50
NtRp1899
(dp1900
g53
(dp1901
g80
g81
ssg62
g1890
sg55
(lp1902
S':'
asbag48
(g69
g50
NtRp1903
(dp1904
g53
(dp1905
sg62
g1890
sg55
(lp1906
g48
(g49
g50
NtRp1907
(dp1908
g53
(dp1909
g61
I5
ssg62
g1903
sg55
(lp1910
S'D:\\git_projs\\Gabblista\\web2py\\web2py\\applications\\Gabb1\\'
p1911
asbasbasbag48
(g64
g50
NtRp1912
(dp1913
g53
(dp1914
sg62
g58
sg55
(lp1915
g48
(g69
g50
NtRp1916
(dp1917
g53
(dp1918
g73
g74
ssg62
g1912
sg55
(lp1919
S'function'
p1920
asbag48
(g69
g50
NtRp1921
(dp1922
g53
(dp1923
g80
g81
ssg62
g1912
sg55
(lp1924
S':'
asbag48
(g69
g50
NtRp1925
(dp1926
g53
(dp1927
sg62
g1912
sg55
(lp1928
g48
(g49
g50
NtRp1929
(dp1930
g53
(dp1931
g61
I5
ssg62
g1925
sg55
(lp1932
S'serve_player_data'
p1933
asbasbasbag48
(g64
g50
NtRp1934
(dp1935
g53
(dp1936
sg62
g58
sg55
(lp1937
g48
(g69
g50
NtRp1938
(dp1939
g53
(dp1940
g73
g74
ssg62
g1934
sg55
(lp1941
S'get_vars'
p1942
asbag48
(g69
g50
NtRp1943
(dp1944
g53
(dp1945
g80
g81
ssg62
g1934
sg55
(lp1946
S':'
asbag48
(g69
g50
NtRp1947
(dp1948
g53
(dp1949
sg62
g1934
sg55
(lp1950
g48
(g49
g50
NtRp1951
(dp1952
g53
(dp1953
g61
I5
ssg62
g1947
sg55
(lp1954
g48
(g57
g50
NtRp1955
(dp1956
g53
(dp1957
g61
I4
ssg62
Nsg55
(lp1958
g48
(g64
g50
NtRp1959
(dp1960
g53
(dp1961
sg62
g1955
sg55
(lp1962
g48
(g69
g50
NtRp1963
(dp1964
g53
(dp1965
g73
g74
ssg62
g1959
sg55
(lp1966
S'game_ID'
p1967
asbag48
(g69
g50
NtRp1968
(dp1969
g53
(dp1970
g80
g81
ssg62
g1959
sg55
(lp1971
S':'
asbag48
(g69
g50
NtRp1972
(dp1973
g53
(dp1974
sg62
g1959
sg55
(lp1975
g48
(g49
g50
NtRp1976
(dp1977
g53
(dp1978
g61
I4
ssg62
g1972
sg55
(lp1979
S'0'
asbasbasbag48
(g64
g50
NtRp1980
(dp1981
g53
(dp1982
sg62
g1955
sg55
(lp1983
g48
(g69
g50
NtRp1984
(dp1985
g53
(dp1986
g73
g74
ssg62
g1980
sg55
(lp1987
S'opponent_ID'
p1988
asbag48
(g69
g50
NtRp1989
(dp1990
g53
(dp1991
g80
g81
ssg62
g1980
sg55
(lp1992
S':'
asbag48
(g69
g50
NtRp1993
(dp1994
g53
(dp1995
sg62
g1980
sg55
(lp1996
g48
(g49
g50
NtRp1997
(dp1998
g53
(dp1999
g61
I4
ssg62
g1993
sg55
(lp2000
S'1'
asbasbasbag48
(g64
g50
NtRp2001
(dp2002
g53
(dp2003
sg62
g1955
sg55
(lp2004
g48
(g69
g50
NtRp2005
(dp2006
g53
(dp2007
g73
g74
ssg62
g2001
sg55
(lp2008
S'player_ID'
p2009
asbag48
(g69
g50
NtRp2010
(dp2011
g53
(dp2012
g80
g81
ssg62
g2001
sg55
(lp2013
S':'
asbag48
(g69
g50
NtRp2014
(dp2015
g53
(dp2016
sg62
g2001
sg55
(lp2017
g48
(g49
g50
NtRp2018
(dp2019
g53
(dp2020
g61
I4
ssg62
g2014
sg55
(lp2021
S'0'
asbasbasbasbasbasbasbag48
(g64
g50
NtRp2022
(dp2023
g53
(dp2024
sg62
g58
sg55
(lp2025
g48
(g69
g50
NtRp2026
(dp2027
g53
(dp2028
g73
g74
ssg62
g2022
sg55
(lp2029
S'global_settings'
p2030
asbag48
(g69
g50
NtRp2031
(dp2032
g53
(dp2033
g80
g81
ssg62
g2022
sg55
(lp2034
S':'
asbag48
(g69
g50
NtRp2035
(dp2036
g53
(dp2037
sg62
g2022
sg55
(lp2038
g48
(g49
g50
NtRp2039
(dp2040
g53
(dp2041
g61
I5
ssg62
g2035
sg55
(lp2042
g48
(g57
g50
NtRp2043
(dp2044
g53
(dp2045
g61
I4
ssg62
Nsg55
(lp2046
g48
(g64
g50
NtRp2047
(dp2048
g53
(dp2049
sg62
g2043
sg55
(lp2050
g48
(g69
g50
NtRp2051
(dp2052
g53
(dp2053
g73
g74
ssg62
g2047
sg55
(lp2054
g929
asbag48
(g69
g50
NtRp2055
(dp2056
g53
(dp2057
g80
g81
ssg62
g2047
sg55
(lp2058
S':'
asbag48
(g69
g50
NtRp2059
(dp2060
g53
(dp2061
sg62
g2047
sg55
(lp2062
g48
(g49
g50
NtRp2063
(dp2064
g53
(dp2065
g61
I4
ssg62
g2059
sg55
(lp2066
S"set(['D:\\\\git_projs\\\\Gabblista\\\\web2py\\\\web2py\\\\applications\\\\gabb1\\\\', 'D:\\\\git_projs\\\\Gabblista\\\\web2py\\\\web2py\\\\applications\\\\Gabb1\\\\', 'D:\\\\git_projs\\\\Gabblista\\\\web2py\\\\web2py\\\\applications\\\\welcome\\\\'])"
p2067
asbasbasbag48
(g64
g50
NtRp2068
(dp2069
g53
(dp2070
sg62
g2043
sg55
(lp2071
g48
(g69
g50
NtRp2072
(dp2073
g53
(dp2074
g73
g74
ssg62
g2068
sg55
(lp2075
g951
asbag48
(g69
g50
NtRp2076
(dp2077
g53
(dp2078
g80
g81
ssg62
g2068
sg55
(lp2079
S':'
asbag48
(g69
g50
NtRp2080
(dp2081
g53
(dp2082
sg62
g2068
sg55
(lp2083
g48
(g49
g50
NtRp2084
(dp2085
g53
(dp2086
g61
I4
ssg62
g2080
sg55
(lp2087
g964
asbasbasbag48
(g64
g50
NtRp2088
(dp2089
g53
(dp2090
sg62
g2043
sg55
(lp2091
g48
(g69
g50
NtRp2092
(dp2093
g53
(dp2094
g73
g74
ssg62
g2088
sg55
(lp2095
g973
asbag48
(g69
g50
NtRp2096
(dp2097
g53
(dp2098
g80
g81
ssg62
g2088
sg55
(lp2099
S':'
asbag48
(g69
g50
NtRp2100
(dp2101
g53
(dp2102
sg62
g2088
sg55
(lp2103
g48
(g49
g50
NtRp2104
(dp2105
g53
(dp2106
g61
I4
ssg62
g2100
sg55
(lp2107
g48
(g57
g50
NtRp2108
(dp2109
g53
(dp2110
g61
I3
ssg62
Nsg55
(lp2111
sbasbasbasbag48
(g64
g50
NtRp2112
(dp2113
g53
(dp2114
sg62
g2043
sg55
(lp2115
g48
(g69
g50
NtRp2116
(dp2117
g53
(dp2118
g73
g74
ssg62
g2112
sg55
(lp2119
g998
asbag48
(g69
g50
NtRp2120
(dp2121
g53
(dp2122
g80
g81
ssg62
g2112
sg55
(lp2123
S':'
asbag48
(g69
g50
NtRp2124
(dp2125
g53
(dp2126
sg62
g2112
sg55
(lp2127
g48
(g49
g50
NtRp2128
(dp2129
g53
(dp2130
g61
I4
ssg62
g2124
sg55
(lp2131
S"<Values at 0x325b800: {'verbose': False, 'ip': '127.0.0.1', 'shutdown_timeout': 5, 'taskbar': False, 'nocron': False, 'pid_filename': 'httpserver.pid', 'maxthreads': None, 'softcron': False, 'server_name': 'John-PC', 'bpython': False, 'nogui': False, 'port': 8000, 'extcron': False, 'debuglevel': 30, 'test': None, 'folder': 'D:\\\\git_projs\\\\Gabblista\\\\web2py\\\\web2py', 'config': '', 'import_models': False, 'winservice': '', 'shell': None, 'run': '', 'log_filename': 'httpserver.log', 'args': [''], 'ssl_ca_certificate': None, 'scheduler': None, 'profiler_filename': None, 'ssl_private_key': '', 'password': '<ask>', 'request_queue_size': 5, 'ssl_certificate': '', 'cronjob': False, 'plain': False, 'quiet': False, 'interfaces': None, 'minthreads': None, 'timeout': 10, 'numthreads': None, 'nobanner': False}>"
p2132
asbasbasbag48
(g64
g50
NtRp2133
(dp2134
g53
(dp2135
sg62
g2043
sg55
(lp2136
g48
(g69
g50
NtRp2137
(dp2138
g53
(dp2139
g73
g74
ssg62
g2133
sg55
(lp2140
g1020
asbag48
(g69
g50
NtRp2141
(dp2142
g53
(dp2143
g80
g81
ssg62
g2133
sg55
(lp2144
S':'
asbag48
(g69
g50
NtRp2145
(dp2146
g53
(dp2147
sg62
g2133
sg55
(lp2148
g48
(g49
g50
NtRp2149
(dp2150
g53
(dp2151
g61
I4
ssg62
g2145
sg55
(lp2152
S'set([])'
p2153
asbasbasbag48
(g64
g50
NtRp2154
(dp2155
g53
(dp2156
sg62
g2043
sg55
(lp2157
g48
(g69
g50
NtRp2158
(dp2159
g53
(dp2160
g73
g74
ssg62
g2154
sg55
(lp2161
g1042
asbag48
(g69
g50
NtRp2162
(dp2163
g53
(dp2164
g80
g81
ssg62
g2154
sg55
(lp2165
S':'
asbag48
(g69
g50
NtRp2166
(dp2167
g53
(dp2168
sg62
g2154
sg55
(lp2169
g48
(g49
g50
NtRp2170
(dp2171
g53
(dp2172
g61
I4
ssg62
g2166
sg55
(lp2173
g91
asbasbasbag48
(g64
g50
NtRp2174
(dp2175
g53
(dp2176
sg62
g2043
sg55
(lp2177
g48
(g69
g50
NtRp2178
(dp2179
g53
(dp2180
g73
g74
ssg62
g2174
sg55
(lp2181
g1063
asbag48
(g69
g50
NtRp2182
(dp2183
g53
(dp2184
g80
g81
ssg62
g2174
sg55
(lp2185
S':'
asbag48
(g69
g50
NtRp2186
(dp2187
g53
(dp2188
sg62
g2174
sg55
(lp2189
g48
(g49
g50
NtRp2190
(dp2191
g53
(dp2192
g61
I4
ssg62
g2186
sg55
(lp2193
g1076
asbasbasbag48
(g64
g50
NtRp2194
(dp2195
g53
(dp2196
sg62
g2043
sg55
(lp2197
g48
(g69
g50
NtRp2198
(dp2199
g53
(dp2200
g73
g74
ssg62
g2194
sg55
(lp2201
g1261
asbag48
(g69
g50
NtRp2202
(dp2203
g53
(dp2204
g80
g81
ssg62
g2194
sg55
(lp2205
S':'
asbag48
(g69
g50
NtRp2206
(dp2207
g53
(dp2208
sg62
g2194
sg55
(lp2209
g48
(g49
g50
NtRp2210
(dp2211
g53
(dp2212
g61
I4
ssg62
g2206
sg55
(lp2213
g91
asbasbasbag48
(g64
g50
NtRp2214
(dp2215
g53
(dp2216
sg62
g2043
sg55
(lp2217
g48
(g69
g50
NtRp2218
(dp2219
g53
(dp2220
g73
g74
ssg62
g2214
sg55
(lp2221
g1522
asbag48
(g69
g50
NtRp2222
(dp2223
g53
(dp2224
g80
g81
ssg62
g2214
sg55
(lp2225
S':'
asbag48
(g69
g50
NtRp2226
(dp2227
g53
(dp2228
sg62
g2214
sg55
(lp2229
g48
(g49
g50
NtRp2230
(dp2231
g53
(dp2232
g61
I4
ssg62
g2226
sg55
(lp2233
g1535
asbasbasbag48
(g64
g50
NtRp2234
(dp2235
g53
(dp2236
sg62
g2043
sg55
(lp2237
g48
(g69
g50
NtRp2238
(dp2239
g53
(dp2240
g73
g74
ssg62
g2234
sg55
(lp2241
g1587
asbag48
(g69
g50
NtRp2242
(dp2243
g53
(dp2244
g80
g81
ssg62
g2234
sg55
(lp2245
S':'
asbag48
(g69
g50
NtRp2246
(dp2247
g53
(dp2248
sg62
g2234
sg55
(lp2249
g48
(g49
g50
NtRp2250
(dp2251
g53
(dp2252
g61
I4
ssg62
g2246
sg55
(lp2253
g48
(g57
g50
NtRp2254
(dp2255
g53
(dp2256
g61
I3
ssg62
Nsg55
(lp2257
g48
(g64
g50
NtRp2258
(dp2259
g53
(dp2260
sg62
g2254
sg55
(lp2261
g48
(g69
g50
NtRp2262
(dp2263
g53
(dp2264
sg62
g2258
sg55
(lp2265
g48
(g49
g50
NtRp2266
(dp2267
g53
(dp2268
g61
I3
ssg62
g2262
sg55
(lp2269
S'1'
asbasbasbag48
(g64
g50
NtRp2270
(dp2271
g53
(dp2272
sg62
g2254
sg55
(lp2273
g48
(g69
g50
NtRp2274
(dp2275
g53
(dp2276
sg62
g2270
sg55
(lp2277
g48
(g49
g50
NtRp2278
(dp2279
g53
(dp2280
g61
I3
ssg62
g2274
sg55
(lp2281
S'99'
p2282
asbasbasbag48
(g64
g50
NtRp2283
(dp2284
g53
(dp2285
sg62
g2254
sg55
(lp2286
g48
(g69
g50
NtRp2287
(dp2288
g53
(dp2289
sg62
g2283
sg55
(lp2290
g48
(g49
g50
NtRp2291
(dp2292
g53
(dp2293
g61
I3
ssg62
g2287
sg55
(lp2294
S'2'
asbasbasbag48
(g64
g50
NtRp2295
(dp2296
g53
(dp2297
sg62
g2254
sg55
(lp2298
g48
(g69
g50
NtRp2299
(dp2300
g53
(dp2301
sg62
g2295
sg55
(lp2302
g48
(g49
g50
NtRp2303
(dp2304
g53
(dp2305
g61
I3
ssg62
g2299
sg55
(lp2306
S'datetime.datetime(2011, 9, 26, 6, 55, 33)'
p2307
asbasbasbag48
(g64
g50
NtRp2308
(dp2309
g53
(dp2310
sg62
g2254
sg55
(lp2311
g48
(g69
g50
NtRp2312
(dp2313
g53
(dp2314
sg62
g2308
sg55
(lp2315
g48
(g49
g50
NtRp2316
(dp2317
g53
(dp2318
g61
I3
ssg62
g2312
sg55
(lp2319
g1666
asbasbasbasbasbasbasbasbasbasbasbag48
(g64
g50
NtRp2320
(dp2321
g53
(dp2322
sg62
g58
sg55
(lp2323
g48
(g69
g50
NtRp2324
(dp2325
g53
(dp2326
g73
g74
ssg62
g2320
sg55
(lp2327
S'is_https'
p2328
asbag48
(g69
g50
NtRp2329
(dp2330
g53
(dp2331
g80
g81
ssg62
g2320
sg55
(lp2332
S':'
asbag48
(g69
g50
NtRp2333
(dp2334
g53
(dp2335
sg62
g2320
sg55
(lp2336
g48
(g49
g50
NtRp2337
(dp2338
g53
(dp2339
g61
I5
ssg62
g2333
sg55
(lp2340
g91
asbasbasbag48
(g64
g50
NtRp2341
(dp2342
g53
(dp2343
sg62
g58
sg55
(lp2344
g48
(g69
g50
NtRp2345
(dp2346
g53
(dp2347
g73
g74
ssg62
g2341
sg55
(lp2348
S'is_local'
p2349
asbag48
(g69
g50
NtRp2350
(dp2351
g53
(dp2352
g80
g81
ssg62
g2341
sg55
(lp2353
S':'
asbag48
(g69
g50
NtRp2354
(dp2355
g53
(dp2356
sg62
g2341
sg55
(lp2357
g48
(g49
g50
NtRp2358
(dp2359
g53
(dp2360
g61
I5
ssg62
g2354
sg55
(lp2361
g1775
asbasbasbag48
(g64
g50
NtRp2362
(dp2363
g53
(dp2364
sg62
g58
sg55
(lp2365
g48
(g69
g50
NtRp2366
(dp2367
g53
(dp2368
g73
g74
ssg62
g2362
sg55
(lp2369
S'is_restful'
p2370
asbag48
(g69
g50
NtRp2371
(dp2372
g53
(dp2373
g80
g81
ssg62
g2362
sg55
(lp2374
S':'
asbag48
(g69
g50
NtRp2375
(dp2376
g53
(dp2377
sg62
g2362
sg55
(lp2378
g48
(g49
g50
NtRp2379
(dp2380
g53
(dp2381
g61
I5
ssg62
g2375
sg55
(lp2382
g91
asbasbasbag48
(g64
g50
NtRp2383
(dp2384
g53
(dp2385
sg62
g58
sg55
(lp2386
g48
(g69
g50
NtRp2387
(dp2388
g53
(dp2389
g73
g74
ssg62
g2383
sg55
(lp2390
S'now'
p2391
asbag48
(g69
g50
NtRp2392
(dp2393
g53
(dp2394
g80
g81
ssg62
g2383
sg55
(lp2395
S':'
asbag48
(g69
g50
NtRp2396
(dp2397
g53
(dp2398
sg62
g2383
sg55
(lp2399
g48
(g49
g50
NtRp2400
(dp2401
g53
(dp2402
g61
I5
ssg62
g2396
sg55
(lp2403
S'datetime.datetime(2012, 1, 19, 14, 48, 49, 445000)'
p2404
asbasbasbag48
(g64
g50
NtRp2405
(dp2406
g53
(dp2407
sg62
g58
sg55
(lp2408
g48
(g69
g50
NtRp2409
(dp2410
g53
(dp2411
g73
g74
ssg62
g2405
sg55
(lp2412
S'post_vars'
p2413
asbag48
(g69
g50
NtRp2414
(dp2415
g53
(dp2416
g80
g81
ssg62
g2405
sg55
(lp2417
S':'
asbag48
(g69
g50
NtRp2418
(dp2419
g53
(dp2420
sg62
g2405
sg55
(lp2421
g48
(g49
g50
NtRp2422
(dp2423
g53
(dp2424
g61
I5
ssg62
g2418
sg55
(lp2425
g48
(g57
g50
NtRp2426
(dp2427
g53
(dp2428
g61
I4
ssg62
Nsg55
(lp2429
sbasbasbasbag48
(g64
g50
NtRp2430
(dp2431
g53
(dp2432
sg62
g58
sg55
(lp2433
g48
(g69
g50
NtRp2434
(dp2435
g53
(dp2436
g73
g74
ssg62
g2430
sg55
(lp2437
S'raw_extension'
p2438
asbag48
(g69
g50
NtRp2439
(dp2440
g53
(dp2441
g80
g81
ssg62
g2430
sg55
(lp2442
S':'
asbag48
(g69
g50
NtRp2443
(dp2444
g53
(dp2445
sg62
g2430
sg55
(lp2446
g48
(g49
g50
NtRp2447
(dp2448
g53
(dp2449
g61
I5
ssg62
g2443
sg55
(lp2450
g1889
asbasbasbag48
(g64
g50
NtRp2451
(dp2452
g53
(dp2453
sg62
g58
sg55
(lp2454
g48
(g69
g50
NtRp2455
(dp2456
g53
(dp2457
g73
g74
ssg62
g2451
sg55
(lp2458
S'url'
p2459
asbag48
(g69
g50
NtRp2460
(dp2461
g53
(dp2462
g80
g81
ssg62
g2451
sg55
(lp2463
S':'
asbag48
(g69
g50
NtRp2464
(dp2465
g53
(dp2466
sg62
g2451
sg55
(lp2467
g48
(g49
g50
NtRp2468
(dp2469
g53
(dp2470
g61
I5
ssg62
g2464
sg55
(lp2471
S'/Gabb1/fb_serv/serve_player_data.txt'
p2472
asbasbasbag48
(g64
g50
NtRp2473
(dp2474
g53
(dp2475
sg62
g58
sg55
(lp2476
g48
(g69
g50
NtRp2477
(dp2478
g53
(dp2479
g73
g74
ssg62
g2473
sg55
(lp2480
S'utcnow'
p2481
asbag48
(g69
g50
NtRp2482
(dp2483
g53
(dp2484
g80
g81
ssg62
g2473
sg55
(lp2485
S':'
asbag48
(g69
g50
NtRp2486
(dp2487
g53
(dp2488
sg62
g2473
sg55
(lp2489
g48
(g49
g50
NtRp2490
(dp2491
g53
(dp2492
g61
I5
ssg62
g2486
sg55
(lp2493
S'datetime.datetime(2012, 1, 19, 19, 48, 49, 445000)'
p2494
asbasbasbag48
(g64
g50
NtRp2495
(dp2496
g53
(dp2497
sg62
g58
sg55
(lp2498
g48
(g69
g50
NtRp2499
(dp2500
g53
(dp2501
g73
g74
ssg62
g2495
sg55
(lp2502
S'uuid'
p2503
asbag48
(g69
g50
NtRp2504
(dp2505
g53
(dp2506
g80
g81
ssg62
g2495
sg55
(lp2507
S':'
asbag48
(g69
g50
NtRp2508
(dp2509
g53
(dp2510
sg62
g2495
sg55
(lp2511
g48
(g49
g50
NtRp2512
(dp2513
g53
(dp2514
g61
I5
ssg62
g2508
sg55
(lp2515
S'Gabb1/127.0.0.1.2012-01-19.14-48-49.623f935c-0e2d-459e-ad46-83d6001aa666'
p2516
asbasbasbag48
(g64
g50
NtRp2517
(dp2518
g53
(dp2519
sg62
g58
sg55
(lp2520
g48
(g69
g50
NtRp2521
(dp2522
g53
(dp2523
g73
g74
ssg62
g2517
sg55
(lp2524
S'vars'
p2525
asbag48
(g69
g50
NtRp2526
(dp2527
g53
(dp2528
g80
g81
ssg62
g2517
sg55
(lp2529
S':'
asbag48
(g69
g50
NtRp2530
(dp2531
g53
(dp2532
sg62
g2517
sg55
(lp2533
g48
(g49
g50
NtRp2534
(dp2535
g53
(dp2536
g61
I5
ssg62
g2530
sg55
(lp2537
g48
(g57
g50
NtRp2538
(dp2539
g53
(dp2540
g61
I4
ssg62
Nsg55
(lp2541
g48
(g64
g50
NtRp2542
(dp2543
g53
(dp2544
sg62
g2538
sg55
(lp2545
g48
(g69
g50
NtRp2546
(dp2547
g53
(dp2548
g73
g74
ssg62
g2542
sg55
(lp2549
g1967
asbag48
(g69
g50
NtRp2550
(dp2551
g53
(dp2552
g80
g81
ssg62
g2542
sg55
(lp2553
S':'
asbag48
(g69
g50
NtRp2554
(dp2555
g53
(dp2556
sg62
g2542
sg55
(lp2557
g48
(g49
g50
NtRp2558
(dp2559
g53
(dp2560
g61
I4
ssg62
g2554
sg55
(lp2561
S'0'
asbasbasbag48
(g64
g50
NtRp2562
(dp2563
g53
(dp2564
sg62
g2538
sg55
(lp2565
g48
(g69
g50
NtRp2566
(dp2567
g53
(dp2568
g73
g74
ssg62
g2562
sg55
(lp2569
g1988
asbag48
(g69
g50
NtRp2570
(dp2571
g53
(dp2572
g80
g81
ssg62
g2562
sg55
(lp2573
S':'
asbag48
(g69
g50
NtRp2574
(dp2575
g53
(dp2576
sg62
g2562
sg55
(lp2577
g48
(g49
g50
NtRp2578
(dp2579
g53
(dp2580
g61
I4
ssg62
g2574
sg55
(lp2581
S'1'
asbasbasbag48
(g64
g50
NtRp2582
(dp2583
g53
(dp2584
sg62
g2538
sg55
(lp2585
g48
(g69
g50
NtRp2586
(dp2587
g53
(dp2588
g73
g74
ssg62
g2582
sg55
(lp2589
g2009
asbag48
(g69
g50
NtRp2590
(dp2591
g53
(dp2592
g80
g81
ssg62
g2582
sg55
(lp2593
S':'
asbag48
(g69
g50
NtRp2594
(dp2595
g53
(dp2596
sg62
g2582
sg55
(lp2597
g48
(g49
g50
NtRp2598
(dp2599
g53
(dp2600
g61
I4
ssg62
g2594
sg55
(lp2601
S'0'
asbasbasbasbasbasbasbag48
(g64
g50
NtRp2602
(dp2603
g53
(dp2604
sg62
g58
sg55
(lp2605
g48
(g69
g50
NtRp2606
(dp2607
g53
(dp2608
g73
g74
ssg62
g2602
sg55
(lp2609
S'wsgi'
p2610
asbag48
(g69
g50
NtRp2611
(dp2612
g53
(dp2613
g80
g81
ssg62
g2602
sg55
(lp2614
S':'
asbag48
(g69
g50
NtRp2615
(dp2616
g53
(dp2617
sg62
g2602
sg55
(lp2618
g48
(g49
g50
NtRp2619
(dp2620
g53
(dp2621
g61
I5
ssg62
g2615
sg55
(lp2622
g48
(g57
g50
NtRp2623
(dp2624
g53
(dp2625
g61
I4
ssg62
Nsg55
(lp2626
g48
(g64
g50
NtRp2627
(dp2628
g53
(dp2629
sg62
g2623
sg55
(lp2630
g48
(g69
g50
NtRp2631
(dp2632
g53
(dp2633
g73
g74
ssg62
g2627
sg55
(lp2634
S'environ'
p2635
asbag48
(g69
g50
NtRp2636
(dp2637
g53
(dp2638
g80
g81
ssg62
g2627
sg55
(lp2639
S':'
asbag48
(g69
g50
NtRp2640
(dp2641
g53
(dp2642
sg62
g2627
sg55
(lp2643
g48
(g49
g50
NtRp2644
(dp2645
g53
(dp2646
g61
I4
ssg62
g2640
sg55
(lp2647
g48
(g57
g50
NtRp2648
(dp2649
g53
(dp2650
g61
I3
ssg62
Nsg55
(lp2651
g48
(g64
g50
NtRp2652
(dp2653
g53
(dp2654
sg62
g2648
sg55
(lp2655
g48
(g69
g50
NtRp2656
(dp2657
g53
(dp2658
g73
g74
ssg62
g2652
sg55
(lp2659
S'HTTP_ACCEPT'
p2660
asbag48
(g69
g50
NtRp2661
(dp2662
g53
(dp2663
g80
g81
ssg62
g2652
sg55
(lp2664
S':'
asbag48
(g69
g50
NtRp2665
(dp2666
g53
(dp2667
sg62
g2652
sg55
(lp2668
g48
(g49
g50
NtRp2669
(dp2670
g53
(dp2671
g61
I3
ssg62
g2665
sg55
(lp2672
g1098
asbasbasbag48
(g64
g50
NtRp2673
(dp2674
g53
(dp2675
sg62
g2648
sg55
(lp2676
g48
(g69
g50
NtRp2677
(dp2678
g53
(dp2679
g73
g74
ssg62
g2673
sg55
(lp2680
S'HTTP_ACCEPT_CHARSET'
p2681
asbag48
(g69
g50
NtRp2682
(dp2683
g53
(dp2684
g80
g81
ssg62
g2673
sg55
(lp2685
S':'
asbag48
(g69
g50
NtRp2686
(dp2687
g53
(dp2688
sg62
g2673
sg55
(lp2689
g48
(g49
g50
NtRp2690
(dp2691
g53
(dp2692
g61
I3
ssg62
g2686
sg55
(lp2693
g1120
asbasbasbag48
(g64
g50
NtRp2694
(dp2695
g53
(dp2696
sg62
g2648
sg55
(lp2697
g48
(g69
g50
NtRp2698
(dp2699
g53
(dp2700
g73
g74
ssg62
g2694
sg55
(lp2701
S'HTTP_ACCEPT_ENCODING'
p2702
asbag48
(g69
g50
NtRp2703
(dp2704
g53
(dp2705
g80
g81
ssg62
g2694
sg55
(lp2706
S':'
asbag48
(g69
g50
NtRp2707
(dp2708
g53
(dp2709
sg62
g2694
sg55
(lp2710
g48
(g49
g50
NtRp2711
(dp2712
g53
(dp2713
g61
I3
ssg62
g2707
sg55
(lp2714
g1142
asbasbasbag48
(g64
g50
NtRp2715
(dp2716
g53
(dp2717
sg62
g2648
sg55
(lp2718
g48
(g69
g50
NtRp2719
(dp2720
g53
(dp2721
g73
g74
ssg62
g2715
sg55
(lp2722
S'HTTP_ACCEPT_LANGUAGE'
p2723
asbag48
(g69
g50
NtRp2724
(dp2725
g53
(dp2726
g80
g81
ssg62
g2715
sg55
(lp2727
S':'
asbag48
(g69
g50
NtRp2728
(dp2729
g53
(dp2730
sg62
g2715
sg55
(lp2731
g48
(g49
g50
NtRp2732
(dp2733
g53
(dp2734
g61
I3
ssg62
g2728
sg55
(lp2735
g1164
asbasbasbag48
(g64
g50
NtRp2736
(dp2737
g53
(dp2738
sg62
g2648
sg55
(lp2739
g48
(g69
g50
NtRp2740
(dp2741
g53
(dp2742
g73
g74
ssg62
g2736
sg55
(lp2743
S'HTTP_CONNECTION'
p2744
asbag48
(g69
g50
NtRp2745
(dp2746
g53
(dp2747
g80
g81
ssg62
g2736
sg55
(lp2748
S':'
asbag48
(g69
g50
NtRp2749
(dp2750
g53
(dp2751
sg62
g2736
sg55
(lp2752
g48
(g49
g50
NtRp2753
(dp2754
g53
(dp2755
g61
I3
ssg62
g2749
sg55
(lp2756
g1186
asbasbasbag48
(g64
g50
NtRp2757
(dp2758
g53
(dp2759
sg62
g2648
sg55
(lp2760
g48
(g69
g50
NtRp2761
(dp2762
g53
(dp2763
g73
g74
ssg62
g2757
sg55
(lp2764
S'HTTP_COOKIE'
p2765
asbag48
(g69
g50
NtRp2766
(dp2767
g53
(dp2768
g80
g81
ssg62
g2757
sg55
(lp2769
S':'
asbag48
(g69
g50
NtRp2770
(dp2771
g53
(dp2772
sg62
g2757
sg55
(lp2773
g48
(g49
g50
NtRp2774
(dp2775
g53
(dp2776
g61
I3
ssg62
g2770
sg55
(lp2777
g1208
asbasbasbag48
(g64
g50
NtRp2778
(dp2779
g53
(dp2780
sg62
g2648
sg55
(lp2781
g48
(g69
g50
NtRp2782
(dp2783
g53
(dp2784
g73
g74
ssg62
g2778
sg55
(lp2785
S'HTTP_HOST'
p2786
asbag48
(g69
g50
NtRp2787
(dp2788
g53
(dp2789
g80
g81
ssg62
g2778
sg55
(lp2790
S':'
asbag48
(g69
g50
NtRp2791
(dp2792
g53
(dp2793
sg62
g2778
sg55
(lp2794
g48
(g49
g50
NtRp2795
(dp2796
g53
(dp2797
g61
I3
ssg62
g2791
sg55
(lp2798
g1230
asbasbasbag48
(g64
g50
NtRp2799
(dp2800
g53
(dp2801
sg62
g2648
sg55
(lp2802
g48
(g69
g50
NtRp2803
(dp2804
g53
(dp2805
g73
g74
ssg62
g2799
sg55
(lp2806
S'HTTP_USER_AGENT'
p2807
asbag48
(g69
g50
NtRp2808
(dp2809
g53
(dp2810
g80
g81
ssg62
g2799
sg55
(lp2811
S':'
asbag48
(g69
g50
NtRp2812
(dp2813
g53
(dp2814
sg62
g2799
sg55
(lp2815
g48
(g49
g50
NtRp2816
(dp2817
g53
(dp2818
g61
I3
ssg62
g2812
sg55
(lp2819
g1252
asbasbasbag48
(g64
g50
NtRp2820
(dp2821
g53
(dp2822
sg62
g2648
sg55
(lp2823
g48
(g69
g50
NtRp2824
(dp2825
g53
(dp2826
g73
g74
ssg62
g2820
sg55
(lp2827
S'PATH_INFO'
p2828
asbag48
(g69
g50
NtRp2829
(dp2830
g53
(dp2831
g80
g81
ssg62
g2820
sg55
(lp2832
S':'
asbag48
(g69
g50
NtRp2833
(dp2834
g53
(dp2835
sg62
g2820
sg55
(lp2836
g48
(g49
g50
NtRp2837
(dp2838
g53
(dp2839
g61
I3
ssg62
g2833
sg55
(lp2840
g1295
asbasbasbag48
(g64
g50
NtRp2841
(dp2842
g53
(dp2843
sg62
g2648
sg55
(lp2844
g48
(g69
g50
NtRp2845
(dp2846
g53
(dp2847
g73
g74
ssg62
g2841
sg55
(lp2848
S'QUERY_STRING'
p2849
asbag48
(g69
g50
NtRp2850
(dp2851
g53
(dp2852
g80
g81
ssg62
g2841
sg55
(lp2853
S':'
asbag48
(g69
g50
NtRp2854
(dp2855
g53
(dp2856
sg62
g2841
sg55
(lp2857
g48
(g49
g50
NtRp2858
(dp2859
g53
(dp2860
g61
I3
ssg62
g2854
sg55
(lp2861
g1317
asbasbasbag48
(g64
g50
NtRp2862
(dp2863
g53
(dp2864
sg62
g2648
sg55
(lp2865
g48
(g69
g50
NtRp2866
(dp2867
g53
(dp2868
g73
g74
ssg62
g2862
sg55
(lp2869
S'REMOTE_ADDR'
p2870
asbag48
(g69
g50
NtRp2871
(dp2872
g53
(dp2873
g80
g81
ssg62
g2862
sg55
(lp2874
S':'
asbag48
(g69
g50
NtRp2875
(dp2876
g53
(dp2877
sg62
g2862
sg55
(lp2878
g48
(g49
g50
NtRp2879
(dp2880
g53
(dp2881
g61
I3
ssg62
g2875
sg55
(lp2882
g181
asbasbasbag48
(g64
g50
NtRp2883
(dp2884
g53
(dp2885
sg62
g2648
sg55
(lp2886
g48
(g69
g50
NtRp2887
(dp2888
g53
(dp2889
g73
g74
ssg62
g2883
sg55
(lp2890
S'REMOTE_PORT'
p2891
asbag48
(g69
g50
NtRp2892
(dp2893
g53
(dp2894
g80
g81
ssg62
g2883
sg55
(lp2895
S':'
asbag48
(g69
g50
NtRp2896
(dp2897
g53
(dp2898
sg62
g2883
sg55
(lp2899
g48
(g49
g50
NtRp2900
(dp2901
g53
(dp2902
g61
I3
ssg62
g2896
sg55
(lp2903
g1360
asbasbasbag48
(g64
g50
NtRp2904
(dp2905
g53
(dp2906
sg62
g2648
sg55
(lp2907
g48
(g69
g50
NtRp2908
(dp2909
g53
(dp2910
g73
g74
ssg62
g2904
sg55
(lp2911
S'REQUEST_METHOD'
p2912
asbag48
(g69
g50
NtRp2913
(dp2914
g53
(dp2915
g80
g81
ssg62
g2904
sg55
(lp2916
S':'
asbag48
(g69
g50
NtRp2917
(dp2918
g53
(dp2919
sg62
g2904
sg55
(lp2920
g48
(g49
g50
NtRp2921
(dp2922
g53
(dp2923
g61
I3
ssg62
g2917
sg55
(lp2924
g1382
asbasbasbag48
(g64
g50
NtRp2925
(dp2926
g53
(dp2927
sg62
g2648
sg55
(lp2928
g48
(g69
g50
NtRp2929
(dp2930
g53
(dp2931
g73
g74
ssg62
g2925
sg55
(lp2932
S'REQUEST_URI'
p2933
asbag48
(g69
g50
NtRp2934
(dp2935
g53
(dp2936
g80
g81
ssg62
g2925
sg55
(lp2937
S':'
asbag48
(g69
g50
NtRp2938
(dp2939
g53
(dp2940
sg62
g2925
sg55
(lp2941
g48
(g49
g50
NtRp2942
(dp2943
g53
(dp2944
g61
I3
ssg62
g2938
sg55
(lp2945
g1404
asbasbasbag48
(g64
g50
NtRp2946
(dp2947
g53
(dp2948
sg62
g2648
sg55
(lp2949
g48
(g69
g50
NtRp2950
(dp2951
g53
(dp2952
g73
g74
ssg62
g2946
sg55
(lp2953
S'SCRIPT_NAME'
p2954
asbag48
(g69
g50
NtRp2955
(dp2956
g53
(dp2957
g80
g81
ssg62
g2946
sg55
(lp2958
S':'
asbag48
(g69
g50
NtRp2959
(dp2960
g53
(dp2961
sg62
g2946
sg55
(lp2962
g48
(g49
g50
NtRp2963
(dp2964
g53
(dp2965
g61
I3
ssg62
g2959
sg55
(lp2966
S''
asbasbasbag48
(g64
g50
NtRp2967
(dp2968
g53
(dp2969
sg62
g2648
sg55
(lp2970
g48
(g69
g50
NtRp2971
(dp2972
g53
(dp2973
g73
g74
ssg62
g2967
sg55
(lp2974
S'SERVER_NAME'
p2975
asbag48
(g69
g50
NtRp2976
(dp2977
g53
(dp2978
g80
g81
ssg62
g2967
sg55
(lp2979
S':'
asbag48
(g69
g50
NtRp2980
(dp2981
g53
(dp2982
sg62
g2967
sg55
(lp2983
g48
(g49
g50
NtRp2984
(dp2985
g53
(dp2986
g61
I3
ssg62
g2980
sg55
(lp2987
g1447
asbasbasbag48
(g64
g50
NtRp2988
(dp2989
g53
(dp2990
sg62
g2648
sg55
(lp2991
g48
(g69
g50
NtRp2992
(dp2993
g53
(dp2994
g73
g74
ssg62
g2988
sg55
(lp2995
S'SERVER_PORT'
p2996
asbag48
(g69
g50
NtRp2997
(dp2998
g53
(dp2999
g80
g81
ssg62
g2988
sg55
(lp3000
S':'
asbag48
(g69
g50
NtRp3001
(dp3002
g53
(dp3003
sg62
g2988
sg55
(lp3004
g48
(g49
g50
NtRp3005
(dp3006
g53
(dp3007
g61
I3
ssg62
g3001
sg55
(lp3008
g1469
asbasbasbag48
(g64
g50
NtRp3009
(dp3010
g53
(dp3011
sg62
g2648
sg55
(lp3012
g48
(g69
g50
NtRp3013
(dp3014
g53
(dp3015
g73
g74
ssg62
g3009
sg55
(lp3016
S'SERVER_PROTOCOL'
p3017
asbag48
(g69
g50
NtRp3018
(dp3019
g53
(dp3020
g80
g81
ssg62
g3009
sg55
(lp3021
S':'
asbag48
(g69
g50
NtRp3022
(dp3023
g53
(dp3024
sg62
g3009
sg55
(lp3025
g48
(g49
g50
NtRp3026
(dp3027
g53
(dp3028
g61
I3
ssg62
g3022
sg55
(lp3029
g1491
asbasbasbag48
(g64
g50
NtRp3030
(dp3031
g53
(dp3032
sg62
g2648
sg55
(lp3033
g48
(g69
g50
NtRp3034
(dp3035
g53
(dp3036
g73
g74
ssg62
g3030
sg55
(lp3037
S'SERVER_SOFTWARE'
p3038
asbag48
(g69
g50
NtRp3039
(dp3040
g53
(dp3041
g80
g81
ssg62
g3030
sg55
(lp3042
S':'
asbag48
(g69
g50
NtRp3043
(dp3044
g53
(dp3045
sg62
g3030
sg55
(lp3046
g48
(g49
g50
NtRp3047
(dp3048
g53
(dp3049
g61
I3
ssg62
g3043
sg55
(lp3050
g1513
asbasbasbag48
(g64
g50
NtRp3051
(dp3052
g53
(dp3053
sg62
g2648
sg55
(lp3054
g48
(g69
g50
NtRp3055
(dp3056
g53
(dp3057
g73
g74
ssg62
g3051
sg55
(lp3058
S'WEB2PY_ORIGINAL_URI'
p3059
asbag48
(g69
g50
NtRp3060
(dp3061
g53
(dp3062
g80
g81
ssg62
g3051
sg55
(lp3063
S':'
asbag48
(g69
g50
NtRp3064
(dp3065
g53
(dp3066
sg62
g3051
sg55
(lp3067
g48
(g49
g50
NtRp3068
(dp3069
g53
(dp3070
g61
I3
ssg62
g3064
sg55
(lp3071
g1557
asbasbasbag48
(g64
g50
NtRp3072
(dp3073
g53
(dp3074
sg62
g2648
sg55
(lp3075
g48
(g69
g50
NtRp3076
(dp3077
g53
(dp3078
g73
g74
ssg62
g3072
sg55
(lp3079
S'wsgi.errors'
p3080
asbag48
(g69
g50
NtRp3081
(dp3082
g53
(dp3083
g80
g81
ssg62
g3072
sg55
(lp3084
S':'
asbag48
(g69
g50
NtRp3085
(dp3086
g53
(dp3087
sg62
g3072
sg55
(lp3088
g48
(g49
g50
NtRp3089
(dp3090
g53
(dp3091
g61
I3
ssg62
g3085
sg55
(lp3092
S"<open file '<stderr>', mode 'w' at 0x01D300B0>"
p3093
asbasbasbag48
(g64
g50
NtRp3094
(dp3095
g53
(dp3096
sg62
g2648
sg55
(lp3097
g48
(g69
g50
NtRp3098
(dp3099
g53
(dp3100
g73
g74
ssg62
g3094
sg55
(lp3101
S'wsgi.file_wrapper'
p3102
asbag48
(g69
g50
NtRp3103
(dp3104
g53
(dp3105
g80
g81
ssg62
g3094
sg55
(lp3106
S':'
asbag48
(g69
g50
NtRp3107
(dp3108
g53
(dp3109
sg62
g3094
sg55
(lp3110
g48
(g49
g50
NtRp3111
(dp3112
g53
(dp3113
g61
I3
ssg62
g3107
sg55
(lp3114
S'<class wsgiref.util.FileWrapper at 0x0318A600>'
p3115
asbasbasbag48
(g64
g50
NtRp3116
(dp3117
g53
(dp3118
sg62
g2648
sg55
(lp3119
g48
(g69
g50
NtRp3120
(dp3121
g53
(dp3122
g73
g74
ssg62
g3116
sg55
(lp3123
S'wsgi.input'
p3124
asbag48
(g69
g50
NtRp3125
(dp3126
g53
(dp3127
g80
g81
ssg62
g3116
sg55
(lp3128
S':'
asbag48
(g69
g50
NtRp3129
(dp3130
g53
(dp3131
sg62
g3116
sg55
(lp3132
g48
(g49
g50
NtRp3133
(dp3134
g53
(dp3135
g61
I3
ssg62
g3129
sg55
(lp3136
S'<cStringIO.StringO object at 0x035E7F80>'
p3137
asbasbasbag48
(g64
g50
NtRp3138
(dp3139
g53
(dp3140
sg62
g2648
sg55
(lp3141
g48
(g69
g50
NtRp3142
(dp3143
g53
(dp3144
g73
g74
ssg62
g3138
sg55
(lp3145
S'wsgi.multiprocess'
p3146
asbag48
(g69
g50
NtRp3147
(dp3148
g53
(dp3149
g80
g81
ssg62
g3138
sg55
(lp3150
S':'
asbag48
(g69
g50
NtRp3151
(dp3152
g53
(dp3153
sg62
g3138
sg55
(lp3154
g48
(g49
g50
NtRp3155
(dp3156
g53
(dp3157
g61
I3
ssg62
g3151
sg55
(lp3158
g91
asbasbasbag48
(g64
g50
NtRp3159
(dp3160
g53
(dp3161
sg62
g2648
sg55
(lp3162
g48
(g69
g50
NtRp3163
(dp3164
g53
(dp3165
g73
g74
ssg62
g3159
sg55
(lp3166
S'wsgi.multithread'
p3167
asbag48
(g69
g50
NtRp3168
(dp3169
g53
(dp3170
g80
g81
ssg62
g3159
sg55
(lp3171
S':'
asbag48
(g69
g50
NtRp3172
(dp3173
g53
(dp3174
sg62
g3159
sg55
(lp3175
g48
(g49
g50
NtRp3176
(dp3177
g53
(dp3178
g61
I3
ssg62
g3172
sg55
(lp3179
g1775
asbasbasbag48
(g64
g50
NtRp3180
(dp3181
g53
(dp3182
sg62
g2648
sg55
(lp3183
g48
(g69
g50
NtRp3184
(dp3185
g53
(dp3186
g73
g74
ssg62
g3180
sg55
(lp3187
S'wsgi.run_once'
p3188
asbag48
(g69
g50
NtRp3189
(dp3190
g53
(dp3191
g80
g81
ssg62
g3180
sg55
(lp3192
S':'
asbag48
(g69
g50
NtRp3193
(dp3194
g53
(dp3195
sg62
g3180
sg55
(lp3196
g48
(g49
g50
NtRp3197
(dp3198
g53
(dp3199
g61
I3
ssg62
g3193
sg55
(lp3200
g91
asbasbasbag48
(g64
g50
NtRp3201
(dp3202
g53
(dp3203
sg62
g2648
sg55
(lp3204
g48
(g69
g50
NtRp3205
(dp3206
g53
(dp3207
g73
g74
ssg62
g3201
sg55
(lp3208
S'wsgi.url_scheme'
p3209
asbag48
(g69
g50
NtRp3210
(dp3211
g53
(dp3212
g80
g81
ssg62
g3201
sg55
(lp3213
S':'
asbag48
(g69
g50
NtRp3214
(dp3215
g53
(dp3216
sg62
g3201
sg55
(lp3217
g48
(g49
g50
NtRp3218
(dp3219
g53
(dp3220
g61
I3
ssg62
g3214
sg55
(lp3221
g1818
asbasbasbag48
(g64
g50
NtRp3222
(dp3223
g53
(dp3224
sg62
g2648
sg55
(lp3225
g48
(g69
g50
NtRp3226
(dp3227
g53
(dp3228
g73
g74
ssg62
g3222
sg55
(lp3229
S'wsgi.version'
p3230
asbag48
(g69
g50
NtRp3231
(dp3232
g53
(dp3233
g80
g81
ssg62
g3222
sg55
(lp3234
S':'
asbag48
(g69
g50
NtRp3235
(dp3236
g53
(dp3237
sg62
g3222
sg55
(lp3238
g48
(g49
g50
NtRp3239
(dp3240
g53
(dp3241
g61
I3
ssg62
g3235
sg55
(lp3242
S'1'
asbasbasbasbasbasbasbasbasbasbasbasbasbsS'frames'
p3243
(lp3244
(dp3245
S'file'
p3246
S'D:\\git_projs\\Gabblista\\web2py\\web2py\\gluon\\restricted.py'
p3247
sS'dump'
p3248
(dp3249
S'environment'
p3250
S"{'A': <class 'gluon.html.A'>, 'Auth': <class 'gluon.tools.Auth'>, 'B': <class 'gluon.html.B'>, 'BEAUTIFY': <class 'gluon.html.BEAUTIFY'>, 'BODY': <class 'gluon.html.BODY'>, 'BR': <class 'gluon.html.BR'>, 'BUTTON': <class 'gluon.html.BUTTON'>, 'CAT': <class 'gluon.html.CAT'>, 'CENTER': <class 'gluon.html.CENTER'>, 'CLEANUP': <class 'gluon.validators.CLEANUP'>, ...}"
p3251
sS'ccode'
p3252
S'<code object <module> at 03673698, file "D:\\git_...plications\\Gabb1\\controllers/fb_serv.py", line 2>'
p3253
ssS'lnum'
p3254
I194
sS'lines'
p3255
(dp3256
I192
S'        else:'
p3257
sI193
S'            ccode = compile2(code,layer)'
p3258
sI194
S'        exec ccode in environment'
p3259
sI195
S'    except HTTP:'
p3260
sI196
S'        raise'
p3261
sI197
S'    except Exception, error:'
p3262
sI198
S'        # XXX Show exception in Wing IDE if running in debugger'
p3263
sI189
S'    try:'
p3264
sI190
S'        if type(code) == types.CodeType:'
p3265
sI191
S'            ccode = code'
p3266
ssS'call'
p3267
S"(code='# -*- coding: utf-8 -*-\\nfrom random import Rando...sponse._vars=response._caller(serve_player_data)\\n', environment={'A': <class 'gluon.html.A'>, 'Auth': <class 'gluon.tools.Auth'>, 'B': <class 'gluon.html.B'>, 'BEAUTIFY': <class 'gluon.html.BEAUTIFY'>, 'BODY': <class 'gluon.html.BODY'>, 'BR': <class 'gluon.html.BR'>, 'BUTTON': <class 'gluon.html.BUTTON'>, 'CAT': <class 'gluon.html.CAT'>, 'CENTER': <class 'gluon.html.CENTER'>, 'CLEANUP': <class 'gluon.validators.CLEANUP'>, ...}, layer=r'D:\\git_projs\\Gabblista\\web2py\\web2py\\applications\\Gabb1\\controllers/fb_serv.py')"
p3268
sS'func'
p3269
S'restricted'
p3270
sa(dp3271
g3246
S'D:\\git_projs\\Gabblista\\web2py\\web2py\\applications\\Gabb1\\controllers\\fb_serv.py'
p3272
sg3248
(dp3273
sg3254
I116
sg3255
(dp3274
I106
S'    # 1 - 3x - 30%'
p3275
sI107
S'    # 2 - 4x - 10%'
p3276
sI108
S'    rand_int = random.randint(0,10)'
p3277
sI109
S''
sI110
S'    if rand_int < 6:'
p3278
sI111
S'        return "0"'
p3279
sI112
S'    elif rand_int <9:'
p3280
sI113
S'        return "1"'
p3281
sI114
S'    else:'
p3282
sI115
S'        return "2"'
p3283
ssg3267
S'()'
p3284
sg3269
S'<module>'
p3285
sa(dp3286
g3246
S'D:\\git_projs\\Gabblista\\web2py\\web2py\\gluon\\globals.py'
p3287
sg3248
(dp3288
S'self'
p3289
S'undefined'
p3290
sS'f'
S'<function serve_player_data at 0x034EF0F0>'
p3291
ssg3254
I149
sg3255
(dp3292
I144
S'        self.meta = Storage()      # used by web2py_ajax.html'
p3293
sI145
S'        self.menu = []             # used by the default view layout'
p3294
sI146
S'        self.files = []            # used by web2py_ajax.html'
p3295
sI147
S'        self.generic_patterns = [] # patterns to allow generic views'
p3296
sI148
S'        self._vars = None'
p3297
sI149
S'        self._caller = lambda f: f()'
p3298
sI150
S'        self._view_environment = None'
p3299
sI151
S'        self._custom_commit = None'
p3300
sI152
S'        self._custom_rollback = None'
p3301
sI153
S''
ssg3267
S'(f=<function serve_player_data at 0x034EF0F0>)'
p3302
sg3269
S'<lambda>'
p3303
sa(dp3304
g3246
S'D:\\git_projs\\Gabblista\\web2py\\web2py\\applications\\Gabb1\\controllers\\fb_serv.py'
p3305
sg3248
(dp3306
S'js_1'
p3307
g3290
ssg3254
I18
sg3255
(dp3308
I13
S''
sI14
S'    player_ID = request.vars.player_ID'
p3309
sI15
S'    opponent_ID = request.vars.opponent_ID'
p3310
sI16
S'    game_ID = request.vars.game_ID'
p3311
sI17
S''
sI18
S'    game_data_row = get_player_data(player_ID,opponent_ID,game_ID);'
p3312
sI19
S'    return dict(game_data_row=game_data_row)'
p3313
sI20
S''
sI21
S'def get_player_data(player_ID,opponent_ID,game_ID):'
p3314
sI22
S''
ssg3267
S'()'
p3315
sg3269
S'serve_player_data'
p3316
sa(dp3317
g3246
S'D:\\git_projs\\Gabblista\\web2py\\web2py\\applications\\Gabb1\\controllers\\fb_serv.py'
p3318
sg3248
(dp3319
S'js_3'
p3320
g3290
ssg3254
I25
sg3255
(dp3321
I20
S''
sI21
S'def get_player_data(player_ID,opponent_ID,game_ID):'
p3322
sI22
S''
sI23
S'    # Generate the player data'
p3323
sI24
S'    if(int(game_ID)==0):'
p3324
sI25
S'        letter_data = generate_new_letter_data()'
p3325
sI26
S'        event_data = generate_new_event_data()'
p3326
sI27
S'#        db.game_data_table.insert(player_1_ID = int(player_ID),'
p3327
sI28
S'#                                  player_2_ID = int(opponent_ID),'
p3328
sI29
S'#                                  event_string = str(event_data),'
p3329
ssg3267
S"(player_ID='0', opponent_ID='1', game_ID='0')"
p3330
sg3269
S'get_player_data'
p3331
sa(dp3332
g3246
S'D:\\git_projs\\Gabblista\\web2py\\web2py\\applications\\Gabb1\\controllers\\fb_serv.py'
p3333
sg3248
(dp3334
sg3254
I44
sg3255
(dp3335
I39
S'    return game_data'
p3336
sI40
S''
sI41
S'def generate_new_letter_data():'
p3337
sI42
S''
sI43
S'    NUM_LETTERS = 12'
p3338
sI44
S'    letter_string = get_random_letters(NUM_LETTERS)'
p3339
sI45
S'    return letter_string'
p3340
sI46
S''
sI47
S'def generate_new_event_data():'
p3341
sI48
S'    # Go through and generate game data'
p3342
ssg3267
S'()'
p3343
sg3269
S'generate_new_letter_data'
p3344
sa(dp3345
g3246
S'D:\\git_projs\\Gabblista\\web2py\\web2py\\applications\\Gabb1\\controllers\\fb_serv.py'
p3346
sg3248
(dp3347
sg3254
I90
sg3255
(dp3348
I85
S'    # Z- 90'
p3349
sI86
S''
sI87
S'    A = 65'
p3350
sI88
S'    Z = 90'
p3351
sI89
S''
sI90
S'    while len(rand_letter_string) < len_req:'
p3352
sI91
S'        rand_int = random.randint(A,Z)'
p3353
sI92
S'        rand_letter_string+= chr(rand_int)'
p3354
sI93
S''
sI94
S'    return rand_letter_string'
p3355
ssg3267
S'(len_req=12)'
p3356
sg3269
S'get_random_letters'
p3357
sasS'pyver'
p3358
S'Python 2.5.4: C:\\python25\\python.exe'
p3359
sS'session'
p3360
g48
(g49
g50
NtRp3361
(dp3362
g53
(dp3363
sg55
(lp3364
g48
(g57
g50
NtRp3365
(dp3366
g53
(dp3367
g61
I5
ssg62
Nsg55
(lp3368
sbasbsS'etype'
p3369
S"<type 'exceptions.UnboundLocalError'>"
p3370
sS'date'
p3371
S'Thu Jan 19 14:48:49 2012'
p3372
sS'response'
p3373
g48
(g49
g50
NtRp3374
(dp3375
g53
(dp3376
sg55
(lp3377
g48
(g57
g50
NtRp3378
(dp3379
g53
(dp3380
g61
I5
ssg62
Nsg55
(lp3381
g48
(g64
g50
NtRp3382
(dp3383
g53
(dp3384
sg62
g3378
sg55
(lp3385
g48
(g69
g50
NtRp3386
(dp3387
g53
(dp3388
g73
g74
ssg62
g3382
sg55
(lp3389
g146
asbag48
(g69
g50
NtRp3390
(dp3391
g53
(dp3392
g80
g81
ssg62
g3382
sg55
(lp3393
S':'
asbag48
(g69
g50
NtRp3394
(dp3395
g53
(dp3396
sg62
g3382
sg55
(lp3397
g48
(g49
g50
NtRp3398
(dp3399
g53
(dp3400
g61
I5
ssg62
g3394
sg55
(lp3401
S'<cStringIO.StringO object at 0x035E7AC0>'
p3402
asbasbasbag48
(g64
g50
NtRp3403
(dp3404
g53
(dp3405
sg62
g3378
sg55
(lp3406
g48
(g69
g50
NtRp3407
(dp3408
g53
(dp3409
g73
g74
ssg62
g3403
sg55
(lp3410
g212
asbag48
(g69
g50
NtRp3411
(dp3412
g53
(dp3413
g80
g81
ssg62
g3403
sg55
(lp3414
S':'
asbag48
(g69
g50
NtRp3415
(dp3416
g53
(dp3417
sg62
g3403
sg55
(lp3418
g48
(g49
g50
NtRp3419
(dp3420
g53
(dp3421
g61
I5
ssg62
g3415
sg55
(lp3422
g48
(g57
g50
NtRp3423
(dp3424
g53
(dp3425
g61
I4
ssg62
Nsg55
(lp3426
g48
(g64
g50
NtRp3427
(dp3428
g53
(dp3429
sg62
g3423
sg55
(lp3430
g48
(g69
g50
NtRp3431
(dp3432
g53
(dp3433
g73
g74
ssg62
g3427
sg55
(lp3434
S'session_id_gabb1'
p3435
asbag48
(g69
g50
NtRp3436
(dp3437
g53
(dp3438
g80
g81
ssg62
g3427
sg55
(lp3439
S':'
asbag48
(g69
g50
NtRp3440
(dp3441
g53
(dp3442
sg62
g3427
sg55
(lp3443
g48
(g49
g50
NtRp3444
(dp3445
g53
(dp3446
g61
I4
ssg62
g3440
sg55
(lp3447
g48
(g57
g50
NtRp3448
(dp3449
g53
(dp3450
g61
I3
ssg62
Nsg55
(lp3451
g48
(g64
g50
NtRp3452
(dp3453
g53
(dp3454
sg62
g3448
sg55
(lp3455
g48
(g69
g50
NtRp3456
(dp3457
g53
(dp3458
g73
g74
ssg62
g3452
sg55
(lp3459
g262
asbag48
(g69
g50
NtRp3460
(dp3461
g53
(dp3462
g80
g81
ssg62
g3452
sg55
(lp3463
S':'
asbag48
(g69
g50
NtRp3464
(dp3465
g53
(dp3466
sg62
g3452
sg55
(lp3467
g48
(g49
g50
NtRp3468
(dp3469
g53
(dp3470
g61
I3
ssg62
g3464
sg55
(lp3471
S''
asbasbasbag48
(g64
g50
NtRp3472
(dp3473
g53
(dp3474
sg62
g3448
sg55
(lp3475
g48
(g69
g50
NtRp3476
(dp3477
g53
(dp3478
g73
g74
ssg62
g3472
sg55
(lp3479
g283
asbag48
(g69
g50
NtRp3480
(dp3481
g53
(dp3482
g80
g81
ssg62
g3472
sg55
(lp3483
S':'
asbag48
(g69
g50
NtRp3484
(dp3485
g53
(dp3486
sg62
g3472
sg55
(lp3487
g48
(g49
g50
NtRp3488
(dp3489
g53
(dp3490
g61
I3
ssg62
g3484
sg55
(lp3491
S''
asbasbasbag48
(g64
g50
NtRp3492
(dp3493
g53
(dp3494
sg62
g3448
sg55
(lp3495
g48
(g69
g50
NtRp3496
(dp3497
g53
(dp3498
g73
g74
ssg62
g3492
sg55
(lp3499
g304
asbag48
(g69
g50
NtRp3500
(dp3501
g53
(dp3502
g80
g81
ssg62
g3492
sg55
(lp3503
S':'
asbag48
(g69
g50
NtRp3504
(dp3505
g53
(dp3506
sg62
g3492
sg55
(lp3507
g48
(g49
g50
NtRp3508
(dp3509
g53
(dp3510
g61
I3
ssg62
g3504
sg55
(lp3511
S''
asbasbasbag48
(g64
g50
NtRp3512
(dp3513
g53
(dp3514
sg62
g3448
sg55
(lp3515
g48
(g69
g50
NtRp3516
(dp3517
g53
(dp3518
g73
g74
ssg62
g3512
sg55
(lp3519
g325
asbag48
(g69
g50
NtRp3520
(dp3521
g53
(dp3522
g80
g81
ssg62
g3512
sg55
(lp3523
S':'
asbag48
(g69
g50
NtRp3524
(dp3525
g53
(dp3526
sg62
g3512
sg55
(lp3527
g48
(g49
g50
NtRp3528
(dp3529
g53
(dp3530
g61
I3
ssg62
g3524
sg55
(lp3531
S''
asbasbasbag48
(g64
g50
NtRp3532
(dp3533
g53
(dp3534
sg62
g3448
sg55
(lp3535
g48
(g69
g50
NtRp3536
(dp3537
g53
(dp3538
g73
g74
ssg62
g3532
sg55
(lp3539
g346
asbag48
(g69
g50
NtRp3540
(dp3541
g53
(dp3542
g80
g81
ssg62
g3532
sg55
(lp3543
S':'
asbag48
(g69
g50
NtRp3544
(dp3545
g53
(dp3546
sg62
g3532
sg55
(lp3547
g48
(g49
g50
NtRp3548
(dp3549
g53
(dp3550
g61
I3
ssg62
g3544
sg55
(lp3551
S'/'
asbasbasbag48
(g64
g50
NtRp3552
(dp3553
g53
(dp3554
sg62
g3448
sg55
(lp3555
g48
(g69
g50
NtRp3556
(dp3557
g53
(dp3558
g73
g74
ssg62
g3552
sg55
(lp3559
g367
asbag48
(g69
g50
NtRp3560
(dp3561
g53
(dp3562
g80
g81
ssg62
g3552
sg55
(lp3563
S':'
asbag48
(g69
g50
NtRp3564
(dp3565
g53
(dp3566
sg62
g3552
sg55
(lp3567
g48
(g49
g50
NtRp3568
(dp3569
g53
(dp3570
g61
I3
ssg62
g3564
sg55
(lp3571
S''
asbasbasbag48
(g64
g50
NtRp3572
(dp3573
g53
(dp3574
sg62
g3448
sg55
(lp3575
g48
(g69
g50
NtRp3576
(dp3577
g53
(dp3578
g73
g74
ssg62
g3572
sg55
(lp3579
g388
asbag48
(g69
g50
NtRp3580
(dp3581
g53
(dp3582
g80
g81
ssg62
g3572
sg55
(lp3583
S':'
asbag48
(g69
g50
NtRp3584
(dp3585
g53
(dp3586
sg62
g3572
sg55
(lp3587
g48
(g49
g50
NtRp3588
(dp3589
g53
(dp3590
g61
I3
ssg62
g3584
sg55
(lp3591
S''
asbasbasbasbasbasbasbasbasbasbasbag48
(g64
g50
NtRp3592
(dp3593
g53
(dp3594
sg62
g3378
sg55
(lp3595
g48
(g69
g50
NtRp3596
(dp3597
g53
(dp3598
g73
g74
ssg62
g3592
sg55
(lp3599
S'files'
p3600
asbag48
(g69
g50
NtRp3601
(dp3602
g53
(dp3603
g80
g81
ssg62
g3592
sg55
(lp3604
S':'
asbag48
(g69
g50
NtRp3605
(dp3606
g53
(dp3607
sg62
g3592
sg55
(lp3608
g48
(g49
g50
NtRp3609
(dp3610
g53
(dp3611
g61
I5
ssg62
g3605
sg55
(lp3612
g48
(g57
g50
NtRp3613
(dp3614
g53
(dp3615
g61
I4
ssg62
Nsg55
(lp3616
sbasbasbasbag48
(g64
g50
NtRp3617
(dp3618
g53
(dp3619
sg62
g3378
sg55
(lp3620
g48
(g69
g50
NtRp3621
(dp3622
g53
(dp3623
g73
g74
ssg62
g3617
sg55
(lp3624
S'flash'
p3625
asbag48
(g69
g50
NtRp3626
(dp3627
g53
(dp3628
g80
g81
ssg62
g3617
sg55
(lp3629
S':'
asbag48
(g69
g50
NtRp3630
(dp3631
g53
(dp3632
sg62
g3617
sg55
(lp3633
g48
(g49
g50
NtRp3634
(dp3635
g53
(dp3636
g61
I5
ssg62
g3630
sg55
(lp3637
S''
asbasbasbag48
(g64
g50
NtRp3638
(dp3639
g53
(dp3640
sg62
g3378
sg55
(lp3641
g48
(g69
g50
NtRp3642
(dp3643
g53
(dp3644
g73
g74
ssg62
g3638
sg55
(lp3645
S'generic_patterns'
p3646
asbag48
(g69
g50
NtRp3647
(dp3648
g53
(dp3649
g80
g81
ssg62
g3638
sg55
(lp3650
S':'
asbag48
(g69
g50
NtRp3651
(dp3652
g53
(dp3653
sg62
g3638
sg55
(lp3654
g48
(g49
g50
NtRp3655
(dp3656
g53
(dp3657
g61
I5
ssg62
g3651
sg55
(lp3658
g48
(g57
g50
NtRp3659
(dp3660
g53
(dp3661
g61
I4
ssg62
Nsg55
(lp3662
g48
(g64
g50
NtRp3663
(dp3664
g53
(dp3665
sg62
g3659
sg55
(lp3666
g48
(g69
g50
NtRp3667
(dp3668
g53
(dp3669
sg62
g3663
sg55
(lp3670
g48
(g49
g50
NtRp3671
(dp3672
g53
(dp3673
g61
I4
ssg62
g3667
sg55
(lp3674
S'*'
asbasbasbasbasbasbasbag48
(g64
g50
NtRp3675
(dp3676
g53
(dp3677
sg62
g3378
sg55
(lp3678
g48
(g69
g50
NtRp3679
(dp3680
g53
(dp3681
g73
g74
ssg62
g3675
sg55
(lp3682
S'headers'
p3683
asbag48
(g69
g50
NtRp3684
(dp3685
g53
(dp3686
g80
g81
ssg62
g3675
sg55
(lp3687
S':'
asbag48
(g69
g50
NtRp3688
(dp3689
g53
(dp3690
sg62
g3675
sg55
(lp3691
g48
(g49
g50
NtRp3692
(dp3693
g53
(dp3694
g61
I5
ssg62
g3688
sg55
(lp3695
g48
(g57
g50
NtRp3696
(dp3697
g53
(dp3698
g61
I4
ssg62
Nsg55
(lp3699
g48
(g64
g50
NtRp3700
(dp3701
g53
(dp3702
sg62
g3696
sg55
(lp3703
g48
(g69
g50
NtRp3704
(dp3705
g53
(dp3706
g73
g74
ssg62
g3700
sg55
(lp3707
S'Cache-Control'
p3708
asbag48
(g69
g50
NtRp3709
(dp3710
g53
(dp3711
g80
g81
ssg62
g3700
sg55
(lp3712
S':'
asbag48
(g69
g50
NtRp3713
(dp3714
g53
(dp3715
sg62
g3700
sg55
(lp3716
g48
(g49
g50
NtRp3717
(dp3718
g53
(dp3719
g61
I4
ssg62
g3713
sg55
(lp3720
S'no-store, no-cache, must-revalidate, post-check=0, pre-check=0'
p3721
asbasbasbag48
(g64
g50
NtRp3722
(dp3723
g53
(dp3724
sg62
g3696
sg55
(lp3725
g48
(g69
g50
NtRp3726
(dp3727
g53
(dp3728
g73
g74
ssg62
g3722
sg55
(lp3729
S'Content-Type'
p3730
asbag48
(g69
g50
NtRp3731
(dp3732
g53
(dp3733
g80
g81
ssg62
g3722
sg55
(lp3734
S':'
asbag48
(g69
g50
NtRp3735
(dp3736
g53
(dp3737
sg62
g3722
sg55
(lp3738
g48
(g49
g50
NtRp3739
(dp3740
g53
(dp3741
g61
I4
ssg62
g3735
sg55
(lp3742
S'text/plain; charset=utf-8'
p3743
asbasbasbag48
(g64
g50
NtRp3744
(dp3745
g53
(dp3746
sg62
g3696
sg55
(lp3747
g48
(g69
g50
NtRp3748
(dp3749
g53
(dp3750
g73
g74
ssg62
g3744
sg55
(lp3751
S'Expires'
p3752
asbag48
(g69
g50
NtRp3753
(dp3754
g53
(dp3755
g80
g81
ssg62
g3744
sg55
(lp3756
S':'
asbag48
(g69
g50
NtRp3757
(dp3758
g53
(dp3759
sg62
g3744
sg55
(lp3760
g48
(g49
g50
NtRp3761
(dp3762
g53
(dp3763
g61
I4
ssg62
g3757
sg55
(lp3764
S'Thu, 19 Jan 2012 19:48:49 GMT'
p3765
asbasbasbag48
(g64
g50
NtRp3766
(dp3767
g53
(dp3768
sg62
g3696
sg55
(lp3769
g48
(g69
g50
NtRp3770
(dp3771
g53
(dp3772
g73
g74
ssg62
g3766
sg55
(lp3773
S'NingNang'
p3774
asbag48
(g69
g50
NtRp3775
(dp3776
g53
(dp3777
g80
g81
ssg62
g3766
sg55
(lp3778
S':'
asbag48
(g69
g50
NtRp3779
(dp3780
g53
(dp3781
sg62
g3766
sg55
(lp3782
g48
(g49
g50
NtRp3783
(dp3784
g53
(dp3785
g61
I4
ssg62
g3779
sg55
(lp3786
S'Nong'
p3787
asbasbasbag48
(g64
g50
NtRp3788
(dp3789
g53
(dp3790
sg62
g3696
sg55
(lp3791
g48
(g69
g50
NtRp3792
(dp3793
g53
(dp3794
g73
g74
ssg62
g3788
sg55
(lp3795
S'Pragma'
p3796
asbag48
(g69
g50
NtRp3797
(dp3798
g53
(dp3799
g80
g81
ssg62
g3788
sg55
(lp3800
S':'
asbag48
(g69
g50
NtRp3801
(dp3802
g53
(dp3803
sg62
g3788
sg55
(lp3804
g48
(g49
g50
NtRp3805
(dp3806
g53
(dp3807
g61
I4
ssg62
g3801
sg55
(lp3808
S'no-cache'
p3809
asbasbasbasbasbasbasbag48
(g64
g50
NtRp3810
(dp3811
g53
(dp3812
sg62
g3378
sg55
(lp3813
g48
(g69
g50
NtRp3814
(dp3815
g53
(dp3816
g73
g74
ssg62
g3810
sg55
(lp3817
S'menu'
p3818
asbag48
(g69
g50
NtRp3819
(dp3820
g53
(dp3821
g80
g81
ssg62
g3810
sg55
(lp3822
S':'
asbag48
(g69
g50
NtRp3823
(dp3824
g53
(dp3825
sg62
g3810
sg55
(lp3826
g48
(g49
g50
NtRp3827
(dp3828
g53
(dp3829
g61
I5
ssg62
g3823
sg55
(lp3830
g48
(g57
g50
NtRp3831
(dp3832
g53
(dp3833
g61
I4
ssg62
Nsg55
(lp3834
g48
(g64
g50
NtRp3835
(dp3836
g53
(dp3837
sg62
g3831
sg55
(lp3838
g48
(g69
g50
NtRp3839
(dp3840
g53
(dp3841
sg62
g3835
sg55
(lp3842
g48
(g49
g50
NtRp3843
(dp3844
g53
(dp3845
g61
I4
ssg62
g3839
sg55
(lp3846
g48
(g57
g50
NtRp3847
(dp3848
g53
(dp3849
g61
I3
ssg62
Nsg55
(lp3850
g48
(g64
g50
NtRp3851
(dp3852
g53
(dp3853
sg62
g3847
sg55
(lp3854
g48
(g69
g50
NtRp3855
(dp3856
g53
(dp3857
sg62
g3851
sg55
(lp3858
g48
(g49
g50
NtRp3859
(dp3860
g53
(dp3861
g61
I3
ssg62
g3855
sg55
(lp3862
cgluon.languages
lazyT_unpickle
p3863
(S's\x04\x00\x00\x00Home'
tRp3864
asbasbasbag48
(g64
g50
NtRp3865
(dp3866
g53
(dp3867
sg62
g3847
sg55
(lp3868
g48
(g69
g50
NtRp3869
(dp3870
g53
(dp3871
sg62
g3865
sg55
(lp3872
g48
(g49
g50
NtRp3873
(dp3874
g53
(dp3875
g61
I3
ssg62
g3869
sg55
(lp3876
g91
asbasbasbag48
(g64
g50
NtRp3877
(dp3878
g53
(dp3879
sg62
g3847
sg55
(lp3880
g48
(g69
g50
NtRp3881
(dp3882
g53
(dp3883
sg62
g3877
sg55
(lp3884
g48
(g49
g50
NtRp3885
(dp3886
g53
(dp3887
g61
I3
ssg62
g3881
sg55
(lp3888
S'/Gabb1/default/index.txt'
p3889
asbasbasbag48
(g64
g50
NtRp3890
(dp3891
g53
(dp3892
sg62
g3847
sg55
(lp3893
g48
(g69
g50
NtRp3894
(dp3895
g53
(dp3896
sg62
g3890
sg55
(lp3897
g48
(g49
g50
NtRp3898
(dp3899
g53
(dp3900
g61
I3
ssg62
g3894
sg55
(lp3901
g48
(g57
g50
NtRp3902
(dp3903
g53
(dp3904
g61
I2
ssg62
Nsg55
(lp3905
sbasbasbasbasbasbasbasbag48
(g64
g50
NtRp3906
(dp3907
g53
(dp3908
sg62
g3831
sg55
(lp3909
g48
(g69
g50
NtRp3910
(dp3911
g53
(dp3912
sg62
g3906
sg55
(lp3913
g48
(g49
g50
NtRp3914
(dp3915
g53
(dp3916
g61
I4
ssg62
g3910
sg55
(lp3917
g48
(g57
g50
NtRp3918
(dp3919
g53
(dp3920
g61
I3
ssg62
Nsg55
(lp3921
g48
(g64
g50
NtRp3922
(dp3923
g53
(dp3924
sg62
g3918
sg55
(lp3925
g48
(g69
g50
NtRp3926
(dp3927
g53
(dp3928
sg62
g3922
sg55
(lp3929
g48
(g49
g50
NtRp3930
(dp3931
g53
(dp3932
g61
I3
ssg62
g3926
sg55
(lp3933
g3863
(S's\x08\x00\x00\x00This App'
tRp3934
asbasbasbag48
(g64
g50
NtRp3935
(dp3936
g53
(dp3937
sg62
g3918
sg55
(lp3938
g48
(g69
g50
NtRp3939
(dp3940
g53
(dp3941
sg62
g3935
sg55
(lp3942
g48
(g49
g50
NtRp3943
(dp3944
g53
(dp3945
g61
I3
ssg62
g3939
sg55
(lp3946
g91
asbasbasbag48
(g64
g50
NtRp3947
(dp3948
g53
(dp3949
sg62
g3918
sg55
(lp3950
g48
(g69
g50
NtRp3951
(dp3952
g53
(dp3953
sg62
g3947
sg55
(lp3954
g48
(g49
g50
NtRp3955
(dp3956
g53
(dp3957
g61
I3
ssg62
g3951
sg55
(lp3958
S'/admin/default/design/Gabb1.txt'
p3959
asbasbasbag48
(g64
g50
NtRp3960
(dp3961
g53
(dp3962
sg62
g3918
sg55
(lp3963
g48
(g69
g50
NtRp3964
(dp3965
g53
(dp3966
sg62
g3960
sg55
(lp3967
g48
(g49
g50
NtRp3968
(dp3969
g53
(dp3970
g61
I3
ssg62
g3964
sg55
(lp3971
g48
(g57
g50
NtRp3972
(dp3973
g53
(dp3974
g61
I2
ssg62
Nsg55
(lp3975
g48
(g64
g50
NtRp3976
(dp3977
g53
(dp3978
sg62
g3972
sg55
(lp3979
g48
(g69
g50
NtRp3980
(dp3981
g53
(dp3982
sg62
g3976
sg55
(lp3983
g48
(g49
g50
NtRp3984
(dp3985
g53
(dp3986
g61
I2
ssg62
g3980
sg55
(lp3987
g48
(g57
g50
NtRp3988
(dp3989
g53
(dp3990
g61
I1
ssg62
Nsg55
(lp3991
g48
(g64
g50
NtRp3992
(dp3993
g53
(dp3994
sg62
g3988
sg55
(lp3995
g48
(g69
g50
NtRp3996
(dp3997
g53
(dp3998
sg62
g3992
sg55
(lp3999
g48
(g49
g50
NtRp4000
(dp4001
g53
(dp4002
g61
I1
ssg62
g3996
sg55
(lp4003
g3863
(S's\n\x00\x00\x00Controller'
tRp4004
asbasbasbag48
(g64
g50
NtRp4005
(dp4006
g53
(dp4007
sg62
g3988
sg55
(lp4008
g48
(g69
g50
NtRp4009
(dp4010
g53
(dp4011
sg62
g4005
sg55
(lp4012
g48
(g49
g50
NtRp4013
(dp4014
g53
(dp4015
g61
I1
ssg62
g4009
sg55
(lp4016
I00
asbasbasbag48
(g64
g50
NtRp4017
(dp4018
g53
(dp4019
sg62
g3988
sg55
(lp4020
g48
(g69
g50
NtRp4021
(dp4022
g53
(dp4023
sg62
g4017
sg55
(lp4024
g48
(g49
g50
NtRp4025
(dp4026
g53
(dp4027
g61
I1
ssg62
g4021
sg55
(lp4028
S'/admin/default/edit/Gabb1/controllers/fb_serv.py'
p4029
asbasbasbasbasbasbasbag48
(g64
g50
NtRp4030
(dp4031
g53
(dp4032
sg62
g3972
sg55
(lp4033
g48
(g69
g50
NtRp4034
(dp4035
g53
(dp4036
sg62
g4030
sg55
(lp4037
g48
(g49
g50
NtRp4038
(dp4039
g53
(dp4040
g61
I2
ssg62
g4034
sg55
(lp4041
g48
(g57
g50
NtRp4042
(dp4043
g53
(dp4044
g61
I1
ssg62
Nsg55
(lp4045
g48
(g64
g50
NtRp4046
(dp4047
g53
(dp4048
sg62
g4042
sg55
(lp4049
g48
(g69
g50
NtRp4050
(dp4051
g53
(dp4052
sg62
g4046
sg55
(lp4053
g48
(g49
g50
NtRp4054
(dp4055
g53
(dp4056
g61
I1
ssg62
g4050
sg55
(lp4057
g3863
(S's\x04\x00\x00\x00View'
tRp4058
asbasbasbag48
(g64
g50
NtRp4059
(dp4060
g53
(dp4061
sg62
g4042
sg55
(lp4062
g48
(g69
g50
NtRp4063
(dp4064
g53
(dp4065
sg62
g4059
sg55
(lp4066
g48
(g49
g50
NtRp4067
(dp4068
g53
(dp4069
g61
I1
ssg62
g4063
sg55
(lp4070
I00
asbasbasbag48
(g64
g50
NtRp4071
(dp4072
g53
(dp4073
sg62
g4042
sg55
(lp4074
g48
(g69
g50
NtRp4075
(dp4076
g53
(dp4077
sg62
g4071
sg55
(lp4078
g48
(g49
g50
NtRp4079
(dp4080
g53
(dp4081
g61
I1
ssg62
g4075
sg55
(lp4082
S'/admin/default/edit/Gabb1/views/fb_serv/serve_player_data.txt'
p4083
asbasbasbasbasbasbasbag48
(g64
g50
NtRp4084
(dp4085
g53
(dp4086
sg62
g3972
sg55
(lp4087
g48
(g69
g50
NtRp4088
(dp4089
g53
(dp4090
sg62
g4084
sg55
(lp4091
g48
(g49
g50
NtRp4092
(dp4093
g53
(dp4094
g61
I2
ssg62
g4088
sg55
(lp4095
g48
(g57
g50
NtRp4096
(dp4097
g53
(dp4098
g61
I1
ssg62
Nsg55
(lp4099
g48
(g64
g50
NtRp4100
(dp4101
g53
(dp4102
sg62
g4096
sg55
(lp4103
g48
(g69
g50
NtRp4104
(dp4105
g53
(dp4106
sg62
g4100
sg55
(lp4107
g48
(g49
g50
NtRp4108
(dp4109
g53
(dp4110
g61
I1
ssg62
g4104
sg55
(lp4111
g3863
(S's\x06\x00\x00\x00Layout'
tRp4112
asbasbasbag48
(g64
g50
NtRp4113
(dp4114
g53
(dp4115
sg62
g4096
sg55
(lp4116
g48
(g69
g50
NtRp4117
(dp4118
g53
(dp4119
sg62
g4113
sg55
(lp4120
g48
(g49
g50
NtRp4121
(dp4122
g53
(dp4123
g61
I1
ssg62
g4117
sg55
(lp4124
I00
asbasbasbag48
(g64
g50
NtRp4125
(dp4126
g53
(dp4127
sg62
g4096
sg55
(lp4128
g48
(g69
g50
NtRp4129
(dp4130
g53
(dp4131
sg62
g4125
sg55
(lp4132
g48
(g49
g50
NtRp4133
(dp4134
g53
(dp4135
g61
I1
ssg62
g4129
sg55
(lp4136
S'/admin/default/edit/Gabb1/views/layout.html'
p4137
asbasbasbasbasbasbasbag48
(g64
g50
NtRp4138
(dp4139
g53
(dp4140
sg62
g3972
sg55
(lp4141
g48
(g69
g50
NtRp4142
(dp4143
g53
(dp4144
sg62
g4138
sg55
(lp4145
g48
(g49
g50
NtRp4146
(dp4147
g53
(dp4148
g61
I2
ssg62
g4142
sg55
(lp4149
g48
(g57
g50
NtRp4150
(dp4151
g53
(dp4152
g61
I1
ssg62
Nsg55
(lp4153
g48
(g64
g50
NtRp4154
(dp4155
g53
(dp4156
sg62
g4150
sg55
(lp4157
g48
(g69
g50
NtRp4158
(dp4159
g53
(dp4160
sg62
g4154
sg55
(lp4161
g48
(g49
g50
NtRp4162
(dp4163
g53
(dp4164
g61
I1
ssg62
g4158
sg55
(lp4165
g3863
(S's\n\x00\x00\x00Stylesheet'
tRp4166
asbasbasbag48
(g64
g50
NtRp4167
(dp4168
g53
(dp4169
sg62
g4150
sg55
(lp4170
g48
(g69
g50
NtRp4171
(dp4172
g53
(dp4173
sg62
g4167
sg55
(lp4174
g48
(g49
g50
NtRp4175
(dp4176
g53
(dp4177
g61
I1
ssg62
g4171
sg55
(lp4178
I00
asbasbasbag48
(g64
g50
NtRp4179
(dp4180
g53
(dp4181
sg62
g4150
sg55
(lp4182
g48
(g69
g50
NtRp4183
(dp4184
g53
(dp4185
sg62
g4179
sg55
(lp4186
g48
(g49
g50
NtRp4187
(dp4188
g53
(dp4189
g61
I1
ssg62
g4183
sg55
(lp4190
S'/admin/default/edit/Gabb1/static/base.css'
p4191
asbasbasbasbasbasbasbag48
(g64
g50
NtRp4192
(dp4193
g53
(dp4194
sg62
g3972
sg55
(lp4195
g48
(g69
g50
NtRp4196
(dp4197
g53
(dp4198
sg62
g4192
sg55
(lp4199
g48
(g49
g50
NtRp4200
(dp4201
g53
(dp4202
g61
I2
ssg62
g4196
sg55
(lp4203
g48
(g57
g50
NtRp4204
(dp4205
g53
(dp4206
g61
I1
ssg62
Nsg55
(lp4207
g48
(g64
g50
NtRp4208
(dp4209
g53
(dp4210
sg62
g4204
sg55
(lp4211
g48
(g69
g50
NtRp4212
(dp4213
g53
(dp4214
sg62
g4208
sg55
(lp4215
g48
(g49
g50
NtRp4216
(dp4217
g53
(dp4218
g61
I1
ssg62
g4212
sg55
(lp4219
g3863
(S's\x08\x00\x00\x00DB Model'
tRp4220
asbasbasbag48
(g64
g50
NtRp4221
(dp4222
g53
(dp4223
sg62
g4204
sg55
(lp4224
g48
(g69
g50
NtRp4225
(dp4226
g53
(dp4227
sg62
g4221
sg55
(lp4228
g48
(g49
g50
NtRp4229
(dp4230
g53
(dp4231
g61
I1
ssg62
g4225
sg55
(lp4232
I00
asbasbasbag48
(g64
g50
NtRp4233
(dp4234
g53
(dp4235
sg62
g4204
sg55
(lp4236
g48
(g69
g50
NtRp4237
(dp4238
g53
(dp4239
sg62
g4233
sg55
(lp4240
g48
(g49
g50
NtRp4241
(dp4242
g53
(dp4243
g61
I1
ssg62
g4237
sg55
(lp4244
S'/admin/default/edit/Gabb1/models/db.py'
p4245
asbasbasbasbasbasbasbag48
(g64
g50
NtRp4246
(dp4247
g53
(dp4248
sg62
g3972
sg55
(lp4249
g48
(g69
g50
NtRp4250
(dp4251
g53
(dp4252
sg62
g4246
sg55
(lp4253
g48
(g49
g50
NtRp4254
(dp4255
g53
(dp4256
g61
I2
ssg62
g4250
sg55
(lp4257
g48
(g57
g50
NtRp4258
(dp4259
g53
(dp4260
g61
I1
ssg62
Nsg55
(lp4261
g48
(g64
g50
NtRp4262
(dp4263
g53
(dp4264
sg62
g4258
sg55
(lp4265
g48
(g69
g50
NtRp4266
(dp4267
g53
(dp4268
sg62
g4262
sg55
(lp4269
g48
(g49
g50
NtRp4270
(dp4271
g53
(dp4272
g61
I1
ssg62
g4266
sg55
(lp4273
g3863
(S's\n\x00\x00\x00Menu Model'
tRp4274
asbasbasbag48
(g64
g50
NtRp4275
(dp4276
g53
(dp4277
sg62
g4258
sg55
(lp4278
g48
(g69
g50
NtRp4279
(dp4280
g53
(dp4281
sg62
g4275
sg55
(lp4282
g48
(g49
g50
NtRp4283
(dp4284
g53
(dp4285
g61
I1
ssg62
g4279
sg55
(lp4286
I00
asbasbasbag48
(g64
g50
NtRp4287
(dp4288
g53
(dp4289
sg62
g4258
sg55
(lp4290
g48
(g69
g50
NtRp4291
(dp4292
g53
(dp4293
sg62
g4287
sg55
(lp4294
g48
(g49
g50
NtRp4295
(dp4296
g53
(dp4297
g61
I1
ssg62
g4291
sg55
(lp4298
S'/admin/default/edit/Gabb1/models/menu.py'
p4299
asbasbasbasbasbasbasbag48
(g64
g50
NtRp4300
(dp4301
g53
(dp4302
sg62
g3972
sg55
(lp4303
g48
(g69
g50
NtRp4304
(dp4305
g53
(dp4306
sg62
g4300
sg55
(lp4307
g48
(g49
g50
NtRp4308
(dp4309
g53
(dp4310
g61
I2
ssg62
g4304
sg55
(lp4311
g48
(g57
g50
NtRp4312
(dp4313
g53
(dp4314
g61
I1
ssg62
Nsg55
(lp4315
g48
(g64
g50
NtRp4316
(dp4317
g53
(dp4318
sg62
g4312
sg55
(lp4319
g48
(g69
g50
NtRp4320
(dp4321
g53
(dp4322
sg62
g4316
sg55
(lp4323
g48
(g49
g50
NtRp4324
(dp4325
g53
(dp4326
g61
I1
ssg62
g4320
sg55
(lp4327
g3863
(S's\x08\x00\x00\x00Database'
tRp4328
asbasbasbag48
(g64
g50
NtRp4329
(dp4330
g53
(dp4331
sg62
g4312
sg55
(lp4332
g48
(g69
g50
NtRp4333
(dp4334
g53
(dp4335
sg62
g4329
sg55
(lp4336
g48
(g49
g50
NtRp4337
(dp4338
g53
(dp4339
g61
I1
ssg62
g4333
sg55
(lp4340
I00
asbasbasbag48
(g64
g50
NtRp4341
(dp4342
g53
(dp4343
sg62
g4312
sg55
(lp4344
g48
(g69
g50
NtRp4345
(dp4346
g53
(dp4347
sg62
g4341
sg55
(lp4348
g48
(g49
g50
NtRp4349
(dp4350
g53
(dp4351
g61
I1
ssg62
g4345
sg55
(lp4352
S'/Gabb1/appadmin/index.txt'
p4353
asbasbasbasbasbasbasbag48
(g64
g50
NtRp4354
(dp4355
g53
(dp4356
sg62
g3972
sg55
(lp4357
g48
(g69
g50
NtRp4358
(dp4359
g53
(dp4360
sg62
g4354
sg55
(lp4361
g48
(g49
g50
NtRp4362
(dp4363
g53
(dp4364
g61
I2
ssg62
g4358
sg55
(lp4365
g48
(g57
g50
NtRp4366
(dp4367
g53
(dp4368
g61
I1
ssg62
Nsg55
(lp4369
g48
(g64
g50
NtRp4370
(dp4371
g53
(dp4372
sg62
g4366
sg55
(lp4373
g48
(g69
g50
NtRp4374
(dp4375
g53
(dp4376
sg62
g4370
sg55
(lp4377
g48
(g49
g50
NtRp4378
(dp4379
g53
(dp4380
g61
I1
ssg62
g4374
sg55
(lp4381
g3863
(S's\x06\x00\x00\x00Errors'
tRp4382
asbasbasbag48
(g64
g50
NtRp4383
(dp4384
g53
(dp4385
sg62
g4366
sg55
(lp4386
g48
(g69
g50
NtRp4387
(dp4388
g53
(dp4389
sg62
g4383
sg55
(lp4390
g48
(g49
g50
NtRp4391
(dp4392
g53
(dp4393
g61
I1
ssg62
g4387
sg55
(lp4394
I00
asbasbasbag48
(g64
g50
NtRp4395
(dp4396
g53
(dp4397
sg62
g4366
sg55
(lp4398
g48
(g69
g50
NtRp4399
(dp4400
g53
(dp4401
sg62
g4395
sg55
(lp4402
g48
(g49
g50
NtRp4403
(dp4404
g53
(dp4405
g61
I1
ssg62
g4399
sg55
(lp4406
S'/admin/default/errors/Gabb1.txt'
p4407
asbasbasbasbasbasbasbag48
(g64
g50
NtRp4408
(dp4409
g53
(dp4410
sg62
g3972
sg55
(lp4411
g48
(g69
g50
NtRp4412
(dp4413
g53
(dp4414
sg62
g4408
sg55
(lp4415
g48
(g49
g50
NtRp4416
(dp4417
g53
(dp4418
g61
I2
ssg62
g4412
sg55
(lp4419
g48
(g57
g50
NtRp4420
(dp4421
g53
(dp4422
g61
I1
ssg62
Nsg55
(lp4423
g48
(g64
g50
NtRp4424
(dp4425
g53
(dp4426
sg62
g4420
sg55
(lp4427
g48
(g69
g50
NtRp4428
(dp4429
g53
(dp4430
sg62
g4424
sg55
(lp4431
g48
(g49
g50
NtRp4432
(dp4433
g53
(dp4434
g61
I1
ssg62
g4428
sg55
(lp4435
g3863
(S's\x05\x00\x00\x00About'
tRp4436
asbasbasbag48
(g64
g50
NtRp4437
(dp4438
g53
(dp4439
sg62
g4420
sg55
(lp4440
g48
(g69
g50
NtRp4441
(dp4442
g53
(dp4443
sg62
g4437
sg55
(lp4444
g48
(g49
g50
NtRp4445
(dp4446
g53
(dp4447
g61
I1
ssg62
g4441
sg55
(lp4448
I00
asbasbasbag48
(g64
g50
NtRp4449
(dp4450
g53
(dp4451
sg62
g4420
sg55
(lp4452
g48
(g69
g50
NtRp4453
(dp4454
g53
(dp4455
sg62
g4449
sg55
(lp4456
g48
(g49
g50
NtRp4457
(dp4458
g53
(dp4459
g61
I1
ssg62
g4453
sg55
(lp4460
S'/admin/default/about/Gabb1.txt'
p4461
asbasbasbasbasbasbasbasbasbasbasbasbasbasbasbag48
(g64
g50
NtRp4462
(dp4463
g53
(dp4464
sg62
g3831
sg55
(lp4465
g48
(g69
g50
NtRp4466
(dp4467
g53
(dp4468
sg62
g4462
sg55
(lp4469
g48
(g49
g50
NtRp4470
(dp4471
g53
(dp4472
g61
I4
ssg62
g4466
sg55
(lp4473
g48
(g57
g50
NtRp4474
(dp4475
g53
(dp4476
g61
I3
ssg62
Nsg55
(lp4477
g48
(g64
g50
NtRp4478
(dp4479
g53
(dp4480
sg62
g4474
sg55
(lp4481
g48
(g69
g50
NtRp4482
(dp4483
g53
(dp4484
sg62
g4478
sg55
(lp4485
g48
(g49
g50
NtRp4486
(dp4487
g53
(dp4488
g61
I3
ssg62
g4482
sg55
(lp4489
g3863
(S's\t\x00\x00\x00Resources'
tRp4490
asbasbasbag48
(g64
g50
NtRp4491
(dp4492
g53
(dp4493
sg62
g4474
sg55
(lp4494
g48
(g69
g50
NtRp4495
(dp4496
g53
(dp4497
sg62
g4491
sg55
(lp4498
g48
(g49
g50
NtRp4499
(dp4500
g53
(dp4501
g61
I3
ssg62
g4495
sg55
(lp4502
g91
asbasbasbag48
(g64
g50
NtRp4503
(dp4504
g53
(dp4505
sg62
g4474
sg55
(lp4506
g48
(g69
g50
NtRp4507
(dp4508
g53
(dp4509
sg62
g4503
sg55
(lp4510
g48
(g49
g50
NtRp4511
(dp4512
g53
(dp4513
g61
I3
ssg62
g4507
sg55
(lp4514
S'None'
p4515
asbasbasbag48
(g64
g50
NtRp4516
(dp4517
g53
(dp4518
sg62
g4474
sg55
(lp4519
g48
(g69
g50
NtRp4520
(dp4521
g53
(dp4522
sg62
g4516
sg55
(lp4523
g48
(g49
g50
NtRp4524
(dp4525
g53
(dp4526
g61
I3
ssg62
g4520
sg55
(lp4527
g48
(g57
g50
NtRp4528
(dp4529
g53
(dp4530
g61
I2
ssg62
Nsg55
(lp4531
g48
(g64
g50
NtRp4532
(dp4533
g53
(dp4534
sg62
g4528
sg55
(lp4535
g48
(g69
g50
NtRp4536
(dp4537
g53
(dp4538
sg62
g4532
sg55
(lp4539
g48
(g49
g50
NtRp4540
(dp4541
g53
(dp4542
g61
I2
ssg62
g4536
sg55
(lp4543
g48
(g57
g50
NtRp4544
(dp4545
g53
(dp4546
g61
I1
ssg62
Nsg55
(lp4547
g48
(g64
g50
NtRp4548
(dp4549
g53
(dp4550
sg62
g4544
sg55
(lp4551
g48
(g69
g50
NtRp4552
(dp4553
g53
(dp4554
sg62
g4548
sg55
(lp4555
g48
(g49
g50
NtRp4556
(dp4557
g53
(dp4558
g61
I1
ssg62
g4552
sg55
(lp4559
g3863
(S's\r\x00\x00\x00Documentation'
tRp4560
asbasbasbag48
(g64
g50
NtRp4561
(dp4562
g53
(dp4563
sg62
g4544
sg55
(lp4564
g48
(g69
g50
NtRp4565
(dp4566
g53
(dp4567
sg62
g4561
sg55
(lp4568
g48
(g49
g50
NtRp4569
(dp4570
g53
(dp4571
g61
I1
ssg62
g4565
sg55
(lp4572
I00
asbasbasbag48
(g64
g50
NtRp4573
(dp4574
g53
(dp4575
sg62
g4544
sg55
(lp4576
g48
(g69
g50
NtRp4577
(dp4578
g53
(dp4579
sg62
g4573
sg55
(lp4580
g48
(g49
g50
NtRp4581
(dp4582
g53
(dp4583
g61
I1
ssg62
g4577
sg55
(lp4584
S'http://www.web2py.com/book'
p4585
asbasbasbag48
(g64
g50
NtRp4586
(dp4587
g53
(dp4588
sg62
g4544
sg55
(lp4589
g48
(g69
g50
NtRp4590
(dp4591
g53
(dp4592
sg62
g4586
sg55
(lp4593
g48
(g49
g50
NtRp4594
(dp4595
g53
(dp4596
g61
I1
ssg62
g4590
sg55
(lp4597
(lp4598
(g3863
(S's\x07\x00\x00\x00Preface'
tRp4599
I00
S'http://www.web2py.com/book/default/chapter/00'
p4600
tp4601
a(g3863
(S's\x0c\x00\x00\x00Introduction'
tRp4602
I00
S'http://www.web2py.com/book/default/chapter/01'
p4603
tp4604
a(g3863
(S's\x06\x00\x00\x00Python'
tRp4605
I00
S'http://www.web2py.com/book/default/chapter/02'
p4606
tp4607
a(g3863
(S's\x08\x00\x00\x00Overview'
tRp4608
I00
S'http://www.web2py.com/book/default/chapter/03'
p4609
tp4610
a(g3863
(S's\x08\x00\x00\x00The Core'
tRp4611
I00
S'http://www.web2py.com/book/default/chapter/04'
p4612
tp4613
a(g3863
(S's\t\x00\x00\x00The Views'
tRp4614
I00
S'http://www.web2py.com/book/default/chapter/05'
p4615
tp4616
a(g3863
(S's\x08\x00\x00\x00Database'
tRp4617
I00
S'http://www.web2py.com/book/default/chapter/06'
p4618
tp4619
a(g3863
(S's\x14\x00\x00\x00Forms and Validators'
tRp4620
I00
S'http://www.web2py.com/book/default/chapter/07'
p4621
tp4622
a(g3863
(S's\x0e\x00\x00\x00Access Control'
tRp4623
I00
S'http://www.web2py.com/book/default/chapter/08'
p4624
tp4625
a(g3863
(S's\x08\x00\x00\x00Services'
tRp4626
I00
S'http://www.web2py.com/book/default/chapter/09'
p4627
tp4628
a(g3863
(S's\x0c\x00\x00\x00Ajax Recipes'
tRp4629
I00
S'http://www.web2py.com/book/default/chapter/10'
p4630
tp4631
a(g3863
(S's\x12\x00\x00\x00Deployment Recipes'
tRp4632
I00
S'http://www.web2py.com/book/default/chapter/11'
p4633
tp4634
a(g3863
(S's\r\x00\x00\x00Other Recipes'
tRp4635
I00
S'http://www.web2py.com/book/default/chapter/12'
p4636
tp4637
a(g3863
(S's\r\x00\x00\x00Buy this book'
tRp4638
I00
S'http://stores.lulu.com/web2py'
p4639
tp4640
aasbasbasbasbasbasbasbag48
(g64
g50
NtRp4641
(dp4642
g53
(dp4643
sg62
g4528
sg55
(lp4644
g48
(g69
g50
NtRp4645
(dp4646
g53
(dp4647
sg62
g4641
sg55
(lp4648
g48
(g49
g50
NtRp4649
(dp4650
g53
(dp4651
g61
I2
ssg62
g4645
sg55
(lp4652
g48
(g57
g50
NtRp4653
(dp4654
g53
(dp4655
g61
I1
ssg62
Nsg55
(lp4656
g48
(g64
g50
NtRp4657
(dp4658
g53
(dp4659
sg62
g4653
sg55
(lp4660
g48
(g69
g50
NtRp4661
(dp4662
g53
(dp4663
sg62
g4657
sg55
(lp4664
g48
(g49
g50
NtRp4665
(dp4666
g53
(dp4667
g61
I1
ssg62
g4661
sg55
(lp4668
g3863
(S's\t\x00\x00\x00Community'
tRp4669
asbasbasbag48
(g64
g50
NtRp4670
(dp4671
g53
(dp4672
sg62
g4653
sg55
(lp4673
g48
(g69
g50
NtRp4674
(dp4675
g53
(dp4676
sg62
g4670
sg55
(lp4677
g48
(g49
g50
NtRp4678
(dp4679
g53
(dp4680
g61
I1
ssg62
g4674
sg55
(lp4681
I00
asbasbasbag48
(g64
g50
NtRp4682
(dp4683
g53
(dp4684
sg62
g4653
sg55
(lp4685
g48
(g69
g50
NtRp4686
(dp4687
g53
(dp4688
sg62
g4682
sg55
(lp4689
g48
(g49
g50
NtRp4690
(dp4691
g53
(dp4692
g61
I1
ssg62
g4686
sg55
(lp4693
Nasbasbasbag48
(g64
g50
NtRp4694
(dp4695
g53
(dp4696
sg62
g4653
sg55
(lp4697
g48
(g69
g50
NtRp4698
(dp4699
g53
(dp4700
sg62
g4694
sg55
(lp4701
g48
(g49
g50
NtRp4702
(dp4703
g53
(dp4704
g61
I1
ssg62
g4698
sg55
(lp4705
(lp4706
(g3863
(S's\x06\x00\x00\x00Groups'
tRp4707
I00
S'http://www.web2py.com/examples/default/usergroups'
p4708
tp4709
a(g3863
(S's\x07\x00\x00\x00Twitter'
tRp4710
I00
S'http://twitter.com/web2py'
p4711
tp4712
a(g3863
(S's\t\x00\x00\x00Live chat'
tRp4713
I00
S'http://mibbit.com/?channel=%23web2py&server=irc.mibbit.net'
p4714
tp4715
a(g3863
(S's\n\x00\x00\x00User Voice'
tRp4716
I00
S'http://web2py.uservoice.com/'
p4717
tp4718
aasbasbasbasbasbasbasbag48
(g64
g50
NtRp4719
(dp4720
g53
(dp4721
sg62
g4528
sg55
(lp4722
g48
(g69
g50
NtRp4723
(dp4724
g53
(dp4725
sg62
g4719
sg55
(lp4726
g48
(g49
g50
NtRp4727
(dp4728
g53
(dp4729
g61
I2
ssg62
g4723
sg55
(lp4730
g48
(g57
g50
NtRp4731
(dp4732
g53
(dp4733
g61
I1
ssg62
Nsg55
(lp4734
g48
(g64
g50
NtRp4735
(dp4736
g53
(dp4737
sg62
g4731
sg55
(lp4738
g48
(g69
g50
NtRp4739
(dp4740
g53
(dp4741
sg62
g4735
sg55
(lp4742
g48
(g49
g50
NtRp4743
(dp4744
g53
(dp4745
g61
I1
ssg62
g4739
sg55
(lp4746
g3863
(S's\x06\x00\x00\x00Web2py'
tRp4747
asbasbasbag48
(g64
g50
NtRp4748
(dp4749
g53
(dp4750
sg62
g4731
sg55
(lp4751
g48
(g69
g50
NtRp4752
(dp4753
g53
(dp4754
sg62
g4748
sg55
(lp4755
g48
(g49
g50
NtRp4756
(dp4757
g53
(dp4758
g61
I1
ssg62
g4752
sg55
(lp4759
I00
asbasbasbag48
(g64
g50
NtRp4760
(dp4761
g53
(dp4762
sg62
g4731
sg55
(lp4763
g48
(g69
g50
NtRp4764
(dp4765
g53
(dp4766
sg62
g4760
sg55
(lp4767
g48
(g49
g50
NtRp4768
(dp4769
g53
(dp4770
g61
I1
ssg62
g4764
sg55
(lp4771
S'http://www.web2py.com'
p4772
asbasbasbag48
(g64
g50
NtRp4773
(dp4774
g53
(dp4775
sg62
g4731
sg55
(lp4776
g48
(g69
g50
NtRp4777
(dp4778
g53
(dp4779
sg62
g4773
sg55
(lp4780
g48
(g49
g50
NtRp4781
(dp4782
g53
(dp4783
g61
I1
ssg62
g4777
sg55
(lp4784
(lp4785
(g3863
(S's\x08\x00\x00\x00Download'
tRp4786
I00
S'http://www.web2py.com/examples/default/download'
p4787
tp4788
a(g3863
(S's\x07\x00\x00\x00Support'
tRp4789
I00
S'http://www.web2py.com/examples/default/support'
p4790
tp4791
a(g3863
(S's\x0e\x00\x00\x00Quick Examples'
tRp4792
I00
S'http://web2py.com/examples/default/examples'
p4793
tp4794
a(g3863
(S's\x03\x00\x00\x00FAQ'
tRp4795
I00
S'http://web2py.com/AlterEgo'
p4796
tp4797
a(g3863
(S's\x11\x00\x00\x00Free Applications'
tRp4798
I00
S'http://web2py.com/appliances'
p4799
tp4800
a(g3863
(S's\x07\x00\x00\x00Plugins'
tRp4801
I00
S'http://web2py.com/plugins'
p4802
tp4803
a(g3863
(S's\x07\x00\x00\x00Recipes'
tRp4804
I00
S'http://web2pyslices.com/'
p4805
tp4806
a(g3863
(S's\x04\x00\x00\x00Demo'
tRp4807
I00
S'http://web2py.com/demo_admin'
p4808
tp4809
a(g3863
(S's\x08\x00\x00\x00Semantic'
tRp4810
I00
S'http://web2py.com/semantic'
p4811
tp4812
a(g3863
(S's\x07\x00\x00\x00Layouts'
tRp4813
I00
S'http://web2py.com/layouts'
p4814
tp4815
a(g3863
(S's\x06\x00\x00\x00Videos'
tRp4816
I00
S'http://www.web2py.com/examples/default/videos/'
p4817
tp4818
aasbasbasbasbasbasbasbasbasbasbasbasbasbasbasbasbasbasbasbag48
(g64
g50
NtRp4819
(dp4820
g53
(dp4821
sg62
g3378
sg55
(lp4822
g48
(g69
g50
NtRp4823
(dp4824
g53
(dp4825
g73
g74
ssg62
g4819
sg55
(lp4826
S'meta'
p4827
asbag48
(g69
g50
NtRp4828
(dp4829
g53
(dp4830
g80
g81
ssg62
g4819
sg55
(lp4831
S':'
asbag48
(g69
g50
NtRp4832
(dp4833
g53
(dp4834
sg62
g4819
sg55
(lp4835
g48
(g49
g50
NtRp4836
(dp4837
g53
(dp4838
g61
I5
ssg62
g4832
sg55
(lp4839
g48
(g57
g50
NtRp4840
(dp4841
g53
(dp4842
g61
I4
ssg62
Nsg55
(lp4843
g48
(g64
g50
NtRp4844
(dp4845
g53
(dp4846
sg62
g4840
sg55
(lp4847
g48
(g69
g50
NtRp4848
(dp4849
g53
(dp4850
g73
g74
ssg62
g4844
sg55
(lp4851
S'author'
p4852
asbag48
(g69
g50
NtRp4853
(dp4854
g53
(dp4855
g80
g81
ssg62
g4844
sg55
(lp4856
S':'
asbag48
(g69
g50
NtRp4857
(dp4858
g53
(dp4859
sg62
g4844
sg55
(lp4860
g48
(g49
g50
NtRp4861
(dp4862
g53
(dp4863
g61
I4
ssg62
g4857
sg55
(lp4864
S'Your Name <you@example.com>'
p4865
asbasbasbag48
(g64
g50
NtRp4866
(dp4867
g53
(dp4868
sg62
g4840
sg55
(lp4869
g48
(g69
g50
NtRp4870
(dp4871
g53
(dp4872
g73
g74
ssg62
g4866
sg55
(lp4873
S'copyright'
p4874
asbag48
(g69
g50
NtRp4875
(dp4876
g53
(dp4877
g80
g81
ssg62
g4866
sg55
(lp4878
S':'
asbag48
(g69
g50
NtRp4879
(dp4880
g53
(dp4881
sg62
g4866
sg55
(lp4882
g48
(g49
g50
NtRp4883
(dp4884
g53
(dp4885
g61
I4
ssg62
g4879
sg55
(lp4886
S'Copyright 2011'
p4887
asbasbasbag48
(g64
g50
NtRp4888
(dp4889
g53
(dp4890
sg62
g4840
sg55
(lp4891
g48
(g69
g50
NtRp4892
(dp4893
g53
(dp4894
g73
g74
ssg62
g4888
sg55
(lp4895
S'description'
p4896
asbag48
(g69
g50
NtRp4897
(dp4898
g53
(dp4899
g80
g81
ssg62
g4888
sg55
(lp4900
S':'
asbag48
(g69
g50
NtRp4901
(dp4902
g53
(dp4903
sg62
g4888
sg55
(lp4904
g48
(g49
g50
NtRp4905
(dp4906
g53
(dp4907
g61
I4
ssg62
g4901
sg55
(lp4908
S'a cool new app'
p4909
asbasbasbag48
(g64
g50
NtRp4910
(dp4911
g53
(dp4912
sg62
g4840
sg55
(lp4913
g48
(g69
g50
NtRp4914
(dp4915
g53
(dp4916
g73
g74
ssg62
g4910
sg55
(lp4917
S'generator'
p4918
asbag48
(g69
g50
NtRp4919
(dp4920
g53
(dp4921
g80
g81
ssg62
g4910
sg55
(lp4922
S':'
asbag48
(g69
g50
NtRp4923
(dp4924
g53
(dp4925
sg62
g4910
sg55
(lp4926
g48
(g49
g50
NtRp4927
(dp4928
g53
(dp4929
g61
I4
ssg62
g4923
sg55
(lp4930
S'Web2py Web Framework'
p4931
asbasbasbag48
(g64
g50
NtRp4932
(dp4933
g53
(dp4934
sg62
g4840
sg55
(lp4935
g48
(g69
g50
NtRp4936
(dp4937
g53
(dp4938
g73
g74
ssg62
g4932
sg55
(lp4939
S'keywords'
p4940
asbag48
(g69
g50
NtRp4941
(dp4942
g53
(dp4943
g80
g81
ssg62
g4932
sg55
(lp4944
S':'
asbag48
(g69
g50
NtRp4945
(dp4946
g53
(dp4947
sg62
g4932
sg55
(lp4948
g48
(g49
g50
NtRp4949
(dp4950
g53
(dp4951
g61
I4
ssg62
g4945
sg55
(lp4952
S'web2py, python, framework'
p4953
asbasbasbasbasbasbasbag48
(g64
g50
NtRp4954
(dp4955
g53
(dp4956
sg62
g3378
sg55
(lp4957
g48
(g69
g50
NtRp4958
(dp4959
g53
(dp4960
g73
g74
ssg62
g4954
sg55
(lp4961
S'postprocessing'
p4962
asbag48
(g69
g50
NtRp4963
(dp4964
g53
(dp4965
g80
g81
ssg62
g4954
sg55
(lp4966
S':'
asbag48
(g69
g50
NtRp4967
(dp4968
g53
(dp4969
sg62
g4954
sg55
(lp4970
g48
(g49
g50
NtRp4971
(dp4972
g53
(dp4973
g61
I5
ssg62
g4967
sg55
(lp4974
g48
(g57
g50
NtRp4975
(dp4976
g53
(dp4977
g61
I4
ssg62
Nsg55
(lp4978
sbasbasbasbag48
(g64
g50
NtRp4979
(dp4980
g53
(dp4981
sg62
g3378
sg55
(lp4982
g48
(g69
g50
NtRp4983
(dp4984
g53
(dp4985
g73
g74
ssg62
g4979
sg55
(lp4986
S'session_filename'
p4987
asbag48
(g69
g50
NtRp4988
(dp4989
g53
(dp4990
g80
g81
ssg62
g4979
sg55
(lp4991
S':'
asbag48
(g69
g50
NtRp4992
(dp4993
g53
(dp4994
sg62
g4979
sg55
(lp4995
g48
(g49
g50
NtRp4996
(dp4997
g53
(dp4998
g61
I5
ssg62
g4992
sg55
(lp4999
S'D:\\git_projs\\Gabblista\\web2py\\web2py\\applications\\Gabb1\\sessions\\127.0.0.1-9c4abc51-371e-49f9-80a1-9a4d70ad556d'
p5000
asbasbasbag48
(g64
g50
NtRp5001
(dp5002
g53
(dp5003
sg62
g3378
sg55
(lp5004
g48
(g69
g50
NtRp5005
(dp5006
g53
(dp5007
g73
g74
ssg62
g5001
sg55
(lp5008
S'session_id'
p5009
asbag48
(g69
g50
NtRp5010
(dp5011
g53
(dp5012
g80
g81
ssg62
g5001
sg55
(lp5013
S':'
asbag48
(g69
g50
NtRp5014
(dp5015
g53
(dp5016
sg62
g5001
sg55
(lp5017
g48
(g49
g50
NtRp5018
(dp5019
g53
(dp5020
g61
I5
ssg62
g5014
sg55
(lp5021
S'127.0.0.1-9c4abc51-371e-49f9-80a1-9a4d70ad556d'
p5022
asbasbasbag48
(g64
g50
NtRp5023
(dp5024
g53
(dp5025
sg62
g3378
sg55
(lp5026
g48
(g69
g50
NtRp5027
(dp5028
g53
(dp5029
g73
g74
ssg62
g5023
sg55
(lp5030
S'session_id_name'
p5031
asbag48
(g69
g50
NtRp5032
(dp5033
g53
(dp5034
g80
g81
ssg62
g5023
sg55
(lp5035
S':'
asbag48
(g69
g50
NtRp5036
(dp5037
g53
(dp5038
sg62
g5023
sg55
(lp5039
g48
(g49
g50
NtRp5040
(dp5041
g53
(dp5042
g61
I5
ssg62
g5036
sg55
(lp5043
g3435
asbasbasbag48
(g64
g50
NtRp5044
(dp5045
g53
(dp5046
sg62
g3378
sg55
(lp5047
g48
(g69
g50
NtRp5048
(dp5049
g53
(dp5050
g73
g74
ssg62
g5044
sg55
(lp5051
S'session_new'
p5052
asbag48
(g69
g50
NtRp5053
(dp5054
g53
(dp5055
g80
g81
ssg62
g5044
sg55
(lp5056
S':'
asbag48
(g69
g50
NtRp5057
(dp5058
g53
(dp5059
sg62
g5044
sg55
(lp5060
g48
(g49
g50
NtRp5061
(dp5062
g53
(dp5063
g61
I5
ssg62
g5057
sg55
(lp5064
g1775
asbasbasbag48
(g64
g50
NtRp5065
(dp5066
g53
(dp5067
sg62
g3378
sg55
(lp5068
g48
(g69
g50
NtRp5069
(dp5070
g53
(dp5071
g73
g74
ssg62
g5065
sg55
(lp5072
S'status'
p5073
asbag48
(g69
g50
NtRp5074
(dp5075
g53
(dp5076
g80
g81
ssg62
g5065
sg55
(lp5077
S':'
asbag48
(g69
g50
NtRp5078
(dp5079
g53
(dp5080
sg62
g5065
sg55
(lp5081
g48
(g49
g50
NtRp5082
(dp5083
g53
(dp5084
g61
I5
ssg62
g5078
sg55
(lp5085
S'200'
p5086
asbasbasbag48
(g64
g50
NtRp5087
(dp5088
g53
(dp5089
sg62
g3378
sg55
(lp5090
g48
(g69
g50
NtRp5091
(dp5092
g53
(dp5093
g73
g74
ssg62
g5087
sg55
(lp5094
S'subtitle'
p5095
asbag48
(g69
g50
NtRp5096
(dp5097
g53
(dp5098
g80
g81
ssg62
g5087
sg55
(lp5099
S':'
asbag48
(g69
g50
NtRp5100
(dp5101
g53
(dp5102
sg62
g5087
sg55
(lp5103
g48
(g49
g50
NtRp5104
(dp5105
g53
(dp5106
g61
I5
ssg62
g5100
sg55
(lp5107
g3863
(S's\r\x00\x00\x00customize me!'
tRp5108
asbasbasbag48
(g64
g50
NtRp5109
(dp5110
g53
(dp5111
sg62
g3378
sg55
(lp5112
g48
(g69
g50
NtRp5113
(dp5114
g53
(dp5115
g73
g74
ssg62
g5109
sg55
(lp5116
S'title'
p5117
asbag48
(g69
g50
NtRp5118
(dp5119
g53
(dp5120
g80
g81
ssg62
g5109
sg55
(lp5121
S':'
asbag48
(g69
g50
NtRp5122
(dp5123
g53
(dp5124
sg62
g5109
sg55
(lp5125
g48
(g49
g50
NtRp5126
(dp5127
g53
(dp5128
g61
I5
ssg62
g5122
sg55
(lp5129
g113
asbasbasbag48
(g64
g50
NtRp5130
(dp5131
g53
(dp5132
sg62
g3378
sg55
(lp5133
g48
(g69
g50
NtRp5134
(dp5135
g53
(dp5136
g73
g74
ssg62
g5130
sg55
(lp5137
g2503
asbag48
(g69
g50
NtRp5138
(dp5139
g53
(dp5140
g80
g81
ssg62
g5130
sg55
(lp5141
S':'
asbag48
(g69
g50
NtRp5142
(dp5143
g53
(dp5144
sg62
g5130
sg55
(lp5145
g48
(g49
g50
NtRp5146
(dp5147
g53
(dp5148
g61
I5
ssg62
g5142
sg55
(lp5149
g2516
asbasbasbag48
(g64
g50
NtRp5150
(dp5151
g53
(dp5152
sg62
g3378
sg55
(lp5153
g48
(g69
g50
NtRp5154
(dp5155
g53
(dp5156
g73
g74
ssg62
g5150
sg55
(lp5157
S'view'
p5158
asbag48
(g69
g50
NtRp5159
(dp5160
g53
(dp5161
g80
g81
ssg62
g5150
sg55
(lp5162
S':'
asbag48
(g69
g50
NtRp5163
(dp5164
g53
(dp5165
sg62
g5150
sg55
(lp5166
g48
(g49
g50
NtRp5167
(dp5168
g53
(dp5169
g61
I5
ssg62
g5163
sg55
(lp5170
S'fb_serv/serve_player_data.txt'
p5171
asbasbasbasbasbsS'locals'
p5172
(dp5173
S'A'
S'65'
p5174
sS'Z'
S'90'
p5175
sS'random'
p5176
S"<module 'random' from 'C:\\python25\\lib\\random.pyc'>"
p5177
sS'len_req'
p5178
S'12'
p5179
sssS'traceback'
p5180
S'Traceback (most recent call last):\n  File "D:\\git_projs\\Gabblista\\web2py\\web2py\\gluon\\restricted.py", line 194, in restricted\n    exec ccode in environment\n  File "D:\\git_projs\\Gabblista\\web2py\\web2py\\applications\\Gabb1\\controllers/fb_serv.py", line 116, in <module>\n  File "D:\\git_projs\\Gabblista\\web2py\\web2py\\gluon\\globals.py", line 149, in <lambda>\n    self._caller = lambda f: f()\n  File "D:\\git_projs\\Gabblista\\web2py\\web2py\\applications\\Gabb1\\controllers/fb_serv.py", line 18, in serve_player_data\n    game_data_row = get_player_data(player_ID,opponent_ID,game_ID);\n  File "D:\\git_projs\\Gabblista\\web2py\\web2py\\applications\\Gabb1\\controllers/fb_serv.py", line 25, in get_player_data\n    letter_data = generate_new_letter_data()\n  File "D:\\git_projs\\Gabblista\\web2py\\web2py\\applications\\Gabb1\\controllers/fb_serv.py", line 44, in generate_new_letter_data\n    letter_string = get_random_letters(NUM_LETTERS)\n  File "D:\\git_projs\\Gabblista\\web2py\\web2py\\applications\\Gabb1\\controllers/fb_serv.py", line 90, in get_random_letters\n    while len(rand_letter_string) < len_req:\nUnboundLocalError: local variable \'rand_letter_string\' referenced before assignment\n'
p5181
s.