(dp1
S'output'
p2
S''
sS'layer'
p3
S'D:\\git_projs\\Gabblista\\web2py\\web2py\\applications\\Gabb1\\views\\fb_serv/serve_player_data.txt'
p4
sS'code'
p5
S"response.write(message)\nresponse.write('\\r\\n\\r\\n', escape=False)\nresponse.write(test_var)\nresponse.write('\\r\\n', escape=False)"
p6
sS'snapshot'
p7
(dp8
S'exception'
p9
(dp10
S'__hash__'
p11
S"<method-wrapper '__hash__' of exceptions.NameError object at 0x03369FA8>"
p12
sS'__setattr__'
p13
S"<method-wrapper '__setattr__' of exceptions.NameError object at 0x03369FA8>"
p14
sS'__reduce_ex__'
p15
S'<built-in method __reduce_ex__ of exceptions.NameError object at 0x03369FA8>'
p16
sS'__getslice__'
p17
S"<method-wrapper '__getslice__' of exceptions.NameError object at 0x03369FA8>"
p18
sS'__getitem__'
p19
S"<method-wrapper '__getitem__' of exceptions.NameError object at 0x03369FA8>"
p20
sS'__setstate__'
p21
S'<built-in method __setstate__ of exceptions.NameError object at 0x03369FA8>'
p22
sS'__reduce__'
p23
S'<built-in method __reduce__ of exceptions.NameError object at 0x03369FA8>'
p24
sS'__str__'
p25
S"<method-wrapper '__str__' of exceptions.NameError object at 0x03369FA8>"
p26
sS'args'
p27
S'("name \'test_var\' is not defined",)'
p28
sS'__getattribute__'
p29
S"<method-wrapper '__getattribute__' of exceptions.NameError object at 0x03369FA8>"
p30
sS'__class__'
p31
S"<type 'exceptions.NameError'>"
p32
sS'__delattr__'
p33
S"<method-wrapper '__delattr__' of exceptions.NameError object at 0x03369FA8>"
p34
sS'__repr__'
p35
S"<method-wrapper '__repr__' of exceptions.NameError object at 0x03369FA8>"
p36
sS'__dict__'
p37
S'{}'
p38
sS'__doc__'
p39
S"'Name not found globally.'"
p40
sS'__init__'
p41
S"<method-wrapper '__init__' of exceptions.NameError object at 0x03369FA8>"
p42
sS'__new__'
p43
S'<built-in method __new__ of type object at 0x1E1CD8D8>'
p44
ssS'evalue'
p45
S"name 'test_var' is not defined"
p46
sS'request'
p47
ccopy_reg
_reconstructor
p48
(cgluon.html
BEAUTIFY
p49
c__builtin__
object
p50
NtRp51
(dp52
S'attributes'
p53
(dp54
sS'components'
p55
(lp56
g48
(cgluon.html
TABLE
p57
g50
NtRp58
(dp59
g53
(dp60
S'level'
p61
I5
ssS'parent'
p62
Nsg55
(lp63
g48
(cgluon.html
TR
p64
g50
NtRp65
(dp66
g53
(dp67
sg62
g58
sg55
(lp68
g48
(cgluon.html
TD
p69
g50
NtRp70
(dp71
g53
(dp72
S'_style'
p73
S'font-weight:bold;'
p74
ssg62
g65
sg55
(lp75
S'ajax'
p76
asbag48
(g69
g50
NtRp77
(dp78
g53
(dp79
S'_valign'
p80
S'top'
p81
ssg62
g65
sg55
(lp82
S':'
asbag48
(g69
g50
NtRp83
(dp84
g53
(dp85
sg62
g65
sg55
(lp86
g48
(g49
g50
NtRp87
(dp88
g53
(dp89
g61
I5
ssg62
g83
sg55
(lp90
S'False'
p91
asbasbasbag48
(g64
g50
NtRp92
(dp93
g53
(dp94
sg62
g58
sg55
(lp95
g48
(g69
g50
NtRp96
(dp97
g53
(dp98
g73
g74
ssg62
g92
sg55
(lp99
S'application'
p100
asbag48
(g69
g50
NtRp101
(dp102
g53
(dp103
g80
g81
ssg62
g92
sg55
(lp104
S':'
asbag48
(g69
g50
NtRp105
(dp106
g53
(dp107
sg62
g92
sg55
(lp108
g48
(g49
g50
NtRp109
(dp110
g53
(dp111
g61
I5
ssg62
g105
sg55
(lp112
S'Gabb1'
p113
asbasbasbag48
(g64
g50
NtRp114
(dp115
g53
(dp116
sg62
g58
sg55
(lp117
g48
(g69
g50
NtRp118
(dp119
g53
(dp120
g73
g74
ssg62
g114
sg55
(lp121
g27
asbag48
(g69
g50
NtRp122
(dp123
g53
(dp124
g80
g81
ssg62
g114
sg55
(lp125
S':'
asbag48
(g69
g50
NtRp126
(dp127
g53
(dp128
sg62
g114
sg55
(lp129
g48
(g49
g50
NtRp130
(dp131
g53
(dp132
g61
I5
ssg62
g126
sg55
(lp133
g48
(g57
g50
NtRp134
(dp135
g53
(dp136
g61
I4
ssg62
Nsg55
(lp137
sbasbasbasbag48
(g64
g50
NtRp138
(dp139
g53
(dp140
sg62
g58
sg55
(lp141
g48
(g69
g50
NtRp142
(dp143
g53
(dp144
g73
g74
ssg62
g138
sg55
(lp145
S'body'
p146
asbag48
(g69
g50
NtRp147
(dp148
g53
(dp149
g80
g81
ssg62
g138
sg55
(lp150
S':'
asbag48
(g69
g50
NtRp151
(dp152
g53
(dp153
sg62
g138
sg55
(lp154
g48
(g49
g50
NtRp155
(dp156
g53
(dp157
g61
I5
ssg62
g151
sg55
(lp158
S'<cStringIO.StringO object at 0x03B898C0>'
p159
asbasbasbag48
(g64
g50
NtRp160
(dp161
g53
(dp162
sg62
g58
sg55
(lp163
g48
(g69
g50
NtRp164
(dp165
g53
(dp166
g73
g74
ssg62
g160
sg55
(lp167
S'client'
p168
asbag48
(g69
g50
NtRp169
(dp170
g53
(dp171
g80
g81
ssg62
g160
sg55
(lp172
S':'
asbag48
(g69
g50
NtRp173
(dp174
g53
(dp175
sg62
g160
sg55
(lp176
g48
(g49
g50
NtRp177
(dp178
g53
(dp179
g61
I5
ssg62
g173
sg55
(lp180
S'127.0.0.1'
p181
asbasbasbag48
(g64
g50
NtRp182
(dp183
g53
(dp184
sg62
g58
sg55
(lp185
g48
(g69
g50
NtRp186
(dp187
g53
(dp188
g73
g74
ssg62
g182
sg55
(lp189
S'controller'
p190
asbag48
(g69
g50
NtRp191
(dp192
g53
(dp193
g80
g81
ssg62
g182
sg55
(lp194
S':'
asbag48
(g69
g50
NtRp195
(dp196
g53
(dp197
sg62
g182
sg55
(lp198
g48
(g49
g50
NtRp199
(dp200
g53
(dp201
g61
I5
ssg62
g195
sg55
(lp202
S'fb_serv'
p203
asbasbasbag48
(g64
g50
NtRp204
(dp205
g53
(dp206
sg62
g58
sg55
(lp207
g48
(g69
g50
NtRp208
(dp209
g53
(dp210
g73
g74
ssg62
g204
sg55
(lp211
S'cookies'
p212
asbag48
(g69
g50
NtRp213
(dp214
g53
(dp215
g80
g81
ssg62
g204
sg55
(lp216
S':'
asbag48
(g69
g50
NtRp217
(dp218
g53
(dp219
sg62
g204
sg55
(lp220
g48
(g49
g50
NtRp221
(dp222
g53
(dp223
g61
I5
ssg62
g217
sg55
(lp224
g48
(g57
g50
NtRp225
(dp226
g53
(dp227
g61
I4
ssg62
Nsg55
(lp228
g48
(g64
g50
NtRp229
(dp230
g53
(dp231
sg62
g225
sg55
(lp232
g48
(g69
g50
NtRp233
(dp234
g53
(dp235
g73
g74
ssg62
g229
sg55
(lp236
S'session_id_admin'
p237
asbag48
(g69
g50
NtRp238
(dp239
g53
(dp240
g80
g81
ssg62
g229
sg55
(lp241
S':'
asbag48
(g69
g50
NtRp242
(dp243
g53
(dp244
sg62
g229
sg55
(lp245
g48
(g49
g50
NtRp246
(dp247
g53
(dp248
g61
I4
ssg62
g242
sg55
(lp249
g48
(g57
g50
NtRp250
(dp251
g53
(dp252
g61
I3
ssg62
Nsg55
(lp253
g48
(g64
g50
NtRp254
(dp255
g53
(dp256
sg62
g250
sg55
(lp257
g48
(g69
g50
NtRp258
(dp259
g53
(dp260
g73
g74
ssg62
g254
sg55
(lp261
S'comment'
p262
asbag48
(g69
g50
NtRp263
(dp264
g53
(dp265
g80
g81
ssg62
g254
sg55
(lp266
S':'
asbag48
(g69
g50
NtRp267
(dp268
g53
(dp269
sg62
g254
sg55
(lp270
g48
(g49
g50
NtRp271
(dp272
g53
(dp273
g61
I3
ssg62
g267
sg55
(lp274
S''
asbasbasbag48
(g64
g50
NtRp275
(dp276
g53
(dp277
sg62
g250
sg55
(lp278
g48
(g69
g50
NtRp279
(dp280
g53
(dp281
g73
g74
ssg62
g275
sg55
(lp282
S'domain'
p283
asbag48
(g69
g50
NtRp284
(dp285
g53
(dp286
g80
g81
ssg62
g275
sg55
(lp287
S':'
asbag48
(g69
g50
NtRp288
(dp289
g53
(dp290
sg62
g275
sg55
(lp291
g48
(g49
g50
NtRp292
(dp293
g53
(dp294
g61
I3
ssg62
g288
sg55
(lp295
S''
asbasbasbag48
(g64
g50
NtRp296
(dp297
g53
(dp298
sg62
g250
sg55
(lp299
g48
(g69
g50
NtRp300
(dp301
g53
(dp302
g73
g74
ssg62
g296
sg55
(lp303
S'expires'
p304
asbag48
(g69
g50
NtRp305
(dp306
g53
(dp307
g80
g81
ssg62
g296
sg55
(lp308
S':'
asbag48
(g69
g50
NtRp309
(dp310
g53
(dp311
sg62
g296
sg55
(lp312
g48
(g49
g50
NtRp313
(dp314
g53
(dp315
g61
I3
ssg62
g309
sg55
(lp316
S''
asbasbasbag48
(g64
g50
NtRp317
(dp318
g53
(dp319
sg62
g250
sg55
(lp320
g48
(g69
g50
NtRp321
(dp322
g53
(dp323
g73
g74
ssg62
g317
sg55
(lp324
S'max-age'
p325
asbag48
(g69
g50
NtRp326
(dp327
g53
(dp328
g80
g81
ssg62
g317
sg55
(lp329
S':'
asbag48
(g69
g50
NtRp330
(dp331
g53
(dp332
sg62
g317
sg55
(lp333
g48
(g49
g50
NtRp334
(dp335
g53
(dp336
g61
I3
ssg62
g330
sg55
(lp337
S''
asbasbasbag48
(g64
g50
NtRp338
(dp339
g53
(dp340
sg62
g250
sg55
(lp341
g48
(g69
g50
NtRp342
(dp343
g53
(dp344
g73
g74
ssg62
g338
sg55
(lp345
S'path'
p346
asbag48
(g69
g50
NtRp347
(dp348
g53
(dp349
g80
g81
ssg62
g338
sg55
(lp350
S':'
asbag48
(g69
g50
NtRp351
(dp352
g53
(dp353
sg62
g338
sg55
(lp354
g48
(g49
g50
NtRp355
(dp356
g53
(dp357
g61
I3
ssg62
g351
sg55
(lp358
S''
asbasbasbag48
(g64
g50
NtRp359
(dp360
g53
(dp361
sg62
g250
sg55
(lp362
g48
(g69
g50
NtRp363
(dp364
g53
(dp365
g73
g74
ssg62
g359
sg55
(lp366
S'secure'
p367
asbag48
(g69
g50
NtRp368
(dp369
g53
(dp370
g80
g81
ssg62
g359
sg55
(lp371
S':'
asbag48
(g69
g50
NtRp372
(dp373
g53
(dp374
sg62
g359
sg55
(lp375
g48
(g49
g50
NtRp376
(dp377
g53
(dp378
g61
I3
ssg62
g372
sg55
(lp379
S''
asbasbasbag48
(g64
g50
NtRp380
(dp381
g53
(dp382
sg62
g250
sg55
(lp383
g48
(g69
g50
NtRp384
(dp385
g53
(dp386
g73
g74
ssg62
g380
sg55
(lp387
S'version'
p388
asbag48
(g69
g50
NtRp389
(dp390
g53
(dp391
g80
g81
ssg62
g380
sg55
(lp392
S':'
asbag48
(g69
g50
NtRp393
(dp394
g53
(dp395
sg62
g380
sg55
(lp396
g48
(g49
g50
NtRp397
(dp398
g53
(dp399
g61
I3
ssg62
g393
sg55
(lp400
S''
asbasbasbasbasbasbasbag48
(g64
g50
NtRp401
(dp402
g53
(dp403
sg62
g225
sg55
(lp404
g48
(g69
g50
NtRp405
(dp406
g53
(dp407
g73
g74
ssg62
g401
sg55
(lp408
S'session_id_gabb1'
p409
asbag48
(g69
g50
NtRp410
(dp411
g53
(dp412
g80
g81
ssg62
g401
sg55
(lp413
S':'
asbag48
(g69
g50
NtRp414
(dp415
g53
(dp416
sg62
g401
sg55
(lp417
g48
(g49
g50
NtRp418
(dp419
g53
(dp420
g61
I4
ssg62
g414
sg55
(lp421
g48
(g57
g50
NtRp422
(dp423
g53
(dp424
g61
I3
ssg62
Nsg55
(lp425
g48
(g64
g50
NtRp426
(dp427
g53
(dp428
sg62
g422
sg55
(lp429
g48
(g69
g50
NtRp430
(dp431
g53
(dp432
g73
g74
ssg62
g426
sg55
(lp433
g262
asbag48
(g69
g50
NtRp434
(dp435
g53
(dp436
g80
g81
ssg62
g426
sg55
(lp437
S':'
asbag48
(g69
g50
NtRp438
(dp439
g53
(dp440
sg62
g426
sg55
(lp441
g48
(g49
g50
NtRp442
(dp443
g53
(dp444
g61
I3
ssg62
g438
sg55
(lp445
S''
asbasbasbag48
(g64
g50
NtRp446
(dp447
g53
(dp448
sg62
g422
sg55
(lp449
g48
(g69
g50
NtRp450
(dp451
g53
(dp452
g73
g74
ssg62
g446
sg55
(lp453
g283
asbag48
(g69
g50
NtRp454
(dp455
g53
(dp456
g80
g81
ssg62
g446
sg55
(lp457
S':'
asbag48
(g69
g50
NtRp458
(dp459
g53
(dp460
sg62
g446
sg55
(lp461
g48
(g49
g50
NtRp462
(dp463
g53
(dp464
g61
I3
ssg62
g458
sg55
(lp465
S''
asbasbasbag48
(g64
g50
NtRp466
(dp467
g53
(dp468
sg62
g422
sg55
(lp469
g48
(g69
g50
NtRp470
(dp471
g53
(dp472
g73
g74
ssg62
g466
sg55
(lp473
g304
asbag48
(g69
g50
NtRp474
(dp475
g53
(dp476
g80
g81
ssg62
g466
sg55
(lp477
S':'
asbag48
(g69
g50
NtRp478
(dp479
g53
(dp480
sg62
g466
sg55
(lp481
g48
(g49
g50
NtRp482
(dp483
g53
(dp484
g61
I3
ssg62
g478
sg55
(lp485
S''
asbasbasbag48
(g64
g50
NtRp486
(dp487
g53
(dp488
sg62
g422
sg55
(lp489
g48
(g69
g50
NtRp490
(dp491
g53
(dp492
g73
g74
ssg62
g486
sg55
(lp493
g325
asbag48
(g69
g50
NtRp494
(dp495
g53
(dp496
g80
g81
ssg62
g486
sg55
(lp497
S':'
asbag48
(g69
g50
NtRp498
(dp499
g53
(dp500
sg62
g486
sg55
(lp501
g48
(g49
g50
NtRp502
(dp503
g53
(dp504
g61
I3
ssg62
g498
sg55
(lp505
S''
asbasbasbag48
(g64
g50
NtRp506
(dp507
g53
(dp508
sg62
g422
sg55
(lp509
g48
(g69
g50
NtRp510
(dp511
g53
(dp512
g73
g74
ssg62
g506
sg55
(lp513
g346
asbag48
(g69
g50
NtRp514
(dp515
g53
(dp516
g80
g81
ssg62
g506
sg55
(lp517
S':'
asbag48
(g69
g50
NtRp518
(dp519
g53
(dp520
sg62
g506
sg55
(lp521
g48
(g49
g50
NtRp522
(dp523
g53
(dp524
g61
I3
ssg62
g518
sg55
(lp525
S''
asbasbasbag48
(g64
g50
NtRp526
(dp527
g53
(dp528
sg62
g422
sg55
(lp529
g48
(g69
g50
NtRp530
(dp531
g53
(dp532
g73
g74
ssg62
g526
sg55
(lp533
g367
asbag48
(g69
g50
NtRp534
(dp535
g53
(dp536
g80
g81
ssg62
g526
sg55
(lp537
S':'
asbag48
(g69
g50
NtRp538
(dp539
g53
(dp540
sg62
g526
sg55
(lp541
g48
(g49
g50
NtRp542
(dp543
g53
(dp544
g61
I3
ssg62
g538
sg55
(lp545
S''
asbasbasbag48
(g64
g50
NtRp546
(dp547
g53
(dp548
sg62
g422
sg55
(lp549
g48
(g69
g50
NtRp550
(dp551
g53
(dp552
g73
g74
ssg62
g546
sg55
(lp553
g388
asbag48
(g69
g50
NtRp554
(dp555
g53
(dp556
g80
g81
ssg62
g546
sg55
(lp557
S':'
asbag48
(g69
g50
NtRp558
(dp559
g53
(dp560
sg62
g546
sg55
(lp561
g48
(g49
g50
NtRp562
(dp563
g53
(dp564
g61
I3
ssg62
g558
sg55
(lp565
S''
asbasbasbasbasbasbasbag48
(g64
g50
NtRp566
(dp567
g53
(dp568
sg62
g225
sg55
(lp569
g48
(g69
g50
NtRp570
(dp571
g53
(dp572
g73
g74
ssg62
g566
sg55
(lp573
S'session_id_welcome'
p574
asbag48
(g69
g50
NtRp575
(dp576
g53
(dp577
g80
g81
ssg62
g566
sg55
(lp578
S':'
asbag48
(g69
g50
NtRp579
(dp580
g53
(dp581
sg62
g566
sg55
(lp582
g48
(g49
g50
NtRp583
(dp584
g53
(dp585
g61
I4
ssg62
g579
sg55
(lp586
g48
(g57
g50
NtRp587
(dp588
g53
(dp589
g61
I3
ssg62
Nsg55
(lp590
g48
(g64
g50
NtRp591
(dp592
g53
(dp593
sg62
g587
sg55
(lp594
g48
(g69
g50
NtRp595
(dp596
g53
(dp597
g73
g74
ssg62
g591
sg55
(lp598
g262
asbag48
(g69
g50
NtRp599
(dp600
g53
(dp601
g80
g81
ssg62
g591
sg55
(lp602
S':'
asbag48
(g69
g50
NtRp603
(dp604
g53
(dp605
sg62
g591
sg55
(lp606
g48
(g49
g50
NtRp607
(dp608
g53
(dp609
g61
I3
ssg62
g603
sg55
(lp610
S''
asbasbasbag48
(g64
g50
NtRp611
(dp612
g53
(dp613
sg62
g587
sg55
(lp614
g48
(g69
g50
NtRp615
(dp616
g53
(dp617
g73
g74
ssg62
g611
sg55
(lp618
g283
asbag48
(g69
g50
NtRp619
(dp620
g53
(dp621
g80
g81
ssg62
g611
sg55
(lp622
S':'
asbag48
(g69
g50
NtRp623
(dp624
g53
(dp625
sg62
g611
sg55
(lp626
g48
(g49
g50
NtRp627
(dp628
g53
(dp629
g61
I3
ssg62
g623
sg55
(lp630
S''
asbasbasbag48
(g64
g50
NtRp631
(dp632
g53
(dp633
sg62
g587
sg55
(lp634
g48
(g69
g50
NtRp635
(dp636
g53
(dp637
g73
g74
ssg62
g631
sg55
(lp638
g304
asbag48
(g69
g50
NtRp639
(dp640
g53
(dp641
g80
g81
ssg62
g631
sg55
(lp642
S':'
asbag48
(g69
g50
NtRp643
(dp644
g53
(dp645
sg62
g631
sg55
(lp646
g48
(g49
g50
NtRp647
(dp648
g53
(dp649
g61
I3
ssg62
g643
sg55
(lp650
S''
asbasbasbag48
(g64
g50
NtRp651
(dp652
g53
(dp653
sg62
g587
sg55
(lp654
g48
(g69
g50
NtRp655
(dp656
g53
(dp657
g73
g74
ssg62
g651
sg55
(lp658
g325
asbag48
(g69
g50
NtRp659
(dp660
g53
(dp661
g80
g81
ssg62
g651
sg55
(lp662
S':'
asbag48
(g69
g50
NtRp663
(dp664
g53
(dp665
sg62
g651
sg55
(lp666
g48
(g49
g50
NtRp667
(dp668
g53
(dp669
g61
I3
ssg62
g663
sg55
(lp670
S''
asbasbasbag48
(g64
g50
NtRp671
(dp672
g53
(dp673
sg62
g587
sg55
(lp674
g48
(g69
g50
NtRp675
(dp676
g53
(dp677
g73
g74
ssg62
g671
sg55
(lp678
g346
asbag48
(g69
g50
NtRp679
(dp680
g53
(dp681
g80
g81
ssg62
g671
sg55
(lp682
S':'
asbag48
(g69
g50
NtRp683
(dp684
g53
(dp685
sg62
g671
sg55
(lp686
g48
(g49
g50
NtRp687
(dp688
g53
(dp689
g61
I3
ssg62
g683
sg55
(lp690
S''
asbasbasbag48
(g64
g50
NtRp691
(dp692
g53
(dp693
sg62
g587
sg55
(lp694
g48
(g69
g50
NtRp695
(dp696
g53
(dp697
g73
g74
ssg62
g691
sg55
(lp698
g367
asbag48
(g69
g50
NtRp699
(dp700
g53
(dp701
g80
g81
ssg62
g691
sg55
(lp702
S':'
asbag48
(g69
g50
NtRp703
(dp704
g53
(dp705
sg62
g691
sg55
(lp706
g48
(g49
g50
NtRp707
(dp708
g53
(dp709
g61
I3
ssg62
g703
sg55
(lp710
S''
asbasbasbag48
(g64
g50
NtRp711
(dp712
g53
(dp713
sg62
g587
sg55
(lp714
g48
(g69
g50
NtRp715
(dp716
g53
(dp717
g73
g74
ssg62
g711
sg55
(lp718
g388
asbag48
(g69
g50
NtRp719
(dp720
g53
(dp721
g80
g81
ssg62
g711
sg55
(lp722
S':'
asbag48
(g69
g50
NtRp723
(dp724
g53
(dp725
sg62
g711
sg55
(lp726
g48
(g49
g50
NtRp727
(dp728
g53
(dp729
g61
I3
ssg62
g723
sg55
(lp730
S''
asbasbasbasbasbasbasbasbasbasbasbag48
(g64
g50
NtRp731
(dp732
g53
(dp733
sg62
g58
sg55
(lp734
g48
(g69
g50
NtRp735
(dp736
g53
(dp737
g73
g74
ssg62
g731
sg55
(lp738
S'env'
p739
asbag48
(g69
g50
NtRp740
(dp741
g53
(dp742
g80
g81
ssg62
g731
sg55
(lp743
S':'
asbag48
(g69
g50
NtRp744
(dp745
g53
(dp746
sg62
g731
sg55
(lp747
g48
(g49
g50
NtRp748
(dp749
g53
(dp750
g61
I5
ssg62
g744
sg55
(lp751
g48
(g57
g50
NtRp752
(dp753
g53
(dp754
g61
I4
ssg62
Nsg55
(lp755
g48
(g64
g50
NtRp756
(dp757
g53
(dp758
sg62
g752
sg55
(lp759
g48
(g69
g50
NtRp760
(dp761
g53
(dp762
g73
g74
ssg62
g756
sg55
(lp763
S'app_folders'
p764
asbag48
(g69
g50
NtRp765
(dp766
g53
(dp767
g80
g81
ssg62
g756
sg55
(lp768
S':'
asbag48
(g69
g50
NtRp769
(dp770
g53
(dp771
sg62
g756
sg55
(lp772
g48
(g49
g50
NtRp773
(dp774
g53
(dp775
g61
I4
ssg62
g769
sg55
(lp776
S"set(['D:\\\\git_projs\\\\Gabblista\\\\web2py\\\\web2py\\\\applications\\\\Gabb1\\\\', 'D:\\\\git_projs\\\\Gabblista\\\\web2py\\\\web2py\\\\applications\\\\admin\\\\', 'D:\\\\git_projs\\\\Gabblista\\\\web2py\\\\web2py\\\\applications\\\\welcome\\\\'])"
p777
asbasbasbag48
(g64
g50
NtRp778
(dp779
g53
(dp780
sg62
g752
sg55
(lp781
g48
(g69
g50
NtRp782
(dp783
g53
(dp784
g73
g74
ssg62
g778
sg55
(lp785
S'applications_parent'
p786
asbag48
(g69
g50
NtRp787
(dp788
g53
(dp789
g80
g81
ssg62
g778
sg55
(lp790
S':'
asbag48
(g69
g50
NtRp791
(dp792
g53
(dp793
sg62
g778
sg55
(lp794
g48
(g49
g50
NtRp795
(dp796
g53
(dp797
g61
I4
ssg62
g791
sg55
(lp798
S'D:\\git_projs\\Gabblista\\web2py\\web2py'
p799
asbasbasbag48
(g64
g50
NtRp800
(dp801
g53
(dp802
sg62
g752
sg55
(lp803
g48
(g69
g50
NtRp804
(dp805
g53
(dp806
g73
g74
ssg62
g800
sg55
(lp807
S'cmd_args'
p808
asbag48
(g69
g50
NtRp809
(dp810
g53
(dp811
g80
g81
ssg62
g800
sg55
(lp812
S':'
asbag48
(g69
g50
NtRp813
(dp814
g53
(dp815
sg62
g800
sg55
(lp816
g48
(g49
g50
NtRp817
(dp818
g53
(dp819
g61
I4
ssg62
g813
sg55
(lp820
g48
(g57
g50
NtRp821
(dp822
g53
(dp823
g61
I3
ssg62
Nsg55
(lp824
sbasbasbasbag48
(g64
g50
NtRp825
(dp826
g53
(dp827
sg62
g752
sg55
(lp828
g48
(g69
g50
NtRp829
(dp830
g53
(dp831
g73
g74
ssg62
g825
sg55
(lp832
S'cmd_options'
p833
asbag48
(g69
g50
NtRp834
(dp835
g53
(dp836
g80
g81
ssg62
g825
sg55
(lp837
S':'
asbag48
(g69
g50
NtRp838
(dp839
g53
(dp840
sg62
g825
sg55
(lp841
g48
(g49
g50
NtRp842
(dp843
g53
(dp844
g61
I4
ssg62
g838
sg55
(lp845
S"<Values at 0x36fc3c8: {'verbose': False, 'ip': '127.0.0.1', 'shutdown_timeout': 5, 'taskbar': False, 'nocron': False, 'pid_filename': 'httpserver.pid', 'maxthreads': None, 'softcron': False, 'server_name': 'John-PC', 'bpython': False, 'nogui': False, 'port': 8000, 'extcron': False, 'debuglevel': 30, 'test': None, 'folder': 'D:\\\\git_projs\\\\Gabblista\\\\web2py\\\\web2py', 'config': '', 'import_models': False, 'winservice': '', 'shell': None, 'run': '', 'log_filename': 'httpserver.log', 'args': [''], 'ssl_ca_certificate': None, 'scheduler': None, 'profiler_filename': None, 'ssl_private_key': '', 'password': '<ask>', 'request_queue_size': 5, 'ssl_certificate': '', 'cronjob': False, 'plain': False, 'quiet': False, 'interfaces': None, 'minthreads': None, 'timeout': 10, 'numthreads': None, 'nobanner': False}>"
p846
asbasbasbag48
(g64
g50
NtRp847
(dp848
g53
(dp849
sg62
g752
sg55
(lp850
g48
(g69
g50
NtRp851
(dp852
g53
(dp853
g73
g74
ssg62
g847
sg55
(lp854
S'db_sessions'
p855
asbag48
(g69
g50
NtRp856
(dp857
g53
(dp858
g80
g81
ssg62
g847
sg55
(lp859
S':'
asbag48
(g69
g50
NtRp860
(dp861
g53
(dp862
sg62
g847
sg55
(lp863
g48
(g49
g50
NtRp864
(dp865
g53
(dp866
g61
I4
ssg62
g860
sg55
(lp867
S'set([])'
p868
asbasbasbag48
(g64
g50
NtRp869
(dp870
g53
(dp871
sg62
g752
sg55
(lp872
g48
(g69
g50
NtRp873
(dp874
g53
(dp875
g73
g74
ssg62
g869
sg55
(lp876
S'debugging'
p877
asbag48
(g69
g50
NtRp878
(dp879
g53
(dp880
g80
g81
ssg62
g869
sg55
(lp881
S':'
asbag48
(g69
g50
NtRp882
(dp883
g53
(dp884
sg62
g869
sg55
(lp885
g48
(g49
g50
NtRp886
(dp887
g53
(dp888
g61
I4
ssg62
g882
sg55
(lp889
g91
asbasbasbag48
(g64
g50
NtRp890
(dp891
g53
(dp892
sg62
g752
sg55
(lp893
g48
(g69
g50
NtRp894
(dp895
g53
(dp896
g73
g74
ssg62
g890
sg55
(lp897
S'gluon_parent'
p898
asbag48
(g69
g50
NtRp899
(dp900
g53
(dp901
g80
g81
ssg62
g890
sg55
(lp902
S':'
asbag48
(g69
g50
NtRp903
(dp904
g53
(dp905
sg62
g890
sg55
(lp906
g48
(g49
g50
NtRp907
(dp908
g53
(dp909
g61
I4
ssg62
g903
sg55
(lp910
S'D:\\git_projs\\Gabblista\\web2py\\web2py'
p911
asbasbasbag48
(g64
g50
NtRp912
(dp913
g53
(dp914
sg62
g752
sg55
(lp915
g48
(g69
g50
NtRp916
(dp917
g53
(dp918
g73
g74
ssg62
g912
sg55
(lp919
S'http_accept'
p920
asbag48
(g69
g50
NtRp921
(dp922
g53
(dp923
g80
g81
ssg62
g912
sg55
(lp924
S':'
asbag48
(g69
g50
NtRp925
(dp926
g53
(dp927
sg62
g912
sg55
(lp928
g48
(g49
g50
NtRp929
(dp930
g53
(dp931
g61
I4
ssg62
g925
sg55
(lp932
S'text/html,application/xhtml+xml,application/xml;q=0.9,*/*;q=0.8'
p933
asbasbasbag48
(g64
g50
NtRp934
(dp935
g53
(dp936
sg62
g752
sg55
(lp937
g48
(g69
g50
NtRp938
(dp939
g53
(dp940
g73
g74
ssg62
g934
sg55
(lp941
S'http_accept_charset'
p942
asbag48
(g69
g50
NtRp943
(dp944
g53
(dp945
g80
g81
ssg62
g934
sg55
(lp946
S':'
asbag48
(g69
g50
NtRp947
(dp948
g53
(dp949
sg62
g934
sg55
(lp950
g48
(g49
g50
NtRp951
(dp952
g53
(dp953
g61
I4
ssg62
g947
sg55
(lp954
S'ISO-8859-1,utf-8;q=0.7,*;q=0.3'
p955
asbasbasbag48
(g64
g50
NtRp956
(dp957
g53
(dp958
sg62
g752
sg55
(lp959
g48
(g69
g50
NtRp960
(dp961
g53
(dp962
g73
g74
ssg62
g956
sg55
(lp963
S'http_accept_encoding'
p964
asbag48
(g69
g50
NtRp965
(dp966
g53
(dp967
g80
g81
ssg62
g956
sg55
(lp968
S':'
asbag48
(g69
g50
NtRp969
(dp970
g53
(dp971
sg62
g956
sg55
(lp972
g48
(g49
g50
NtRp973
(dp974
g53
(dp975
g61
I4
ssg62
g969
sg55
(lp976
S'gzip,deflate,sdch'
p977
asbasbasbag48
(g64
g50
NtRp978
(dp979
g53
(dp980
sg62
g752
sg55
(lp981
g48
(g69
g50
NtRp982
(dp983
g53
(dp984
g73
g74
ssg62
g978
sg55
(lp985
S'http_accept_language'
p986
asbag48
(g69
g50
NtRp987
(dp988
g53
(dp989
g80
g81
ssg62
g978
sg55
(lp990
S':'
asbag48
(g69
g50
NtRp991
(dp992
g53
(dp993
sg62
g978
sg55
(lp994
g48
(g49
g50
NtRp995
(dp996
g53
(dp997
g61
I4
ssg62
g991
sg55
(lp998
S'en-US,en;q=0.8'
p999
asbasbasbag48
(g64
g50
NtRp1000
(dp1001
g53
(dp1002
sg62
g752
sg55
(lp1003
g48
(g69
g50
NtRp1004
(dp1005
g53
(dp1006
g73
g74
ssg62
g1000
sg55
(lp1007
S'http_connection'
p1008
asbag48
(g69
g50
NtRp1009
(dp1010
g53
(dp1011
g80
g81
ssg62
g1000
sg55
(lp1012
S':'
asbag48
(g69
g50
NtRp1013
(dp1014
g53
(dp1015
sg62
g1000
sg55
(lp1016
g48
(g49
g50
NtRp1017
(dp1018
g53
(dp1019
g61
I4
ssg62
g1013
sg55
(lp1020
S'keep-alive'
p1021
asbasbasbag48
(g64
g50
NtRp1022
(dp1023
g53
(dp1024
sg62
g752
sg55
(lp1025
g48
(g69
g50
NtRp1026
(dp1027
g53
(dp1028
g73
g74
ssg62
g1022
sg55
(lp1029
S'http_cookie'
p1030
asbag48
(g69
g50
NtRp1031
(dp1032
g53
(dp1033
g80
g81
ssg62
g1022
sg55
(lp1034
S':'
asbag48
(g69
g50
NtRp1035
(dp1036
g53
(dp1037
sg62
g1022
sg55
(lp1038
g48
(g49
g50
NtRp1039
(dp1040
g53
(dp1041
g61
I4
ssg62
g1035
sg55
(lp1042
S'session_id_welcome=127.0.0.1-a4f32c6f-d04a-428c-9fe4-3d0041e1119e; session_id_gabb1=127.0.0.1-e8ee158a-b502-4c37-bb34-17d2e93f96f3; session_id_admin=127.0.0.1-62b76528-6a42-41fc-9d79-2ae2ffed28c0'
p1043
asbasbasbag48
(g64
g50
NtRp1044
(dp1045
g53
(dp1046
sg62
g752
sg55
(lp1047
g48
(g69
g50
NtRp1048
(dp1049
g53
(dp1050
g73
g74
ssg62
g1044
sg55
(lp1051
S'http_host'
p1052
asbag48
(g69
g50
NtRp1053
(dp1054
g53
(dp1055
g80
g81
ssg62
g1044
sg55
(lp1056
S':'
asbag48
(g69
g50
NtRp1057
(dp1058
g53
(dp1059
sg62
g1044
sg55
(lp1060
g48
(g49
g50
NtRp1061
(dp1062
g53
(dp1063
g61
I4
ssg62
g1057
sg55
(lp1064
S'127.0.0.1:8000'
p1065
asbasbasbag48
(g64
g50
NtRp1066
(dp1067
g53
(dp1068
sg62
g752
sg55
(lp1069
g48
(g69
g50
NtRp1070
(dp1071
g53
(dp1072
g73
g74
ssg62
g1066
sg55
(lp1073
S'http_user_agent'
p1074
asbag48
(g69
g50
NtRp1075
(dp1076
g53
(dp1077
g80
g81
ssg62
g1066
sg55
(lp1078
S':'
asbag48
(g69
g50
NtRp1079
(dp1080
g53
(dp1081
sg62
g1066
sg55
(lp1082
g48
(g49
g50
NtRp1083
(dp1084
g53
(dp1085
g61
I4
ssg62
g1079
sg55
(lp1086
S'Mozilla/5.0 (Windows NT 6.1; WOW64) AppleWebKit/535.7 (KHTML, like Gecko) Chrome/16.0.912.75 Safari/535.7'
p1087
asbasbasbag48
(g64
g50
NtRp1088
(dp1089
g53
(dp1090
sg62
g752
sg55
(lp1091
g48
(g69
g50
NtRp1092
(dp1093
g53
(dp1094
g73
g74
ssg62
g1088
sg55
(lp1095
S'is_jython'
p1096
asbag48
(g69
g50
NtRp1097
(dp1098
g53
(dp1099
g80
g81
ssg62
g1088
sg55
(lp1100
S':'
asbag48
(g69
g50
NtRp1101
(dp1102
g53
(dp1103
sg62
g1088
sg55
(lp1104
g48
(g49
g50
NtRp1105
(dp1106
g53
(dp1107
g61
I4
ssg62
g1101
sg55
(lp1108
g91
asbasbasbag48
(g64
g50
NtRp1109
(dp1110
g53
(dp1111
sg62
g752
sg55
(lp1112
g48
(g69
g50
NtRp1113
(dp1114
g53
(dp1115
g73
g74
ssg62
g1109
sg55
(lp1116
S'path_info'
p1117
asbag48
(g69
g50
NtRp1118
(dp1119
g53
(dp1120
g80
g81
ssg62
g1109
sg55
(lp1121
S':'
asbag48
(g69
g50
NtRp1122
(dp1123
g53
(dp1124
sg62
g1109
sg55
(lp1125
g48
(g49
g50
NtRp1126
(dp1127
g53
(dp1128
g61
I4
ssg62
g1122
sg55
(lp1129
S'/Gabb1/fb_serv/serve_player_data.txt'
p1130
asbasbasbag48
(g64
g50
NtRp1131
(dp1132
g53
(dp1133
sg62
g752
sg55
(lp1134
g48
(g69
g50
NtRp1135
(dp1136
g53
(dp1137
g73
g74
ssg62
g1131
sg55
(lp1138
S'query_string'
p1139
asbag48
(g69
g50
NtRp1140
(dp1141
g53
(dp1142
g80
g81
ssg62
g1131
sg55
(lp1143
S':'
asbag48
(g69
g50
NtRp1144
(dp1145
g53
(dp1146
sg62
g1131
sg55
(lp1147
g48
(g49
g50
NtRp1148
(dp1149
g53
(dp1150
g61
I4
ssg62
g1144
sg55
(lp1151
S'test_var=blargh'
p1152
asbasbasbag48
(g64
g50
NtRp1153
(dp1154
g53
(dp1155
sg62
g752
sg55
(lp1156
g48
(g69
g50
NtRp1157
(dp1158
g53
(dp1159
g73
g74
ssg62
g1153
sg55
(lp1160
S'remote_addr'
p1161
asbag48
(g69
g50
NtRp1162
(dp1163
g53
(dp1164
g80
g81
ssg62
g1153
sg55
(lp1165
S':'
asbag48
(g69
g50
NtRp1166
(dp1167
g53
(dp1168
sg62
g1153
sg55
(lp1169
g48
(g49
g50
NtRp1170
(dp1171
g53
(dp1172
g61
I4
ssg62
g1166
sg55
(lp1173
g181
asbasbasbag48
(g64
g50
NtRp1174
(dp1175
g53
(dp1176
sg62
g752
sg55
(lp1177
g48
(g69
g50
NtRp1178
(dp1179
g53
(dp1180
g73
g74
ssg62
g1174
sg55
(lp1181
S'remote_port'
p1182
asbag48
(g69
g50
NtRp1183
(dp1184
g53
(dp1185
g80
g81
ssg62
g1174
sg55
(lp1186
S':'
asbag48
(g69
g50
NtRp1187
(dp1188
g53
(dp1189
sg62
g1174
sg55
(lp1190
g48
(g49
g50
NtRp1191
(dp1192
g53
(dp1193
g61
I4
ssg62
g1187
sg55
(lp1194
S'53410'
p1195
asbasbasbag48
(g64
g50
NtRp1196
(dp1197
g53
(dp1198
sg62
g752
sg55
(lp1199
g48
(g69
g50
NtRp1200
(dp1201
g53
(dp1202
g73
g74
ssg62
g1196
sg55
(lp1203
S'request_method'
p1204
asbag48
(g69
g50
NtRp1205
(dp1206
g53
(dp1207
g80
g81
ssg62
g1196
sg55
(lp1208
S':'
asbag48
(g69
g50
NtRp1209
(dp1210
g53
(dp1211
sg62
g1196
sg55
(lp1212
g48
(g49
g50
NtRp1213
(dp1214
g53
(dp1215
g61
I4
ssg62
g1209
sg55
(lp1216
S'GET'
p1217
asbasbasbag48
(g64
g50
NtRp1218
(dp1219
g53
(dp1220
sg62
g752
sg55
(lp1221
g48
(g69
g50
NtRp1222
(dp1223
g53
(dp1224
g73
g74
ssg62
g1218
sg55
(lp1225
S'request_uri'
p1226
asbag48
(g69
g50
NtRp1227
(dp1228
g53
(dp1229
g80
g81
ssg62
g1218
sg55
(lp1230
S':'
asbag48
(g69
g50
NtRp1231
(dp1232
g53
(dp1233
sg62
g1218
sg55
(lp1234
g48
(g49
g50
NtRp1235
(dp1236
g53
(dp1237
g61
I4
ssg62
g1231
sg55
(lp1238
S'/Gabb1/fb_serv/serve_player_data.txt?test_var=blargh'
p1239
asbasbasbag48
(g64
g50
NtRp1240
(dp1241
g53
(dp1242
sg62
g752
sg55
(lp1243
g48
(g69
g50
NtRp1244
(dp1245
g53
(dp1246
g73
g74
ssg62
g1240
sg55
(lp1247
S'script_name'
p1248
asbag48
(g69
g50
NtRp1249
(dp1250
g53
(dp1251
g80
g81
ssg62
g1240
sg55
(lp1252
S':'
asbag48
(g69
g50
NtRp1253
(dp1254
g53
(dp1255
sg62
g1240
sg55
(lp1256
g48
(g49
g50
NtRp1257
(dp1258
g53
(dp1259
g61
I4
ssg62
g1253
sg55
(lp1260
S''
asbasbasbag48
(g64
g50
NtRp1261
(dp1262
g53
(dp1263
sg62
g752
sg55
(lp1264
g48
(g69
g50
NtRp1265
(dp1266
g53
(dp1267
g73
g74
ssg62
g1261
sg55
(lp1268
S'server_name'
p1269
asbag48
(g69
g50
NtRp1270
(dp1271
g53
(dp1272
g80
g81
ssg62
g1261
sg55
(lp1273
S':'
asbag48
(g69
g50
NtRp1274
(dp1275
g53
(dp1276
sg62
g1261
sg55
(lp1277
g48
(g49
g50
NtRp1278
(dp1279
g53
(dp1280
g61
I4
ssg62
g1274
sg55
(lp1281
S'John-PC'
p1282
asbasbasbag48
(g64
g50
NtRp1283
(dp1284
g53
(dp1285
sg62
g752
sg55
(lp1286
g48
(g69
g50
NtRp1287
(dp1288
g53
(dp1289
g73
g74
ssg62
g1283
sg55
(lp1290
S'server_port'
p1291
asbag48
(g69
g50
NtRp1292
(dp1293
g53
(dp1294
g80
g81
ssg62
g1283
sg55
(lp1295
S':'
asbag48
(g69
g50
NtRp1296
(dp1297
g53
(dp1298
sg62
g1283
sg55
(lp1299
g48
(g49
g50
NtRp1300
(dp1301
g53
(dp1302
g61
I4
ssg62
g1296
sg55
(lp1303
S'8000'
p1304
asbasbasbag48
(g64
g50
NtRp1305
(dp1306
g53
(dp1307
sg62
g752
sg55
(lp1308
g48
(g69
g50
NtRp1309
(dp1310
g53
(dp1311
g73
g74
ssg62
g1305
sg55
(lp1312
S'server_protocol'
p1313
asbag48
(g69
g50
NtRp1314
(dp1315
g53
(dp1316
g80
g81
ssg62
g1305
sg55
(lp1317
S':'
asbag48
(g69
g50
NtRp1318
(dp1319
g53
(dp1320
sg62
g1305
sg55
(lp1321
g48
(g49
g50
NtRp1322
(dp1323
g53
(dp1324
g61
I4
ssg62
g1318
sg55
(lp1325
S'HTTP/1.1'
p1326
asbasbasbag48
(g64
g50
NtRp1327
(dp1328
g53
(dp1329
sg62
g752
sg55
(lp1330
g48
(g69
g50
NtRp1331
(dp1332
g53
(dp1333
g73
g74
ssg62
g1327
sg55
(lp1334
S'server_software'
p1335
asbag48
(g69
g50
NtRp1336
(dp1337
g53
(dp1338
g80
g81
ssg62
g1327
sg55
(lp1339
S':'
asbag48
(g69
g50
NtRp1340
(dp1341
g53
(dp1342
sg62
g1327
sg55
(lp1343
g48
(g49
g50
NtRp1344
(dp1345
g53
(dp1346
g61
I4
ssg62
g1340
sg55
(lp1347
S'Rocket 1.2.4'
p1348
asbasbasbag48
(g64
g50
NtRp1349
(dp1350
g53
(dp1351
sg62
g752
sg55
(lp1352
g48
(g69
g50
NtRp1353
(dp1354
g53
(dp1355
g73
g74
ssg62
g1349
sg55
(lp1356
S'web2py_crontype'
p1357
asbag48
(g69
g50
NtRp1358
(dp1359
g53
(dp1360
g80
g81
ssg62
g1349
sg55
(lp1361
S':'
asbag48
(g69
g50
NtRp1362
(dp1363
g53
(dp1364
sg62
g1349
sg55
(lp1365
g48
(g49
g50
NtRp1366
(dp1367
g53
(dp1368
g61
I4
ssg62
g1362
sg55
(lp1369
S'hard'
p1370
asbasbasbag48
(g64
g50
NtRp1371
(dp1372
g53
(dp1373
sg62
g752
sg55
(lp1374
g48
(g69
g50
NtRp1375
(dp1376
g53
(dp1377
g73
g74
ssg62
g1371
sg55
(lp1378
S'web2py_original_uri'
p1379
asbag48
(g69
g50
NtRp1380
(dp1381
g53
(dp1382
g80
g81
ssg62
g1371
sg55
(lp1383
S':'
asbag48
(g69
g50
NtRp1384
(dp1385
g53
(dp1386
sg62
g1371
sg55
(lp1387
g48
(g49
g50
NtRp1388
(dp1389
g53
(dp1390
g61
I4
ssg62
g1384
sg55
(lp1391
S'/Gabb1/fb_serv/serve_player_data.txt?test_var=blargh'
p1392
asbasbasbag48
(g64
g50
NtRp1393
(dp1394
g53
(dp1395
sg62
g752
sg55
(lp1396
g48
(g69
g50
NtRp1397
(dp1398
g53
(dp1399
g73
g74
ssg62
g1393
sg55
(lp1400
S'web2py_path'
p1401
asbag48
(g69
g50
NtRp1402
(dp1403
g53
(dp1404
g80
g81
ssg62
g1393
sg55
(lp1405
S':'
asbag48
(g69
g50
NtRp1406
(dp1407
g53
(dp1408
sg62
g1393
sg55
(lp1409
g48
(g49
g50
NtRp1410
(dp1411
g53
(dp1412
g61
I4
ssg62
g1406
sg55
(lp1413
g799
asbasbasbag48
(g64
g50
NtRp1414
(dp1415
g53
(dp1416
sg62
g752
sg55
(lp1417
g48
(g69
g50
NtRp1418
(dp1419
g53
(dp1420
g73
g74
ssg62
g1414
sg55
(lp1421
S'web2py_version'
p1422
asbag48
(g69
g50
NtRp1423
(dp1424
g53
(dp1425
g80
g81
ssg62
g1414
sg55
(lp1426
S':'
asbag48
(g69
g50
NtRp1427
(dp1428
g53
(dp1429
sg62
g1414
sg55
(lp1430
g48
(g49
g50
NtRp1431
(dp1432
g53
(dp1433
g61
I4
ssg62
g1427
sg55
(lp1434
g48
(g57
g50
NtRp1435
(dp1436
g53
(dp1437
g61
I3
ssg62
Nsg55
(lp1438
g48
(g64
g50
NtRp1439
(dp1440
g53
(dp1441
sg62
g1435
sg55
(lp1442
g48
(g69
g50
NtRp1443
(dp1444
g53
(dp1445
sg62
g1439
sg55
(lp1446
g48
(g49
g50
NtRp1447
(dp1448
g53
(dp1449
g61
I3
ssg62
g1443
sg55
(lp1450
S'1'
asbasbasbag48
(g64
g50
NtRp1451
(dp1452
g53
(dp1453
sg62
g1435
sg55
(lp1454
g48
(g69
g50
NtRp1455
(dp1456
g53
(dp1457
sg62
g1451
sg55
(lp1458
g48
(g49
g50
NtRp1459
(dp1460
g53
(dp1461
g61
I3
ssg62
g1455
sg55
(lp1462
S'99'
p1463
asbasbasbag48
(g64
g50
NtRp1464
(dp1465
g53
(dp1466
sg62
g1435
sg55
(lp1467
g48
(g69
g50
NtRp1468
(dp1469
g53
(dp1470
sg62
g1464
sg55
(lp1471
g48
(g49
g50
NtRp1472
(dp1473
g53
(dp1474
g61
I3
ssg62
g1468
sg55
(lp1475
S'2'
asbasbasbag48
(g64
g50
NtRp1476
(dp1477
g53
(dp1478
sg62
g1435
sg55
(lp1479
g48
(g69
g50
NtRp1480
(dp1481
g53
(dp1482
sg62
g1476
sg55
(lp1483
g48
(g49
g50
NtRp1484
(dp1485
g53
(dp1486
g61
I3
ssg62
g1480
sg55
(lp1487
S'datetime.datetime(2011, 9, 26, 6, 55, 33)'
p1488
asbasbasbag48
(g64
g50
NtRp1489
(dp1490
g53
(dp1491
sg62
g1435
sg55
(lp1492
g48
(g69
g50
NtRp1493
(dp1494
g53
(dp1495
sg62
g1489
sg55
(lp1496
g48
(g49
g50
NtRp1497
(dp1498
g53
(dp1499
g61
I3
ssg62
g1493
sg55
(lp1500
S'stable'
p1501
asbasbasbasbasbasbasbag48
(g64
g50
NtRp1502
(dp1503
g53
(dp1504
sg62
g752
sg55
(lp1505
g48
(g69
g50
NtRp1506
(dp1507
g53
(dp1508
g73
g74
ssg62
g1502
sg55
(lp1509
S'wsgi_errors'
p1510
asbag48
(g69
g50
NtRp1511
(dp1512
g53
(dp1513
g80
g81
ssg62
g1502
sg55
(lp1514
S':'
asbag48
(g69
g50
NtRp1515
(dp1516
g53
(dp1517
sg62
g1502
sg55
(lp1518
g48
(g49
g50
NtRp1519
(dp1520
g53
(dp1521
g61
I4
ssg62
g1515
sg55
(lp1522
S"<open file '<stderr>', mode 'w' at 0x01E400B0>"
p1523
asbasbasbag48
(g64
g50
NtRp1524
(dp1525
g53
(dp1526
sg62
g752
sg55
(lp1527
g48
(g69
g50
NtRp1528
(dp1529
g53
(dp1530
g73
g74
ssg62
g1524
sg55
(lp1531
S'wsgi_file_wrapper'
p1532
asbag48
(g69
g50
NtRp1533
(dp1534
g53
(dp1535
g80
g81
ssg62
g1524
sg55
(lp1536
S':'
asbag48
(g69
g50
NtRp1537
(dp1538
g53
(dp1539
sg62
g1524
sg55
(lp1540
g48
(g49
g50
NtRp1541
(dp1542
g53
(dp1543
g61
I4
ssg62
g1537
sg55
(lp1544
S'<class wsgiref.util.FileWrapper at 0x0373C720>'
p1545
asbasbasbag48
(g64
g50
NtRp1546
(dp1547
g53
(dp1548
sg62
g752
sg55
(lp1549
g48
(g69
g50
NtRp1550
(dp1551
g53
(dp1552
g73
g74
ssg62
g1546
sg55
(lp1553
S'wsgi_input'
p1554
asbag48
(g69
g50
NtRp1555
(dp1556
g53
(dp1557
g80
g81
ssg62
g1546
sg55
(lp1558
S':'
asbag48
(g69
g50
NtRp1559
(dp1560
g53
(dp1561
sg62
g1546
sg55
(lp1562
g48
(g49
g50
NtRp1563
(dp1564
g53
(dp1565
g61
I4
ssg62
g1559
sg55
(lp1566
S'<socket._fileobject object at 0x03320270>'
p1567
asbasbasbag48
(g64
g50
NtRp1568
(dp1569
g53
(dp1570
sg62
g752
sg55
(lp1571
g48
(g69
g50
NtRp1572
(dp1573
g53
(dp1574
g73
g74
ssg62
g1568
sg55
(lp1575
S'wsgi_multiprocess'
p1576
asbag48
(g69
g50
NtRp1577
(dp1578
g53
(dp1579
g80
g81
ssg62
g1568
sg55
(lp1580
S':'
asbag48
(g69
g50
NtRp1581
(dp1582
g53
(dp1583
sg62
g1568
sg55
(lp1584
g48
(g49
g50
NtRp1585
(dp1586
g53
(dp1587
g61
I4
ssg62
g1581
sg55
(lp1588
g91
asbasbasbag48
(g64
g50
NtRp1589
(dp1590
g53
(dp1591
sg62
g752
sg55
(lp1592
g48
(g69
g50
NtRp1593
(dp1594
g53
(dp1595
g73
g74
ssg62
g1589
sg55
(lp1596
S'wsgi_multithread'
p1597
asbag48
(g69
g50
NtRp1598
(dp1599
g53
(dp1600
g80
g81
ssg62
g1589
sg55
(lp1601
S':'
asbag48
(g69
g50
NtRp1602
(dp1603
g53
(dp1604
sg62
g1589
sg55
(lp1605
g48
(g49
g50
NtRp1606
(dp1607
g53
(dp1608
g61
I4
ssg62
g1602
sg55
(lp1609
S'True'
p1610
asbasbasbag48
(g64
g50
NtRp1611
(dp1612
g53
(dp1613
sg62
g752
sg55
(lp1614
g48
(g69
g50
NtRp1615
(dp1616
g53
(dp1617
g73
g74
ssg62
g1611
sg55
(lp1618
S'wsgi_run_once'
p1619
asbag48
(g69
g50
NtRp1620
(dp1621
g53
(dp1622
g80
g81
ssg62
g1611
sg55
(lp1623
S':'
asbag48
(g69
g50
NtRp1624
(dp1625
g53
(dp1626
sg62
g1611
sg55
(lp1627
g48
(g49
g50
NtRp1628
(dp1629
g53
(dp1630
g61
I4
ssg62
g1624
sg55
(lp1631
g91
asbasbasbag48
(g64
g50
NtRp1632
(dp1633
g53
(dp1634
sg62
g752
sg55
(lp1635
g48
(g69
g50
NtRp1636
(dp1637
g53
(dp1638
g73
g74
ssg62
g1632
sg55
(lp1639
S'wsgi_url_scheme'
p1640
asbag48
(g69
g50
NtRp1641
(dp1642
g53
(dp1643
g80
g81
ssg62
g1632
sg55
(lp1644
S':'
asbag48
(g69
g50
NtRp1645
(dp1646
g53
(dp1647
sg62
g1632
sg55
(lp1648
g48
(g49
g50
NtRp1649
(dp1650
g53
(dp1651
g61
I4
ssg62
g1645
sg55
(lp1652
S'http'
p1653
asbasbasbag48
(g64
g50
NtRp1654
(dp1655
g53
(dp1656
sg62
g752
sg55
(lp1657
g48
(g69
g50
NtRp1658
(dp1659
g53
(dp1660
g73
g74
ssg62
g1654
sg55
(lp1661
S'wsgi_version'
p1662
asbag48
(g69
g50
NtRp1663
(dp1664
g53
(dp1665
g80
g81
ssg62
g1654
sg55
(lp1666
S':'
asbag48
(g69
g50
NtRp1667
(dp1668
g53
(dp1669
sg62
g1654
sg55
(lp1670
g48
(g49
g50
NtRp1671
(dp1672
g53
(dp1673
g61
I4
ssg62
g1667
sg55
(lp1674
g48
(g57
g50
NtRp1675
(dp1676
g53
(dp1677
g61
I3
ssg62
Nsg55
(lp1678
g48
(g64
g50
NtRp1679
(dp1680
g53
(dp1681
sg62
g1675
sg55
(lp1682
g48
(g69
g50
NtRp1683
(dp1684
g53
(dp1685
sg62
g1679
sg55
(lp1686
g48
(g49
g50
NtRp1687
(dp1688
g53
(dp1689
g61
I3
ssg62
g1683
sg55
(lp1690
S'1'
asbasbasbag48
(g64
g50
NtRp1691
(dp1692
g53
(dp1693
sg62
g1675
sg55
(lp1694
g48
(g69
g50
NtRp1695
(dp1696
g53
(dp1697
sg62
g1691
sg55
(lp1698
g48
(g49
g50
NtRp1699
(dp1700
g53
(dp1701
g61
I3
ssg62
g1695
sg55
(lp1702
S'0'
asbasbasbasbasbasbasbasbasbasbasbag48
(g64
g50
NtRp1703
(dp1704
g53
(dp1705
sg62
g58
sg55
(lp1706
g48
(g69
g50
NtRp1707
(dp1708
g53
(dp1709
g73
g74
ssg62
g1703
sg55
(lp1710
S'extension'
p1711
asbag48
(g69
g50
NtRp1712
(dp1713
g53
(dp1714
g80
g81
ssg62
g1703
sg55
(lp1715
S':'
asbag48
(g69
g50
NtRp1716
(dp1717
g53
(dp1718
sg62
g1703
sg55
(lp1719
g48
(g49
g50
NtRp1720
(dp1721
g53
(dp1722
g61
I5
ssg62
g1716
sg55
(lp1723
S'txt'
p1724
asbasbasbag48
(g64
g50
NtRp1725
(dp1726
g53
(dp1727
sg62
g58
sg55
(lp1728
g48
(g69
g50
NtRp1729
(dp1730
g53
(dp1731
g73
g74
ssg62
g1725
sg55
(lp1732
S'folder'
p1733
asbag48
(g69
g50
NtRp1734
(dp1735
g53
(dp1736
g80
g81
ssg62
g1725
sg55
(lp1737
S':'
asbag48
(g69
g50
NtRp1738
(dp1739
g53
(dp1740
sg62
g1725
sg55
(lp1741
g48
(g49
g50
NtRp1742
(dp1743
g53
(dp1744
g61
I5
ssg62
g1738
sg55
(lp1745
S'D:\\git_projs\\Gabblista\\web2py\\web2py\\applications\\Gabb1\\'
p1746
asbasbasbag48
(g64
g50
NtRp1747
(dp1748
g53
(dp1749
sg62
g58
sg55
(lp1750
g48
(g69
g50
NtRp1751
(dp1752
g53
(dp1753
g73
g74
ssg62
g1747
sg55
(lp1754
S'function'
p1755
asbag48
(g69
g50
NtRp1756
(dp1757
g53
(dp1758
g80
g81
ssg62
g1747
sg55
(lp1759
S':'
asbag48
(g69
g50
NtRp1760
(dp1761
g53
(dp1762
sg62
g1747
sg55
(lp1763
g48
(g49
g50
NtRp1764
(dp1765
g53
(dp1766
g61
I5
ssg62
g1760
sg55
(lp1767
S'serve_player_data'
p1768
asbasbasbag48
(g64
g50
NtRp1769
(dp1770
g53
(dp1771
sg62
g58
sg55
(lp1772
g48
(g69
g50
NtRp1773
(dp1774
g53
(dp1775
g73
g74
ssg62
g1769
sg55
(lp1776
S'get_vars'
p1777
asbag48
(g69
g50
NtRp1778
(dp1779
g53
(dp1780
g80
g81
ssg62
g1769
sg55
(lp1781
S':'
asbag48
(g69
g50
NtRp1782
(dp1783
g53
(dp1784
sg62
g1769
sg55
(lp1785
g48
(g49
g50
NtRp1786
(dp1787
g53
(dp1788
g61
I5
ssg62
g1782
sg55
(lp1789
g48
(g57
g50
NtRp1790
(dp1791
g53
(dp1792
g61
I4
ssg62
Nsg55
(lp1793
g48
(g64
g50
NtRp1794
(dp1795
g53
(dp1796
sg62
g1790
sg55
(lp1797
g48
(g69
g50
NtRp1798
(dp1799
g53
(dp1800
g73
g74
ssg62
g1794
sg55
(lp1801
S'test_var'
p1802
asbag48
(g69
g50
NtRp1803
(dp1804
g53
(dp1805
g80
g81
ssg62
g1794
sg55
(lp1806
S':'
asbag48
(g69
g50
NtRp1807
(dp1808
g53
(dp1809
sg62
g1794
sg55
(lp1810
g48
(g49
g50
NtRp1811
(dp1812
g53
(dp1813
g61
I4
ssg62
g1807
sg55
(lp1814
S'blargh'
p1815
asbasbasbasbasbasbasbag48
(g64
g50
NtRp1816
(dp1817
g53
(dp1818
sg62
g58
sg55
(lp1819
g48
(g69
g50
NtRp1820
(dp1821
g53
(dp1822
g73
g74
ssg62
g1816
sg55
(lp1823
S'global_settings'
p1824
asbag48
(g69
g50
NtRp1825
(dp1826
g53
(dp1827
g80
g81
ssg62
g1816
sg55
(lp1828
S':'
asbag48
(g69
g50
NtRp1829
(dp1830
g53
(dp1831
sg62
g1816
sg55
(lp1832
g48
(g49
g50
NtRp1833
(dp1834
g53
(dp1835
g61
I5
ssg62
g1829
sg55
(lp1836
g48
(g57
g50
NtRp1837
(dp1838
g53
(dp1839
g61
I4
ssg62
Nsg55
(lp1840
g48
(g64
g50
NtRp1841
(dp1842
g53
(dp1843
sg62
g1837
sg55
(lp1844
g48
(g69
g50
NtRp1845
(dp1846
g53
(dp1847
g73
g74
ssg62
g1841
sg55
(lp1848
g764
asbag48
(g69
g50
NtRp1849
(dp1850
g53
(dp1851
g80
g81
ssg62
g1841
sg55
(lp1852
S':'
asbag48
(g69
g50
NtRp1853
(dp1854
g53
(dp1855
sg62
g1841
sg55
(lp1856
g48
(g49
g50
NtRp1857
(dp1858
g53
(dp1859
g61
I4
ssg62
g1853
sg55
(lp1860
S"set(['D:\\\\git_projs\\\\Gabblista\\\\web2py\\\\web2py\\\\applications\\\\Gabb1\\\\', 'D:\\\\git_projs\\\\Gabblista\\\\web2py\\\\web2py\\\\applications\\\\admin\\\\', 'D:\\\\git_projs\\\\Gabblista\\\\web2py\\\\web2py\\\\applications\\\\welcome\\\\'])"
p1861
asbasbasbag48
(g64
g50
NtRp1862
(dp1863
g53
(dp1864
sg62
g1837
sg55
(lp1865
g48
(g69
g50
NtRp1866
(dp1867
g53
(dp1868
g73
g74
ssg62
g1862
sg55
(lp1869
g786
asbag48
(g69
g50
NtRp1870
(dp1871
g53
(dp1872
g80
g81
ssg62
g1862
sg55
(lp1873
S':'
asbag48
(g69
g50
NtRp1874
(dp1875
g53
(dp1876
sg62
g1862
sg55
(lp1877
g48
(g49
g50
NtRp1878
(dp1879
g53
(dp1880
g61
I4
ssg62
g1874
sg55
(lp1881
g799
asbasbasbag48
(g64
g50
NtRp1882
(dp1883
g53
(dp1884
sg62
g1837
sg55
(lp1885
g48
(g69
g50
NtRp1886
(dp1887
g53
(dp1888
g73
g74
ssg62
g1882
sg55
(lp1889
g808
asbag48
(g69
g50
NtRp1890
(dp1891
g53
(dp1892
g80
g81
ssg62
g1882
sg55
(lp1893
S':'
asbag48
(g69
g50
NtRp1894
(dp1895
g53
(dp1896
sg62
g1882
sg55
(lp1897
g48
(g49
g50
NtRp1898
(dp1899
g53
(dp1900
g61
I4
ssg62
g1894
sg55
(lp1901
g48
(g57
g50
NtRp1902
(dp1903
g53
(dp1904
g61
I3
ssg62
Nsg55
(lp1905
sbasbasbasbag48
(g64
g50
NtRp1906
(dp1907
g53
(dp1908
sg62
g1837
sg55
(lp1909
g48
(g69
g50
NtRp1910
(dp1911
g53
(dp1912
g73
g74
ssg62
g1906
sg55
(lp1913
g833
asbag48
(g69
g50
NtRp1914
(dp1915
g53
(dp1916
g80
g81
ssg62
g1906
sg55
(lp1917
S':'
asbag48
(g69
g50
NtRp1918
(dp1919
g53
(dp1920
sg62
g1906
sg55
(lp1921
g48
(g49
g50
NtRp1922
(dp1923
g53
(dp1924
g61
I4
ssg62
g1918
sg55
(lp1925
S"<Values at 0x36fc3c8: {'verbose': False, 'ip': '127.0.0.1', 'shutdown_timeout': 5, 'taskbar': False, 'nocron': False, 'pid_filename': 'httpserver.pid', 'maxthreads': None, 'softcron': False, 'server_name': 'John-PC', 'bpython': False, 'nogui': False, 'port': 8000, 'extcron': False, 'debuglevel': 30, 'test': None, 'folder': 'D:\\\\git_projs\\\\Gabblista\\\\web2py\\\\web2py', 'config': '', 'import_models': False, 'winservice': '', 'shell': None, 'run': '', 'log_filename': 'httpserver.log', 'args': [''], 'ssl_ca_certificate': None, 'scheduler': None, 'profiler_filename': None, 'ssl_private_key': '', 'password': '<ask>', 'request_queue_size': 5, 'ssl_certificate': '', 'cronjob': False, 'plain': False, 'quiet': False, 'interfaces': None, 'minthreads': None, 'timeout': 10, 'numthreads': None, 'nobanner': False}>"
p1926
asbasbasbag48
(g64
g50
NtRp1927
(dp1928
g53
(dp1929
sg62
g1837
sg55
(lp1930
g48
(g69
g50
NtRp1931
(dp1932
g53
(dp1933
g73
g74
ssg62
g1927
sg55
(lp1934
g855
asbag48
(g69
g50
NtRp1935
(dp1936
g53
(dp1937
g80
g81
ssg62
g1927
sg55
(lp1938
S':'
asbag48
(g69
g50
NtRp1939
(dp1940
g53
(dp1941
sg62
g1927
sg55
(lp1942
g48
(g49
g50
NtRp1943
(dp1944
g53
(dp1945
g61
I4
ssg62
g1939
sg55
(lp1946
S'set([])'
p1947
asbasbasbag48
(g64
g50
NtRp1948
(dp1949
g53
(dp1950
sg62
g1837
sg55
(lp1951
g48
(g69
g50
NtRp1952
(dp1953
g53
(dp1954
g73
g74
ssg62
g1948
sg55
(lp1955
g877
asbag48
(g69
g50
NtRp1956
(dp1957
g53
(dp1958
g80
g81
ssg62
g1948
sg55
(lp1959
S':'
asbag48
(g69
g50
NtRp1960
(dp1961
g53
(dp1962
sg62
g1948
sg55
(lp1963
g48
(g49
g50
NtRp1964
(dp1965
g53
(dp1966
g61
I4
ssg62
g1960
sg55
(lp1967
g91
asbasbasbag48
(g64
g50
NtRp1968
(dp1969
g53
(dp1970
sg62
g1837
sg55
(lp1971
g48
(g69
g50
NtRp1972
(dp1973
g53
(dp1974
g73
g74
ssg62
g1968
sg55
(lp1975
g898
asbag48
(g69
g50
NtRp1976
(dp1977
g53
(dp1978
g80
g81
ssg62
g1968
sg55
(lp1979
S':'
asbag48
(g69
g50
NtRp1980
(dp1981
g53
(dp1982
sg62
g1968
sg55
(lp1983
g48
(g49
g50
NtRp1984
(dp1985
g53
(dp1986
g61
I4
ssg62
g1980
sg55
(lp1987
g911
asbasbasbag48
(g64
g50
NtRp1988
(dp1989
g53
(dp1990
sg62
g1837
sg55
(lp1991
g48
(g69
g50
NtRp1992
(dp1993
g53
(dp1994
g73
g74
ssg62
g1988
sg55
(lp1995
g1096
asbag48
(g69
g50
NtRp1996
(dp1997
g53
(dp1998
g80
g81
ssg62
g1988
sg55
(lp1999
S':'
asbag48
(g69
g50
NtRp2000
(dp2001
g53
(dp2002
sg62
g1988
sg55
(lp2003
g48
(g49
g50
NtRp2004
(dp2005
g53
(dp2006
g61
I4
ssg62
g2000
sg55
(lp2007
g91
asbasbasbag48
(g64
g50
NtRp2008
(dp2009
g53
(dp2010
sg62
g1837
sg55
(lp2011
g48
(g69
g50
NtRp2012
(dp2013
g53
(dp2014
g73
g74
ssg62
g2008
sg55
(lp2015
g1357
asbag48
(g69
g50
NtRp2016
(dp2017
g53
(dp2018
g80
g81
ssg62
g2008
sg55
(lp2019
S':'
asbag48
(g69
g50
NtRp2020
(dp2021
g53
(dp2022
sg62
g2008
sg55
(lp2023
g48
(g49
g50
NtRp2024
(dp2025
g53
(dp2026
g61
I4
ssg62
g2020
sg55
(lp2027
g1370
asbasbasbag48
(g64
g50
NtRp2028
(dp2029
g53
(dp2030
sg62
g1837
sg55
(lp2031
g48
(g69
g50
NtRp2032
(dp2033
g53
(dp2034
g73
g74
ssg62
g2028
sg55
(lp2035
g1422
asbag48
(g69
g50
NtRp2036
(dp2037
g53
(dp2038
g80
g81
ssg62
g2028
sg55
(lp2039
S':'
asbag48
(g69
g50
NtRp2040
(dp2041
g53
(dp2042
sg62
g2028
sg55
(lp2043
g48
(g49
g50
NtRp2044
(dp2045
g53
(dp2046
g61
I4
ssg62
g2040
sg55
(lp2047
g48
(g57
g50
NtRp2048
(dp2049
g53
(dp2050
g61
I3
ssg62
Nsg55
(lp2051
g48
(g64
g50
NtRp2052
(dp2053
g53
(dp2054
sg62
g2048
sg55
(lp2055
g48
(g69
g50
NtRp2056
(dp2057
g53
(dp2058
sg62
g2052
sg55
(lp2059
g48
(g49
g50
NtRp2060
(dp2061
g53
(dp2062
g61
I3
ssg62
g2056
sg55
(lp2063
S'1'
asbasbasbag48
(g64
g50
NtRp2064
(dp2065
g53
(dp2066
sg62
g2048
sg55
(lp2067
g48
(g69
g50
NtRp2068
(dp2069
g53
(dp2070
sg62
g2064
sg55
(lp2071
g48
(g49
g50
NtRp2072
(dp2073
g53
(dp2074
g61
I3
ssg62
g2068
sg55
(lp2075
S'99'
p2076
asbasbasbag48
(g64
g50
NtRp2077
(dp2078
g53
(dp2079
sg62
g2048
sg55
(lp2080
g48
(g69
g50
NtRp2081
(dp2082
g53
(dp2083
sg62
g2077
sg55
(lp2084
g48
(g49
g50
NtRp2085
(dp2086
g53
(dp2087
g61
I3
ssg62
g2081
sg55
(lp2088
S'2'
asbasbasbag48
(g64
g50
NtRp2089
(dp2090
g53
(dp2091
sg62
g2048
sg55
(lp2092
g48
(g69
g50
NtRp2093
(dp2094
g53
(dp2095
sg62
g2089
sg55
(lp2096
g48
(g49
g50
NtRp2097
(dp2098
g53
(dp2099
g61
I3
ssg62
g2093
sg55
(lp2100
S'datetime.datetime(2011, 9, 26, 6, 55, 33)'
p2101
asbasbasbag48
(g64
g50
NtRp2102
(dp2103
g53
(dp2104
sg62
g2048
sg55
(lp2105
g48
(g69
g50
NtRp2106
(dp2107
g53
(dp2108
sg62
g2102
sg55
(lp2109
g48
(g49
g50
NtRp2110
(dp2111
g53
(dp2112
g61
I3
ssg62
g2106
sg55
(lp2113
g1501
asbasbasbasbasbasbasbasbasbasbasbag48
(g64
g50
NtRp2114
(dp2115
g53
(dp2116
sg62
g58
sg55
(lp2117
g48
(g69
g50
NtRp2118
(dp2119
g53
(dp2120
g73
g74
ssg62
g2114
sg55
(lp2121
S'is_https'
p2122
asbag48
(g69
g50
NtRp2123
(dp2124
g53
(dp2125
g80
g81
ssg62
g2114
sg55
(lp2126
S':'
asbag48
(g69
g50
NtRp2127
(dp2128
g53
(dp2129
sg62
g2114
sg55
(lp2130
g48
(g49
g50
NtRp2131
(dp2132
g53
(dp2133
g61
I5
ssg62
g2127
sg55
(lp2134
g91
asbasbasbag48
(g64
g50
NtRp2135
(dp2136
g53
(dp2137
sg62
g58
sg55
(lp2138
g48
(g69
g50
NtRp2139
(dp2140
g53
(dp2141
g73
g74
ssg62
g2135
sg55
(lp2142
S'is_local'
p2143
asbag48
(g69
g50
NtRp2144
(dp2145
g53
(dp2146
g80
g81
ssg62
g2135
sg55
(lp2147
S':'
asbag48
(g69
g50
NtRp2148
(dp2149
g53
(dp2150
sg62
g2135
sg55
(lp2151
g48
(g49
g50
NtRp2152
(dp2153
g53
(dp2154
g61
I5
ssg62
g2148
sg55
(lp2155
g1610
asbasbasbag48
(g64
g50
NtRp2156
(dp2157
g53
(dp2158
sg62
g58
sg55
(lp2159
g48
(g69
g50
NtRp2160
(dp2161
g53
(dp2162
g73
g74
ssg62
g2156
sg55
(lp2163
S'is_restful'
p2164
asbag48
(g69
g50
NtRp2165
(dp2166
g53
(dp2167
g80
g81
ssg62
g2156
sg55
(lp2168
S':'
asbag48
(g69
g50
NtRp2169
(dp2170
g53
(dp2171
sg62
g2156
sg55
(lp2172
g48
(g49
g50
NtRp2173
(dp2174
g53
(dp2175
g61
I5
ssg62
g2169
sg55
(lp2176
g91
asbasbasbag48
(g64
g50
NtRp2177
(dp2178
g53
(dp2179
sg62
g58
sg55
(lp2180
g48
(g69
g50
NtRp2181
(dp2182
g53
(dp2183
g73
g74
ssg62
g2177
sg55
(lp2184
S'now'
p2185
asbag48
(g69
g50
NtRp2186
(dp2187
g53
(dp2188
g80
g81
ssg62
g2177
sg55
(lp2189
S':'
asbag48
(g69
g50
NtRp2190
(dp2191
g53
(dp2192
sg62
g2177
sg55
(lp2193
g48
(g49
g50
NtRp2194
(dp2195
g53
(dp2196
g61
I5
ssg62
g2190
sg55
(lp2197
S'datetime.datetime(2012, 1, 18, 8, 53, 10, 623000)'
p2198
asbasbasbag48
(g64
g50
NtRp2199
(dp2200
g53
(dp2201
sg62
g58
sg55
(lp2202
g48
(g69
g50
NtRp2203
(dp2204
g53
(dp2205
g73
g74
ssg62
g2199
sg55
(lp2206
S'post_vars'
p2207
asbag48
(g69
g50
NtRp2208
(dp2209
g53
(dp2210
g80
g81
ssg62
g2199
sg55
(lp2211
S':'
asbag48
(g69
g50
NtRp2212
(dp2213
g53
(dp2214
sg62
g2199
sg55
(lp2215
g48
(g49
g50
NtRp2216
(dp2217
g53
(dp2218
g61
I5
ssg62
g2212
sg55
(lp2219
g48
(g57
g50
NtRp2220
(dp2221
g53
(dp2222
g61
I4
ssg62
Nsg55
(lp2223
sbasbasbasbag48
(g64
g50
NtRp2224
(dp2225
g53
(dp2226
sg62
g58
sg55
(lp2227
g48
(g69
g50
NtRp2228
(dp2229
g53
(dp2230
g73
g74
ssg62
g2224
sg55
(lp2231
S'raw_extension'
p2232
asbag48
(g69
g50
NtRp2233
(dp2234
g53
(dp2235
g80
g81
ssg62
g2224
sg55
(lp2236
S':'
asbag48
(g69
g50
NtRp2237
(dp2238
g53
(dp2239
sg62
g2224
sg55
(lp2240
g48
(g49
g50
NtRp2241
(dp2242
g53
(dp2243
g61
I5
ssg62
g2237
sg55
(lp2244
g1724
asbasbasbag48
(g64
g50
NtRp2245
(dp2246
g53
(dp2247
sg62
g58
sg55
(lp2248
g48
(g69
g50
NtRp2249
(dp2250
g53
(dp2251
g73
g74
ssg62
g2245
sg55
(lp2252
S'url'
p2253
asbag48
(g69
g50
NtRp2254
(dp2255
g53
(dp2256
g80
g81
ssg62
g2245
sg55
(lp2257
S':'
asbag48
(g69
g50
NtRp2258
(dp2259
g53
(dp2260
sg62
g2245
sg55
(lp2261
g48
(g49
g50
NtRp2262
(dp2263
g53
(dp2264
g61
I5
ssg62
g2258
sg55
(lp2265
S'/Gabb1/fb_serv/serve_player_data.txt'
p2266
asbasbasbag48
(g64
g50
NtRp2267
(dp2268
g53
(dp2269
sg62
g58
sg55
(lp2270
g48
(g69
g50
NtRp2271
(dp2272
g53
(dp2273
g73
g74
ssg62
g2267
sg55
(lp2274
S'utcnow'
p2275
asbag48
(g69
g50
NtRp2276
(dp2277
g53
(dp2278
g80
g81
ssg62
g2267
sg55
(lp2279
S':'
asbag48
(g69
g50
NtRp2280
(dp2281
g53
(dp2282
sg62
g2267
sg55
(lp2283
g48
(g49
g50
NtRp2284
(dp2285
g53
(dp2286
g61
I5
ssg62
g2280
sg55
(lp2287
S'datetime.datetime(2012, 1, 18, 13, 53, 10, 623000)'
p2288
asbasbasbag48
(g64
g50
NtRp2289
(dp2290
g53
(dp2291
sg62
g58
sg55
(lp2292
g48
(g69
g50
NtRp2293
(dp2294
g53
(dp2295
g73
g74
ssg62
g2289
sg55
(lp2296
S'uuid'
p2297
asbag48
(g69
g50
NtRp2298
(dp2299
g53
(dp2300
g80
g81
ssg62
g2289
sg55
(lp2301
S':'
asbag48
(g69
g50
NtRp2302
(dp2303
g53
(dp2304
sg62
g2289
sg55
(lp2305
g48
(g49
g50
NtRp2306
(dp2307
g53
(dp2308
g61
I5
ssg62
g2302
sg55
(lp2309
S'Gabb1/127.0.0.1.2012-01-18.08-53-10.23520471-441e-471b-beaa-e09686c72e7a'
p2310
asbasbasbag48
(g64
g50
NtRp2311
(dp2312
g53
(dp2313
sg62
g58
sg55
(lp2314
g48
(g69
g50
NtRp2315
(dp2316
g53
(dp2317
g73
g74
ssg62
g2311
sg55
(lp2318
S'vars'
p2319
asbag48
(g69
g50
NtRp2320
(dp2321
g53
(dp2322
g80
g81
ssg62
g2311
sg55
(lp2323
S':'
asbag48
(g69
g50
NtRp2324
(dp2325
g53
(dp2326
sg62
g2311
sg55
(lp2327
g48
(g49
g50
NtRp2328
(dp2329
g53
(dp2330
g61
I5
ssg62
g2324
sg55
(lp2331
g48
(g57
g50
NtRp2332
(dp2333
g53
(dp2334
g61
I4
ssg62
Nsg55
(lp2335
g48
(g64
g50
NtRp2336
(dp2337
g53
(dp2338
sg62
g2332
sg55
(lp2339
g48
(g69
g50
NtRp2340
(dp2341
g53
(dp2342
g73
g74
ssg62
g2336
sg55
(lp2343
g1802
asbag48
(g69
g50
NtRp2344
(dp2345
g53
(dp2346
g80
g81
ssg62
g2336
sg55
(lp2347
S':'
asbag48
(g69
g50
NtRp2348
(dp2349
g53
(dp2350
sg62
g2336
sg55
(lp2351
g48
(g49
g50
NtRp2352
(dp2353
g53
(dp2354
g61
I4
ssg62
g2348
sg55
(lp2355
g1815
asbasbasbasbasbasbasbag48
(g64
g50
NtRp2356
(dp2357
g53
(dp2358
sg62
g58
sg55
(lp2359
g48
(g69
g50
NtRp2360
(dp2361
g53
(dp2362
g73
g74
ssg62
g2356
sg55
(lp2363
S'wsgi'
p2364
asbag48
(g69
g50
NtRp2365
(dp2366
g53
(dp2367
g80
g81
ssg62
g2356
sg55
(lp2368
S':'
asbag48
(g69
g50
NtRp2369
(dp2370
g53
(dp2371
sg62
g2356
sg55
(lp2372
g48
(g49
g50
NtRp2373
(dp2374
g53
(dp2375
g61
I5
ssg62
g2369
sg55
(lp2376
g48
(g57
g50
NtRp2377
(dp2378
g53
(dp2379
g61
I4
ssg62
Nsg55
(lp2380
g48
(g64
g50
NtRp2381
(dp2382
g53
(dp2383
sg62
g2377
sg55
(lp2384
g48
(g69
g50
NtRp2385
(dp2386
g53
(dp2387
g73
g74
ssg62
g2381
sg55
(lp2388
S'environ'
p2389
asbag48
(g69
g50
NtRp2390
(dp2391
g53
(dp2392
g80
g81
ssg62
g2381
sg55
(lp2393
S':'
asbag48
(g69
g50
NtRp2394
(dp2395
g53
(dp2396
sg62
g2381
sg55
(lp2397
g48
(g49
g50
NtRp2398
(dp2399
g53
(dp2400
g61
I4
ssg62
g2394
sg55
(lp2401
g48
(g57
g50
NtRp2402
(dp2403
g53
(dp2404
g61
I3
ssg62
Nsg55
(lp2405
g48
(g64
g50
NtRp2406
(dp2407
g53
(dp2408
sg62
g2402
sg55
(lp2409
g48
(g69
g50
NtRp2410
(dp2411
g53
(dp2412
g73
g74
ssg62
g2406
sg55
(lp2413
S'HTTP_ACCEPT'
p2414
asbag48
(g69
g50
NtRp2415
(dp2416
g53
(dp2417
g80
g81
ssg62
g2406
sg55
(lp2418
S':'
asbag48
(g69
g50
NtRp2419
(dp2420
g53
(dp2421
sg62
g2406
sg55
(lp2422
g48
(g49
g50
NtRp2423
(dp2424
g53
(dp2425
g61
I3
ssg62
g2419
sg55
(lp2426
g933
asbasbasbag48
(g64
g50
NtRp2427
(dp2428
g53
(dp2429
sg62
g2402
sg55
(lp2430
g48
(g69
g50
NtRp2431
(dp2432
g53
(dp2433
g73
g74
ssg62
g2427
sg55
(lp2434
S'HTTP_ACCEPT_CHARSET'
p2435
asbag48
(g69
g50
NtRp2436
(dp2437
g53
(dp2438
g80
g81
ssg62
g2427
sg55
(lp2439
S':'
asbag48
(g69
g50
NtRp2440
(dp2441
g53
(dp2442
sg62
g2427
sg55
(lp2443
g48
(g49
g50
NtRp2444
(dp2445
g53
(dp2446
g61
I3
ssg62
g2440
sg55
(lp2447
g955
asbasbasbag48
(g64
g50
NtRp2448
(dp2449
g53
(dp2450
sg62
g2402
sg55
(lp2451
g48
(g69
g50
NtRp2452
(dp2453
g53
(dp2454
g73
g74
ssg62
g2448
sg55
(lp2455
S'HTTP_ACCEPT_ENCODING'
p2456
asbag48
(g69
g50
NtRp2457
(dp2458
g53
(dp2459
g80
g81
ssg62
g2448
sg55
(lp2460
S':'
asbag48
(g69
g50
NtRp2461
(dp2462
g53
(dp2463
sg62
g2448
sg55
(lp2464
g48
(g49
g50
NtRp2465
(dp2466
g53
(dp2467
g61
I3
ssg62
g2461
sg55
(lp2468
g977
asbasbasbag48
(g64
g50
NtRp2469
(dp2470
g53
(dp2471
sg62
g2402
sg55
(lp2472
g48
(g69
g50
NtRp2473
(dp2474
g53
(dp2475
g73
g74
ssg62
g2469
sg55
(lp2476
S'HTTP_ACCEPT_LANGUAGE'
p2477
asbag48
(g69
g50
NtRp2478
(dp2479
g53
(dp2480
g80
g81
ssg62
g2469
sg55
(lp2481
S':'
asbag48
(g69
g50
NtRp2482
(dp2483
g53
(dp2484
sg62
g2469
sg55
(lp2485
g48
(g49
g50
NtRp2486
(dp2487
g53
(dp2488
g61
I3
ssg62
g2482
sg55
(lp2489
g999
asbasbasbag48
(g64
g50
NtRp2490
(dp2491
g53
(dp2492
sg62
g2402
sg55
(lp2493
g48
(g69
g50
NtRp2494
(dp2495
g53
(dp2496
g73
g74
ssg62
g2490
sg55
(lp2497
S'HTTP_CONNECTION'
p2498
asbag48
(g69
g50
NtRp2499
(dp2500
g53
(dp2501
g80
g81
ssg62
g2490
sg55
(lp2502
S':'
asbag48
(g69
g50
NtRp2503
(dp2504
g53
(dp2505
sg62
g2490
sg55
(lp2506
g48
(g49
g50
NtRp2507
(dp2508
g53
(dp2509
g61
I3
ssg62
g2503
sg55
(lp2510
g1021
asbasbasbag48
(g64
g50
NtRp2511
(dp2512
g53
(dp2513
sg62
g2402
sg55
(lp2514
g48
(g69
g50
NtRp2515
(dp2516
g53
(dp2517
g73
g74
ssg62
g2511
sg55
(lp2518
S'HTTP_COOKIE'
p2519
asbag48
(g69
g50
NtRp2520
(dp2521
g53
(dp2522
g80
g81
ssg62
g2511
sg55
(lp2523
S':'
asbag48
(g69
g50
NtRp2524
(dp2525
g53
(dp2526
sg62
g2511
sg55
(lp2527
g48
(g49
g50
NtRp2528
(dp2529
g53
(dp2530
g61
I3
ssg62
g2524
sg55
(lp2531
g1043
asbasbasbag48
(g64
g50
NtRp2532
(dp2533
g53
(dp2534
sg62
g2402
sg55
(lp2535
g48
(g69
g50
NtRp2536
(dp2537
g53
(dp2538
g73
g74
ssg62
g2532
sg55
(lp2539
S'HTTP_HOST'
p2540
asbag48
(g69
g50
NtRp2541
(dp2542
g53
(dp2543
g80
g81
ssg62
g2532
sg55
(lp2544
S':'
asbag48
(g69
g50
NtRp2545
(dp2546
g53
(dp2547
sg62
g2532
sg55
(lp2548
g48
(g49
g50
NtRp2549
(dp2550
g53
(dp2551
g61
I3
ssg62
g2545
sg55
(lp2552
g1065
asbasbasbag48
(g64
g50
NtRp2553
(dp2554
g53
(dp2555
sg62
g2402
sg55
(lp2556
g48
(g69
g50
NtRp2557
(dp2558
g53
(dp2559
g73
g74
ssg62
g2553
sg55
(lp2560
S'HTTP_USER_AGENT'
p2561
asbag48
(g69
g50
NtRp2562
(dp2563
g53
(dp2564
g80
g81
ssg62
g2553
sg55
(lp2565
S':'
asbag48
(g69
g50
NtRp2566
(dp2567
g53
(dp2568
sg62
g2553
sg55
(lp2569
g48
(g49
g50
NtRp2570
(dp2571
g53
(dp2572
g61
I3
ssg62
g2566
sg55
(lp2573
g1087
asbasbasbag48
(g64
g50
NtRp2574
(dp2575
g53
(dp2576
sg62
g2402
sg55
(lp2577
g48
(g69
g50
NtRp2578
(dp2579
g53
(dp2580
g73
g74
ssg62
g2574
sg55
(lp2581
S'PATH_INFO'
p2582
asbag48
(g69
g50
NtRp2583
(dp2584
g53
(dp2585
g80
g81
ssg62
g2574
sg55
(lp2586
S':'
asbag48
(g69
g50
NtRp2587
(dp2588
g53
(dp2589
sg62
g2574
sg55
(lp2590
g48
(g49
g50
NtRp2591
(dp2592
g53
(dp2593
g61
I3
ssg62
g2587
sg55
(lp2594
g1130
asbasbasbag48
(g64
g50
NtRp2595
(dp2596
g53
(dp2597
sg62
g2402
sg55
(lp2598
g48
(g69
g50
NtRp2599
(dp2600
g53
(dp2601
g73
g74
ssg62
g2595
sg55
(lp2602
S'QUERY_STRING'
p2603
asbag48
(g69
g50
NtRp2604
(dp2605
g53
(dp2606
g80
g81
ssg62
g2595
sg55
(lp2607
S':'
asbag48
(g69
g50
NtRp2608
(dp2609
g53
(dp2610
sg62
g2595
sg55
(lp2611
g48
(g49
g50
NtRp2612
(dp2613
g53
(dp2614
g61
I3
ssg62
g2608
sg55
(lp2615
g1152
asbasbasbag48
(g64
g50
NtRp2616
(dp2617
g53
(dp2618
sg62
g2402
sg55
(lp2619
g48
(g69
g50
NtRp2620
(dp2621
g53
(dp2622
g73
g74
ssg62
g2616
sg55
(lp2623
S'REMOTE_ADDR'
p2624
asbag48
(g69
g50
NtRp2625
(dp2626
g53
(dp2627
g80
g81
ssg62
g2616
sg55
(lp2628
S':'
asbag48
(g69
g50
NtRp2629
(dp2630
g53
(dp2631
sg62
g2616
sg55
(lp2632
g48
(g49
g50
NtRp2633
(dp2634
g53
(dp2635
g61
I3
ssg62
g2629
sg55
(lp2636
g181
asbasbasbag48
(g64
g50
NtRp2637
(dp2638
g53
(dp2639
sg62
g2402
sg55
(lp2640
g48
(g69
g50
NtRp2641
(dp2642
g53
(dp2643
g73
g74
ssg62
g2637
sg55
(lp2644
S'REMOTE_PORT'
p2645
asbag48
(g69
g50
NtRp2646
(dp2647
g53
(dp2648
g80
g81
ssg62
g2637
sg55
(lp2649
S':'
asbag48
(g69
g50
NtRp2650
(dp2651
g53
(dp2652
sg62
g2637
sg55
(lp2653
g48
(g49
g50
NtRp2654
(dp2655
g53
(dp2656
g61
I3
ssg62
g2650
sg55
(lp2657
g1195
asbasbasbag48
(g64
g50
NtRp2658
(dp2659
g53
(dp2660
sg62
g2402
sg55
(lp2661
g48
(g69
g50
NtRp2662
(dp2663
g53
(dp2664
g73
g74
ssg62
g2658
sg55
(lp2665
S'REQUEST_METHOD'
p2666
asbag48
(g69
g50
NtRp2667
(dp2668
g53
(dp2669
g80
g81
ssg62
g2658
sg55
(lp2670
S':'
asbag48
(g69
g50
NtRp2671
(dp2672
g53
(dp2673
sg62
g2658
sg55
(lp2674
g48
(g49
g50
NtRp2675
(dp2676
g53
(dp2677
g61
I3
ssg62
g2671
sg55
(lp2678
g1217
asbasbasbag48
(g64
g50
NtRp2679
(dp2680
g53
(dp2681
sg62
g2402
sg55
(lp2682
g48
(g69
g50
NtRp2683
(dp2684
g53
(dp2685
g73
g74
ssg62
g2679
sg55
(lp2686
S'REQUEST_URI'
p2687
asbag48
(g69
g50
NtRp2688
(dp2689
g53
(dp2690
g80
g81
ssg62
g2679
sg55
(lp2691
S':'
asbag48
(g69
g50
NtRp2692
(dp2693
g53
(dp2694
sg62
g2679
sg55
(lp2695
g48
(g49
g50
NtRp2696
(dp2697
g53
(dp2698
g61
I3
ssg62
g2692
sg55
(lp2699
g1239
asbasbasbag48
(g64
g50
NtRp2700
(dp2701
g53
(dp2702
sg62
g2402
sg55
(lp2703
g48
(g69
g50
NtRp2704
(dp2705
g53
(dp2706
g73
g74
ssg62
g2700
sg55
(lp2707
S'SCRIPT_NAME'
p2708
asbag48
(g69
g50
NtRp2709
(dp2710
g53
(dp2711
g80
g81
ssg62
g2700
sg55
(lp2712
S':'
asbag48
(g69
g50
NtRp2713
(dp2714
g53
(dp2715
sg62
g2700
sg55
(lp2716
g48
(g49
g50
NtRp2717
(dp2718
g53
(dp2719
g61
I3
ssg62
g2713
sg55
(lp2720
S''
asbasbasbag48
(g64
g50
NtRp2721
(dp2722
g53
(dp2723
sg62
g2402
sg55
(lp2724
g48
(g69
g50
NtRp2725
(dp2726
g53
(dp2727
g73
g74
ssg62
g2721
sg55
(lp2728
S'SERVER_NAME'
p2729
asbag48
(g69
g50
NtRp2730
(dp2731
g53
(dp2732
g80
g81
ssg62
g2721
sg55
(lp2733
S':'
asbag48
(g69
g50
NtRp2734
(dp2735
g53
(dp2736
sg62
g2721
sg55
(lp2737
g48
(g49
g50
NtRp2738
(dp2739
g53
(dp2740
g61
I3
ssg62
g2734
sg55
(lp2741
g1282
asbasbasbag48
(g64
g50
NtRp2742
(dp2743
g53
(dp2744
sg62
g2402
sg55
(lp2745
g48
(g69
g50
NtRp2746
(dp2747
g53
(dp2748
g73
g74
ssg62
g2742
sg55
(lp2749
S'SERVER_PORT'
p2750
asbag48
(g69
g50
NtRp2751
(dp2752
g53
(dp2753
g80
g81
ssg62
g2742
sg55
(lp2754
S':'
asbag48
(g69
g50
NtRp2755
(dp2756
g53
(dp2757
sg62
g2742
sg55
(lp2758
g48
(g49
g50
NtRp2759
(dp2760
g53
(dp2761
g61
I3
ssg62
g2755
sg55
(lp2762
g1304
asbasbasbag48
(g64
g50
NtRp2763
(dp2764
g53
(dp2765
sg62
g2402
sg55
(lp2766
g48
(g69
g50
NtRp2767
(dp2768
g53
(dp2769
g73
g74
ssg62
g2763
sg55
(lp2770
S'SERVER_PROTOCOL'
p2771
asbag48
(g69
g50
NtRp2772
(dp2773
g53
(dp2774
g80
g81
ssg62
g2763
sg55
(lp2775
S':'
asbag48
(g69
g50
NtRp2776
(dp2777
g53
(dp2778
sg62
g2763
sg55
(lp2779
g48
(g49
g50
NtRp2780
(dp2781
g53
(dp2782
g61
I3
ssg62
g2776
sg55
(lp2783
g1326
asbasbasbag48
(g64
g50
NtRp2784
(dp2785
g53
(dp2786
sg62
g2402
sg55
(lp2787
g48
(g69
g50
NtRp2788
(dp2789
g53
(dp2790
g73
g74
ssg62
g2784
sg55
(lp2791
S'SERVER_SOFTWARE'
p2792
asbag48
(g69
g50
NtRp2793
(dp2794
g53
(dp2795
g80
g81
ssg62
g2784
sg55
(lp2796
S':'
asbag48
(g69
g50
NtRp2797
(dp2798
g53
(dp2799
sg62
g2784
sg55
(lp2800
g48
(g49
g50
NtRp2801
(dp2802
g53
(dp2803
g61
I3
ssg62
g2797
sg55
(lp2804
g1348
asbasbasbag48
(g64
g50
NtRp2805
(dp2806
g53
(dp2807
sg62
g2402
sg55
(lp2808
g48
(g69
g50
NtRp2809
(dp2810
g53
(dp2811
g73
g74
ssg62
g2805
sg55
(lp2812
S'WEB2PY_ORIGINAL_URI'
p2813
asbag48
(g69
g50
NtRp2814
(dp2815
g53
(dp2816
g80
g81
ssg62
g2805
sg55
(lp2817
S':'
asbag48
(g69
g50
NtRp2818
(dp2819
g53
(dp2820
sg62
g2805
sg55
(lp2821
g48
(g49
g50
NtRp2822
(dp2823
g53
(dp2824
g61
I3
ssg62
g2818
sg55
(lp2825
g1392
asbasbasbag48
(g64
g50
NtRp2826
(dp2827
g53
(dp2828
sg62
g2402
sg55
(lp2829
g48
(g69
g50
NtRp2830
(dp2831
g53
(dp2832
g73
g74
ssg62
g2826
sg55
(lp2833
S'wsgi.errors'
p2834
asbag48
(g69
g50
NtRp2835
(dp2836
g53
(dp2837
g80
g81
ssg62
g2826
sg55
(lp2838
S':'
asbag48
(g69
g50
NtRp2839
(dp2840
g53
(dp2841
sg62
g2826
sg55
(lp2842
g48
(g49
g50
NtRp2843
(dp2844
g53
(dp2845
g61
I3
ssg62
g2839
sg55
(lp2846
S"<open file '<stderr>', mode 'w' at 0x01E400B0>"
p2847
asbasbasbag48
(g64
g50
NtRp2848
(dp2849
g53
(dp2850
sg62
g2402
sg55
(lp2851
g48
(g69
g50
NtRp2852
(dp2853
g53
(dp2854
g73
g74
ssg62
g2848
sg55
(lp2855
S'wsgi.file_wrapper'
p2856
asbag48
(g69
g50
NtRp2857
(dp2858
g53
(dp2859
g80
g81
ssg62
g2848
sg55
(lp2860
S':'
asbag48
(g69
g50
NtRp2861
(dp2862
g53
(dp2863
sg62
g2848
sg55
(lp2864
g48
(g49
g50
NtRp2865
(dp2866
g53
(dp2867
g61
I3
ssg62
g2861
sg55
(lp2868
S'<class wsgiref.util.FileWrapper at 0x0373C720>'
p2869
asbasbasbag48
(g64
g50
NtRp2870
(dp2871
g53
(dp2872
sg62
g2402
sg55
(lp2873
g48
(g69
g50
NtRp2874
(dp2875
g53
(dp2876
g73
g74
ssg62
g2870
sg55
(lp2877
S'wsgi.input'
p2878
asbag48
(g69
g50
NtRp2879
(dp2880
g53
(dp2881
g80
g81
ssg62
g2870
sg55
(lp2882
S':'
asbag48
(g69
g50
NtRp2883
(dp2884
g53
(dp2885
sg62
g2870
sg55
(lp2886
g48
(g49
g50
NtRp2887
(dp2888
g53
(dp2889
g61
I3
ssg62
g2883
sg55
(lp2890
S'<cStringIO.StringO object at 0x03B898C0>'
p2891
asbasbasbag48
(g64
g50
NtRp2892
(dp2893
g53
(dp2894
sg62
g2402
sg55
(lp2895
g48
(g69
g50
NtRp2896
(dp2897
g53
(dp2898
g73
g74
ssg62
g2892
sg55
(lp2899
S'wsgi.multiprocess'
p2900
asbag48
(g69
g50
NtRp2901
(dp2902
g53
(dp2903
g80
g81
ssg62
g2892
sg55
(lp2904
S':'
asbag48
(g69
g50
NtRp2905
(dp2906
g53
(dp2907
sg62
g2892
sg55
(lp2908
g48
(g49
g50
NtRp2909
(dp2910
g53
(dp2911
g61
I3
ssg62
g2905
sg55
(lp2912
g91
asbasbasbag48
(g64
g50
NtRp2913
(dp2914
g53
(dp2915
sg62
g2402
sg55
(lp2916
g48
(g69
g50
NtRp2917
(dp2918
g53
(dp2919
g73
g74
ssg62
g2913
sg55
(lp2920
S'wsgi.multithread'
p2921
asbag48
(g69
g50
NtRp2922
(dp2923
g53
(dp2924
g80
g81
ssg62
g2913
sg55
(lp2925
S':'
asbag48
(g69
g50
NtRp2926
(dp2927
g53
(dp2928
sg62
g2913
sg55
(lp2929
g48
(g49
g50
NtRp2930
(dp2931
g53
(dp2932
g61
I3
ssg62
g2926
sg55
(lp2933
g1610
asbasbasbag48
(g64
g50
NtRp2934
(dp2935
g53
(dp2936
sg62
g2402
sg55
(lp2937
g48
(g69
g50
NtRp2938
(dp2939
g53
(dp2940
g73
g74
ssg62
g2934
sg55
(lp2941
S'wsgi.run_once'
p2942
asbag48
(g69
g50
NtRp2943
(dp2944
g53
(dp2945
g80
g81
ssg62
g2934
sg55
(lp2946
S':'
asbag48
(g69
g50
NtRp2947
(dp2948
g53
(dp2949
sg62
g2934
sg55
(lp2950
g48
(g49
g50
NtRp2951
(dp2952
g53
(dp2953
g61
I3
ssg62
g2947
sg55
(lp2954
g91
asbasbasbag48
(g64
g50
NtRp2955
(dp2956
g53
(dp2957
sg62
g2402
sg55
(lp2958
g48
(g69
g50
NtRp2959
(dp2960
g53
(dp2961
g73
g74
ssg62
g2955
sg55
(lp2962
S'wsgi.url_scheme'
p2963
asbag48
(g69
g50
NtRp2964
(dp2965
g53
(dp2966
g80
g81
ssg62
g2955
sg55
(lp2967
S':'
asbag48
(g69
g50
NtRp2968
(dp2969
g53
(dp2970
sg62
g2955
sg55
(lp2971
g48
(g49
g50
NtRp2972
(dp2973
g53
(dp2974
g61
I3
ssg62
g2968
sg55
(lp2975
g1653
asbasbasbag48
(g64
g50
NtRp2976
(dp2977
g53
(dp2978
sg62
g2402
sg55
(lp2979
g48
(g69
g50
NtRp2980
(dp2981
g53
(dp2982
g73
g74
ssg62
g2976
sg55
(lp2983
S'wsgi.version'
p2984
asbag48
(g69
g50
NtRp2985
(dp2986
g53
(dp2987
g80
g81
ssg62
g2976
sg55
(lp2988
S':'
asbag48
(g69
g50
NtRp2989
(dp2990
g53
(dp2991
sg62
g2976
sg55
(lp2992
g48
(g49
g50
NtRp2993
(dp2994
g53
(dp2995
g61
I3
ssg62
g2989
sg55
(lp2996
S'1'
asbasbasbasbasbasbasbasbasbasbasbasbasbsS'frames'
p2997
(lp2998
(dp2999
S'file'
p3000
S'D:\\git_projs\\Gabblista\\web2py\\web2py\\gluon\\restricted.py'
p3001
sS'dump'
p3002
(dp3003
S'environment'
p3004
S"{'A': <class 'gluon.html.A'>, 'Auth': <class 'gluon.tools.Auth'>, 'B': <class 'gluon.html.B'>, 'BEAUTIFY': <class 'gluon.html.BEAUTIFY'>, 'BODY': <class 'gluon.html.BODY'>, 'BR': <class 'gluon.html.BR'>, 'BUTTON': <class 'gluon.html.BUTTON'>, 'CAT': <class 'gluon.html.CAT'>, 'CENTER': <class 'gluon.html.CENTER'>, 'CLEANUP': <class 'gluon.validators.CLEANUP'>, ...}"
p3005
sS'ccode'
p3006
S'<code object <module> at 0337AAD0, file "D:\\git_...bb1\\views\\fb_serv/serve_player_data.txt", line 1>'
p3007
ssS'lnum'
p3008
I194
sS'lines'
p3009
(dp3010
I192
S'        else:'
p3011
sI193
S'            ccode = compile2(code,layer)'
p3012
sI194
S'        exec ccode in environment'
p3013
sI195
S'    except HTTP:'
p3014
sI196
S'        raise'
p3015
sI197
S'    except Exception, error:'
p3016
sI198
S'        # XXX Show exception in Wing IDE if running in debugger'
p3017
sI189
S'    try:'
p3018
sI190
S'        if type(code) == types.CodeType:'
p3019
sI191
S'            ccode = code'
p3020
ssS'call'
p3021
S'(code="response.write(message)\\nresponse.write(\'\\\\r\\\\n\\\\r\\\\n...te(test_var)\\nresponse.write(\'\\\\r\\\\n\', escape=False)", environment={\'A\': <class \'gluon.html.A\'>, \'Auth\': <class \'gluon.tools.Auth\'>, \'B\': <class \'gluon.html.B\'>, \'BEAUTIFY\': <class \'gluon.html.BEAUTIFY\'>, \'BODY\': <class \'gluon.html.BODY\'>, \'BR\': <class \'gluon.html.BR\'>, \'BUTTON\': <class \'gluon.html.BUTTON\'>, \'CAT\': <class \'gluon.html.CAT\'>, \'CENTER\': <class \'gluon.html.CENTER\'>, \'CLEANUP\': <class \'gluon.validators.CLEANUP\'>, ...}, layer=r\'D:\\git_projs\\Gabblista\\web2py\\web2py\\applications\\Gabb1\\views\\fb_serv/serve_player_data.txt\')'
p3022
sS'func'
p3023
S'restricted'
p3024
sa(dp3025
g3000
S'D:\\git_projs\\Gabblista\\web2py\\web2py\\applications\\Gabb1\\views\\fb_serv\\serve_player_data.txt'
p3026
sg3002
(dp3027
S'test_var'
p3028
S'undefined'
p3029
ssg3008
I3
sg3009
(dp3030
I1
S'{{=message}}'
p3031
sI2
S''
sI3
S'{{=test_var}}'
p3032
ssg3021
S'()'
p3033
sg3023
S'<module>'
p3034
sasS'pyver'
p3035
S'Python 2.5.4: C:\\python25\\python.exe'
p3036
sS'session'
p3037
g48
(g49
g50
NtRp3038
(dp3039
g53
(dp3040
sg55
(lp3041
g48
(g57
g50
NtRp3042
(dp3043
g53
(dp3044
g61
I5
ssg62
Nsg55
(lp3045
sbasbsS'etype'
p3046
S"<type 'exceptions.NameError'>"
p3047
sS'date'
p3048
S'Wed Jan 18 08:53:10 2012'
p3049
sS'response'
p3050
g48
(g49
g50
NtRp3051
(dp3052
g53
(dp3053
sg55
(lp3054
g48
(g57
g50
NtRp3055
(dp3056
g53
(dp3057
g61
I5
ssg62
Nsg55
(lp3058
g48
(g64
g50
NtRp3059
(dp3060
g53
(dp3061
sg62
g3055
sg55
(lp3062
g48
(g69
g50
NtRp3063
(dp3064
g53
(dp3065
g73
g74
ssg62
g3059
sg55
(lp3066
g146
asbag48
(g69
g50
NtRp3067
(dp3068
g53
(dp3069
g80
g81
ssg62
g3059
sg55
(lp3070
S':'
asbag48
(g69
g50
NtRp3071
(dp3072
g53
(dp3073
sg62
g3059
sg55
(lp3074
g48
(g49
g50
NtRp3075
(dp3076
g53
(dp3077
g61
I5
ssg62
g3071
sg55
(lp3078
S'<cStringIO.StringO object at 0x0365F440>'
p3079
asbasbasbag48
(g64
g50
NtRp3080
(dp3081
g53
(dp3082
sg62
g3055
sg55
(lp3083
g48
(g69
g50
NtRp3084
(dp3085
g53
(dp3086
g73
g74
ssg62
g3080
sg55
(lp3087
g212
asbag48
(g69
g50
NtRp3088
(dp3089
g53
(dp3090
g80
g81
ssg62
g3080
sg55
(lp3091
S':'
asbag48
(g69
g50
NtRp3092
(dp3093
g53
(dp3094
sg62
g3080
sg55
(lp3095
g48
(g49
g50
NtRp3096
(dp3097
g53
(dp3098
g61
I5
ssg62
g3092
sg55
(lp3099
g48
(g57
g50
NtRp3100
(dp3101
g53
(dp3102
g61
I4
ssg62
Nsg55
(lp3103
g48
(g64
g50
NtRp3104
(dp3105
g53
(dp3106
sg62
g3100
sg55
(lp3107
g48
(g69
g50
NtRp3108
(dp3109
g53
(dp3110
g73
g74
ssg62
g3104
sg55
(lp3111
S'session_id_gabb1'
p3112
asbag48
(g69
g50
NtRp3113
(dp3114
g53
(dp3115
g80
g81
ssg62
g3104
sg55
(lp3116
S':'
asbag48
(g69
g50
NtRp3117
(dp3118
g53
(dp3119
sg62
g3104
sg55
(lp3120
g48
(g49
g50
NtRp3121
(dp3122
g53
(dp3123
g61
I4
ssg62
g3117
sg55
(lp3124
g48
(g57
g50
NtRp3125
(dp3126
g53
(dp3127
g61
I3
ssg62
Nsg55
(lp3128
g48
(g64
g50
NtRp3129
(dp3130
g53
(dp3131
sg62
g3125
sg55
(lp3132
g48
(g69
g50
NtRp3133
(dp3134
g53
(dp3135
g73
g74
ssg62
g3129
sg55
(lp3136
g262
asbag48
(g69
g50
NtRp3137
(dp3138
g53
(dp3139
g80
g81
ssg62
g3129
sg55
(lp3140
S':'
asbag48
(g69
g50
NtRp3141
(dp3142
g53
(dp3143
sg62
g3129
sg55
(lp3144
g48
(g49
g50
NtRp3145
(dp3146
g53
(dp3147
g61
I3
ssg62
g3141
sg55
(lp3148
S''
asbasbasbag48
(g64
g50
NtRp3149
(dp3150
g53
(dp3151
sg62
g3125
sg55
(lp3152
g48
(g69
g50
NtRp3153
(dp3154
g53
(dp3155
g73
g74
ssg62
g3149
sg55
(lp3156
g283
asbag48
(g69
g50
NtRp3157
(dp3158
g53
(dp3159
g80
g81
ssg62
g3149
sg55
(lp3160
S':'
asbag48
(g69
g50
NtRp3161
(dp3162
g53
(dp3163
sg62
g3149
sg55
(lp3164
g48
(g49
g50
NtRp3165
(dp3166
g53
(dp3167
g61
I3
ssg62
g3161
sg55
(lp3168
S''
asbasbasbag48
(g64
g50
NtRp3169
(dp3170
g53
(dp3171
sg62
g3125
sg55
(lp3172
g48
(g69
g50
NtRp3173
(dp3174
g53
(dp3175
g73
g74
ssg62
g3169
sg55
(lp3176
g304
asbag48
(g69
g50
NtRp3177
(dp3178
g53
(dp3179
g80
g81
ssg62
g3169
sg55
(lp3180
S':'
asbag48
(g69
g50
NtRp3181
(dp3182
g53
(dp3183
sg62
g3169
sg55
(lp3184
g48
(g49
g50
NtRp3185
(dp3186
g53
(dp3187
g61
I3
ssg62
g3181
sg55
(lp3188
S''
asbasbasbag48
(g64
g50
NtRp3189
(dp3190
g53
(dp3191
sg62
g3125
sg55
(lp3192
g48
(g69
g50
NtRp3193
(dp3194
g53
(dp3195
g73
g74
ssg62
g3189
sg55
(lp3196
g325
asbag48
(g69
g50
NtRp3197
(dp3198
g53
(dp3199
g80
g81
ssg62
g3189
sg55
(lp3200
S':'
asbag48
(g69
g50
NtRp3201
(dp3202
g53
(dp3203
sg62
g3189
sg55
(lp3204
g48
(g49
g50
NtRp3205
(dp3206
g53
(dp3207
g61
I3
ssg62
g3201
sg55
(lp3208
S''
asbasbasbag48
(g64
g50
NtRp3209
(dp3210
g53
(dp3211
sg62
g3125
sg55
(lp3212
g48
(g69
g50
NtRp3213
(dp3214
g53
(dp3215
g73
g74
ssg62
g3209
sg55
(lp3216
g346
asbag48
(g69
g50
NtRp3217
(dp3218
g53
(dp3219
g80
g81
ssg62
g3209
sg55
(lp3220
S':'
asbag48
(g69
g50
NtRp3221
(dp3222
g53
(dp3223
sg62
g3209
sg55
(lp3224
g48
(g49
g50
NtRp3225
(dp3226
g53
(dp3227
g61
I3
ssg62
g3221
sg55
(lp3228
S'/'
asbasbasbag48
(g64
g50
NtRp3229
(dp3230
g53
(dp3231
sg62
g3125
sg55
(lp3232
g48
(g69
g50
NtRp3233
(dp3234
g53
(dp3235
g73
g74
ssg62
g3229
sg55
(lp3236
g367
asbag48
(g69
g50
NtRp3237
(dp3238
g53
(dp3239
g80
g81
ssg62
g3229
sg55
(lp3240
S':'
asbag48
(g69
g50
NtRp3241
(dp3242
g53
(dp3243
sg62
g3229
sg55
(lp3244
g48
(g49
g50
NtRp3245
(dp3246
g53
(dp3247
g61
I3
ssg62
g3241
sg55
(lp3248
S''
asbasbasbag48
(g64
g50
NtRp3249
(dp3250
g53
(dp3251
sg62
g3125
sg55
(lp3252
g48
(g69
g50
NtRp3253
(dp3254
g53
(dp3255
g73
g74
ssg62
g3249
sg55
(lp3256
g388
asbag48
(g69
g50
NtRp3257
(dp3258
g53
(dp3259
g80
g81
ssg62
g3249
sg55
(lp3260
S':'
asbag48
(g69
g50
NtRp3261
(dp3262
g53
(dp3263
sg62
g3249
sg55
(lp3264
g48
(g49
g50
NtRp3265
(dp3266
g53
(dp3267
g61
I3
ssg62
g3261
sg55
(lp3268
S''
asbasbasbasbasbasbasbasbasbasbasbag48
(g64
g50
NtRp3269
(dp3270
g53
(dp3271
sg62
g3055
sg55
(lp3272
g48
(g69
g50
NtRp3273
(dp3274
g53
(dp3275
g73
g74
ssg62
g3269
sg55
(lp3276
S'files'
p3277
asbag48
(g69
g50
NtRp3278
(dp3279
g53
(dp3280
g80
g81
ssg62
g3269
sg55
(lp3281
S':'
asbag48
(g69
g50
NtRp3282
(dp3283
g53
(dp3284
sg62
g3269
sg55
(lp3285
g48
(g49
g50
NtRp3286
(dp3287
g53
(dp3288
g61
I5
ssg62
g3282
sg55
(lp3289
g48
(g57
g50
NtRp3290
(dp3291
g53
(dp3292
g61
I4
ssg62
Nsg55
(lp3293
sbasbasbasbag48
(g64
g50
NtRp3294
(dp3295
g53
(dp3296
sg62
g3055
sg55
(lp3297
g48
(g69
g50
NtRp3298
(dp3299
g53
(dp3300
g73
g74
ssg62
g3294
sg55
(lp3301
S'flash'
p3302
asbag48
(g69
g50
NtRp3303
(dp3304
g53
(dp3305
g80
g81
ssg62
g3294
sg55
(lp3306
S':'
asbag48
(g69
g50
NtRp3307
(dp3308
g53
(dp3309
sg62
g3294
sg55
(lp3310
g48
(g49
g50
NtRp3311
(dp3312
g53
(dp3313
g61
I5
ssg62
g3307
sg55
(lp3314
S''
asbasbasbag48
(g64
g50
NtRp3315
(dp3316
g53
(dp3317
sg62
g3055
sg55
(lp3318
g48
(g69
g50
NtRp3319
(dp3320
g53
(dp3321
g73
g74
ssg62
g3315
sg55
(lp3322
S'generic_patterns'
p3323
asbag48
(g69
g50
NtRp3324
(dp3325
g53
(dp3326
g80
g81
ssg62
g3315
sg55
(lp3327
S':'
asbag48
(g69
g50
NtRp3328
(dp3329
g53
(dp3330
sg62
g3315
sg55
(lp3331
g48
(g49
g50
NtRp3332
(dp3333
g53
(dp3334
g61
I5
ssg62
g3328
sg55
(lp3335
g48
(g57
g50
NtRp3336
(dp3337
g53
(dp3338
g61
I4
ssg62
Nsg55
(lp3339
g48
(g64
g50
NtRp3340
(dp3341
g53
(dp3342
sg62
g3336
sg55
(lp3343
g48
(g69
g50
NtRp3344
(dp3345
g53
(dp3346
sg62
g3340
sg55
(lp3347
g48
(g49
g50
NtRp3348
(dp3349
g53
(dp3350
g61
I4
ssg62
g3344
sg55
(lp3351
S'*'
asbasbasbasbasbasbasbag48
(g64
g50
NtRp3352
(dp3353
g53
(dp3354
sg62
g3055
sg55
(lp3355
g48
(g69
g50
NtRp3356
(dp3357
g53
(dp3358
g73
g74
ssg62
g3352
sg55
(lp3359
S'headers'
p3360
asbag48
(g69
g50
NtRp3361
(dp3362
g53
(dp3363
g80
g81
ssg62
g3352
sg55
(lp3364
S':'
asbag48
(g69
g50
NtRp3365
(dp3366
g53
(dp3367
sg62
g3352
sg55
(lp3368
g48
(g49
g50
NtRp3369
(dp3370
g53
(dp3371
g61
I5
ssg62
g3365
sg55
(lp3372
g48
(g57
g50
NtRp3373
(dp3374
g53
(dp3375
g61
I4
ssg62
Nsg55
(lp3376
g48
(g64
g50
NtRp3377
(dp3378
g53
(dp3379
sg62
g3373
sg55
(lp3380
g48
(g69
g50
NtRp3381
(dp3382
g53
(dp3383
g73
g74
ssg62
g3377
sg55
(lp3384
S'Cache-Control'
p3385
asbag48
(g69
g50
NtRp3386
(dp3387
g53
(dp3388
g80
g81
ssg62
g3377
sg55
(lp3389
S':'
asbag48
(g69
g50
NtRp3390
(dp3391
g53
(dp3392
sg62
g3377
sg55
(lp3393
g48
(g49
g50
NtRp3394
(dp3395
g53
(dp3396
g61
I4
ssg62
g3390
sg55
(lp3397
S'no-store, no-cache, must-revalidate, post-check=0, pre-check=0'
p3398
asbasbasbag48
(g64
g50
NtRp3399
(dp3400
g53
(dp3401
sg62
g3373
sg55
(lp3402
g48
(g69
g50
NtRp3403
(dp3404
g53
(dp3405
g73
g74
ssg62
g3399
sg55
(lp3406
S'Content-Type'
p3407
asbag48
(g69
g50
NtRp3408
(dp3409
g53
(dp3410
g80
g81
ssg62
g3399
sg55
(lp3411
S':'
asbag48
(g69
g50
NtRp3412
(dp3413
g53
(dp3414
sg62
g3399
sg55
(lp3415
g48
(g49
g50
NtRp3416
(dp3417
g53
(dp3418
g61
I4
ssg62
g3412
sg55
(lp3419
S'text/plain; charset=utf-8'
p3420
asbasbasbag48
(g64
g50
NtRp3421
(dp3422
g53
(dp3423
sg62
g3373
sg55
(lp3424
g48
(g69
g50
NtRp3425
(dp3426
g53
(dp3427
g73
g74
ssg62
g3421
sg55
(lp3428
S'Expires'
p3429
asbag48
(g69
g50
NtRp3430
(dp3431
g53
(dp3432
g80
g81
ssg62
g3421
sg55
(lp3433
S':'
asbag48
(g69
g50
NtRp3434
(dp3435
g53
(dp3436
sg62
g3421
sg55
(lp3437
g48
(g49
g50
NtRp3438
(dp3439
g53
(dp3440
g61
I4
ssg62
g3434
sg55
(lp3441
S'Wed, 18 Jan 2012 13:53:10 GMT'
p3442
asbasbasbag48
(g64
g50
NtRp3443
(dp3444
g53
(dp3445
sg62
g3373
sg55
(lp3446
g48
(g69
g50
NtRp3447
(dp3448
g53
(dp3449
g73
g74
ssg62
g3443
sg55
(lp3450
S'NingNang'
p3451
asbag48
(g69
g50
NtRp3452
(dp3453
g53
(dp3454
g80
g81
ssg62
g3443
sg55
(lp3455
S':'
asbag48
(g69
g50
NtRp3456
(dp3457
g53
(dp3458
sg62
g3443
sg55
(lp3459
g48
(g49
g50
NtRp3460
(dp3461
g53
(dp3462
g61
I4
ssg62
g3456
sg55
(lp3463
S'Nong'
p3464
asbasbasbag48
(g64
g50
NtRp3465
(dp3466
g53
(dp3467
sg62
g3373
sg55
(lp3468
g48
(g69
g50
NtRp3469
(dp3470
g53
(dp3471
g73
g74
ssg62
g3465
sg55
(lp3472
S'Pragma'
p3473
asbag48
(g69
g50
NtRp3474
(dp3475
g53
(dp3476
g80
g81
ssg62
g3465
sg55
(lp3477
S':'
asbag48
(g69
g50
NtRp3478
(dp3479
g53
(dp3480
sg62
g3465
sg55
(lp3481
g48
(g49
g50
NtRp3482
(dp3483
g53
(dp3484
g61
I4
ssg62
g3478
sg55
(lp3485
S'no-cache'
p3486
asbasbasbasbasbasbasbag48
(g64
g50
NtRp3487
(dp3488
g53
(dp3489
sg62
g3055
sg55
(lp3490
g48
(g69
g50
NtRp3491
(dp3492
g53
(dp3493
g73
g74
ssg62
g3487
sg55
(lp3494
S'menu'
p3495
asbag48
(g69
g50
NtRp3496
(dp3497
g53
(dp3498
g80
g81
ssg62
g3487
sg55
(lp3499
S':'
asbag48
(g69
g50
NtRp3500
(dp3501
g53
(dp3502
sg62
g3487
sg55
(lp3503
g48
(g49
g50
NtRp3504
(dp3505
g53
(dp3506
g61
I5
ssg62
g3500
sg55
(lp3507
g48
(g57
g50
NtRp3508
(dp3509
g53
(dp3510
g61
I4
ssg62
Nsg55
(lp3511
g48
(g64
g50
NtRp3512
(dp3513
g53
(dp3514
sg62
g3508
sg55
(lp3515
g48
(g69
g50
NtRp3516
(dp3517
g53
(dp3518
sg62
g3512
sg55
(lp3519
g48
(g49
g50
NtRp3520
(dp3521
g53
(dp3522
g61
I4
ssg62
g3516
sg55
(lp3523
g48
(g57
g50
NtRp3524
(dp3525
g53
(dp3526
g61
I3
ssg62
Nsg55
(lp3527
g48
(g64
g50
NtRp3528
(dp3529
g53
(dp3530
sg62
g3524
sg55
(lp3531
g48
(g69
g50
NtRp3532
(dp3533
g53
(dp3534
sg62
g3528
sg55
(lp3535
g48
(g49
g50
NtRp3536
(dp3537
g53
(dp3538
g61
I3
ssg62
g3532
sg55
(lp3539
cgluon.languages
lazyT_unpickle
p3540
(S's\x04\x00\x00\x00Home'
tRp3541
asbasbasbag48
(g64
g50
NtRp3542
(dp3543
g53
(dp3544
sg62
g3524
sg55
(lp3545
g48
(g69
g50
NtRp3546
(dp3547
g53
(dp3548
sg62
g3542
sg55
(lp3549
g48
(g49
g50
NtRp3550
(dp3551
g53
(dp3552
g61
I3
ssg62
g3546
sg55
(lp3553
g91
asbasbasbag48
(g64
g50
NtRp3554
(dp3555
g53
(dp3556
sg62
g3524
sg55
(lp3557
g48
(g69
g50
NtRp3558
(dp3559
g53
(dp3560
sg62
g3554
sg55
(lp3561
g48
(g49
g50
NtRp3562
(dp3563
g53
(dp3564
g61
I3
ssg62
g3558
sg55
(lp3565
S'/Gabb1/default/index.txt'
p3566
asbasbasbag48
(g64
g50
NtRp3567
(dp3568
g53
(dp3569
sg62
g3524
sg55
(lp3570
g48
(g69
g50
NtRp3571
(dp3572
g53
(dp3573
sg62
g3567
sg55
(lp3574
g48
(g49
g50
NtRp3575
(dp3576
g53
(dp3577
g61
I3
ssg62
g3571
sg55
(lp3578
g48
(g57
g50
NtRp3579
(dp3580
g53
(dp3581
g61
I2
ssg62
Nsg55
(lp3582
sbasbasbasbasbasbasbasbag48
(g64
g50
NtRp3583
(dp3584
g53
(dp3585
sg62
g3508
sg55
(lp3586
g48
(g69
g50
NtRp3587
(dp3588
g53
(dp3589
sg62
g3583
sg55
(lp3590
g48
(g49
g50
NtRp3591
(dp3592
g53
(dp3593
g61
I4
ssg62
g3587
sg55
(lp3594
g48
(g57
g50
NtRp3595
(dp3596
g53
(dp3597
g61
I3
ssg62
Nsg55
(lp3598
g48
(g64
g50
NtRp3599
(dp3600
g53
(dp3601
sg62
g3595
sg55
(lp3602
g48
(g69
g50
NtRp3603
(dp3604
g53
(dp3605
sg62
g3599
sg55
(lp3606
g48
(g49
g50
NtRp3607
(dp3608
g53
(dp3609
g61
I3
ssg62
g3603
sg55
(lp3610
g3540
(S's\x08\x00\x00\x00This App'
tRp3611
asbasbasbag48
(g64
g50
NtRp3612
(dp3613
g53
(dp3614
sg62
g3595
sg55
(lp3615
g48
(g69
g50
NtRp3616
(dp3617
g53
(dp3618
sg62
g3612
sg55
(lp3619
g48
(g49
g50
NtRp3620
(dp3621
g53
(dp3622
g61
I3
ssg62
g3616
sg55
(lp3623
g91
asbasbasbag48
(g64
g50
NtRp3624
(dp3625
g53
(dp3626
sg62
g3595
sg55
(lp3627
g48
(g69
g50
NtRp3628
(dp3629
g53
(dp3630
sg62
g3624
sg55
(lp3631
g48
(g49
g50
NtRp3632
(dp3633
g53
(dp3634
g61
I3
ssg62
g3628
sg55
(lp3635
S'/admin/default/design/Gabb1.txt'
p3636
asbasbasbag48
(g64
g50
NtRp3637
(dp3638
g53
(dp3639
sg62
g3595
sg55
(lp3640
g48
(g69
g50
NtRp3641
(dp3642
g53
(dp3643
sg62
g3637
sg55
(lp3644
g48
(g49
g50
NtRp3645
(dp3646
g53
(dp3647
g61
I3
ssg62
g3641
sg55
(lp3648
g48
(g57
g50
NtRp3649
(dp3650
g53
(dp3651
g61
I2
ssg62
Nsg55
(lp3652
g48
(g64
g50
NtRp3653
(dp3654
g53
(dp3655
sg62
g3649
sg55
(lp3656
g48
(g69
g50
NtRp3657
(dp3658
g53
(dp3659
sg62
g3653
sg55
(lp3660
g48
(g49
g50
NtRp3661
(dp3662
g53
(dp3663
g61
I2
ssg62
g3657
sg55
(lp3664
g48
(g57
g50
NtRp3665
(dp3666
g53
(dp3667
g61
I1
ssg62
Nsg55
(lp3668
g48
(g64
g50
NtRp3669
(dp3670
g53
(dp3671
sg62
g3665
sg55
(lp3672
g48
(g69
g50
NtRp3673
(dp3674
g53
(dp3675
sg62
g3669
sg55
(lp3676
g48
(g49
g50
NtRp3677
(dp3678
g53
(dp3679
g61
I1
ssg62
g3673
sg55
(lp3680
g3540
(S's\n\x00\x00\x00Controller'
tRp3681
asbasbasbag48
(g64
g50
NtRp3682
(dp3683
g53
(dp3684
sg62
g3665
sg55
(lp3685
g48
(g69
g50
NtRp3686
(dp3687
g53
(dp3688
sg62
g3682
sg55
(lp3689
g48
(g49
g50
NtRp3690
(dp3691
g53
(dp3692
g61
I1
ssg62
g3686
sg55
(lp3693
I00
asbasbasbag48
(g64
g50
NtRp3694
(dp3695
g53
(dp3696
sg62
g3665
sg55
(lp3697
g48
(g69
g50
NtRp3698
(dp3699
g53
(dp3700
sg62
g3694
sg55
(lp3701
g48
(g49
g50
NtRp3702
(dp3703
g53
(dp3704
g61
I1
ssg62
g3698
sg55
(lp3705
S'/admin/default/edit/Gabb1/controllers/fb_serv.py'
p3706
asbasbasbasbasbasbasbag48
(g64
g50
NtRp3707
(dp3708
g53
(dp3709
sg62
g3649
sg55
(lp3710
g48
(g69
g50
NtRp3711
(dp3712
g53
(dp3713
sg62
g3707
sg55
(lp3714
g48
(g49
g50
NtRp3715
(dp3716
g53
(dp3717
g61
I2
ssg62
g3711
sg55
(lp3718
g48
(g57
g50
NtRp3719
(dp3720
g53
(dp3721
g61
I1
ssg62
Nsg55
(lp3722
g48
(g64
g50
NtRp3723
(dp3724
g53
(dp3725
sg62
g3719
sg55
(lp3726
g48
(g69
g50
NtRp3727
(dp3728
g53
(dp3729
sg62
g3723
sg55
(lp3730
g48
(g49
g50
NtRp3731
(dp3732
g53
(dp3733
g61
I1
ssg62
g3727
sg55
(lp3734
g3540
(S's\x04\x00\x00\x00View'
tRp3735
asbasbasbag48
(g64
g50
NtRp3736
(dp3737
g53
(dp3738
sg62
g3719
sg55
(lp3739
g48
(g69
g50
NtRp3740
(dp3741
g53
(dp3742
sg62
g3736
sg55
(lp3743
g48
(g49
g50
NtRp3744
(dp3745
g53
(dp3746
g61
I1
ssg62
g3740
sg55
(lp3747
I00
asbasbasbag48
(g64
g50
NtRp3748
(dp3749
g53
(dp3750
sg62
g3719
sg55
(lp3751
g48
(g69
g50
NtRp3752
(dp3753
g53
(dp3754
sg62
g3748
sg55
(lp3755
g48
(g49
g50
NtRp3756
(dp3757
g53
(dp3758
g61
I1
ssg62
g3752
sg55
(lp3759
S'/admin/default/edit/Gabb1/views/fb_serv/serve_player_data.txt'
p3760
asbasbasbasbasbasbasbag48
(g64
g50
NtRp3761
(dp3762
g53
(dp3763
sg62
g3649
sg55
(lp3764
g48
(g69
g50
NtRp3765
(dp3766
g53
(dp3767
sg62
g3761
sg55
(lp3768
g48
(g49
g50
NtRp3769
(dp3770
g53
(dp3771
g61
I2
ssg62
g3765
sg55
(lp3772
g48
(g57
g50
NtRp3773
(dp3774
g53
(dp3775
g61
I1
ssg62
Nsg55
(lp3776
g48
(g64
g50
NtRp3777
(dp3778
g53
(dp3779
sg62
g3773
sg55
(lp3780
g48
(g69
g50
NtRp3781
(dp3782
g53
(dp3783
sg62
g3777
sg55
(lp3784
g48
(g49
g50
NtRp3785
(dp3786
g53
(dp3787
g61
I1
ssg62
g3781
sg55
(lp3788
g3540
(S's\x06\x00\x00\x00Layout'
tRp3789
asbasbasbag48
(g64
g50
NtRp3790
(dp3791
g53
(dp3792
sg62
g3773
sg55
(lp3793
g48
(g69
g50
NtRp3794
(dp3795
g53
(dp3796
sg62
g3790
sg55
(lp3797
g48
(g49
g50
NtRp3798
(dp3799
g53
(dp3800
g61
I1
ssg62
g3794
sg55
(lp3801
I00
asbasbasbag48
(g64
g50
NtRp3802
(dp3803
g53
(dp3804
sg62
g3773
sg55
(lp3805
g48
(g69
g50
NtRp3806
(dp3807
g53
(dp3808
sg62
g3802
sg55
(lp3809
g48
(g49
g50
NtRp3810
(dp3811
g53
(dp3812
g61
I1
ssg62
g3806
sg55
(lp3813
S'/admin/default/edit/Gabb1/views/layout.html'
p3814
asbasbasbasbasbasbasbag48
(g64
g50
NtRp3815
(dp3816
g53
(dp3817
sg62
g3649
sg55
(lp3818
g48
(g69
g50
NtRp3819
(dp3820
g53
(dp3821
sg62
g3815
sg55
(lp3822
g48
(g49
g50
NtRp3823
(dp3824
g53
(dp3825
g61
I2
ssg62
g3819
sg55
(lp3826
g48
(g57
g50
NtRp3827
(dp3828
g53
(dp3829
g61
I1
ssg62
Nsg55
(lp3830
g48
(g64
g50
NtRp3831
(dp3832
g53
(dp3833
sg62
g3827
sg55
(lp3834
g48
(g69
g50
NtRp3835
(dp3836
g53
(dp3837
sg62
g3831
sg55
(lp3838
g48
(g49
g50
NtRp3839
(dp3840
g53
(dp3841
g61
I1
ssg62
g3835
sg55
(lp3842
g3540
(S's\n\x00\x00\x00Stylesheet'
tRp3843
asbasbasbag48
(g64
g50
NtRp3844
(dp3845
g53
(dp3846
sg62
g3827
sg55
(lp3847
g48
(g69
g50
NtRp3848
(dp3849
g53
(dp3850
sg62
g3844
sg55
(lp3851
g48
(g49
g50
NtRp3852
(dp3853
g53
(dp3854
g61
I1
ssg62
g3848
sg55
(lp3855
I00
asbasbasbag48
(g64
g50
NtRp3856
(dp3857
g53
(dp3858
sg62
g3827
sg55
(lp3859
g48
(g69
g50
NtRp3860
(dp3861
g53
(dp3862
sg62
g3856
sg55
(lp3863
g48
(g49
g50
NtRp3864
(dp3865
g53
(dp3866
g61
I1
ssg62
g3860
sg55
(lp3867
S'/admin/default/edit/Gabb1/static/base.css'
p3868
asbasbasbasbasbasbasbag48
(g64
g50
NtRp3869
(dp3870
g53
(dp3871
sg62
g3649
sg55
(lp3872
g48
(g69
g50
NtRp3873
(dp3874
g53
(dp3875
sg62
g3869
sg55
(lp3876
g48
(g49
g50
NtRp3877
(dp3878
g53
(dp3879
g61
I2
ssg62
g3873
sg55
(lp3880
g48
(g57
g50
NtRp3881
(dp3882
g53
(dp3883
g61
I1
ssg62
Nsg55
(lp3884
g48
(g64
g50
NtRp3885
(dp3886
g53
(dp3887
sg62
g3881
sg55
(lp3888
g48
(g69
g50
NtRp3889
(dp3890
g53
(dp3891
sg62
g3885
sg55
(lp3892
g48
(g49
g50
NtRp3893
(dp3894
g53
(dp3895
g61
I1
ssg62
g3889
sg55
(lp3896
g3540
(S's\x08\x00\x00\x00DB Model'
tRp3897
asbasbasbag48
(g64
g50
NtRp3898
(dp3899
g53
(dp3900
sg62
g3881
sg55
(lp3901
g48
(g69
g50
NtRp3902
(dp3903
g53
(dp3904
sg62
g3898
sg55
(lp3905
g48
(g49
g50
NtRp3906
(dp3907
g53
(dp3908
g61
I1
ssg62
g3902
sg55
(lp3909
I00
asbasbasbag48
(g64
g50
NtRp3910
(dp3911
g53
(dp3912
sg62
g3881
sg55
(lp3913
g48
(g69
g50
NtRp3914
(dp3915
g53
(dp3916
sg62
g3910
sg55
(lp3917
g48
(g49
g50
NtRp3918
(dp3919
g53
(dp3920
g61
I1
ssg62
g3914
sg55
(lp3921
S'/admin/default/edit/Gabb1/models/db.py'
p3922
asbasbasbasbasbasbasbag48
(g64
g50
NtRp3923
(dp3924
g53
(dp3925
sg62
g3649
sg55
(lp3926
g48
(g69
g50
NtRp3927
(dp3928
g53
(dp3929
sg62
g3923
sg55
(lp3930
g48
(g49
g50
NtRp3931
(dp3932
g53
(dp3933
g61
I2
ssg62
g3927
sg55
(lp3934
g48
(g57
g50
NtRp3935
(dp3936
g53
(dp3937
g61
I1
ssg62
Nsg55
(lp3938
g48
(g64
g50
NtRp3939
(dp3940
g53
(dp3941
sg62
g3935
sg55
(lp3942
g48
(g69
g50
NtRp3943
(dp3944
g53
(dp3945
sg62
g3939
sg55
(lp3946
g48
(g49
g50
NtRp3947
(dp3948
g53
(dp3949
g61
I1
ssg62
g3943
sg55
(lp3950
g3540
(S's\n\x00\x00\x00Menu Model'
tRp3951
asbasbasbag48
(g64
g50
NtRp3952
(dp3953
g53
(dp3954
sg62
g3935
sg55
(lp3955
g48
(g69
g50
NtRp3956
(dp3957
g53
(dp3958
sg62
g3952
sg55
(lp3959
g48
(g49
g50
NtRp3960
(dp3961
g53
(dp3962
g61
I1
ssg62
g3956
sg55
(lp3963
I00
asbasbasbag48
(g64
g50
NtRp3964
(dp3965
g53
(dp3966
sg62
g3935
sg55
(lp3967
g48
(g69
g50
NtRp3968
(dp3969
g53
(dp3970
sg62
g3964
sg55
(lp3971
g48
(g49
g50
NtRp3972
(dp3973
g53
(dp3974
g61
I1
ssg62
g3968
sg55
(lp3975
S'/admin/default/edit/Gabb1/models/menu.py'
p3976
asbasbasbasbasbasbasbag48
(g64
g50
NtRp3977
(dp3978
g53
(dp3979
sg62
g3649
sg55
(lp3980
g48
(g69
g50
NtRp3981
(dp3982
g53
(dp3983
sg62
g3977
sg55
(lp3984
g48
(g49
g50
NtRp3985
(dp3986
g53
(dp3987
g61
I2
ssg62
g3981
sg55
(lp3988
g48
(g57
g50
NtRp3989
(dp3990
g53
(dp3991
g61
I1
ssg62
Nsg55
(lp3992
g48
(g64
g50
NtRp3993
(dp3994
g53
(dp3995
sg62
g3989
sg55
(lp3996
g48
(g69
g50
NtRp3997
(dp3998
g53
(dp3999
sg62
g3993
sg55
(lp4000
g48
(g49
g50
NtRp4001
(dp4002
g53
(dp4003
g61
I1
ssg62
g3997
sg55
(lp4004
g3540
(S's\x08\x00\x00\x00Database'
tRp4005
asbasbasbag48
(g64
g50
NtRp4006
(dp4007
g53
(dp4008
sg62
g3989
sg55
(lp4009
g48
(g69
g50
NtRp4010
(dp4011
g53
(dp4012
sg62
g4006
sg55
(lp4013
g48
(g49
g50
NtRp4014
(dp4015
g53
(dp4016
g61
I1
ssg62
g4010
sg55
(lp4017
I00
asbasbasbag48
(g64
g50
NtRp4018
(dp4019
g53
(dp4020
sg62
g3989
sg55
(lp4021
g48
(g69
g50
NtRp4022
(dp4023
g53
(dp4024
sg62
g4018
sg55
(lp4025
g48
(g49
g50
NtRp4026
(dp4027
g53
(dp4028
g61
I1
ssg62
g4022
sg55
(lp4029
S'/Gabb1/appadmin/index.txt'
p4030
asbasbasbasbasbasbasbag48
(g64
g50
NtRp4031
(dp4032
g53
(dp4033
sg62
g3649
sg55
(lp4034
g48
(g69
g50
NtRp4035
(dp4036
g53
(dp4037
sg62
g4031
sg55
(lp4038
g48
(g49
g50
NtRp4039
(dp4040
g53
(dp4041
g61
I2
ssg62
g4035
sg55
(lp4042
g48
(g57
g50
NtRp4043
(dp4044
g53
(dp4045
g61
I1
ssg62
Nsg55
(lp4046
g48
(g64
g50
NtRp4047
(dp4048
g53
(dp4049
sg62
g4043
sg55
(lp4050
g48
(g69
g50
NtRp4051
(dp4052
g53
(dp4053
sg62
g4047
sg55
(lp4054
g48
(g49
g50
NtRp4055
(dp4056
g53
(dp4057
g61
I1
ssg62
g4051
sg55
(lp4058
g3540
(S's\x06\x00\x00\x00Errors'
tRp4059
asbasbasbag48
(g64
g50
NtRp4060
(dp4061
g53
(dp4062
sg62
g4043
sg55
(lp4063
g48
(g69
g50
NtRp4064
(dp4065
g53
(dp4066
sg62
g4060
sg55
(lp4067
g48
(g49
g50
NtRp4068
(dp4069
g53
(dp4070
g61
I1
ssg62
g4064
sg55
(lp4071
I00
asbasbasbag48
(g64
g50
NtRp4072
(dp4073
g53
(dp4074
sg62
g4043
sg55
(lp4075
g48
(g69
g50
NtRp4076
(dp4077
g53
(dp4078
sg62
g4072
sg55
(lp4079
g48
(g49
g50
NtRp4080
(dp4081
g53
(dp4082
g61
I1
ssg62
g4076
sg55
(lp4083
S'/admin/default/errors/Gabb1.txt'
p4084
asbasbasbasbasbasbasbag48
(g64
g50
NtRp4085
(dp4086
g53
(dp4087
sg62
g3649
sg55
(lp4088
g48
(g69
g50
NtRp4089
(dp4090
g53
(dp4091
sg62
g4085
sg55
(lp4092
g48
(g49
g50
NtRp4093
(dp4094
g53
(dp4095
g61
I2
ssg62
g4089
sg55
(lp4096
g48
(g57
g50
NtRp4097
(dp4098
g53
(dp4099
g61
I1
ssg62
Nsg55
(lp4100
g48
(g64
g50
NtRp4101
(dp4102
g53
(dp4103
sg62
g4097
sg55
(lp4104
g48
(g69
g50
NtRp4105
(dp4106
g53
(dp4107
sg62
g4101
sg55
(lp4108
g48
(g49
g50
NtRp4109
(dp4110
g53
(dp4111
g61
I1
ssg62
g4105
sg55
(lp4112
g3540
(S's\x05\x00\x00\x00About'
tRp4113
asbasbasbag48
(g64
g50
NtRp4114
(dp4115
g53
(dp4116
sg62
g4097
sg55
(lp4117
g48
(g69
g50
NtRp4118
(dp4119
g53
(dp4120
sg62
g4114
sg55
(lp4121
g48
(g49
g50
NtRp4122
(dp4123
g53
(dp4124
g61
I1
ssg62
g4118
sg55
(lp4125
I00
asbasbasbag48
(g64
g50
NtRp4126
(dp4127
g53
(dp4128
sg62
g4097
sg55
(lp4129
g48
(g69
g50
NtRp4130
(dp4131
g53
(dp4132
sg62
g4126
sg55
(lp4133
g48
(g49
g50
NtRp4134
(dp4135
g53
(dp4136
g61
I1
ssg62
g4130
sg55
(lp4137
S'/admin/default/about/Gabb1.txt'
p4138
asbasbasbasbasbasbasbasbasbasbasbasbasbasbasbag48
(g64
g50
NtRp4139
(dp4140
g53
(dp4141
sg62
g3508
sg55
(lp4142
g48
(g69
g50
NtRp4143
(dp4144
g53
(dp4145
sg62
g4139
sg55
(lp4146
g48
(g49
g50
NtRp4147
(dp4148
g53
(dp4149
g61
I4
ssg62
g4143
sg55
(lp4150
g48
(g57
g50
NtRp4151
(dp4152
g53
(dp4153
g61
I3
ssg62
Nsg55
(lp4154
g48
(g64
g50
NtRp4155
(dp4156
g53
(dp4157
sg62
g4151
sg55
(lp4158
g48
(g69
g50
NtRp4159
(dp4160
g53
(dp4161
sg62
g4155
sg55
(lp4162
g48
(g49
g50
NtRp4163
(dp4164
g53
(dp4165
g61
I3
ssg62
g4159
sg55
(lp4166
g3540
(S's\t\x00\x00\x00Resources'
tRp4167
asbasbasbag48
(g64
g50
NtRp4168
(dp4169
g53
(dp4170
sg62
g4151
sg55
(lp4171
g48
(g69
g50
NtRp4172
(dp4173
g53
(dp4174
sg62
g4168
sg55
(lp4175
g48
(g49
g50
NtRp4176
(dp4177
g53
(dp4178
g61
I3
ssg62
g4172
sg55
(lp4179
g91
asbasbasbag48
(g64
g50
NtRp4180
(dp4181
g53
(dp4182
sg62
g4151
sg55
(lp4183
g48
(g69
g50
NtRp4184
(dp4185
g53
(dp4186
sg62
g4180
sg55
(lp4187
g48
(g49
g50
NtRp4188
(dp4189
g53
(dp4190
g61
I3
ssg62
g4184
sg55
(lp4191
S'None'
p4192
asbasbasbag48
(g64
g50
NtRp4193
(dp4194
g53
(dp4195
sg62
g4151
sg55
(lp4196
g48
(g69
g50
NtRp4197
(dp4198
g53
(dp4199
sg62
g4193
sg55
(lp4200
g48
(g49
g50
NtRp4201
(dp4202
g53
(dp4203
g61
I3
ssg62
g4197
sg55
(lp4204
g48
(g57
g50
NtRp4205
(dp4206
g53
(dp4207
g61
I2
ssg62
Nsg55
(lp4208
g48
(g64
g50
NtRp4209
(dp4210
g53
(dp4211
sg62
g4205
sg55
(lp4212
g48
(g69
g50
NtRp4213
(dp4214
g53
(dp4215
sg62
g4209
sg55
(lp4216
g48
(g49
g50
NtRp4217
(dp4218
g53
(dp4219
g61
I2
ssg62
g4213
sg55
(lp4220
g48
(g57
g50
NtRp4221
(dp4222
g53
(dp4223
g61
I1
ssg62
Nsg55
(lp4224
g48
(g64
g50
NtRp4225
(dp4226
g53
(dp4227
sg62
g4221
sg55
(lp4228
g48
(g69
g50
NtRp4229
(dp4230
g53
(dp4231
sg62
g4225
sg55
(lp4232
g48
(g49
g50
NtRp4233
(dp4234
g53
(dp4235
g61
I1
ssg62
g4229
sg55
(lp4236
g3540
(S's\r\x00\x00\x00Documentation'
tRp4237
asbasbasbag48
(g64
g50
NtRp4238
(dp4239
g53
(dp4240
sg62
g4221
sg55
(lp4241
g48
(g69
g50
NtRp4242
(dp4243
g53
(dp4244
sg62
g4238
sg55
(lp4245
g48
(g49
g50
NtRp4246
(dp4247
g53
(dp4248
g61
I1
ssg62
g4242
sg55
(lp4249
I00
asbasbasbag48
(g64
g50
NtRp4250
(dp4251
g53
(dp4252
sg62
g4221
sg55
(lp4253
g48
(g69
g50
NtRp4254
(dp4255
g53
(dp4256
sg62
g4250
sg55
(lp4257
g48
(g49
g50
NtRp4258
(dp4259
g53
(dp4260
g61
I1
ssg62
g4254
sg55
(lp4261
S'http://www.web2py.com/book'
p4262
asbasbasbag48
(g64
g50
NtRp4263
(dp4264
g53
(dp4265
sg62
g4221
sg55
(lp4266
g48
(g69
g50
NtRp4267
(dp4268
g53
(dp4269
sg62
g4263
sg55
(lp4270
g48
(g49
g50
NtRp4271
(dp4272
g53
(dp4273
g61
I1
ssg62
g4267
sg55
(lp4274
(lp4275
(g3540
(S's\x07\x00\x00\x00Preface'
tRp4276
I00
S'http://www.web2py.com/book/default/chapter/00'
p4277
tp4278
a(g3540
(S's\x0c\x00\x00\x00Introduction'
tRp4279
I00
S'http://www.web2py.com/book/default/chapter/01'
p4280
tp4281
a(g3540
(S's\x06\x00\x00\x00Python'
tRp4282
I00
S'http://www.web2py.com/book/default/chapter/02'
p4283
tp4284
a(g3540
(S's\x08\x00\x00\x00Overview'
tRp4285
I00
S'http://www.web2py.com/book/default/chapter/03'
p4286
tp4287
a(g3540
(S's\x08\x00\x00\x00The Core'
tRp4288
I00
S'http://www.web2py.com/book/default/chapter/04'
p4289
tp4290
a(g3540
(S's\t\x00\x00\x00The Views'
tRp4291
I00
S'http://www.web2py.com/book/default/chapter/05'
p4292
tp4293
a(g3540
(S's\x08\x00\x00\x00Database'
tRp4294
I00
S'http://www.web2py.com/book/default/chapter/06'
p4295
tp4296
a(g3540
(S's\x14\x00\x00\x00Forms and Validators'
tRp4297
I00
S'http://www.web2py.com/book/default/chapter/07'
p4298
tp4299
a(g3540
(S's\x0e\x00\x00\x00Access Control'
tRp4300
I00
S'http://www.web2py.com/book/default/chapter/08'
p4301
tp4302
a(g3540
(S's\x08\x00\x00\x00Services'
tRp4303
I00
S'http://www.web2py.com/book/default/chapter/09'
p4304
tp4305
a(g3540
(S's\x0c\x00\x00\x00Ajax Recipes'
tRp4306
I00
S'http://www.web2py.com/book/default/chapter/10'
p4307
tp4308
a(g3540
(S's\x12\x00\x00\x00Deployment Recipes'
tRp4309
I00
S'http://www.web2py.com/book/default/chapter/11'
p4310
tp4311
a(g3540
(S's\r\x00\x00\x00Other Recipes'
tRp4312
I00
S'http://www.web2py.com/book/default/chapter/12'
p4313
tp4314
a(g3540
(S's\r\x00\x00\x00Buy this book'
tRp4315
I00
S'http://stores.lulu.com/web2py'
p4316
tp4317
aasbasbasbasbasbasbasbag48
(g64
g50
NtRp4318
(dp4319
g53
(dp4320
sg62
g4205
sg55
(lp4321
g48
(g69
g50
NtRp4322
(dp4323
g53
(dp4324
sg62
g4318
sg55
(lp4325
g48
(g49
g50
NtRp4326
(dp4327
g53
(dp4328
g61
I2
ssg62
g4322
sg55
(lp4329
g48
(g57
g50
NtRp4330
(dp4331
g53
(dp4332
g61
I1
ssg62
Nsg55
(lp4333
g48
(g64
g50
NtRp4334
(dp4335
g53
(dp4336
sg62
g4330
sg55
(lp4337
g48
(g69
g50
NtRp4338
(dp4339
g53
(dp4340
sg62
g4334
sg55
(lp4341
g48
(g49
g50
NtRp4342
(dp4343
g53
(dp4344
g61
I1
ssg62
g4338
sg55
(lp4345
g3540
(S's\t\x00\x00\x00Community'
tRp4346
asbasbasbag48
(g64
g50
NtRp4347
(dp4348
g53
(dp4349
sg62
g4330
sg55
(lp4350
g48
(g69
g50
NtRp4351
(dp4352
g53
(dp4353
sg62
g4347
sg55
(lp4354
g48
(g49
g50
NtRp4355
(dp4356
g53
(dp4357
g61
I1
ssg62
g4351
sg55
(lp4358
I00
asbasbasbag48
(g64
g50
NtRp4359
(dp4360
g53
(dp4361
sg62
g4330
sg55
(lp4362
g48
(g69
g50
NtRp4363
(dp4364
g53
(dp4365
sg62
g4359
sg55
(lp4366
g48
(g49
g50
NtRp4367
(dp4368
g53
(dp4369
g61
I1
ssg62
g4363
sg55
(lp4370
Nasbasbasbag48
(g64
g50
NtRp4371
(dp4372
g53
(dp4373
sg62
g4330
sg55
(lp4374
g48
(g69
g50
NtRp4375
(dp4376
g53
(dp4377
sg62
g4371
sg55
(lp4378
g48
(g49
g50
NtRp4379
(dp4380
g53
(dp4381
g61
I1
ssg62
g4375
sg55
(lp4382
(lp4383
(g3540
(S's\x06\x00\x00\x00Groups'
tRp4384
I00
S'http://www.web2py.com/examples/default/usergroups'
p4385
tp4386
a(g3540
(S's\x07\x00\x00\x00Twitter'
tRp4387
I00
S'http://twitter.com/web2py'
p4388
tp4389
a(g3540
(S's\t\x00\x00\x00Live chat'
tRp4390
I00
S'http://mibbit.com/?channel=%23web2py&server=irc.mibbit.net'
p4391
tp4392
a(g3540
(S's\n\x00\x00\x00User Voice'
tRp4393
I00
S'http://web2py.uservoice.com/'
p4394
tp4395
aasbasbasbasbasbasbasbag48
(g64
g50
NtRp4396
(dp4397
g53
(dp4398
sg62
g4205
sg55
(lp4399
g48
(g69
g50
NtRp4400
(dp4401
g53
(dp4402
sg62
g4396
sg55
(lp4403
g48
(g49
g50
NtRp4404
(dp4405
g53
(dp4406
g61
I2
ssg62
g4400
sg55
(lp4407
g48
(g57
g50
NtRp4408
(dp4409
g53
(dp4410
g61
I1
ssg62
Nsg55
(lp4411
g48
(g64
g50
NtRp4412
(dp4413
g53
(dp4414
sg62
g4408
sg55
(lp4415
g48
(g69
g50
NtRp4416
(dp4417
g53
(dp4418
sg62
g4412
sg55
(lp4419
g48
(g49
g50
NtRp4420
(dp4421
g53
(dp4422
g61
I1
ssg62
g4416
sg55
(lp4423
g3540
(S's\x06\x00\x00\x00Web2py'
tRp4424
asbasbasbag48
(g64
g50
NtRp4425
(dp4426
g53
(dp4427
sg62
g4408
sg55
(lp4428
g48
(g69
g50
NtRp4429
(dp4430
g53
(dp4431
sg62
g4425
sg55
(lp4432
g48
(g49
g50
NtRp4433
(dp4434
g53
(dp4435
g61
I1
ssg62
g4429
sg55
(lp4436
I00
asbasbasbag48
(g64
g50
NtRp4437
(dp4438
g53
(dp4439
sg62
g4408
sg55
(lp4440
g48
(g69
g50
NtRp4441
(dp4442
g53
(dp4443
sg62
g4437
sg55
(lp4444
g48
(g49
g50
NtRp4445
(dp4446
g53
(dp4447
g61
I1
ssg62
g4441
sg55
(lp4448
S'http://www.web2py.com'
p4449
asbasbasbag48
(g64
g50
NtRp4450
(dp4451
g53
(dp4452
sg62
g4408
sg55
(lp4453
g48
(g69
g50
NtRp4454
(dp4455
g53
(dp4456
sg62
g4450
sg55
(lp4457
g48
(g49
g50
NtRp4458
(dp4459
g53
(dp4460
g61
I1
ssg62
g4454
sg55
(lp4461
(lp4462
(g3540
(S's\x08\x00\x00\x00Download'
tRp4463
I00
S'http://www.web2py.com/examples/default/download'
p4464
tp4465
a(g3540
(S's\x07\x00\x00\x00Support'
tRp4466
I00
S'http://www.web2py.com/examples/default/support'
p4467
tp4468
a(g3540
(S's\x0e\x00\x00\x00Quick Examples'
tRp4469
I00
S'http://web2py.com/examples/default/examples'
p4470
tp4471
a(g3540
(S's\x03\x00\x00\x00FAQ'
tRp4472
I00
S'http://web2py.com/AlterEgo'
p4473
tp4474
a(g3540
(S's\x11\x00\x00\x00Free Applications'
tRp4475
I00
S'http://web2py.com/appliances'
p4476
tp4477
a(g3540
(S's\x07\x00\x00\x00Plugins'
tRp4478
I00
S'http://web2py.com/plugins'
p4479
tp4480
a(g3540
(S's\x07\x00\x00\x00Recipes'
tRp4481
I00
S'http://web2pyslices.com/'
p4482
tp4483
a(g3540
(S's\x04\x00\x00\x00Demo'
tRp4484
I00
S'http://web2py.com/demo_admin'
p4485
tp4486
a(g3540
(S's\x08\x00\x00\x00Semantic'
tRp4487
I00
S'http://web2py.com/semantic'
p4488
tp4489
a(g3540
(S's\x07\x00\x00\x00Layouts'
tRp4490
I00
S'http://web2py.com/layouts'
p4491
tp4492
a(g3540
(S's\x06\x00\x00\x00Videos'
tRp4493
I00
S'http://www.web2py.com/examples/default/videos/'
p4494
tp4495
aasbasbasbasbasbasbasbasbasbasbasbasbasbasbasbasbasbasbasbag48
(g64
g50
NtRp4496
(dp4497
g53
(dp4498
sg62
g3055
sg55
(lp4499
g48
(g69
g50
NtRp4500
(dp4501
g53
(dp4502
g73
g74
ssg62
g4496
sg55
(lp4503
S'meta'
p4504
asbag48
(g69
g50
NtRp4505
(dp4506
g53
(dp4507
g80
g81
ssg62
g4496
sg55
(lp4508
S':'
asbag48
(g69
g50
NtRp4509
(dp4510
g53
(dp4511
sg62
g4496
sg55
(lp4512
g48
(g49
g50
NtRp4513
(dp4514
g53
(dp4515
g61
I5
ssg62
g4509
sg55
(lp4516
g48
(g57
g50
NtRp4517
(dp4518
g53
(dp4519
g61
I4
ssg62
Nsg55
(lp4520
g48
(g64
g50
NtRp4521
(dp4522
g53
(dp4523
sg62
g4517
sg55
(lp4524
g48
(g69
g50
NtRp4525
(dp4526
g53
(dp4527
g73
g74
ssg62
g4521
sg55
(lp4528
S'author'
p4529
asbag48
(g69
g50
NtRp4530
(dp4531
g53
(dp4532
g80
g81
ssg62
g4521
sg55
(lp4533
S':'
asbag48
(g69
g50
NtRp4534
(dp4535
g53
(dp4536
sg62
g4521
sg55
(lp4537
g48
(g49
g50
NtRp4538
(dp4539
g53
(dp4540
g61
I4
ssg62
g4534
sg55
(lp4541
S'Your Name <you@example.com>'
p4542
asbasbasbag48
(g64
g50
NtRp4543
(dp4544
g53
(dp4545
sg62
g4517
sg55
(lp4546
g48
(g69
g50
NtRp4547
(dp4548
g53
(dp4549
g73
g74
ssg62
g4543
sg55
(lp4550
S'copyright'
p4551
asbag48
(g69
g50
NtRp4552
(dp4553
g53
(dp4554
g80
g81
ssg62
g4543
sg55
(lp4555
S':'
asbag48
(g69
g50
NtRp4556
(dp4557
g53
(dp4558
sg62
g4543
sg55
(lp4559
g48
(g49
g50
NtRp4560
(dp4561
g53
(dp4562
g61
I4
ssg62
g4556
sg55
(lp4563
S'Copyright 2011'
p4564
asbasbasbag48
(g64
g50
NtRp4565
(dp4566
g53
(dp4567
sg62
g4517
sg55
(lp4568
g48
(g69
g50
NtRp4569
(dp4570
g53
(dp4571
g73
g74
ssg62
g4565
sg55
(lp4572
S'description'
p4573
asbag48
(g69
g50
NtRp4574
(dp4575
g53
(dp4576
g80
g81
ssg62
g4565
sg55
(lp4577
S':'
asbag48
(g69
g50
NtRp4578
(dp4579
g53
(dp4580
sg62
g4565
sg55
(lp4581
g48
(g49
g50
NtRp4582
(dp4583
g53
(dp4584
g61
I4
ssg62
g4578
sg55
(lp4585
S'a cool new app'
p4586
asbasbasbag48
(g64
g50
NtRp4587
(dp4588
g53
(dp4589
sg62
g4517
sg55
(lp4590
g48
(g69
g50
NtRp4591
(dp4592
g53
(dp4593
g73
g74
ssg62
g4587
sg55
(lp4594
S'generator'
p4595
asbag48
(g69
g50
NtRp4596
(dp4597
g53
(dp4598
g80
g81
ssg62
g4587
sg55
(lp4599
S':'
asbag48
(g69
g50
NtRp4600
(dp4601
g53
(dp4602
sg62
g4587
sg55
(lp4603
g48
(g49
g50
NtRp4604
(dp4605
g53
(dp4606
g61
I4
ssg62
g4600
sg55
(lp4607
S'Web2py Web Framework'
p4608
asbasbasbag48
(g64
g50
NtRp4609
(dp4610
g53
(dp4611
sg62
g4517
sg55
(lp4612
g48
(g69
g50
NtRp4613
(dp4614
g53
(dp4615
g73
g74
ssg62
g4609
sg55
(lp4616
S'keywords'
p4617
asbag48
(g69
g50
NtRp4618
(dp4619
g53
(dp4620
g80
g81
ssg62
g4609
sg55
(lp4621
S':'
asbag48
(g69
g50
NtRp4622
(dp4623
g53
(dp4624
sg62
g4609
sg55
(lp4625
g48
(g49
g50
NtRp4626
(dp4627
g53
(dp4628
g61
I4
ssg62
g4622
sg55
(lp4629
S'web2py, python, framework'
p4630
asbasbasbasbasbasbasbag48
(g64
g50
NtRp4631
(dp4632
g53
(dp4633
sg62
g3055
sg55
(lp4634
g48
(g69
g50
NtRp4635
(dp4636
g53
(dp4637
g73
g74
ssg62
g4631
sg55
(lp4638
S'postprocessing'
p4639
asbag48
(g69
g50
NtRp4640
(dp4641
g53
(dp4642
g80
g81
ssg62
g4631
sg55
(lp4643
S':'
asbag48
(g69
g50
NtRp4644
(dp4645
g53
(dp4646
sg62
g4631
sg55
(lp4647
g48
(g49
g50
NtRp4648
(dp4649
g53
(dp4650
g61
I5
ssg62
g4644
sg55
(lp4651
g48
(g57
g50
NtRp4652
(dp4653
g53
(dp4654
g61
I4
ssg62
Nsg55
(lp4655
sbasbasbasbag48
(g64
g50
NtRp4656
(dp4657
g53
(dp4658
sg62
g3055
sg55
(lp4659
g48
(g69
g50
NtRp4660
(dp4661
g53
(dp4662
g73
g74
ssg62
g4656
sg55
(lp4663
S'session_filename'
p4664
asbag48
(g69
g50
NtRp4665
(dp4666
g53
(dp4667
g80
g81
ssg62
g4656
sg55
(lp4668
S':'
asbag48
(g69
g50
NtRp4669
(dp4670
g53
(dp4671
sg62
g4656
sg55
(lp4672
g48
(g49
g50
NtRp4673
(dp4674
g53
(dp4675
g61
I5
ssg62
g4669
sg55
(lp4676
S'D:\\git_projs\\Gabblista\\web2py\\web2py\\applications\\Gabb1\\sessions\\127.0.0.1-c576292e-6f7f-4b02-aefc-97989b7e0e7d'
p4677
asbasbasbag48
(g64
g50
NtRp4678
(dp4679
g53
(dp4680
sg62
g3055
sg55
(lp4681
g48
(g69
g50
NtRp4682
(dp4683
g53
(dp4684
g73
g74
ssg62
g4678
sg55
(lp4685
S'session_id'
p4686
asbag48
(g69
g50
NtRp4687
(dp4688
g53
(dp4689
g80
g81
ssg62
g4678
sg55
(lp4690
S':'
asbag48
(g69
g50
NtRp4691
(dp4692
g53
(dp4693
sg62
g4678
sg55
(lp4694
g48
(g49
g50
NtRp4695
(dp4696
g53
(dp4697
g61
I5
ssg62
g4691
sg55
(lp4698
S'127.0.0.1-c576292e-6f7f-4b02-aefc-97989b7e0e7d'
p4699
asbasbasbag48
(g64
g50
NtRp4700
(dp4701
g53
(dp4702
sg62
g3055
sg55
(lp4703
g48
(g69
g50
NtRp4704
(dp4705
g53
(dp4706
g73
g74
ssg62
g4700
sg55
(lp4707
S'session_id_name'
p4708
asbag48
(g69
g50
NtRp4709
(dp4710
g53
(dp4711
g80
g81
ssg62
g4700
sg55
(lp4712
S':'
asbag48
(g69
g50
NtRp4713
(dp4714
g53
(dp4715
sg62
g4700
sg55
(lp4716
g48
(g49
g50
NtRp4717
(dp4718
g53
(dp4719
g61
I5
ssg62
g4713
sg55
(lp4720
g3112
asbasbasbag48
(g64
g50
NtRp4721
(dp4722
g53
(dp4723
sg62
g3055
sg55
(lp4724
g48
(g69
g50
NtRp4725
(dp4726
g53
(dp4727
g73
g74
ssg62
g4721
sg55
(lp4728
S'session_new'
p4729
asbag48
(g69
g50
NtRp4730
(dp4731
g53
(dp4732
g80
g81
ssg62
g4721
sg55
(lp4733
S':'
asbag48
(g69
g50
NtRp4734
(dp4735
g53
(dp4736
sg62
g4721
sg55
(lp4737
g48
(g49
g50
NtRp4738
(dp4739
g53
(dp4740
g61
I5
ssg62
g4734
sg55
(lp4741
g1610
asbasbasbag48
(g64
g50
NtRp4742
(dp4743
g53
(dp4744
sg62
g3055
sg55
(lp4745
g48
(g69
g50
NtRp4746
(dp4747
g53
(dp4748
g73
g74
ssg62
g4742
sg55
(lp4749
S'status'
p4750
asbag48
(g69
g50
NtRp4751
(dp4752
g53
(dp4753
g80
g81
ssg62
g4742
sg55
(lp4754
S':'
asbag48
(g69
g50
NtRp4755
(dp4756
g53
(dp4757
sg62
g4742
sg55
(lp4758
g48
(g49
g50
NtRp4759
(dp4760
g53
(dp4761
g61
I5
ssg62
g4755
sg55
(lp4762
S'200'
p4763
asbasbasbag48
(g64
g50
NtRp4764
(dp4765
g53
(dp4766
sg62
g3055
sg55
(lp4767
g48
(g69
g50
NtRp4768
(dp4769
g53
(dp4770
g73
g74
ssg62
g4764
sg55
(lp4771
S'subtitle'
p4772
asbag48
(g69
g50
NtRp4773
(dp4774
g53
(dp4775
g80
g81
ssg62
g4764
sg55
(lp4776
S':'
asbag48
(g69
g50
NtRp4777
(dp4778
g53
(dp4779
sg62
g4764
sg55
(lp4780
g48
(g49
g50
NtRp4781
(dp4782
g53
(dp4783
g61
I5
ssg62
g4777
sg55
(lp4784
g3540
(S's\r\x00\x00\x00customize me!'
tRp4785
asbasbasbag48
(g64
g50
NtRp4786
(dp4787
g53
(dp4788
sg62
g3055
sg55
(lp4789
g48
(g69
g50
NtRp4790
(dp4791
g53
(dp4792
g73
g74
ssg62
g4786
sg55
(lp4793
S'title'
p4794
asbag48
(g69
g50
NtRp4795
(dp4796
g53
(dp4797
g80
g81
ssg62
g4786
sg55
(lp4798
S':'
asbag48
(g69
g50
NtRp4799
(dp4800
g53
(dp4801
sg62
g4786
sg55
(lp4802
g48
(g49
g50
NtRp4803
(dp4804
g53
(dp4805
g61
I5
ssg62
g4799
sg55
(lp4806
g113
asbasbasbag48
(g64
g50
NtRp4807
(dp4808
g53
(dp4809
sg62
g3055
sg55
(lp4810
g48
(g69
g50
NtRp4811
(dp4812
g53
(dp4813
g73
g74
ssg62
g4807
sg55
(lp4814
g2297
asbag48
(g69
g50
NtRp4815
(dp4816
g53
(dp4817
g80
g81
ssg62
g4807
sg55
(lp4818
S':'
asbag48
(g69
g50
NtRp4819
(dp4820
g53
(dp4821
sg62
g4807
sg55
(lp4822
g48
(g49
g50
NtRp4823
(dp4824
g53
(dp4825
g61
I5
ssg62
g4819
sg55
(lp4826
g2310
asbasbasbag48
(g64
g50
NtRp4827
(dp4828
g53
(dp4829
sg62
g3055
sg55
(lp4830
g48
(g69
g50
NtRp4831
(dp4832
g53
(dp4833
g73
g74
ssg62
g4827
sg55
(lp4834
S'view'
p4835
asbag48
(g69
g50
NtRp4836
(dp4837
g53
(dp4838
g80
g81
ssg62
g4827
sg55
(lp4839
S':'
asbag48
(g69
g50
NtRp4840
(dp4841
g53
(dp4842
sg62
g4827
sg55
(lp4843
g48
(g49
g50
NtRp4844
(dp4845
g53
(dp4846
g61
I5
ssg62
g4840
sg55
(lp4847
S'fb_serv/serve_player_data.txt'
p4848
asbasbasbasbasbsS'locals'
p4849
(dp4850
S'Service'
p4851
S"<class 'gluon.tools.Service'>"
p4852
sS'OBJECT'
p4853
S"<class 'gluon.html.OBJECT'>"
p4854
sS'SQLDB'
p4855
S"<class 'gluon.dal.DAL'>"
p4856
sg3037
S"<Storage {'_Session__hash': '\\xc8[\\xd5\\xc1#\\xd8e\\x10\\xe3\\x06\\x0ba\\xddT\\x92m'}>"
p4857
sS'LINK'
p4858
S"<class 'gluon.html.LINK'>"
p4859
sS'BR'
p4860
S"<class 'gluon.html.BR'>"
p4861
sS'local_import'
p4862
S'<function <lambda> at 0x0337EC70>'
p4863
sS'OPTGROUP'
p4864
S"<class 'gluon.html.OPTGROUP'>"
p4865
sS'PRE'
p4866
S"<class 'gluon.html.PRE'>"
p4867
sS'IS_INT_IN_RANGE'
p4868
S"<class 'gluon.validators.IS_INT_IN_RANGE'>"
p4869
sS'IS_LOWER'
p4870
S"<class 'gluon.validators.IS_LOWER'>"
p4871
sS'IS_STRONG'
p4872
S"<class 'gluon.validators.IS_STRONG'>"
p4873
sS'cache'
p4874
S'<gluon.cache.Cache object at 0x03B899D0>'
p4875
sS'IS_IN_DB'
p4876
S"<class 'gluon.validators.IS_IN_DB'>"
p4877
sS'TAG'
p4878
S'<gluon.html.__TAG__ object at 0x02F27610>'
p4879
sS'SQLField'
p4880
S"<class 'gluon.dal.Field'>"
p4881
sS'mail'
p4882
S'<gluon.tools.Mail object at 0x03B890B0>'
p4883
sS'BODY'
p4884
S"<class 'gluon.html.BODY'>"
p4885
sS'IS_DATE_IN_RANGE'
p4886
S"<class 'gluon.validators.IS_DATE_IN_RANGE'>"
p4887
sS'TH'
p4888
S"<class 'gluon.html.TH'>"
p4889
sS'URL'
p4890
S'<function URL at 0x02F056B0>'
p4891
sS'__file__'
p4892
S"r'D:\\git_projs\\Gabblista\\web2py\\web2py\\applications\\Gabb1\\views\\fb_serv/serve_player_data.txt'"
p4893
sS'db'
p4894
S"<DAL {'auth_event': <Table {'origin': <gluon.dal...'_id': <gluon.dal.Field object at 0x03B89A90>}>}>"
p4895
sS'auth'
p4896
S'<gluon.tools.Auth object at 0x03B89E90>'
p4897
sS'P'
S"<class 'gluon.html.P'>"
p4898
sS'TFOOT'
p4899
S"<class 'gluon.html.TFOOT'>"
p4900
sS'XHTML'
p4901
S"<class 'gluon.html.XHTML'>"
p4902
sS'ON'
p4903
g1610
sS'OL'
p4904
S"<class 'gluon.html.OL'>"
p4905
sS'TEXTAREA'
p4906
S"<class 'gluon.html.TEXTAREA'>"
p4907
sS'settings'
p4908
S"<Storage {'layout_theme': 'Default', 'subtitle':...l_server': 'localhost', 'login_method': 'local'}>"
p4909
sS'MENU'
p4910
S"<class 'gluon.html.MENU'>"
p4911
sS'LOAD'
p4912
S'<gluon.compileapp.LoadFactory object at 0x03B89950>'
p4913
sS'CODE'
p4914
S"<class 'gluon.html.CODE'>"
p4915
sS'HTTP'
p4916
S"<class 'gluon.http.HTTP'>"
p4917
sS'HR'
p4918
S"<class 'gluon.html.HR'>"
p4919
sS'IS_DATETIME'
p4920
S"<class 'gluon.validators.IS_DATETIME'>"
p4921
sS'Storage'
p4922
S"<class 'gluon.storage.Storage'>"
p4923
sS'HEAD'
p4924
S"<class 'gluon.html.HEAD'>"
p4925
sS'LABEL'
p4926
S"<class 'gluon.html.LABEL'>"
p4927
sS'CLEANUP'
p4928
S"<class 'gluon.validators.CLEANUP'>"
p4929
sS'plugins'
p4930
S'<gluon.tools.PluginManager object at 0x03348FD0>'
p4931
sS'SELECT'
p4932
S"<class 'gluon.html.SELECT'>"
p4933
sS'use_janrain'
p4934
S'<function use_janrain at 0x03A869F0>'
p4935
sS'CENTER'
p4936
S"<class 'gluon.html.CENTER'>"
p4937
sS'prettydate'
p4938
S'<function prettydate at 0x03A862B0>'
p4939
sS'Crud'
p4940
S"<class 'gluon.tools.Crud'>"
p4941
sS'Auth'
p4942
S"<class 'gluon.tools.Auth'>"
p4943
sS'__builtins__'
p4944
S"{'ArithmeticError': <type 'exceptions.ArithmeticError'>, 'AssertionError': <type 'exceptions.AssertionError'>, 'AttributeError': <type 'exceptions.AttributeError'>, 'BaseException': <type 'exceptions.BaseException'>, 'DeprecationWarning': <type 'exceptions.DeprecationWarning'>, 'EOFError': <type 'exceptions.EOFError'>, 'Ellipsis': Ellipsis, 'EnvironmentError': <type 'exceptions.EnvironmentError'>, 'Exception': <type 'exceptions.Exception'>, 'False': False, ...}"
p4945
sS'HTML'
p4946
S"<class 'gluon.html.HTML'>"
p4947
sS'SQLFORM'
p4948
S"<class 'gluon.sqlhtml.SQLFORM'>"
p4949
sS'EM'
p4950
S"<class 'gluon.html.EM'>"
p4951
sS'redirect'
p4952
S'<function redirect at 0x026A4BF0>'
p4953
sS'FIELDSET'
p4954
S"<class 'gluon.html.FIELDSET'>"
p4955
sS'IS_EQUAL_TO'
p4956
S"<class 'gluon.validators.IS_EQUAL_TO'>"
p4957
sS'embed64'
p4958
S'<function embed64 at 0x02F161B0>'
p4959
sS'IS_LIST_OF'
p4960
S"<class 'gluon.validators.IS_LIST_OF'>"
p4961
sS'INPUT'
p4962
S"<class 'gluon.html.INPUT'>"
p4963
sS'EMBED'
p4964
S"<class 'gluon.html.EMBED'>"
p4965
sS'_'
S'<function _ at 0x0337EEB0>'
p4966
sS'FORM'
p4967
S"<class 'gluon.html.FORM'>"
p4968
sS'H2'
p4969
S"<class 'gluon.html.H2'>"
p4970
sS'H3'
p4971
S"<class 'gluon.html.H3'>"
p4972
sS'BUTTON'
p4973
S"<class 'gluon.html.BUTTON'>"
p4974
sS'H1'
p4975
S"<class 'gluon.html.H1'>"
p4976
sS'H6'
p4977
S"<class 'gluon.html.H6'>"
p4978
sS'H4'
p4979
S"<class 'gluon.html.H4'>"
p4980
sS'H5'
p4981
S"<class 'gluon.html.H5'>"
p4982
sS'UL'
p4983
S"<class 'gluon.html.UL'>"
p4984
sS'IS_UPPER'
p4985
S"<class 'gluon.validators.IS_UPPER'>"
p4986
sS'xmlescape'
p4987
S'<function xmlescape at 0x02F05630>'
p4988
sS'IS_TIME'
p4989
S"<class 'gluon.validators.IS_TIME'>"
p4990
sS'OPTION'
p4991
S"<class 'gluon.html.OPTION'>"
p4992
sS'TITLE'
p4993
S"<class 'gluon.html.TITLE'>"
p4994
sS'CRYPT'
p4995
S"<class 'gluon.validators.CRYPT'>"
p4996
sS'IS_EMPTY_OR'
p4997
S"<class 'gluon.validators.IS_EMPTY_OR'>"
p4998
sS'MARKMIN'
p4999
S"<class 'gluon.html.MARKMIN'>"
p5000
sS'message'
p5001
S"'Test'"
p5002
sS'COL'
p5003
S"<class 'gluon.html.COL'>"
p5004
sS'service'
p5005
S'<gluon.tools.Service object at 0x03B89BF0>'
p5006
sS'SCRIPT'
p5007
S"<class 'gluon.html.SCRIPT'>"
p5008
sS'TABLE'
p5009
S"<class 'gluon.html.TABLE'>"
p5010
sS'IS_IPV4'
p5011
S"<class 'gluon.validators.IS_IPV4'>"
p5012
sS'IS_LENGTH'
p5013
S"<class 'gluon.validators.IS_LENGTH'>"
p5014
sS'XML'
p5015
S"<class 'gluon.html.XML'>"
p5016
sS'B'
S"<class 'gluon.html.B'>"
p5017
sS'IMG'
p5018
S"<class 'gluon.html.IMG'>"
p5019
sS'SQLTABLE'
p5020
S"<class 'gluon.sqlhtml.SQLTABLE'>"
p5021
sS'IS_MATCH'
p5022
S"<class 'gluon.validators.IS_MATCH'>"
p5023
sS'IS_ALPHANUMERIC'
p5024
S"<class 'gluon.validators.IS_ALPHANUMERIC'>"
p5025
sS'SPAN'
p5026
S"<class 'gluon.html.SPAN'>"
p5027
sS'IS_SLUG'
p5028
S"<class 'gluon.validators.IS_SLUG'>"
p5029
sS'BEAUTIFY'
p5030
S"<class 'gluon.html.BEAUTIFY'>"
p5031
sS'META'
p5032
S"<class 'gluon.html.META'>"
p5033
sS'IS_DATE'
p5034
S"<class 'gluon.validators.IS_DATE'>"
p5035
sS'IS_EMAIL'
p5036
S"<class 'gluon.validators.IS_EMAIL'>"
p5037
sS'IS_NOT_EMPTY'
p5038
S"<class 'gluon.validators.IS_NOT_EMPTY'>"
p5039
sS'IS_FLOAT_IN_RANGE'
p5040
S"<class 'gluon.validators.IS_FLOAT_IN_RANGE'>"
p5041
sS'TBODY'
p5042
S"<class 'gluon.html.TBODY'>"
p5043
sS'CAT'
p5044
S"<class 'gluon.html.CAT'>"
p5045
sS'Field'
p5046
S"<class 'gluon.dal.Field'>"
p5047
sS'DIV'
p5048
S"<class 'gluon.html.DIV'>"
p5049
sS'LEGEND'
p5050
S"<class 'gluon.html.LEGEND'>"
p5051
sS'COLGROUP'
p5052
S"<class 'gluon.html.COLGROUP'>"
p5053
sS'DAL'
p5054
S"<class 'gluon.dal.DAL'>"
p5055
sS'TT'
p5056
S"<class 'gluon.html.TT'>"
p5057
sS'TR'
p5058
S"<class 'gluon.html.TR'>"
p5059
sS'LI'
p5060
S"<class 'gluon.html.LI'>"
p5061
sS'IFRAME'
p5062
S"<class 'gluon.html.IFRAME'>"
p5063
sS'TD'
p5064
S"<class 'gluon.html.TD'>"
p5065
sS'PluginManager'
p5066
S"<class 'gluon.tools.PluginManager'>"
p5067
sS'IS_URL'
p5068
S"<class 'gluon.validators.IS_URL'>"
p5069
sS'A'
S"<class 'gluon.html.A'>"
p5070
sS'STYLE'
p5071
S"<class 'gluon.html.STYLE'>"
p5072
sS'IS_DATETIME_IN_RANGE'
p5073
S"<class 'gluon.validators.IS_DATETIME_IN_RANGE'>"
p5074
sS'IS_IMAGE'
p5075
S"<class 'gluon.validators.IS_IMAGE'>"
p5076
sS'I'
S"<class 'gluon.html.I'>"
p5077
sS'crud'
p5078
S'<gluon.tools.Crud object at 0x03B89530>'
p5079
sS'IS_NOT_IN_DB'
p5080
S"<class 'gluon.validators.IS_NOT_IN_DB'>"
p5081
sg3050
S"<Storage {'status': 200, 'body': <cStringIO.Stri...s': [], 'view': 'fb_serv/serve_player_data.txt'}>"
p5082
sS'THEAD'
p5083
S"<class 'gluon.html.THEAD'>"
p5084
sS'IS_NULL_OR'
p5085
S"<class 'gluon.validators.IS_EMPTY_OR'>"
p5086
sg47
S"<Storage {'body': <cStringIO.StringO object at 0...est_var': 'blargh'}>, 'post_vars': <Storage {}>}>"
p5087
sS'IS_EXPR'
p5088
S"<class 'gluon.validators.IS_EXPR'>"
p5089
sS'T'
S'<gluon.languages.translator object at 0x03B32550>'
p5090
sS'IS_IN_SET'
p5091
S"<class 'gluon.validators.IS_IN_SET'>"
p5092
sS'IS_UPLOAD_FILENAME'
p5093
S"<class 'gluon.validators.IS_UPLOAD_FILENAME'>"
p5094
sS'IS_DECIMAL_IN_RANGE'
p5095
S"<class 'gluon.validators.IS_DECIMAL_IN_RANGE'>"
p5096
sssS'traceback'
p5097
S'Traceback (most recent call last):\n  File "D:\\git_projs\\Gabblista\\web2py\\web2py\\gluon\\restricted.py", line 194, in restricted\n    exec ccode in environment\n  File "D:\\git_projs\\Gabblista\\web2py\\web2py\\applications\\Gabb1\\views\\fb_serv/serve_player_data.txt", line 3, in <module>\n    {{=test_var}}\nNameError: name \'test_var\' is not defined\n'
p5098
s.