(dp1
S'output'
p2
S''
sS'layer'
p3
S'D:\\git_projs\\Gabblista\\web2py\\web2py\\applications\\Gabb1\\controllers/fb_serv.py'
p4
sS'code'
p5
S'# -*- coding: utf-8 -*-\nfrom random import Random\n\ndef game():\n    return dict(message="test")\n\ndef serve_dict():\n    # Serves the generic dictionary \n    return dict(message="Jack the dict in here")\n\n# Stored as string, parsed into XML\ndef serve_player_data():\n    \n    player_ID = request.vars.player_ID\n    opponent_ID = request.vars.opponent_ID\n    game_ID = request.vars.game_ID\n    \n    game_data_row = get_player_data(player_ID,opponent_ID,game_ID);\n    return dict(game_data_row=game_data_row)\n\ndef get_player_data(player_ID,opponent_ID,game_ID):\n    \n    # Generate the player data\n    if(int(game_ID)==0):\n        letter_data = generate_new_letter_data()\n        event_data = generate_new_event_data()\n#        db.game_data_table.insert(player_1_ID = int(player_ID),\n#                                  player_2_ID = int(opponent_ID),\n#                                  event_string = str(event_data),\n#                                  letter_string = str(letter_data)\n#                                  )\n        game_data = {}\n        game_data[\'letter_data\'] = letter_data\n        game_data[\'event_data\'] = event_data\n    else:\n        game_row = db(db.game_data_table.id==int(game_ID)).select().first()\n        game_data = str(game_row.game_events_string)\n        \n    return game_data\n\ndef generate_new_letter_data():\n\n    NUM_LETTERS = 12\n    letter_string = get_random_letters(NUM_LETTERS)\n    return letter_string\n\ndef generate_new_event_data():\n    # Go through and generate game data\n    NUM_EVENTS = 24 # 2 MINUTES. 1 EVENT EVERY 5 SECS\n    random_letter_events_string = get_random_letter_events_string(NUM_EVENTS2)\n    random_mult_events_string = get_random_mult_events_string(NUM_EVENTS/2)\n    return random_letter_events_string + random_mult_events_string\n\ndef get_random_letter_events_string(len_req):\n    random_letter_events_string = ""\n    letter_event = "0"\n    num_events = 0\n    \n    while num_events < len_req:\n        random_letter_events += letter_event # Generate a new type\n        random_letter_events += get_random_letters(1) # Generate a new letter\n        random_letter_events += get_random_location() # Generate a new location\n        num_events += 1\n    \n    return random_letter_events_string\n\ndef get_random_mult_events_string(len_req):\n    random_mult_events_string = ""\n    mult_event = "1"\n    num_events = 0\n\n    while num_events < len_req:\n        random_mult_events_string += mult_event # Generate a new type\n        random_mult_events_string += get_new_mult_type() # Generate new mult tpye\n        random_mult_events_string += get_random_location() # Generate a new location\n    \n    return random_mult_events_string\n\n\ndef get_random_letters(len_req):\n    import random\n    # ord - letter to ASCII\n    # chr - ASCII to letter\n    #A - 65\n    # Z- 90\n    \n    A = 65\n    Z = 90\n    rand_letter_string =""\n    while len(rand_letter_string) < len_req:\n        rand_int = random.randint(A,Z)\n        rand_letter_string+= chr(rand_int)\n        \n    return rand_letter_string\n\ndef get_random_location():\n    import random\n    # 0-based 12-tile index\n    # 0 <= X <= 11\n    return str(random.randint(0,11))\n\n\ndef get_new_mult_type():\n    import random\n    # 0 - 2x - 60%\n    # 1 - 3x - 30%\n    # 2 - 4x - 10%\n    rand_int = random.randint(0,10)\n    \n    if rand_int < 6:\n        return "0"\n    elif rand_int <9:\n        return "1"\n    else:\n        return "2"\nresponse._vars=response._caller(serve_player_data)\n'
p6
sS'snapshot'
p7
(dp8
S'exception'
p9
(dp10
S'__hash__'
p11
S"<method-wrapper '__hash__' of exceptions.NameError object at 0x0372B800>"
p12
sS'__setattr__'
p13
S"<method-wrapper '__setattr__' of exceptions.NameError object at 0x0372B800>"
p14
sS'__reduce_ex__'
p15
S'<built-in method __reduce_ex__ of exceptions.NameError object at 0x0372B800>'
p16
sS'__getslice__'
p17
S"<method-wrapper '__getslice__' of exceptions.NameError object at 0x0372B800>"
p18
sS'__getitem__'
p19
S"<method-wrapper '__getitem__' of exceptions.NameError object at 0x0372B800>"
p20
sS'__setstate__'
p21
S'<built-in method __setstate__ of exceptions.NameError object at 0x0372B800>'
p22
sS'__reduce__'
p23
S'<built-in method __reduce__ of exceptions.NameError object at 0x0372B800>'
p24
sS'__str__'
p25
S"<method-wrapper '__str__' of exceptions.NameError object at 0x0372B800>"
p26
sS'args'
p27
S'("global name \'NUM_EVENTS2\' is not defined",)'
p28
sS'__getattribute__'
p29
S"<method-wrapper '__getattribute__' of exceptions.NameError object at 0x0372B800>"
p30
sS'__class__'
p31
S"<type 'exceptions.NameError'>"
p32
sS'__delattr__'
p33
S"<method-wrapper '__delattr__' of exceptions.NameError object at 0x0372B800>"
p34
sS'__repr__'
p35
S"<method-wrapper '__repr__' of exceptions.NameError object at 0x0372B800>"
p36
sS'__dict__'
p37
S'{}'
p38
sS'__doc__'
p39
S"'Name not found globally.'"
p40
sS'__init__'
p41
S"<method-wrapper '__init__' of exceptions.NameError object at 0x0372B800>"
p42
sS'__new__'
p43
S'<built-in method __new__ of type object at 0x1E1CD8D8>'
p44
ssS'evalue'
p45
S"global name 'NUM_EVENTS2' is not defined"
p46
sS'request'
p47
ccopy_reg
_reconstructor
p48
(cgluon.html
BEAUTIFY
p49
c__builtin__
object
p50
NtRp51
(dp52
S'attributes'
p53
(dp54
sS'components'
p55
(lp56
g48
(cgluon.html
TABLE
p57
g50
NtRp58
(dp59
g53
(dp60
S'level'
p61
I5
ssS'parent'
p62
Nsg55
(lp63
g48
(cgluon.html
TR
p64
g50
NtRp65
(dp66
g53
(dp67
sg62
g58
sg55
(lp68
g48
(cgluon.html
TD
p69
g50
NtRp70
(dp71
g53
(dp72
S'_style'
p73
S'font-weight:bold;'
p74
ssg62
g65
sg55
(lp75
S'ajax'
p76
asbag48
(g69
g50
NtRp77
(dp78
g53
(dp79
S'_valign'
p80
S'top'
p81
ssg62
g65
sg55
(lp82
S':'
asbag48
(g69
g50
NtRp83
(dp84
g53
(dp85
sg62
g65
sg55
(lp86
g48
(g49
g50
NtRp87
(dp88
g53
(dp89
g61
I5
ssg62
g83
sg55
(lp90
S'False'
p91
asbasbasbag48
(g64
g50
NtRp92
(dp93
g53
(dp94
sg62
g58
sg55
(lp95
g48
(g69
g50
NtRp96
(dp97
g53
(dp98
g73
g74
ssg62
g92
sg55
(lp99
S'application'
p100
asbag48
(g69
g50
NtRp101
(dp102
g53
(dp103
g80
g81
ssg62
g92
sg55
(lp104
S':'
asbag48
(g69
g50
NtRp105
(dp106
g53
(dp107
sg62
g92
sg55
(lp108
g48
(g49
g50
NtRp109
(dp110
g53
(dp111
g61
I5
ssg62
g105
sg55
(lp112
S'Gabb1'
p113
asbasbasbag48
(g64
g50
NtRp114
(dp115
g53
(dp116
sg62
g58
sg55
(lp117
g48
(g69
g50
NtRp118
(dp119
g53
(dp120
g73
g74
ssg62
g114
sg55
(lp121
g27
asbag48
(g69
g50
NtRp122
(dp123
g53
(dp124
g80
g81
ssg62
g114
sg55
(lp125
S':'
asbag48
(g69
g50
NtRp126
(dp127
g53
(dp128
sg62
g114
sg55
(lp129
g48
(g49
g50
NtRp130
(dp131
g53
(dp132
g61
I5
ssg62
g126
sg55
(lp133
g48
(g57
g50
NtRp134
(dp135
g53
(dp136
g61
I4
ssg62
Nsg55
(lp137
sbasbasbasbag48
(g64
g50
NtRp138
(dp139
g53
(dp140
sg62
g58
sg55
(lp141
g48
(g69
g50
NtRp142
(dp143
g53
(dp144
g73
g74
ssg62
g138
sg55
(lp145
S'body'
p146
asbag48
(g69
g50
NtRp147
(dp148
g53
(dp149
g80
g81
ssg62
g138
sg55
(lp150
S':'
asbag48
(g69
g50
NtRp151
(dp152
g53
(dp153
sg62
g138
sg55
(lp154
g48
(g49
g50
NtRp155
(dp156
g53
(dp157
g61
I5
ssg62
g151
sg55
(lp158
S'<cStringIO.StringO object at 0x07CF01C0>'
p159
asbasbasbag48
(g64
g50
NtRp160
(dp161
g53
(dp162
sg62
g58
sg55
(lp163
g48
(g69
g50
NtRp164
(dp165
g53
(dp166
g73
g74
ssg62
g160
sg55
(lp167
S'client'
p168
asbag48
(g69
g50
NtRp169
(dp170
g53
(dp171
g80
g81
ssg62
g160
sg55
(lp172
S':'
asbag48
(g69
g50
NtRp173
(dp174
g53
(dp175
sg62
g160
sg55
(lp176
g48
(g49
g50
NtRp177
(dp178
g53
(dp179
g61
I5
ssg62
g173
sg55
(lp180
S'127.0.0.1'
p181
asbasbasbag48
(g64
g50
NtRp182
(dp183
g53
(dp184
sg62
g58
sg55
(lp185
g48
(g69
g50
NtRp186
(dp187
g53
(dp188
g73
g74
ssg62
g182
sg55
(lp189
S'controller'
p190
asbag48
(g69
g50
NtRp191
(dp192
g53
(dp193
g80
g81
ssg62
g182
sg55
(lp194
S':'
asbag48
(g69
g50
NtRp195
(dp196
g53
(dp197
sg62
g182
sg55
(lp198
g48
(g49
g50
NtRp199
(dp200
g53
(dp201
g61
I5
ssg62
g195
sg55
(lp202
S'fb_serv'
p203
asbasbasbag48
(g64
g50
NtRp204
(dp205
g53
(dp206
sg62
g58
sg55
(lp207
g48
(g69
g50
NtRp208
(dp209
g53
(dp210
g73
g74
ssg62
g204
sg55
(lp211
S'cookies'
p212
asbag48
(g69
g50
NtRp213
(dp214
g53
(dp215
g80
g81
ssg62
g204
sg55
(lp216
S':'
asbag48
(g69
g50
NtRp217
(dp218
g53
(dp219
sg62
g204
sg55
(lp220
g48
(g49
g50
NtRp221
(dp222
g53
(dp223
g61
I5
ssg62
g217
sg55
(lp224
g48
(g57
g50
NtRp225
(dp226
g53
(dp227
g61
I4
ssg62
Nsg55
(lp228
g48
(g64
g50
NtRp229
(dp230
g53
(dp231
sg62
g225
sg55
(lp232
g48
(g69
g50
NtRp233
(dp234
g53
(dp235
g73
g74
ssg62
g229
sg55
(lp236
S'session_id_admin'
p237
asbag48
(g69
g50
NtRp238
(dp239
g53
(dp240
g80
g81
ssg62
g229
sg55
(lp241
S':'
asbag48
(g69
g50
NtRp242
(dp243
g53
(dp244
sg62
g229
sg55
(lp245
g48
(g49
g50
NtRp246
(dp247
g53
(dp248
g61
I4
ssg62
g242
sg55
(lp249
g48
(g57
g50
NtRp250
(dp251
g53
(dp252
g61
I3
ssg62
Nsg55
(lp253
g48
(g64
g50
NtRp254
(dp255
g53
(dp256
sg62
g250
sg55
(lp257
g48
(g69
g50
NtRp258
(dp259
g53
(dp260
g73
g74
ssg62
g254
sg55
(lp261
S'comment'
p262
asbag48
(g69
g50
NtRp263
(dp264
g53
(dp265
g80
g81
ssg62
g254
sg55
(lp266
S':'
asbag48
(g69
g50
NtRp267
(dp268
g53
(dp269
sg62
g254
sg55
(lp270
g48
(g49
g50
NtRp271
(dp272
g53
(dp273
g61
I3
ssg62
g267
sg55
(lp274
S''
asbasbasbag48
(g64
g50
NtRp275
(dp276
g53
(dp277
sg62
g250
sg55
(lp278
g48
(g69
g50
NtRp279
(dp280
g53
(dp281
g73
g74
ssg62
g275
sg55
(lp282
S'domain'
p283
asbag48
(g69
g50
NtRp284
(dp285
g53
(dp286
g80
g81
ssg62
g275
sg55
(lp287
S':'
asbag48
(g69
g50
NtRp288
(dp289
g53
(dp290
sg62
g275
sg55
(lp291
g48
(g49
g50
NtRp292
(dp293
g53
(dp294
g61
I3
ssg62
g288
sg55
(lp295
S''
asbasbasbag48
(g64
g50
NtRp296
(dp297
g53
(dp298
sg62
g250
sg55
(lp299
g48
(g69
g50
NtRp300
(dp301
g53
(dp302
g73
g74
ssg62
g296
sg55
(lp303
S'expires'
p304
asbag48
(g69
g50
NtRp305
(dp306
g53
(dp307
g80
g81
ssg62
g296
sg55
(lp308
S':'
asbag48
(g69
g50
NtRp309
(dp310
g53
(dp311
sg62
g296
sg55
(lp312
g48
(g49
g50
NtRp313
(dp314
g53
(dp315
g61
I3
ssg62
g309
sg55
(lp316
S''
asbasbasbag48
(g64
g50
NtRp317
(dp318
g53
(dp319
sg62
g250
sg55
(lp320
g48
(g69
g50
NtRp321
(dp322
g53
(dp323
g73
g74
ssg62
g317
sg55
(lp324
S'max-age'
p325
asbag48
(g69
g50
NtRp326
(dp327
g53
(dp328
g80
g81
ssg62
g317
sg55
(lp329
S':'
asbag48
(g69
g50
NtRp330
(dp331
g53
(dp332
sg62
g317
sg55
(lp333
g48
(g49
g50
NtRp334
(dp335
g53
(dp336
g61
I3
ssg62
g330
sg55
(lp337
S''
asbasbasbag48
(g64
g50
NtRp338
(dp339
g53
(dp340
sg62
g250
sg55
(lp341
g48
(g69
g50
NtRp342
(dp343
g53
(dp344
g73
g74
ssg62
g338
sg55
(lp345
S'path'
p346
asbag48
(g69
g50
NtRp347
(dp348
g53
(dp349
g80
g81
ssg62
g338
sg55
(lp350
S':'
asbag48
(g69
g50
NtRp351
(dp352
g53
(dp353
sg62
g338
sg55
(lp354
g48
(g49
g50
NtRp355
(dp356
g53
(dp357
g61
I3
ssg62
g351
sg55
(lp358
S''
asbasbasbag48
(g64
g50
NtRp359
(dp360
g53
(dp361
sg62
g250
sg55
(lp362
g48
(g69
g50
NtRp363
(dp364
g53
(dp365
g73
g74
ssg62
g359
sg55
(lp366
S'secure'
p367
asbag48
(g69
g50
NtRp368
(dp369
g53
(dp370
g80
g81
ssg62
g359
sg55
(lp371
S':'
asbag48
(g69
g50
NtRp372
(dp373
g53
(dp374
sg62
g359
sg55
(lp375
g48
(g49
g50
NtRp376
(dp377
g53
(dp378
g61
I3
ssg62
g372
sg55
(lp379
S''
asbasbasbag48
(g64
g50
NtRp380
(dp381
g53
(dp382
sg62
g250
sg55
(lp383
g48
(g69
g50
NtRp384
(dp385
g53
(dp386
g73
g74
ssg62
g380
sg55
(lp387
S'version'
p388
asbag48
(g69
g50
NtRp389
(dp390
g53
(dp391
g80
g81
ssg62
g380
sg55
(lp392
S':'
asbag48
(g69
g50
NtRp393
(dp394
g53
(dp395
sg62
g380
sg55
(lp396
g48
(g49
g50
NtRp397
(dp398
g53
(dp399
g61
I3
ssg62
g393
sg55
(lp400
S''
asbasbasbasbasbasbasbag48
(g64
g50
NtRp401
(dp402
g53
(dp403
sg62
g225
sg55
(lp404
g48
(g69
g50
NtRp405
(dp406
g53
(dp407
g73
g74
ssg62
g401
sg55
(lp408
S'session_id_gabb1'
p409
asbag48
(g69
g50
NtRp410
(dp411
g53
(dp412
g80
g81
ssg62
g401
sg55
(lp413
S':'
asbag48
(g69
g50
NtRp414
(dp415
g53
(dp416
sg62
g401
sg55
(lp417
g48
(g49
g50
NtRp418
(dp419
g53
(dp420
g61
I4
ssg62
g414
sg55
(lp421
g48
(g57
g50
NtRp422
(dp423
g53
(dp424
g61
I3
ssg62
Nsg55
(lp425
g48
(g64
g50
NtRp426
(dp427
g53
(dp428
sg62
g422
sg55
(lp429
g48
(g69
g50
NtRp430
(dp431
g53
(dp432
g73
g74
ssg62
g426
sg55
(lp433
g262
asbag48
(g69
g50
NtRp434
(dp435
g53
(dp436
g80
g81
ssg62
g426
sg55
(lp437
S':'
asbag48
(g69
g50
NtRp438
(dp439
g53
(dp440
sg62
g426
sg55
(lp441
g48
(g49
g50
NtRp442
(dp443
g53
(dp444
g61
I3
ssg62
g438
sg55
(lp445
S''
asbasbasbag48
(g64
g50
NtRp446
(dp447
g53
(dp448
sg62
g422
sg55
(lp449
g48
(g69
g50
NtRp450
(dp451
g53
(dp452
g73
g74
ssg62
g446
sg55
(lp453
g283
asbag48
(g69
g50
NtRp454
(dp455
g53
(dp456
g80
g81
ssg62
g446
sg55
(lp457
S':'
asbag48
(g69
g50
NtRp458
(dp459
g53
(dp460
sg62
g446
sg55
(lp461
g48
(g49
g50
NtRp462
(dp463
g53
(dp464
g61
I3
ssg62
g458
sg55
(lp465
S''
asbasbasbag48
(g64
g50
NtRp466
(dp467
g53
(dp468
sg62
g422
sg55
(lp469
g48
(g69
g50
NtRp470
(dp471
g53
(dp472
g73
g74
ssg62
g466
sg55
(lp473
g304
asbag48
(g69
g50
NtRp474
(dp475
g53
(dp476
g80
g81
ssg62
g466
sg55
(lp477
S':'
asbag48
(g69
g50
NtRp478
(dp479
g53
(dp480
sg62
g466
sg55
(lp481
g48
(g49
g50
NtRp482
(dp483
g53
(dp484
g61
I3
ssg62
g478
sg55
(lp485
S''
asbasbasbag48
(g64
g50
NtRp486
(dp487
g53
(dp488
sg62
g422
sg55
(lp489
g48
(g69
g50
NtRp490
(dp491
g53
(dp492
g73
g74
ssg62
g486
sg55
(lp493
g325
asbag48
(g69
g50
NtRp494
(dp495
g53
(dp496
g80
g81
ssg62
g486
sg55
(lp497
S':'
asbag48
(g69
g50
NtRp498
(dp499
g53
(dp500
sg62
g486
sg55
(lp501
g48
(g49
g50
NtRp502
(dp503
g53
(dp504
g61
I3
ssg62
g498
sg55
(lp505
S''
asbasbasbag48
(g64
g50
NtRp506
(dp507
g53
(dp508
sg62
g422
sg55
(lp509
g48
(g69
g50
NtRp510
(dp511
g53
(dp512
g73
g74
ssg62
g506
sg55
(lp513
g346
asbag48
(g69
g50
NtRp514
(dp515
g53
(dp516
g80
g81
ssg62
g506
sg55
(lp517
S':'
asbag48
(g69
g50
NtRp518
(dp519
g53
(dp520
sg62
g506
sg55
(lp521
g48
(g49
g50
NtRp522
(dp523
g53
(dp524
g61
I3
ssg62
g518
sg55
(lp525
S''
asbasbasbag48
(g64
g50
NtRp526
(dp527
g53
(dp528
sg62
g422
sg55
(lp529
g48
(g69
g50
NtRp530
(dp531
g53
(dp532
g73
g74
ssg62
g526
sg55
(lp533
g367
asbag48
(g69
g50
NtRp534
(dp535
g53
(dp536
g80
g81
ssg62
g526
sg55
(lp537
S':'
asbag48
(g69
g50
NtRp538
(dp539
g53
(dp540
sg62
g526
sg55
(lp541
g48
(g49
g50
NtRp542
(dp543
g53
(dp544
g61
I3
ssg62
g538
sg55
(lp545
S''
asbasbasbag48
(g64
g50
NtRp546
(dp547
g53
(dp548
sg62
g422
sg55
(lp549
g48
(g69
g50
NtRp550
(dp551
g53
(dp552
g73
g74
ssg62
g546
sg55
(lp553
g388
asbag48
(g69
g50
NtRp554
(dp555
g53
(dp556
g80
g81
ssg62
g546
sg55
(lp557
S':'
asbag48
(g69
g50
NtRp558
(dp559
g53
(dp560
sg62
g546
sg55
(lp561
g48
(g49
g50
NtRp562
(dp563
g53
(dp564
g61
I3
ssg62
g558
sg55
(lp565
S''
asbasbasbasbasbasbasbag48
(g64
g50
NtRp566
(dp567
g53
(dp568
sg62
g225
sg55
(lp569
g48
(g69
g50
NtRp570
(dp571
g53
(dp572
g73
g74
ssg62
g566
sg55
(lp573
S'session_id_ojtest'
p574
asbag48
(g69
g50
NtRp575
(dp576
g53
(dp577
g80
g81
ssg62
g566
sg55
(lp578
S':'
asbag48
(g69
g50
NtRp579
(dp580
g53
(dp581
sg62
g566
sg55
(lp582
g48
(g49
g50
NtRp583
(dp584
g53
(dp585
g61
I4
ssg62
g579
sg55
(lp586
g48
(g57
g50
NtRp587
(dp588
g53
(dp589
g61
I3
ssg62
Nsg55
(lp590
g48
(g64
g50
NtRp591
(dp592
g53
(dp593
sg62
g587
sg55
(lp594
g48
(g69
g50
NtRp595
(dp596
g53
(dp597
g73
g74
ssg62
g591
sg55
(lp598
g262
asbag48
(g69
g50
NtRp599
(dp600
g53
(dp601
g80
g81
ssg62
g591
sg55
(lp602
S':'
asbag48
(g69
g50
NtRp603
(dp604
g53
(dp605
sg62
g591
sg55
(lp606
g48
(g49
g50
NtRp607
(dp608
g53
(dp609
g61
I3
ssg62
g603
sg55
(lp610
S''
asbasbasbag48
(g64
g50
NtRp611
(dp612
g53
(dp613
sg62
g587
sg55
(lp614
g48
(g69
g50
NtRp615
(dp616
g53
(dp617
g73
g74
ssg62
g611
sg55
(lp618
g283
asbag48
(g69
g50
NtRp619
(dp620
g53
(dp621
g80
g81
ssg62
g611
sg55
(lp622
S':'
asbag48
(g69
g50
NtRp623
(dp624
g53
(dp625
sg62
g611
sg55
(lp626
g48
(g49
g50
NtRp627
(dp628
g53
(dp629
g61
I3
ssg62
g623
sg55
(lp630
S''
asbasbasbag48
(g64
g50
NtRp631
(dp632
g53
(dp633
sg62
g587
sg55
(lp634
g48
(g69
g50
NtRp635
(dp636
g53
(dp637
g73
g74
ssg62
g631
sg55
(lp638
g304
asbag48
(g69
g50
NtRp639
(dp640
g53
(dp641
g80
g81
ssg62
g631
sg55
(lp642
S':'
asbag48
(g69
g50
NtRp643
(dp644
g53
(dp645
sg62
g631
sg55
(lp646
g48
(g49
g50
NtRp647
(dp648
g53
(dp649
g61
I3
ssg62
g643
sg55
(lp650
S''
asbasbasbag48
(g64
g50
NtRp651
(dp652
g53
(dp653
sg62
g587
sg55
(lp654
g48
(g69
g50
NtRp655
(dp656
g53
(dp657
g73
g74
ssg62
g651
sg55
(lp658
g325
asbag48
(g69
g50
NtRp659
(dp660
g53
(dp661
g80
g81
ssg62
g651
sg55
(lp662
S':'
asbag48
(g69
g50
NtRp663
(dp664
g53
(dp665
sg62
g651
sg55
(lp666
g48
(g49
g50
NtRp667
(dp668
g53
(dp669
g61
I3
ssg62
g663
sg55
(lp670
S''
asbasbasbag48
(g64
g50
NtRp671
(dp672
g53
(dp673
sg62
g587
sg55
(lp674
g48
(g69
g50
NtRp675
(dp676
g53
(dp677
g73
g74
ssg62
g671
sg55
(lp678
g346
asbag48
(g69
g50
NtRp679
(dp680
g53
(dp681
g80
g81
ssg62
g671
sg55
(lp682
S':'
asbag48
(g69
g50
NtRp683
(dp684
g53
(dp685
sg62
g671
sg55
(lp686
g48
(g49
g50
NtRp687
(dp688
g53
(dp689
g61
I3
ssg62
g683
sg55
(lp690
S''
asbasbasbag48
(g64
g50
NtRp691
(dp692
g53
(dp693
sg62
g587
sg55
(lp694
g48
(g69
g50
NtRp695
(dp696
g53
(dp697
g73
g74
ssg62
g691
sg55
(lp698
g367
asbag48
(g69
g50
NtRp699
(dp700
g53
(dp701
g80
g81
ssg62
g691
sg55
(lp702
S':'
asbag48
(g69
g50
NtRp703
(dp704
g53
(dp705
sg62
g691
sg55
(lp706
g48
(g49
g50
NtRp707
(dp708
g53
(dp709
g61
I3
ssg62
g703
sg55
(lp710
S''
asbasbasbag48
(g64
g50
NtRp711
(dp712
g53
(dp713
sg62
g587
sg55
(lp714
g48
(g69
g50
NtRp715
(dp716
g53
(dp717
g73
g74
ssg62
g711
sg55
(lp718
g388
asbag48
(g69
g50
NtRp719
(dp720
g53
(dp721
g80
g81
ssg62
g711
sg55
(lp722
S':'
asbag48
(g69
g50
NtRp723
(dp724
g53
(dp725
sg62
g711
sg55
(lp726
g48
(g49
g50
NtRp727
(dp728
g53
(dp729
g61
I3
ssg62
g723
sg55
(lp730
S''
asbasbasbasbasbasbasbag48
(g64
g50
NtRp731
(dp732
g53
(dp733
sg62
g225
sg55
(lp734
g48
(g69
g50
NtRp735
(dp736
g53
(dp737
g73
g74
ssg62
g731
sg55
(lp738
S'session_id_welcome'
p739
asbag48
(g69
g50
NtRp740
(dp741
g53
(dp742
g80
g81
ssg62
g731
sg55
(lp743
S':'
asbag48
(g69
g50
NtRp744
(dp745
g53
(dp746
sg62
g731
sg55
(lp747
g48
(g49
g50
NtRp748
(dp749
g53
(dp750
g61
I4
ssg62
g744
sg55
(lp751
g48
(g57
g50
NtRp752
(dp753
g53
(dp754
g61
I3
ssg62
Nsg55
(lp755
g48
(g64
g50
NtRp756
(dp757
g53
(dp758
sg62
g752
sg55
(lp759
g48
(g69
g50
NtRp760
(dp761
g53
(dp762
g73
g74
ssg62
g756
sg55
(lp763
g262
asbag48
(g69
g50
NtRp764
(dp765
g53
(dp766
g80
g81
ssg62
g756
sg55
(lp767
S':'
asbag48
(g69
g50
NtRp768
(dp769
g53
(dp770
sg62
g756
sg55
(lp771
g48
(g49
g50
NtRp772
(dp773
g53
(dp774
g61
I3
ssg62
g768
sg55
(lp775
S''
asbasbasbag48
(g64
g50
NtRp776
(dp777
g53
(dp778
sg62
g752
sg55
(lp779
g48
(g69
g50
NtRp780
(dp781
g53
(dp782
g73
g74
ssg62
g776
sg55
(lp783
g283
asbag48
(g69
g50
NtRp784
(dp785
g53
(dp786
g80
g81
ssg62
g776
sg55
(lp787
S':'
asbag48
(g69
g50
NtRp788
(dp789
g53
(dp790
sg62
g776
sg55
(lp791
g48
(g49
g50
NtRp792
(dp793
g53
(dp794
g61
I3
ssg62
g788
sg55
(lp795
S''
asbasbasbag48
(g64
g50
NtRp796
(dp797
g53
(dp798
sg62
g752
sg55
(lp799
g48
(g69
g50
NtRp800
(dp801
g53
(dp802
g73
g74
ssg62
g796
sg55
(lp803
g304
asbag48
(g69
g50
NtRp804
(dp805
g53
(dp806
g80
g81
ssg62
g796
sg55
(lp807
S':'
asbag48
(g69
g50
NtRp808
(dp809
g53
(dp810
sg62
g796
sg55
(lp811
g48
(g49
g50
NtRp812
(dp813
g53
(dp814
g61
I3
ssg62
g808
sg55
(lp815
S''
asbasbasbag48
(g64
g50
NtRp816
(dp817
g53
(dp818
sg62
g752
sg55
(lp819
g48
(g69
g50
NtRp820
(dp821
g53
(dp822
g73
g74
ssg62
g816
sg55
(lp823
g325
asbag48
(g69
g50
NtRp824
(dp825
g53
(dp826
g80
g81
ssg62
g816
sg55
(lp827
S':'
asbag48
(g69
g50
NtRp828
(dp829
g53
(dp830
sg62
g816
sg55
(lp831
g48
(g49
g50
NtRp832
(dp833
g53
(dp834
g61
I3
ssg62
g828
sg55
(lp835
S''
asbasbasbag48
(g64
g50
NtRp836
(dp837
g53
(dp838
sg62
g752
sg55
(lp839
g48
(g69
g50
NtRp840
(dp841
g53
(dp842
g73
g74
ssg62
g836
sg55
(lp843
g346
asbag48
(g69
g50
NtRp844
(dp845
g53
(dp846
g80
g81
ssg62
g836
sg55
(lp847
S':'
asbag48
(g69
g50
NtRp848
(dp849
g53
(dp850
sg62
g836
sg55
(lp851
g48
(g49
g50
NtRp852
(dp853
g53
(dp854
g61
I3
ssg62
g848
sg55
(lp855
S''
asbasbasbag48
(g64
g50
NtRp856
(dp857
g53
(dp858
sg62
g752
sg55
(lp859
g48
(g69
g50
NtRp860
(dp861
g53
(dp862
g73
g74
ssg62
g856
sg55
(lp863
g367
asbag48
(g69
g50
NtRp864
(dp865
g53
(dp866
g80
g81
ssg62
g856
sg55
(lp867
S':'
asbag48
(g69
g50
NtRp868
(dp869
g53
(dp870
sg62
g856
sg55
(lp871
g48
(g49
g50
NtRp872
(dp873
g53
(dp874
g61
I3
ssg62
g868
sg55
(lp875
S''
asbasbasbag48
(g64
g50
NtRp876
(dp877
g53
(dp878
sg62
g752
sg55
(lp879
g48
(g69
g50
NtRp880
(dp881
g53
(dp882
g73
g74
ssg62
g876
sg55
(lp883
g388
asbag48
(g69
g50
NtRp884
(dp885
g53
(dp886
g80
g81
ssg62
g876
sg55
(lp887
S':'
asbag48
(g69
g50
NtRp888
(dp889
g53
(dp890
sg62
g876
sg55
(lp891
g48
(g49
g50
NtRp892
(dp893
g53
(dp894
g61
I3
ssg62
g888
sg55
(lp895
S''
asbasbasbasbasbasbasbasbasbasbasbag48
(g64
g50
NtRp896
(dp897
g53
(dp898
sg62
g58
sg55
(lp899
g48
(g69
g50
NtRp900
(dp901
g53
(dp902
g73
g74
ssg62
g896
sg55
(lp903
S'env'
p904
asbag48
(g69
g50
NtRp905
(dp906
g53
(dp907
g80
g81
ssg62
g896
sg55
(lp908
S':'
asbag48
(g69
g50
NtRp909
(dp910
g53
(dp911
sg62
g896
sg55
(lp912
g48
(g49
g50
NtRp913
(dp914
g53
(dp915
g61
I5
ssg62
g909
sg55
(lp916
g48
(g57
g50
NtRp917
(dp918
g53
(dp919
g61
I4
ssg62
Nsg55
(lp920
g48
(g64
g50
NtRp921
(dp922
g53
(dp923
sg62
g917
sg55
(lp924
g48
(g69
g50
NtRp925
(dp926
g53
(dp927
g73
g74
ssg62
g921
sg55
(lp928
S'app_folders'
p929
asbag48
(g69
g50
NtRp930
(dp931
g53
(dp932
g80
g81
ssg62
g921
sg55
(lp933
S':'
asbag48
(g69
g50
NtRp934
(dp935
g53
(dp936
sg62
g921
sg55
(lp937
g48
(g49
g50
NtRp938
(dp939
g53
(dp940
g61
I4
ssg62
g934
sg55
(lp941
S"set(['D:\\\\git_projs\\\\Gabblista\\\\web2py\\\\web2py\\\\applications\\\\gabb1\\\\', 'D:\\\\git_projs\\\\Gabblista\\\\web2py\\\\web2py\\\\applications\\\\Gabb1\\\\', 'D:\\\\git_projs\\\\Gabblista\\\\web2py\\\\web2py\\\\applications\\\\admin\\\\', 'D:\\\\git_projs\\\\Gabblista\\\\web2py\\\\web2py\\\\applications\\\\welcome\\\\'])"
p942
asbasbasbag48
(g64
g50
NtRp943
(dp944
g53
(dp945
sg62
g917
sg55
(lp946
g48
(g69
g50
NtRp947
(dp948
g53
(dp949
g73
g74
ssg62
g943
sg55
(lp950
S'applications_parent'
p951
asbag48
(g69
g50
NtRp952
(dp953
g53
(dp954
g80
g81
ssg62
g943
sg55
(lp955
S':'
asbag48
(g69
g50
NtRp956
(dp957
g53
(dp958
sg62
g943
sg55
(lp959
g48
(g49
g50
NtRp960
(dp961
g53
(dp962
g61
I4
ssg62
g956
sg55
(lp963
S'D:\\git_projs\\Gabblista\\web2py\\web2py'
p964
asbasbasbag48
(g64
g50
NtRp965
(dp966
g53
(dp967
sg62
g917
sg55
(lp968
g48
(g69
g50
NtRp969
(dp970
g53
(dp971
g73
g74
ssg62
g965
sg55
(lp972
S'cmd_args'
p973
asbag48
(g69
g50
NtRp974
(dp975
g53
(dp976
g80
g81
ssg62
g965
sg55
(lp977
S':'
asbag48
(g69
g50
NtRp978
(dp979
g53
(dp980
sg62
g965
sg55
(lp981
g48
(g49
g50
NtRp982
(dp983
g53
(dp984
g61
I4
ssg62
g978
sg55
(lp985
g48
(g57
g50
NtRp986
(dp987
g53
(dp988
g61
I3
ssg62
Nsg55
(lp989
sbasbasbasbag48
(g64
g50
NtRp990
(dp991
g53
(dp992
sg62
g917
sg55
(lp993
g48
(g69
g50
NtRp994
(dp995
g53
(dp996
g73
g74
ssg62
g990
sg55
(lp997
S'cmd_options'
p998
asbag48
(g69
g50
NtRp999
(dp1000
g53
(dp1001
g80
g81
ssg62
g990
sg55
(lp1002
S':'
asbag48
(g69
g50
NtRp1003
(dp1004
g53
(dp1005
sg62
g990
sg55
(lp1006
g48
(g49
g50
NtRp1007
(dp1008
g53
(dp1009
g61
I4
ssg62
g1003
sg55
(lp1010
S"<Values at 0x325b800: {'verbose': False, 'ip': '127.0.0.1', 'shutdown_timeout': 5, 'taskbar': False, 'nocron': False, 'pid_filename': 'httpserver.pid', 'maxthreads': None, 'softcron': False, 'server_name': 'John-PC', 'bpython': False, 'nogui': False, 'port': 8000, 'extcron': False, 'debuglevel': 30, 'test': None, 'folder': 'D:\\\\git_projs\\\\Gabblista\\\\web2py\\\\web2py', 'config': '', 'import_models': False, 'winservice': '', 'shell': None, 'run': '', 'log_filename': 'httpserver.log', 'args': [''], 'ssl_ca_certificate': None, 'scheduler': None, 'profiler_filename': None, 'ssl_private_key': '', 'password': '<ask>', 'request_queue_size': 5, 'ssl_certificate': '', 'cronjob': False, 'plain': False, 'quiet': False, 'interfaces': None, 'minthreads': None, 'timeout': 10, 'numthreads': None, 'nobanner': False}>"
p1011
asbasbasbag48
(g64
g50
NtRp1012
(dp1013
g53
(dp1014
sg62
g917
sg55
(lp1015
g48
(g69
g50
NtRp1016
(dp1017
g53
(dp1018
g73
g74
ssg62
g1012
sg55
(lp1019
S'db_sessions'
p1020
asbag48
(g69
g50
NtRp1021
(dp1022
g53
(dp1023
g80
g81
ssg62
g1012
sg55
(lp1024
S':'
asbag48
(g69
g50
NtRp1025
(dp1026
g53
(dp1027
sg62
g1012
sg55
(lp1028
g48
(g49
g50
NtRp1029
(dp1030
g53
(dp1031
g61
I4
ssg62
g1025
sg55
(lp1032
S'set([])'
p1033
asbasbasbag48
(g64
g50
NtRp1034
(dp1035
g53
(dp1036
sg62
g917
sg55
(lp1037
g48
(g69
g50
NtRp1038
(dp1039
g53
(dp1040
g73
g74
ssg62
g1034
sg55
(lp1041
S'debugging'
p1042
asbag48
(g69
g50
NtRp1043
(dp1044
g53
(dp1045
g80
g81
ssg62
g1034
sg55
(lp1046
S':'
asbag48
(g69
g50
NtRp1047
(dp1048
g53
(dp1049
sg62
g1034
sg55
(lp1050
g48
(g49
g50
NtRp1051
(dp1052
g53
(dp1053
g61
I4
ssg62
g1047
sg55
(lp1054
g91
asbasbasbag48
(g64
g50
NtRp1055
(dp1056
g53
(dp1057
sg62
g917
sg55
(lp1058
g48
(g69
g50
NtRp1059
(dp1060
g53
(dp1061
g73
g74
ssg62
g1055
sg55
(lp1062
S'gluon_parent'
p1063
asbag48
(g69
g50
NtRp1064
(dp1065
g53
(dp1066
g80
g81
ssg62
g1055
sg55
(lp1067
S':'
asbag48
(g69
g50
NtRp1068
(dp1069
g53
(dp1070
sg62
g1055
sg55
(lp1071
g48
(g49
g50
NtRp1072
(dp1073
g53
(dp1074
g61
I4
ssg62
g1068
sg55
(lp1075
S'D:\\git_projs\\Gabblista\\web2py\\web2py'
p1076
asbasbasbag48
(g64
g50
NtRp1077
(dp1078
g53
(dp1079
sg62
g917
sg55
(lp1080
g48
(g69
g50
NtRp1081
(dp1082
g53
(dp1083
g73
g74
ssg62
g1077
sg55
(lp1084
S'http_accept'
p1085
asbag48
(g69
g50
NtRp1086
(dp1087
g53
(dp1088
g80
g81
ssg62
g1077
sg55
(lp1089
S':'
asbag48
(g69
g50
NtRp1090
(dp1091
g53
(dp1092
sg62
g1077
sg55
(lp1093
g48
(g49
g50
NtRp1094
(dp1095
g53
(dp1096
g61
I4
ssg62
g1090
sg55
(lp1097
S'text/html,application/xhtml+xml,application/xml;q=0.9,*/*;q=0.8'
p1098
asbasbasbag48
(g64
g50
NtRp1099
(dp1100
g53
(dp1101
sg62
g917
sg55
(lp1102
g48
(g69
g50
NtRp1103
(dp1104
g53
(dp1105
g73
g74
ssg62
g1099
sg55
(lp1106
S'http_accept_charset'
p1107
asbag48
(g69
g50
NtRp1108
(dp1109
g53
(dp1110
g80
g81
ssg62
g1099
sg55
(lp1111
S':'
asbag48
(g69
g50
NtRp1112
(dp1113
g53
(dp1114
sg62
g1099
sg55
(lp1115
g48
(g49
g50
NtRp1116
(dp1117
g53
(dp1118
g61
I4
ssg62
g1112
sg55
(lp1119
S'ISO-8859-1,utf-8;q=0.7,*;q=0.3'
p1120
asbasbasbag48
(g64
g50
NtRp1121
(dp1122
g53
(dp1123
sg62
g917
sg55
(lp1124
g48
(g69
g50
NtRp1125
(dp1126
g53
(dp1127
g73
g74
ssg62
g1121
sg55
(lp1128
S'http_accept_encoding'
p1129
asbag48
(g69
g50
NtRp1130
(dp1131
g53
(dp1132
g80
g81
ssg62
g1121
sg55
(lp1133
S':'
asbag48
(g69
g50
NtRp1134
(dp1135
g53
(dp1136
sg62
g1121
sg55
(lp1137
g48
(g49
g50
NtRp1138
(dp1139
g53
(dp1140
g61
I4
ssg62
g1134
sg55
(lp1141
S'gzip,deflate,sdch'
p1142
asbasbasbag48
(g64
g50
NtRp1143
(dp1144
g53
(dp1145
sg62
g917
sg55
(lp1146
g48
(g69
g50
NtRp1147
(dp1148
g53
(dp1149
g73
g74
ssg62
g1143
sg55
(lp1150
S'http_accept_language'
p1151
asbag48
(g69
g50
NtRp1152
(dp1153
g53
(dp1154
g80
g81
ssg62
g1143
sg55
(lp1155
S':'
asbag48
(g69
g50
NtRp1156
(dp1157
g53
(dp1158
sg62
g1143
sg55
(lp1159
g48
(g49
g50
NtRp1160
(dp1161
g53
(dp1162
g61
I4
ssg62
g1156
sg55
(lp1163
S'en-US,en;q=0.8'
p1164
asbasbasbag48
(g64
g50
NtRp1165
(dp1166
g53
(dp1167
sg62
g917
sg55
(lp1168
g48
(g69
g50
NtRp1169
(dp1170
g53
(dp1171
g73
g74
ssg62
g1165
sg55
(lp1172
S'http_cache_control'
p1173
asbag48
(g69
g50
NtRp1174
(dp1175
g53
(dp1176
g80
g81
ssg62
g1165
sg55
(lp1177
S':'
asbag48
(g69
g50
NtRp1178
(dp1179
g53
(dp1180
sg62
g1165
sg55
(lp1181
g48
(g49
g50
NtRp1182
(dp1183
g53
(dp1184
g61
I4
ssg62
g1178
sg55
(lp1185
S'max-age=0'
p1186
asbasbasbag48
(g64
g50
NtRp1187
(dp1188
g53
(dp1189
sg62
g917
sg55
(lp1190
g48
(g69
g50
NtRp1191
(dp1192
g53
(dp1193
g73
g74
ssg62
g1187
sg55
(lp1194
S'http_connection'
p1195
asbag48
(g69
g50
NtRp1196
(dp1197
g53
(dp1198
g80
g81
ssg62
g1187
sg55
(lp1199
S':'
asbag48
(g69
g50
NtRp1200
(dp1201
g53
(dp1202
sg62
g1187
sg55
(lp1203
g48
(g49
g50
NtRp1204
(dp1205
g53
(dp1206
g61
I4
ssg62
g1200
sg55
(lp1207
S'keep-alive'
p1208
asbasbasbag48
(g64
g50
NtRp1209
(dp1210
g53
(dp1211
sg62
g917
sg55
(lp1212
g48
(g69
g50
NtRp1213
(dp1214
g53
(dp1215
g73
g74
ssg62
g1209
sg55
(lp1216
S'http_cookie'
p1217
asbag48
(g69
g50
NtRp1218
(dp1219
g53
(dp1220
g80
g81
ssg62
g1209
sg55
(lp1221
S':'
asbag48
(g69
g50
NtRp1222
(dp1223
g53
(dp1224
sg62
g1209
sg55
(lp1225
g48
(g49
g50
NtRp1226
(dp1227
g53
(dp1228
g61
I4
ssg62
g1222
sg55
(lp1229
S'session_id_ojtest="1673:0b3a82b6-d697-4763-b7ae-5776f137ef68"; session_id_gabb1=127.0.0.1-3bf8ce85-e0ca-4a46-8cd0-e96e868047a2; session_id_welcome=127.0.0.1-6d50c47e-7f62-40fa-b134-ee701fab76a2; session_id_admin=127.0.0.1-36373dbf-d82c-4405-b2a1-4903a4e5c8b4'
p1230
asbasbasbag48
(g64
g50
NtRp1231
(dp1232
g53
(dp1233
sg62
g917
sg55
(lp1234
g48
(g69
g50
NtRp1235
(dp1236
g53
(dp1237
g73
g74
ssg62
g1231
sg55
(lp1238
S'http_host'
p1239
asbag48
(g69
g50
NtRp1240
(dp1241
g53
(dp1242
g80
g81
ssg62
g1231
sg55
(lp1243
S':'
asbag48
(g69
g50
NtRp1244
(dp1245
g53
(dp1246
sg62
g1231
sg55
(lp1247
g48
(g49
g50
NtRp1248
(dp1249
g53
(dp1250
g61
I4
ssg62
g1244
sg55
(lp1251
S'127.0.0.1:8000'
p1252
asbasbasbag48
(g64
g50
NtRp1253
(dp1254
g53
(dp1255
sg62
g917
sg55
(lp1256
g48
(g69
g50
NtRp1257
(dp1258
g53
(dp1259
g73
g74
ssg62
g1253
sg55
(lp1260
S'http_user_agent'
p1261
asbag48
(g69
g50
NtRp1262
(dp1263
g53
(dp1264
g80
g81
ssg62
g1253
sg55
(lp1265
S':'
asbag48
(g69
g50
NtRp1266
(dp1267
g53
(dp1268
sg62
g1253
sg55
(lp1269
g48
(g49
g50
NtRp1270
(dp1271
g53
(dp1272
g61
I4
ssg62
g1266
sg55
(lp1273
S'Mozilla/5.0 (Windows NT 6.1; WOW64) AppleWebKit/535.7 (KHTML, like Gecko) Chrome/16.0.912.75 Safari/535.7'
p1274
asbasbasbag48
(g64
g50
NtRp1275
(dp1276
g53
(dp1277
sg62
g917
sg55
(lp1278
g48
(g69
g50
NtRp1279
(dp1280
g53
(dp1281
g73
g74
ssg62
g1275
sg55
(lp1282
S'is_jython'
p1283
asbag48
(g69
g50
NtRp1284
(dp1285
g53
(dp1286
g80
g81
ssg62
g1275
sg55
(lp1287
S':'
asbag48
(g69
g50
NtRp1288
(dp1289
g53
(dp1290
sg62
g1275
sg55
(lp1291
g48
(g49
g50
NtRp1292
(dp1293
g53
(dp1294
g61
I4
ssg62
g1288
sg55
(lp1295
g91
asbasbasbag48
(g64
g50
NtRp1296
(dp1297
g53
(dp1298
sg62
g917
sg55
(lp1299
g48
(g69
g50
NtRp1300
(dp1301
g53
(dp1302
g73
g74
ssg62
g1296
sg55
(lp1303
S'path_info'
p1304
asbag48
(g69
g50
NtRp1305
(dp1306
g53
(dp1307
g80
g81
ssg62
g1296
sg55
(lp1308
S':'
asbag48
(g69
g50
NtRp1309
(dp1310
g53
(dp1311
sg62
g1296
sg55
(lp1312
g48
(g49
g50
NtRp1313
(dp1314
g53
(dp1315
g61
I4
ssg62
g1309
sg55
(lp1316
S'/Gabb1/fb_serv/serve_player_data.txt'
p1317
asbasbasbag48
(g64
g50
NtRp1318
(dp1319
g53
(dp1320
sg62
g917
sg55
(lp1321
g48
(g69
g50
NtRp1322
(dp1323
g53
(dp1324
g73
g74
ssg62
g1318
sg55
(lp1325
S'query_string'
p1326
asbag48
(g69
g50
NtRp1327
(dp1328
g53
(dp1329
g80
g81
ssg62
g1318
sg55
(lp1330
S':'
asbag48
(g69
g50
NtRp1331
(dp1332
g53
(dp1333
sg62
g1318
sg55
(lp1334
g48
(g49
g50
NtRp1335
(dp1336
g53
(dp1337
g61
I4
ssg62
g1331
sg55
(lp1338
S'player_ID=0&opponent_ID=1&game_ID=0'
p1339
asbasbasbag48
(g64
g50
NtRp1340
(dp1341
g53
(dp1342
sg62
g917
sg55
(lp1343
g48
(g69
g50
NtRp1344
(dp1345
g53
(dp1346
g73
g74
ssg62
g1340
sg55
(lp1347
S'remote_addr'
p1348
asbag48
(g69
g50
NtRp1349
(dp1350
g53
(dp1351
g80
g81
ssg62
g1340
sg55
(lp1352
S':'
asbag48
(g69
g50
NtRp1353
(dp1354
g53
(dp1355
sg62
g1340
sg55
(lp1356
g48
(g49
g50
NtRp1357
(dp1358
g53
(dp1359
g61
I4
ssg62
g1353
sg55
(lp1360
g181
asbasbasbag48
(g64
g50
NtRp1361
(dp1362
g53
(dp1363
sg62
g917
sg55
(lp1364
g48
(g69
g50
NtRp1365
(dp1366
g53
(dp1367
g73
g74
ssg62
g1361
sg55
(lp1368
S'remote_port'
p1369
asbag48
(g69
g50
NtRp1370
(dp1371
g53
(dp1372
g80
g81
ssg62
g1361
sg55
(lp1373
S':'
asbag48
(g69
g50
NtRp1374
(dp1375
g53
(dp1376
sg62
g1361
sg55
(lp1377
g48
(g49
g50
NtRp1378
(dp1379
g53
(dp1380
g61
I4
ssg62
g1374
sg55
(lp1381
S'64568'
p1382
asbasbasbag48
(g64
g50
NtRp1383
(dp1384
g53
(dp1385
sg62
g917
sg55
(lp1386
g48
(g69
g50
NtRp1387
(dp1388
g53
(dp1389
g73
g74
ssg62
g1383
sg55
(lp1390
S'request_method'
p1391
asbag48
(g69
g50
NtRp1392
(dp1393
g53
(dp1394
g80
g81
ssg62
g1383
sg55
(lp1395
S':'
asbag48
(g69
g50
NtRp1396
(dp1397
g53
(dp1398
sg62
g1383
sg55
(lp1399
g48
(g49
g50
NtRp1400
(dp1401
g53
(dp1402
g61
I4
ssg62
g1396
sg55
(lp1403
S'GET'
p1404
asbasbasbag48
(g64
g50
NtRp1405
(dp1406
g53
(dp1407
sg62
g917
sg55
(lp1408
g48
(g69
g50
NtRp1409
(dp1410
g53
(dp1411
g73
g74
ssg62
g1405
sg55
(lp1412
S'request_uri'
p1413
asbag48
(g69
g50
NtRp1414
(dp1415
g53
(dp1416
g80
g81
ssg62
g1405
sg55
(lp1417
S':'
asbag48
(g69
g50
NtRp1418
(dp1419
g53
(dp1420
sg62
g1405
sg55
(lp1421
g48
(g49
g50
NtRp1422
(dp1423
g53
(dp1424
g61
I4
ssg62
g1418
sg55
(lp1425
S'/Gabb1/fb_serv/serve_player_data.txt?player_ID=0&opponent_ID=1&game_ID=0'
p1426
asbasbasbag48
(g64
g50
NtRp1427
(dp1428
g53
(dp1429
sg62
g917
sg55
(lp1430
g48
(g69
g50
NtRp1431
(dp1432
g53
(dp1433
g73
g74
ssg62
g1427
sg55
(lp1434
S'script_name'
p1435
asbag48
(g69
g50
NtRp1436
(dp1437
g53
(dp1438
g80
g81
ssg62
g1427
sg55
(lp1439
S':'
asbag48
(g69
g50
NtRp1440
(dp1441
g53
(dp1442
sg62
g1427
sg55
(lp1443
g48
(g49
g50
NtRp1444
(dp1445
g53
(dp1446
g61
I4
ssg62
g1440
sg55
(lp1447
S''
asbasbasbag48
(g64
g50
NtRp1448
(dp1449
g53
(dp1450
sg62
g917
sg55
(lp1451
g48
(g69
g50
NtRp1452
(dp1453
g53
(dp1454
g73
g74
ssg62
g1448
sg55
(lp1455
S'server_name'
p1456
asbag48
(g69
g50
NtRp1457
(dp1458
g53
(dp1459
g80
g81
ssg62
g1448
sg55
(lp1460
S':'
asbag48
(g69
g50
NtRp1461
(dp1462
g53
(dp1463
sg62
g1448
sg55
(lp1464
g48
(g49
g50
NtRp1465
(dp1466
g53
(dp1467
g61
I4
ssg62
g1461
sg55
(lp1468
S'John-PC'
p1469
asbasbasbag48
(g64
g50
NtRp1470
(dp1471
g53
(dp1472
sg62
g917
sg55
(lp1473
g48
(g69
g50
NtRp1474
(dp1475
g53
(dp1476
g73
g74
ssg62
g1470
sg55
(lp1477
S'server_port'
p1478
asbag48
(g69
g50
NtRp1479
(dp1480
g53
(dp1481
g80
g81
ssg62
g1470
sg55
(lp1482
S':'
asbag48
(g69
g50
NtRp1483
(dp1484
g53
(dp1485
sg62
g1470
sg55
(lp1486
g48
(g49
g50
NtRp1487
(dp1488
g53
(dp1489
g61
I4
ssg62
g1483
sg55
(lp1490
S'8000'
p1491
asbasbasbag48
(g64
g50
NtRp1492
(dp1493
g53
(dp1494
sg62
g917
sg55
(lp1495
g48
(g69
g50
NtRp1496
(dp1497
g53
(dp1498
g73
g74
ssg62
g1492
sg55
(lp1499
S'server_protocol'
p1500
asbag48
(g69
g50
NtRp1501
(dp1502
g53
(dp1503
g80
g81
ssg62
g1492
sg55
(lp1504
S':'
asbag48
(g69
g50
NtRp1505
(dp1506
g53
(dp1507
sg62
g1492
sg55
(lp1508
g48
(g49
g50
NtRp1509
(dp1510
g53
(dp1511
g61
I4
ssg62
g1505
sg55
(lp1512
S'HTTP/1.1'
p1513
asbasbasbag48
(g64
g50
NtRp1514
(dp1515
g53
(dp1516
sg62
g917
sg55
(lp1517
g48
(g69
g50
NtRp1518
(dp1519
g53
(dp1520
g73
g74
ssg62
g1514
sg55
(lp1521
S'server_software'
p1522
asbag48
(g69
g50
NtRp1523
(dp1524
g53
(dp1525
g80
g81
ssg62
g1514
sg55
(lp1526
S':'
asbag48
(g69
g50
NtRp1527
(dp1528
g53
(dp1529
sg62
g1514
sg55
(lp1530
g48
(g49
g50
NtRp1531
(dp1532
g53
(dp1533
g61
I4
ssg62
g1527
sg55
(lp1534
S'Rocket 1.2.4'
p1535
asbasbasbag48
(g64
g50
NtRp1536
(dp1537
g53
(dp1538
sg62
g917
sg55
(lp1539
g48
(g69
g50
NtRp1540
(dp1541
g53
(dp1542
g73
g74
ssg62
g1536
sg55
(lp1543
S'web2py_crontype'
p1544
asbag48
(g69
g50
NtRp1545
(dp1546
g53
(dp1547
g80
g81
ssg62
g1536
sg55
(lp1548
S':'
asbag48
(g69
g50
NtRp1549
(dp1550
g53
(dp1551
sg62
g1536
sg55
(lp1552
g48
(g49
g50
NtRp1553
(dp1554
g53
(dp1555
g61
I4
ssg62
g1549
sg55
(lp1556
S'hard'
p1557
asbasbasbag48
(g64
g50
NtRp1558
(dp1559
g53
(dp1560
sg62
g917
sg55
(lp1561
g48
(g69
g50
NtRp1562
(dp1563
g53
(dp1564
g73
g74
ssg62
g1558
sg55
(lp1565
S'web2py_original_uri'
p1566
asbag48
(g69
g50
NtRp1567
(dp1568
g53
(dp1569
g80
g81
ssg62
g1558
sg55
(lp1570
S':'
asbag48
(g69
g50
NtRp1571
(dp1572
g53
(dp1573
sg62
g1558
sg55
(lp1574
g48
(g49
g50
NtRp1575
(dp1576
g53
(dp1577
g61
I4
ssg62
g1571
sg55
(lp1578
S'/Gabb1/fb_serv/serve_player_data.txt?player_ID=0&opponent_ID=1&game_ID=0'
p1579
asbasbasbag48
(g64
g50
NtRp1580
(dp1581
g53
(dp1582
sg62
g917
sg55
(lp1583
g48
(g69
g50
NtRp1584
(dp1585
g53
(dp1586
g73
g74
ssg62
g1580
sg55
(lp1587
S'web2py_path'
p1588
asbag48
(g69
g50
NtRp1589
(dp1590
g53
(dp1591
g80
g81
ssg62
g1580
sg55
(lp1592
S':'
asbag48
(g69
g50
NtRp1593
(dp1594
g53
(dp1595
sg62
g1580
sg55
(lp1596
g48
(g49
g50
NtRp1597
(dp1598
g53
(dp1599
g61
I4
ssg62
g1593
sg55
(lp1600
g964
asbasbasbag48
(g64
g50
NtRp1601
(dp1602
g53
(dp1603
sg62
g917
sg55
(lp1604
g48
(g69
g50
NtRp1605
(dp1606
g53
(dp1607
g73
g74
ssg62
g1601
sg55
(lp1608
S'web2py_version'
p1609
asbag48
(g69
g50
NtRp1610
(dp1611
g53
(dp1612
g80
g81
ssg62
g1601
sg55
(lp1613
S':'
asbag48
(g69
g50
NtRp1614
(dp1615
g53
(dp1616
sg62
g1601
sg55
(lp1617
g48
(g49
g50
NtRp1618
(dp1619
g53
(dp1620
g61
I4
ssg62
g1614
sg55
(lp1621
g48
(g57
g50
NtRp1622
(dp1623
g53
(dp1624
g61
I3
ssg62
Nsg55
(lp1625
g48
(g64
g50
NtRp1626
(dp1627
g53
(dp1628
sg62
g1622
sg55
(lp1629
g48
(g69
g50
NtRp1630
(dp1631
g53
(dp1632
sg62
g1626
sg55
(lp1633
g48
(g49
g50
NtRp1634
(dp1635
g53
(dp1636
g61
I3
ssg62
g1630
sg55
(lp1637
S'1'
asbasbasbag48
(g64
g50
NtRp1638
(dp1639
g53
(dp1640
sg62
g1622
sg55
(lp1641
g48
(g69
g50
NtRp1642
(dp1643
g53
(dp1644
sg62
g1638
sg55
(lp1645
g48
(g49
g50
NtRp1646
(dp1647
g53
(dp1648
g61
I3
ssg62
g1642
sg55
(lp1649
S'99'
p1650
asbasbasbag48
(g64
g50
NtRp1651
(dp1652
g53
(dp1653
sg62
g1622
sg55
(lp1654
g48
(g69
g50
NtRp1655
(dp1656
g53
(dp1657
sg62
g1651
sg55
(lp1658
g48
(g49
g50
NtRp1659
(dp1660
g53
(dp1661
g61
I3
ssg62
g1655
sg55
(lp1662
S'2'
asbasbasbag48
(g64
g50
NtRp1663
(dp1664
g53
(dp1665
sg62
g1622
sg55
(lp1666
g48
(g69
g50
NtRp1667
(dp1668
g53
(dp1669
sg62
g1663
sg55
(lp1670
g48
(g49
g50
NtRp1671
(dp1672
g53
(dp1673
g61
I3
ssg62
g1667
sg55
(lp1674
S'datetime.datetime(2011, 9, 26, 6, 55, 33)'
p1675
asbasbasbag48
(g64
g50
NtRp1676
(dp1677
g53
(dp1678
sg62
g1622
sg55
(lp1679
g48
(g69
g50
NtRp1680
(dp1681
g53
(dp1682
sg62
g1676
sg55
(lp1683
g48
(g49
g50
NtRp1684
(dp1685
g53
(dp1686
g61
I3
ssg62
g1680
sg55
(lp1687
S'stable'
p1688
asbasbasbasbasbasbasbag48
(g64
g50
NtRp1689
(dp1690
g53
(dp1691
sg62
g917
sg55
(lp1692
g48
(g69
g50
NtRp1693
(dp1694
g53
(dp1695
g73
g74
ssg62
g1689
sg55
(lp1696
S'wsgi_errors'
p1697
asbag48
(g69
g50
NtRp1698
(dp1699
g53
(dp1700
g80
g81
ssg62
g1689
sg55
(lp1701
S':'
asbag48
(g69
g50
NtRp1702
(dp1703
g53
(dp1704
sg62
g1689
sg55
(lp1705
g48
(g49
g50
NtRp1706
(dp1707
g53
(dp1708
g61
I4
ssg62
g1702
sg55
(lp1709
S"<open file '<stderr>', mode 'w' at 0x01D300B0>"
p1710
asbasbasbag48
(g64
g50
NtRp1711
(dp1712
g53
(dp1713
sg62
g917
sg55
(lp1714
g48
(g69
g50
NtRp1715
(dp1716
g53
(dp1717
g73
g74
ssg62
g1711
sg55
(lp1718
S'wsgi_file_wrapper'
p1719
asbag48
(g69
g50
NtRp1720
(dp1721
g53
(dp1722
g80
g81
ssg62
g1711
sg55
(lp1723
S':'
asbag48
(g69
g50
NtRp1724
(dp1725
g53
(dp1726
sg62
g1711
sg55
(lp1727
g48
(g49
g50
NtRp1728
(dp1729
g53
(dp1730
g61
I4
ssg62
g1724
sg55
(lp1731
S'<class wsgiref.util.FileWrapper at 0x0318A600>'
p1732
asbasbasbag48
(g64
g50
NtRp1733
(dp1734
g53
(dp1735
sg62
g917
sg55
(lp1736
g48
(g69
g50
NtRp1737
(dp1738
g53
(dp1739
g73
g74
ssg62
g1733
sg55
(lp1740
S'wsgi_input'
p1741
asbag48
(g69
g50
NtRp1742
(dp1743
g53
(dp1744
g80
g81
ssg62
g1733
sg55
(lp1745
S':'
asbag48
(g69
g50
NtRp1746
(dp1747
g53
(dp1748
sg62
g1733
sg55
(lp1749
g48
(g49
g50
NtRp1750
(dp1751
g53
(dp1752
g61
I4
ssg62
g1746
sg55
(lp1753
S'<socket._fileobject object at 0x037C9FB0>'
p1754
asbasbasbag48
(g64
g50
NtRp1755
(dp1756
g53
(dp1757
sg62
g917
sg55
(lp1758
g48
(g69
g50
NtRp1759
(dp1760
g53
(dp1761
g73
g74
ssg62
g1755
sg55
(lp1762
S'wsgi_multiprocess'
p1763
asbag48
(g69
g50
NtRp1764
(dp1765
g53
(dp1766
g80
g81
ssg62
g1755
sg55
(lp1767
S':'
asbag48
(g69
g50
NtRp1768
(dp1769
g53
(dp1770
sg62
g1755
sg55
(lp1771
g48
(g49
g50
NtRp1772
(dp1773
g53
(dp1774
g61
I4
ssg62
g1768
sg55
(lp1775
g91
asbasbasbag48
(g64
g50
NtRp1776
(dp1777
g53
(dp1778
sg62
g917
sg55
(lp1779
g48
(g69
g50
NtRp1780
(dp1781
g53
(dp1782
g73
g74
ssg62
g1776
sg55
(lp1783
S'wsgi_multithread'
p1784
asbag48
(g69
g50
NtRp1785
(dp1786
g53
(dp1787
g80
g81
ssg62
g1776
sg55
(lp1788
S':'
asbag48
(g69
g50
NtRp1789
(dp1790
g53
(dp1791
sg62
g1776
sg55
(lp1792
g48
(g49
g50
NtRp1793
(dp1794
g53
(dp1795
g61
I4
ssg62
g1789
sg55
(lp1796
S'True'
p1797
asbasbasbag48
(g64
g50
NtRp1798
(dp1799
g53
(dp1800
sg62
g917
sg55
(lp1801
g48
(g69
g50
NtRp1802
(dp1803
g53
(dp1804
g73
g74
ssg62
g1798
sg55
(lp1805
S'wsgi_run_once'
p1806
asbag48
(g69
g50
NtRp1807
(dp1808
g53
(dp1809
g80
g81
ssg62
g1798
sg55
(lp1810
S':'
asbag48
(g69
g50
NtRp1811
(dp1812
g53
(dp1813
sg62
g1798
sg55
(lp1814
g48
(g49
g50
NtRp1815
(dp1816
g53
(dp1817
g61
I4
ssg62
g1811
sg55
(lp1818
g91
asbasbasbag48
(g64
g50
NtRp1819
(dp1820
g53
(dp1821
sg62
g917
sg55
(lp1822
g48
(g69
g50
NtRp1823
(dp1824
g53
(dp1825
g73
g74
ssg62
g1819
sg55
(lp1826
S'wsgi_url_scheme'
p1827
asbag48
(g69
g50
NtRp1828
(dp1829
g53
(dp1830
g80
g81
ssg62
g1819
sg55
(lp1831
S':'
asbag48
(g69
g50
NtRp1832
(dp1833
g53
(dp1834
sg62
g1819
sg55
(lp1835
g48
(g49
g50
NtRp1836
(dp1837
g53
(dp1838
g61
I4
ssg62
g1832
sg55
(lp1839
S'http'
p1840
asbasbasbag48
(g64
g50
NtRp1841
(dp1842
g53
(dp1843
sg62
g917
sg55
(lp1844
g48
(g69
g50
NtRp1845
(dp1846
g53
(dp1847
g73
g74
ssg62
g1841
sg55
(lp1848
S'wsgi_version'
p1849
asbag48
(g69
g50
NtRp1850
(dp1851
g53
(dp1852
g80
g81
ssg62
g1841
sg55
(lp1853
S':'
asbag48
(g69
g50
NtRp1854
(dp1855
g53
(dp1856
sg62
g1841
sg55
(lp1857
g48
(g49
g50
NtRp1858
(dp1859
g53
(dp1860
g61
I4
ssg62
g1854
sg55
(lp1861
g48
(g57
g50
NtRp1862
(dp1863
g53
(dp1864
g61
I3
ssg62
Nsg55
(lp1865
g48
(g64
g50
NtRp1866
(dp1867
g53
(dp1868
sg62
g1862
sg55
(lp1869
g48
(g69
g50
NtRp1870
(dp1871
g53
(dp1872
sg62
g1866
sg55
(lp1873
g48
(g49
g50
NtRp1874
(dp1875
g53
(dp1876
g61
I3
ssg62
g1870
sg55
(lp1877
S'1'
asbasbasbag48
(g64
g50
NtRp1878
(dp1879
g53
(dp1880
sg62
g1862
sg55
(lp1881
g48
(g69
g50
NtRp1882
(dp1883
g53
(dp1884
sg62
g1878
sg55
(lp1885
g48
(g49
g50
NtRp1886
(dp1887
g53
(dp1888
g61
I3
ssg62
g1882
sg55
(lp1889
S'0'
asbasbasbasbasbasbasbasbasbasbasbag48
(g64
g50
NtRp1890
(dp1891
g53
(dp1892
sg62
g58
sg55
(lp1893
g48
(g69
g50
NtRp1894
(dp1895
g53
(dp1896
g73
g74
ssg62
g1890
sg55
(lp1897
S'extension'
p1898
asbag48
(g69
g50
NtRp1899
(dp1900
g53
(dp1901
g80
g81
ssg62
g1890
sg55
(lp1902
S':'
asbag48
(g69
g50
NtRp1903
(dp1904
g53
(dp1905
sg62
g1890
sg55
(lp1906
g48
(g49
g50
NtRp1907
(dp1908
g53
(dp1909
g61
I5
ssg62
g1903
sg55
(lp1910
S'txt'
p1911
asbasbasbag48
(g64
g50
NtRp1912
(dp1913
g53
(dp1914
sg62
g58
sg55
(lp1915
g48
(g69
g50
NtRp1916
(dp1917
g53
(dp1918
g73
g74
ssg62
g1912
sg55
(lp1919
S'folder'
p1920
asbag48
(g69
g50
NtRp1921
(dp1922
g53
(dp1923
g80
g81
ssg62
g1912
sg55
(lp1924
S':'
asbag48
(g69
g50
NtRp1925
(dp1926
g53
(dp1927
sg62
g1912
sg55
(lp1928
g48
(g49
g50
NtRp1929
(dp1930
g53
(dp1931
g61
I5
ssg62
g1925
sg55
(lp1932
S'D:\\git_projs\\Gabblista\\web2py\\web2py\\applications\\Gabb1\\'
p1933
asbasbasbag48
(g64
g50
NtRp1934
(dp1935
g53
(dp1936
sg62
g58
sg55
(lp1937
g48
(g69
g50
NtRp1938
(dp1939
g53
(dp1940
g73
g74
ssg62
g1934
sg55
(lp1941
S'function'
p1942
asbag48
(g69
g50
NtRp1943
(dp1944
g53
(dp1945
g80
g81
ssg62
g1934
sg55
(lp1946
S':'
asbag48
(g69
g50
NtRp1947
(dp1948
g53
(dp1949
sg62
g1934
sg55
(lp1950
g48
(g49
g50
NtRp1951
(dp1952
g53
(dp1953
g61
I5
ssg62
g1947
sg55
(lp1954
S'serve_player_data'
p1955
asbasbasbag48
(g64
g50
NtRp1956
(dp1957
g53
(dp1958
sg62
g58
sg55
(lp1959
g48
(g69
g50
NtRp1960
(dp1961
g53
(dp1962
g73
g74
ssg62
g1956
sg55
(lp1963
S'get_vars'
p1964
asbag48
(g69
g50
NtRp1965
(dp1966
g53
(dp1967
g80
g81
ssg62
g1956
sg55
(lp1968
S':'
asbag48
(g69
g50
NtRp1969
(dp1970
g53
(dp1971
sg62
g1956
sg55
(lp1972
g48
(g49
g50
NtRp1973
(dp1974
g53
(dp1975
g61
I5
ssg62
g1969
sg55
(lp1976
g48
(g57
g50
NtRp1977
(dp1978
g53
(dp1979
g61
I4
ssg62
Nsg55
(lp1980
g48
(g64
g50
NtRp1981
(dp1982
g53
(dp1983
sg62
g1977
sg55
(lp1984
g48
(g69
g50
NtRp1985
(dp1986
g53
(dp1987
g73
g74
ssg62
g1981
sg55
(lp1988
S'game_ID'
p1989
asbag48
(g69
g50
NtRp1990
(dp1991
g53
(dp1992
g80
g81
ssg62
g1981
sg55
(lp1993
S':'
asbag48
(g69
g50
NtRp1994
(dp1995
g53
(dp1996
sg62
g1981
sg55
(lp1997
g48
(g49
g50
NtRp1998
(dp1999
g53
(dp2000
g61
I4
ssg62
g1994
sg55
(lp2001
S'0'
asbasbasbag48
(g64
g50
NtRp2002
(dp2003
g53
(dp2004
sg62
g1977
sg55
(lp2005
g48
(g69
g50
NtRp2006
(dp2007
g53
(dp2008
g73
g74
ssg62
g2002
sg55
(lp2009
S'opponent_ID'
p2010
asbag48
(g69
g50
NtRp2011
(dp2012
g53
(dp2013
g80
g81
ssg62
g2002
sg55
(lp2014
S':'
asbag48
(g69
g50
NtRp2015
(dp2016
g53
(dp2017
sg62
g2002
sg55
(lp2018
g48
(g49
g50
NtRp2019
(dp2020
g53
(dp2021
g61
I4
ssg62
g2015
sg55
(lp2022
S'1'
asbasbasbag48
(g64
g50
NtRp2023
(dp2024
g53
(dp2025
sg62
g1977
sg55
(lp2026
g48
(g69
g50
NtRp2027
(dp2028
g53
(dp2029
g73
g74
ssg62
g2023
sg55
(lp2030
S'player_ID'
p2031
asbag48
(g69
g50
NtRp2032
(dp2033
g53
(dp2034
g80
g81
ssg62
g2023
sg55
(lp2035
S':'
asbag48
(g69
g50
NtRp2036
(dp2037
g53
(dp2038
sg62
g2023
sg55
(lp2039
g48
(g49
g50
NtRp2040
(dp2041
g53
(dp2042
g61
I4
ssg62
g2036
sg55
(lp2043
S'0'
asbasbasbasbasbasbasbag48
(g64
g50
NtRp2044
(dp2045
g53
(dp2046
sg62
g58
sg55
(lp2047
g48
(g69
g50
NtRp2048
(dp2049
g53
(dp2050
g73
g74
ssg62
g2044
sg55
(lp2051
S'global_settings'
p2052
asbag48
(g69
g50
NtRp2053
(dp2054
g53
(dp2055
g80
g81
ssg62
g2044
sg55
(lp2056
S':'
asbag48
(g69
g50
NtRp2057
(dp2058
g53
(dp2059
sg62
g2044
sg55
(lp2060
g48
(g49
g50
NtRp2061
(dp2062
g53
(dp2063
g61
I5
ssg62
g2057
sg55
(lp2064
g48
(g57
g50
NtRp2065
(dp2066
g53
(dp2067
g61
I4
ssg62
Nsg55
(lp2068
g48
(g64
g50
NtRp2069
(dp2070
g53
(dp2071
sg62
g2065
sg55
(lp2072
g48
(g69
g50
NtRp2073
(dp2074
g53
(dp2075
g73
g74
ssg62
g2069
sg55
(lp2076
g929
asbag48
(g69
g50
NtRp2077
(dp2078
g53
(dp2079
g80
g81
ssg62
g2069
sg55
(lp2080
S':'
asbag48
(g69
g50
NtRp2081
(dp2082
g53
(dp2083
sg62
g2069
sg55
(lp2084
g48
(g49
g50
NtRp2085
(dp2086
g53
(dp2087
g61
I4
ssg62
g2081
sg55
(lp2088
S"set(['D:\\\\git_projs\\\\Gabblista\\\\web2py\\\\web2py\\\\applications\\\\gabb1\\\\', 'D:\\\\git_projs\\\\Gabblista\\\\web2py\\\\web2py\\\\applications\\\\Gabb1\\\\', 'D:\\\\git_projs\\\\Gabblista\\\\web2py\\\\web2py\\\\applications\\\\admin\\\\', 'D:\\\\git_projs\\\\Gabblista\\\\web2py\\\\web2py\\\\applications\\\\welcome\\\\'])"
p2089
asbasbasbag48
(g64
g50
NtRp2090
(dp2091
g53
(dp2092
sg62
g2065
sg55
(lp2093
g48
(g69
g50
NtRp2094
(dp2095
g53
(dp2096
g73
g74
ssg62
g2090
sg55
(lp2097
g951
asbag48
(g69
g50
NtRp2098
(dp2099
g53
(dp2100
g80
g81
ssg62
g2090
sg55
(lp2101
S':'
asbag48
(g69
g50
NtRp2102
(dp2103
g53
(dp2104
sg62
g2090
sg55
(lp2105
g48
(g49
g50
NtRp2106
(dp2107
g53
(dp2108
g61
I4
ssg62
g2102
sg55
(lp2109
g964
asbasbasbag48
(g64
g50
NtRp2110
(dp2111
g53
(dp2112
sg62
g2065
sg55
(lp2113
g48
(g69
g50
NtRp2114
(dp2115
g53
(dp2116
g73
g74
ssg62
g2110
sg55
(lp2117
g973
asbag48
(g69
g50
NtRp2118
(dp2119
g53
(dp2120
g80
g81
ssg62
g2110
sg55
(lp2121
S':'
asbag48
(g69
g50
NtRp2122
(dp2123
g53
(dp2124
sg62
g2110
sg55
(lp2125
g48
(g49
g50
NtRp2126
(dp2127
g53
(dp2128
g61
I4
ssg62
g2122
sg55
(lp2129
g48
(g57
g50
NtRp2130
(dp2131
g53
(dp2132
g61
I3
ssg62
Nsg55
(lp2133
sbasbasbasbag48
(g64
g50
NtRp2134
(dp2135
g53
(dp2136
sg62
g2065
sg55
(lp2137
g48
(g69
g50
NtRp2138
(dp2139
g53
(dp2140
g73
g74
ssg62
g2134
sg55
(lp2141
g998
asbag48
(g69
g50
NtRp2142
(dp2143
g53
(dp2144
g80
g81
ssg62
g2134
sg55
(lp2145
S':'
asbag48
(g69
g50
NtRp2146
(dp2147
g53
(dp2148
sg62
g2134
sg55
(lp2149
g48
(g49
g50
NtRp2150
(dp2151
g53
(dp2152
g61
I4
ssg62
g2146
sg55
(lp2153
S"<Values at 0x325b800: {'verbose': False, 'ip': '127.0.0.1', 'shutdown_timeout': 5, 'taskbar': False, 'nocron': False, 'pid_filename': 'httpserver.pid', 'maxthreads': None, 'softcron': False, 'server_name': 'John-PC', 'bpython': False, 'nogui': False, 'port': 8000, 'extcron': False, 'debuglevel': 30, 'test': None, 'folder': 'D:\\\\git_projs\\\\Gabblista\\\\web2py\\\\web2py', 'config': '', 'import_models': False, 'winservice': '', 'shell': None, 'run': '', 'log_filename': 'httpserver.log', 'args': [''], 'ssl_ca_certificate': None, 'scheduler': None, 'profiler_filename': None, 'ssl_private_key': '', 'password': '<ask>', 'request_queue_size': 5, 'ssl_certificate': '', 'cronjob': False, 'plain': False, 'quiet': False, 'interfaces': None, 'minthreads': None, 'timeout': 10, 'numthreads': None, 'nobanner': False}>"
p2154
asbasbasbag48
(g64
g50
NtRp2155
(dp2156
g53
(dp2157
sg62
g2065
sg55
(lp2158
g48
(g69
g50
NtRp2159
(dp2160
g53
(dp2161
g73
g74
ssg62
g2155
sg55
(lp2162
g1020
asbag48
(g69
g50
NtRp2163
(dp2164
g53
(dp2165
g80
g81
ssg62
g2155
sg55
(lp2166
S':'
asbag48
(g69
g50
NtRp2167
(dp2168
g53
(dp2169
sg62
g2155
sg55
(lp2170
g48
(g49
g50
NtRp2171
(dp2172
g53
(dp2173
g61
I4
ssg62
g2167
sg55
(lp2174
S'set([])'
p2175
asbasbasbag48
(g64
g50
NtRp2176
(dp2177
g53
(dp2178
sg62
g2065
sg55
(lp2179
g48
(g69
g50
NtRp2180
(dp2181
g53
(dp2182
g73
g74
ssg62
g2176
sg55
(lp2183
g1042
asbag48
(g69
g50
NtRp2184
(dp2185
g53
(dp2186
g80
g81
ssg62
g2176
sg55
(lp2187
S':'
asbag48
(g69
g50
NtRp2188
(dp2189
g53
(dp2190
sg62
g2176
sg55
(lp2191
g48
(g49
g50
NtRp2192
(dp2193
g53
(dp2194
g61
I4
ssg62
g2188
sg55
(lp2195
g91
asbasbasbag48
(g64
g50
NtRp2196
(dp2197
g53
(dp2198
sg62
g2065
sg55
(lp2199
g48
(g69
g50
NtRp2200
(dp2201
g53
(dp2202
g73
g74
ssg62
g2196
sg55
(lp2203
g1063
asbag48
(g69
g50
NtRp2204
(dp2205
g53
(dp2206
g80
g81
ssg62
g2196
sg55
(lp2207
S':'
asbag48
(g69
g50
NtRp2208
(dp2209
g53
(dp2210
sg62
g2196
sg55
(lp2211
g48
(g49
g50
NtRp2212
(dp2213
g53
(dp2214
g61
I4
ssg62
g2208
sg55
(lp2215
g1076
asbasbasbag48
(g64
g50
NtRp2216
(dp2217
g53
(dp2218
sg62
g2065
sg55
(lp2219
g48
(g69
g50
NtRp2220
(dp2221
g53
(dp2222
g73
g74
ssg62
g2216
sg55
(lp2223
g1283
asbag48
(g69
g50
NtRp2224
(dp2225
g53
(dp2226
g80
g81
ssg62
g2216
sg55
(lp2227
S':'
asbag48
(g69
g50
NtRp2228
(dp2229
g53
(dp2230
sg62
g2216
sg55
(lp2231
g48
(g49
g50
NtRp2232
(dp2233
g53
(dp2234
g61
I4
ssg62
g2228
sg55
(lp2235
g91
asbasbasbag48
(g64
g50
NtRp2236
(dp2237
g53
(dp2238
sg62
g2065
sg55
(lp2239
g48
(g69
g50
NtRp2240
(dp2241
g53
(dp2242
g73
g74
ssg62
g2236
sg55
(lp2243
g1544
asbag48
(g69
g50
NtRp2244
(dp2245
g53
(dp2246
g80
g81
ssg62
g2236
sg55
(lp2247
S':'
asbag48
(g69
g50
NtRp2248
(dp2249
g53
(dp2250
sg62
g2236
sg55
(lp2251
g48
(g49
g50
NtRp2252
(dp2253
g53
(dp2254
g61
I4
ssg62
g2248
sg55
(lp2255
g1557
asbasbasbag48
(g64
g50
NtRp2256
(dp2257
g53
(dp2258
sg62
g2065
sg55
(lp2259
g48
(g69
g50
NtRp2260
(dp2261
g53
(dp2262
g73
g74
ssg62
g2256
sg55
(lp2263
g1609
asbag48
(g69
g50
NtRp2264
(dp2265
g53
(dp2266
g80
g81
ssg62
g2256
sg55
(lp2267
S':'
asbag48
(g69
g50
NtRp2268
(dp2269
g53
(dp2270
sg62
g2256
sg55
(lp2271
g48
(g49
g50
NtRp2272
(dp2273
g53
(dp2274
g61
I4
ssg62
g2268
sg55
(lp2275
g48
(g57
g50
NtRp2276
(dp2277
g53
(dp2278
g61
I3
ssg62
Nsg55
(lp2279
g48
(g64
g50
NtRp2280
(dp2281
g53
(dp2282
sg62
g2276
sg55
(lp2283
g48
(g69
g50
NtRp2284
(dp2285
g53
(dp2286
sg62
g2280
sg55
(lp2287
g48
(g49
g50
NtRp2288
(dp2289
g53
(dp2290
g61
I3
ssg62
g2284
sg55
(lp2291
S'1'
asbasbasbag48
(g64
g50
NtRp2292
(dp2293
g53
(dp2294
sg62
g2276
sg55
(lp2295
g48
(g69
g50
NtRp2296
(dp2297
g53
(dp2298
sg62
g2292
sg55
(lp2299
g48
(g49
g50
NtRp2300
(dp2301
g53
(dp2302
g61
I3
ssg62
g2296
sg55
(lp2303
S'99'
p2304
asbasbasbag48
(g64
g50
NtRp2305
(dp2306
g53
(dp2307
sg62
g2276
sg55
(lp2308
g48
(g69
g50
NtRp2309
(dp2310
g53
(dp2311
sg62
g2305
sg55
(lp2312
g48
(g49
g50
NtRp2313
(dp2314
g53
(dp2315
g61
I3
ssg62
g2309
sg55
(lp2316
S'2'
asbasbasbag48
(g64
g50
NtRp2317
(dp2318
g53
(dp2319
sg62
g2276
sg55
(lp2320
g48
(g69
g50
NtRp2321
(dp2322
g53
(dp2323
sg62
g2317
sg55
(lp2324
g48
(g49
g50
NtRp2325
(dp2326
g53
(dp2327
g61
I3
ssg62
g2321
sg55
(lp2328
S'datetime.datetime(2011, 9, 26, 6, 55, 33)'
p2329
asbasbasbag48
(g64
g50
NtRp2330
(dp2331
g53
(dp2332
sg62
g2276
sg55
(lp2333
g48
(g69
g50
NtRp2334
(dp2335
g53
(dp2336
sg62
g2330
sg55
(lp2337
g48
(g49
g50
NtRp2338
(dp2339
g53
(dp2340
g61
I3
ssg62
g2334
sg55
(lp2341
g1688
asbasbasbasbasbasbasbasbasbasbasbag48
(g64
g50
NtRp2342
(dp2343
g53
(dp2344
sg62
g58
sg55
(lp2345
g48
(g69
g50
NtRp2346
(dp2347
g53
(dp2348
g73
g74
ssg62
g2342
sg55
(lp2349
S'is_https'
p2350
asbag48
(g69
g50
NtRp2351
(dp2352
g53
(dp2353
g80
g81
ssg62
g2342
sg55
(lp2354
S':'
asbag48
(g69
g50
NtRp2355
(dp2356
g53
(dp2357
sg62
g2342
sg55
(lp2358
g48
(g49
g50
NtRp2359
(dp2360
g53
(dp2361
g61
I5
ssg62
g2355
sg55
(lp2362
g91
asbasbasbag48
(g64
g50
NtRp2363
(dp2364
g53
(dp2365
sg62
g58
sg55
(lp2366
g48
(g69
g50
NtRp2367
(dp2368
g53
(dp2369
g73
g74
ssg62
g2363
sg55
(lp2370
S'is_local'
p2371
asbag48
(g69
g50
NtRp2372
(dp2373
g53
(dp2374
g80
g81
ssg62
g2363
sg55
(lp2375
S':'
asbag48
(g69
g50
NtRp2376
(dp2377
g53
(dp2378
sg62
g2363
sg55
(lp2379
g48
(g49
g50
NtRp2380
(dp2381
g53
(dp2382
g61
I5
ssg62
g2376
sg55
(lp2383
g1797
asbasbasbag48
(g64
g50
NtRp2384
(dp2385
g53
(dp2386
sg62
g58
sg55
(lp2387
g48
(g69
g50
NtRp2388
(dp2389
g53
(dp2390
g73
g74
ssg62
g2384
sg55
(lp2391
S'is_restful'
p2392
asbag48
(g69
g50
NtRp2393
(dp2394
g53
(dp2395
g80
g81
ssg62
g2384
sg55
(lp2396
S':'
asbag48
(g69
g50
NtRp2397
(dp2398
g53
(dp2399
sg62
g2384
sg55
(lp2400
g48
(g49
g50
NtRp2401
(dp2402
g53
(dp2403
g61
I5
ssg62
g2397
sg55
(lp2404
g91
asbasbasbag48
(g64
g50
NtRp2405
(dp2406
g53
(dp2407
sg62
g58
sg55
(lp2408
g48
(g69
g50
NtRp2409
(dp2410
g53
(dp2411
g73
g74
ssg62
g2405
sg55
(lp2412
S'now'
p2413
asbag48
(g69
g50
NtRp2414
(dp2415
g53
(dp2416
g80
g81
ssg62
g2405
sg55
(lp2417
S':'
asbag48
(g69
g50
NtRp2418
(dp2419
g53
(dp2420
sg62
g2405
sg55
(lp2421
g48
(g49
g50
NtRp2422
(dp2423
g53
(dp2424
g61
I5
ssg62
g2418
sg55
(lp2425
S'datetime.datetime(2012, 1, 19, 14, 49, 28, 253000)'
p2426
asbasbasbag48
(g64
g50
NtRp2427
(dp2428
g53
(dp2429
sg62
g58
sg55
(lp2430
g48
(g69
g50
NtRp2431
(dp2432
g53
(dp2433
g73
g74
ssg62
g2427
sg55
(lp2434
S'post_vars'
p2435
asbag48
(g69
g50
NtRp2436
(dp2437
g53
(dp2438
g80
g81
ssg62
g2427
sg55
(lp2439
S':'
asbag48
(g69
g50
NtRp2440
(dp2441
g53
(dp2442
sg62
g2427
sg55
(lp2443
g48
(g49
g50
NtRp2444
(dp2445
g53
(dp2446
g61
I5
ssg62
g2440
sg55
(lp2447
g48
(g57
g50
NtRp2448
(dp2449
g53
(dp2450
g61
I4
ssg62
Nsg55
(lp2451
sbasbasbasbag48
(g64
g50
NtRp2452
(dp2453
g53
(dp2454
sg62
g58
sg55
(lp2455
g48
(g69
g50
NtRp2456
(dp2457
g53
(dp2458
g73
g74
ssg62
g2452
sg55
(lp2459
S'raw_extension'
p2460
asbag48
(g69
g50
NtRp2461
(dp2462
g53
(dp2463
g80
g81
ssg62
g2452
sg55
(lp2464
S':'
asbag48
(g69
g50
NtRp2465
(dp2466
g53
(dp2467
sg62
g2452
sg55
(lp2468
g48
(g49
g50
NtRp2469
(dp2470
g53
(dp2471
g61
I5
ssg62
g2465
sg55
(lp2472
g1911
asbasbasbag48
(g64
g50
NtRp2473
(dp2474
g53
(dp2475
sg62
g58
sg55
(lp2476
g48
(g69
g50
NtRp2477
(dp2478
g53
(dp2479
g73
g74
ssg62
g2473
sg55
(lp2480
S'url'
p2481
asbag48
(g69
g50
NtRp2482
(dp2483
g53
(dp2484
g80
g81
ssg62
g2473
sg55
(lp2485
S':'
asbag48
(g69
g50
NtRp2486
(dp2487
g53
(dp2488
sg62
g2473
sg55
(lp2489
g48
(g49
g50
NtRp2490
(dp2491
g53
(dp2492
g61
I5
ssg62
g2486
sg55
(lp2493
S'/Gabb1/fb_serv/serve_player_data.txt'
p2494
asbasbasbag48
(g64
g50
NtRp2495
(dp2496
g53
(dp2497
sg62
g58
sg55
(lp2498
g48
(g69
g50
NtRp2499
(dp2500
g53
(dp2501
g73
g74
ssg62
g2495
sg55
(lp2502
S'utcnow'
p2503
asbag48
(g69
g50
NtRp2504
(dp2505
g53
(dp2506
g80
g81
ssg62
g2495
sg55
(lp2507
S':'
asbag48
(g69
g50
NtRp2508
(dp2509
g53
(dp2510
sg62
g2495
sg55
(lp2511
g48
(g49
g50
NtRp2512
(dp2513
g53
(dp2514
g61
I5
ssg62
g2508
sg55
(lp2515
S'datetime.datetime(2012, 1, 19, 19, 49, 28, 253000)'
p2516
asbasbasbag48
(g64
g50
NtRp2517
(dp2518
g53
(dp2519
sg62
g58
sg55
(lp2520
g48
(g69
g50
NtRp2521
(dp2522
g53
(dp2523
g73
g74
ssg62
g2517
sg55
(lp2524
S'uuid'
p2525
asbag48
(g69
g50
NtRp2526
(dp2527
g53
(dp2528
g80
g81
ssg62
g2517
sg55
(lp2529
S':'
asbag48
(g69
g50
NtRp2530
(dp2531
g53
(dp2532
sg62
g2517
sg55
(lp2533
g48
(g49
g50
NtRp2534
(dp2535
g53
(dp2536
g61
I5
ssg62
g2530
sg55
(lp2537
S'Gabb1/127.0.0.1.2012-01-19.14-49-28.9b675593-4260-454d-9994-bac53f902bbd'
p2538
asbasbasbag48
(g64
g50
NtRp2539
(dp2540
g53
(dp2541
sg62
g58
sg55
(lp2542
g48
(g69
g50
NtRp2543
(dp2544
g53
(dp2545
g73
g74
ssg62
g2539
sg55
(lp2546
S'vars'
p2547
asbag48
(g69
g50
NtRp2548
(dp2549
g53
(dp2550
g80
g81
ssg62
g2539
sg55
(lp2551
S':'
asbag48
(g69
g50
NtRp2552
(dp2553
g53
(dp2554
sg62
g2539
sg55
(lp2555
g48
(g49
g50
NtRp2556
(dp2557
g53
(dp2558
g61
I5
ssg62
g2552
sg55
(lp2559
g48
(g57
g50
NtRp2560
(dp2561
g53
(dp2562
g61
I4
ssg62
Nsg55
(lp2563
g48
(g64
g50
NtRp2564
(dp2565
g53
(dp2566
sg62
g2560
sg55
(lp2567
g48
(g69
g50
NtRp2568
(dp2569
g53
(dp2570
g73
g74
ssg62
g2564
sg55
(lp2571
g1989
asbag48
(g69
g50
NtRp2572
(dp2573
g53
(dp2574
g80
g81
ssg62
g2564
sg55
(lp2575
S':'
asbag48
(g69
g50
NtRp2576
(dp2577
g53
(dp2578
sg62
g2564
sg55
(lp2579
g48
(g49
g50
NtRp2580
(dp2581
g53
(dp2582
g61
I4
ssg62
g2576
sg55
(lp2583
S'0'
asbasbasbag48
(g64
g50
NtRp2584
(dp2585
g53
(dp2586
sg62
g2560
sg55
(lp2587
g48
(g69
g50
NtRp2588
(dp2589
g53
(dp2590
g73
g74
ssg62
g2584
sg55
(lp2591
g2010
asbag48
(g69
g50
NtRp2592
(dp2593
g53
(dp2594
g80
g81
ssg62
g2584
sg55
(lp2595
S':'
asbag48
(g69
g50
NtRp2596
(dp2597
g53
(dp2598
sg62
g2584
sg55
(lp2599
g48
(g49
g50
NtRp2600
(dp2601
g53
(dp2602
g61
I4
ssg62
g2596
sg55
(lp2603
S'1'
asbasbasbag48
(g64
g50
NtRp2604
(dp2605
g53
(dp2606
sg62
g2560
sg55
(lp2607
g48
(g69
g50
NtRp2608
(dp2609
g53
(dp2610
g73
g74
ssg62
g2604
sg55
(lp2611
g2031
asbag48
(g69
g50
NtRp2612
(dp2613
g53
(dp2614
g80
g81
ssg62
g2604
sg55
(lp2615
S':'
asbag48
(g69
g50
NtRp2616
(dp2617
g53
(dp2618
sg62
g2604
sg55
(lp2619
g48
(g49
g50
NtRp2620
(dp2621
g53
(dp2622
g61
I4
ssg62
g2616
sg55
(lp2623
S'0'
asbasbasbasbasbasbasbag48
(g64
g50
NtRp2624
(dp2625
g53
(dp2626
sg62
g58
sg55
(lp2627
g48
(g69
g50
NtRp2628
(dp2629
g53
(dp2630
g73
g74
ssg62
g2624
sg55
(lp2631
S'wsgi'
p2632
asbag48
(g69
g50
NtRp2633
(dp2634
g53
(dp2635
g80
g81
ssg62
g2624
sg55
(lp2636
S':'
asbag48
(g69
g50
NtRp2637
(dp2638
g53
(dp2639
sg62
g2624
sg55
(lp2640
g48
(g49
g50
NtRp2641
(dp2642
g53
(dp2643
g61
I5
ssg62
g2637
sg55
(lp2644
g48
(g57
g50
NtRp2645
(dp2646
g53
(dp2647
g61
I4
ssg62
Nsg55
(lp2648
g48
(g64
g50
NtRp2649
(dp2650
g53
(dp2651
sg62
g2645
sg55
(lp2652
g48
(g69
g50
NtRp2653
(dp2654
g53
(dp2655
g73
g74
ssg62
g2649
sg55
(lp2656
S'environ'
p2657
asbag48
(g69
g50
NtRp2658
(dp2659
g53
(dp2660
g80
g81
ssg62
g2649
sg55
(lp2661
S':'
asbag48
(g69
g50
NtRp2662
(dp2663
g53
(dp2664
sg62
g2649
sg55
(lp2665
g48
(g49
g50
NtRp2666
(dp2667
g53
(dp2668
g61
I4
ssg62
g2662
sg55
(lp2669
g48
(g57
g50
NtRp2670
(dp2671
g53
(dp2672
g61
I3
ssg62
Nsg55
(lp2673
g48
(g64
g50
NtRp2674
(dp2675
g53
(dp2676
sg62
g2670
sg55
(lp2677
g48
(g69
g50
NtRp2678
(dp2679
g53
(dp2680
g73
g74
ssg62
g2674
sg55
(lp2681
S'HTTP_ACCEPT'
p2682
asbag48
(g69
g50
NtRp2683
(dp2684
g53
(dp2685
g80
g81
ssg62
g2674
sg55
(lp2686
S':'
asbag48
(g69
g50
NtRp2687
(dp2688
g53
(dp2689
sg62
g2674
sg55
(lp2690
g48
(g49
g50
NtRp2691
(dp2692
g53
(dp2693
g61
I3
ssg62
g2687
sg55
(lp2694
g1098
asbasbasbag48
(g64
g50
NtRp2695
(dp2696
g53
(dp2697
sg62
g2670
sg55
(lp2698
g48
(g69
g50
NtRp2699
(dp2700
g53
(dp2701
g73
g74
ssg62
g2695
sg55
(lp2702
S'HTTP_ACCEPT_CHARSET'
p2703
asbag48
(g69
g50
NtRp2704
(dp2705
g53
(dp2706
g80
g81
ssg62
g2695
sg55
(lp2707
S':'
asbag48
(g69
g50
NtRp2708
(dp2709
g53
(dp2710
sg62
g2695
sg55
(lp2711
g48
(g49
g50
NtRp2712
(dp2713
g53
(dp2714
g61
I3
ssg62
g2708
sg55
(lp2715
g1120
asbasbasbag48
(g64
g50
NtRp2716
(dp2717
g53
(dp2718
sg62
g2670
sg55
(lp2719
g48
(g69
g50
NtRp2720
(dp2721
g53
(dp2722
g73
g74
ssg62
g2716
sg55
(lp2723
S'HTTP_ACCEPT_ENCODING'
p2724
asbag48
(g69
g50
NtRp2725
(dp2726
g53
(dp2727
g80
g81
ssg62
g2716
sg55
(lp2728
S':'
asbag48
(g69
g50
NtRp2729
(dp2730
g53
(dp2731
sg62
g2716
sg55
(lp2732
g48
(g49
g50
NtRp2733
(dp2734
g53
(dp2735
g61
I3
ssg62
g2729
sg55
(lp2736
g1142
asbasbasbag48
(g64
g50
NtRp2737
(dp2738
g53
(dp2739
sg62
g2670
sg55
(lp2740
g48
(g69
g50
NtRp2741
(dp2742
g53
(dp2743
g73
g74
ssg62
g2737
sg55
(lp2744
S'HTTP_ACCEPT_LANGUAGE'
p2745
asbag48
(g69
g50
NtRp2746
(dp2747
g53
(dp2748
g80
g81
ssg62
g2737
sg55
(lp2749
S':'
asbag48
(g69
g50
NtRp2750
(dp2751
g53
(dp2752
sg62
g2737
sg55
(lp2753
g48
(g49
g50
NtRp2754
(dp2755
g53
(dp2756
g61
I3
ssg62
g2750
sg55
(lp2757
g1164
asbasbasbag48
(g64
g50
NtRp2758
(dp2759
g53
(dp2760
sg62
g2670
sg55
(lp2761
g48
(g69
g50
NtRp2762
(dp2763
g53
(dp2764
g73
g74
ssg62
g2758
sg55
(lp2765
S'HTTP_CACHE_CONTROL'
p2766
asbag48
(g69
g50
NtRp2767
(dp2768
g53
(dp2769
g80
g81
ssg62
g2758
sg55
(lp2770
S':'
asbag48
(g69
g50
NtRp2771
(dp2772
g53
(dp2773
sg62
g2758
sg55
(lp2774
g48
(g49
g50
NtRp2775
(dp2776
g53
(dp2777
g61
I3
ssg62
g2771
sg55
(lp2778
g1186
asbasbasbag48
(g64
g50
NtRp2779
(dp2780
g53
(dp2781
sg62
g2670
sg55
(lp2782
g48
(g69
g50
NtRp2783
(dp2784
g53
(dp2785
g73
g74
ssg62
g2779
sg55
(lp2786
S'HTTP_CONNECTION'
p2787
asbag48
(g69
g50
NtRp2788
(dp2789
g53
(dp2790
g80
g81
ssg62
g2779
sg55
(lp2791
S':'
asbag48
(g69
g50
NtRp2792
(dp2793
g53
(dp2794
sg62
g2779
sg55
(lp2795
g48
(g49
g50
NtRp2796
(dp2797
g53
(dp2798
g61
I3
ssg62
g2792
sg55
(lp2799
g1208
asbasbasbag48
(g64
g50
NtRp2800
(dp2801
g53
(dp2802
sg62
g2670
sg55
(lp2803
g48
(g69
g50
NtRp2804
(dp2805
g53
(dp2806
g73
g74
ssg62
g2800
sg55
(lp2807
S'HTTP_COOKIE'
p2808
asbag48
(g69
g50
NtRp2809
(dp2810
g53
(dp2811
g80
g81
ssg62
g2800
sg55
(lp2812
S':'
asbag48
(g69
g50
NtRp2813
(dp2814
g53
(dp2815
sg62
g2800
sg55
(lp2816
g48
(g49
g50
NtRp2817
(dp2818
g53
(dp2819
g61
I3
ssg62
g2813
sg55
(lp2820
g1230
asbasbasbag48
(g64
g50
NtRp2821
(dp2822
g53
(dp2823
sg62
g2670
sg55
(lp2824
g48
(g69
g50
NtRp2825
(dp2826
g53
(dp2827
g73
g74
ssg62
g2821
sg55
(lp2828
S'HTTP_HOST'
p2829
asbag48
(g69
g50
NtRp2830
(dp2831
g53
(dp2832
g80
g81
ssg62
g2821
sg55
(lp2833
S':'
asbag48
(g69
g50
NtRp2834
(dp2835
g53
(dp2836
sg62
g2821
sg55
(lp2837
g48
(g49
g50
NtRp2838
(dp2839
g53
(dp2840
g61
I3
ssg62
g2834
sg55
(lp2841
g1252
asbasbasbag48
(g64
g50
NtRp2842
(dp2843
g53
(dp2844
sg62
g2670
sg55
(lp2845
g48
(g69
g50
NtRp2846
(dp2847
g53
(dp2848
g73
g74
ssg62
g2842
sg55
(lp2849
S'HTTP_USER_AGENT'
p2850
asbag48
(g69
g50
NtRp2851
(dp2852
g53
(dp2853
g80
g81
ssg62
g2842
sg55
(lp2854
S':'
asbag48
(g69
g50
NtRp2855
(dp2856
g53
(dp2857
sg62
g2842
sg55
(lp2858
g48
(g49
g50
NtRp2859
(dp2860
g53
(dp2861
g61
I3
ssg62
g2855
sg55
(lp2862
g1274
asbasbasbag48
(g64
g50
NtRp2863
(dp2864
g53
(dp2865
sg62
g2670
sg55
(lp2866
g48
(g69
g50
NtRp2867
(dp2868
g53
(dp2869
g73
g74
ssg62
g2863
sg55
(lp2870
S'PATH_INFO'
p2871
asbag48
(g69
g50
NtRp2872
(dp2873
g53
(dp2874
g80
g81
ssg62
g2863
sg55
(lp2875
S':'
asbag48
(g69
g50
NtRp2876
(dp2877
g53
(dp2878
sg62
g2863
sg55
(lp2879
g48
(g49
g50
NtRp2880
(dp2881
g53
(dp2882
g61
I3
ssg62
g2876
sg55
(lp2883
g1317
asbasbasbag48
(g64
g50
NtRp2884
(dp2885
g53
(dp2886
sg62
g2670
sg55
(lp2887
g48
(g69
g50
NtRp2888
(dp2889
g53
(dp2890
g73
g74
ssg62
g2884
sg55
(lp2891
S'QUERY_STRING'
p2892
asbag48
(g69
g50
NtRp2893
(dp2894
g53
(dp2895
g80
g81
ssg62
g2884
sg55
(lp2896
S':'
asbag48
(g69
g50
NtRp2897
(dp2898
g53
(dp2899
sg62
g2884
sg55
(lp2900
g48
(g49
g50
NtRp2901
(dp2902
g53
(dp2903
g61
I3
ssg62
g2897
sg55
(lp2904
g1339
asbasbasbag48
(g64
g50
NtRp2905
(dp2906
g53
(dp2907
sg62
g2670
sg55
(lp2908
g48
(g69
g50
NtRp2909
(dp2910
g53
(dp2911
g73
g74
ssg62
g2905
sg55
(lp2912
S'REMOTE_ADDR'
p2913
asbag48
(g69
g50
NtRp2914
(dp2915
g53
(dp2916
g80
g81
ssg62
g2905
sg55
(lp2917
S':'
asbag48
(g69
g50
NtRp2918
(dp2919
g53
(dp2920
sg62
g2905
sg55
(lp2921
g48
(g49
g50
NtRp2922
(dp2923
g53
(dp2924
g61
I3
ssg62
g2918
sg55
(lp2925
g181
asbasbasbag48
(g64
g50
NtRp2926
(dp2927
g53
(dp2928
sg62
g2670
sg55
(lp2929
g48
(g69
g50
NtRp2930
(dp2931
g53
(dp2932
g73
g74
ssg62
g2926
sg55
(lp2933
S'REMOTE_PORT'
p2934
asbag48
(g69
g50
NtRp2935
(dp2936
g53
(dp2937
g80
g81
ssg62
g2926
sg55
(lp2938
S':'
asbag48
(g69
g50
NtRp2939
(dp2940
g53
(dp2941
sg62
g2926
sg55
(lp2942
g48
(g49
g50
NtRp2943
(dp2944
g53
(dp2945
g61
I3
ssg62
g2939
sg55
(lp2946
g1382
asbasbasbag48
(g64
g50
NtRp2947
(dp2948
g53
(dp2949
sg62
g2670
sg55
(lp2950
g48
(g69
g50
NtRp2951
(dp2952
g53
(dp2953
g73
g74
ssg62
g2947
sg55
(lp2954
S'REQUEST_METHOD'
p2955
asbag48
(g69
g50
NtRp2956
(dp2957
g53
(dp2958
g80
g81
ssg62
g2947
sg55
(lp2959
S':'
asbag48
(g69
g50
NtRp2960
(dp2961
g53
(dp2962
sg62
g2947
sg55
(lp2963
g48
(g49
g50
NtRp2964
(dp2965
g53
(dp2966
g61
I3
ssg62
g2960
sg55
(lp2967
g1404
asbasbasbag48
(g64
g50
NtRp2968
(dp2969
g53
(dp2970
sg62
g2670
sg55
(lp2971
g48
(g69
g50
NtRp2972
(dp2973
g53
(dp2974
g73
g74
ssg62
g2968
sg55
(lp2975
S'REQUEST_URI'
p2976
asbag48
(g69
g50
NtRp2977
(dp2978
g53
(dp2979
g80
g81
ssg62
g2968
sg55
(lp2980
S':'
asbag48
(g69
g50
NtRp2981
(dp2982
g53
(dp2983
sg62
g2968
sg55
(lp2984
g48
(g49
g50
NtRp2985
(dp2986
g53
(dp2987
g61
I3
ssg62
g2981
sg55
(lp2988
g1426
asbasbasbag48
(g64
g50
NtRp2989
(dp2990
g53
(dp2991
sg62
g2670
sg55
(lp2992
g48
(g69
g50
NtRp2993
(dp2994
g53
(dp2995
g73
g74
ssg62
g2989
sg55
(lp2996
S'SCRIPT_NAME'
p2997
asbag48
(g69
g50
NtRp2998
(dp2999
g53
(dp3000
g80
g81
ssg62
g2989
sg55
(lp3001
S':'
asbag48
(g69
g50
NtRp3002
(dp3003
g53
(dp3004
sg62
g2989
sg55
(lp3005
g48
(g49
g50
NtRp3006
(dp3007
g53
(dp3008
g61
I3
ssg62
g3002
sg55
(lp3009
S''
asbasbasbag48
(g64
g50
NtRp3010
(dp3011
g53
(dp3012
sg62
g2670
sg55
(lp3013
g48
(g69
g50
NtRp3014
(dp3015
g53
(dp3016
g73
g74
ssg62
g3010
sg55
(lp3017
S'SERVER_NAME'
p3018
asbag48
(g69
g50
NtRp3019
(dp3020
g53
(dp3021
g80
g81
ssg62
g3010
sg55
(lp3022
S':'
asbag48
(g69
g50
NtRp3023
(dp3024
g53
(dp3025
sg62
g3010
sg55
(lp3026
g48
(g49
g50
NtRp3027
(dp3028
g53
(dp3029
g61
I3
ssg62
g3023
sg55
(lp3030
g1469
asbasbasbag48
(g64
g50
NtRp3031
(dp3032
g53
(dp3033
sg62
g2670
sg55
(lp3034
g48
(g69
g50
NtRp3035
(dp3036
g53
(dp3037
g73
g74
ssg62
g3031
sg55
(lp3038
S'SERVER_PORT'
p3039
asbag48
(g69
g50
NtRp3040
(dp3041
g53
(dp3042
g80
g81
ssg62
g3031
sg55
(lp3043
S':'
asbag48
(g69
g50
NtRp3044
(dp3045
g53
(dp3046
sg62
g3031
sg55
(lp3047
g48
(g49
g50
NtRp3048
(dp3049
g53
(dp3050
g61
I3
ssg62
g3044
sg55
(lp3051
g1491
asbasbasbag48
(g64
g50
NtRp3052
(dp3053
g53
(dp3054
sg62
g2670
sg55
(lp3055
g48
(g69
g50
NtRp3056
(dp3057
g53
(dp3058
g73
g74
ssg62
g3052
sg55
(lp3059
S'SERVER_PROTOCOL'
p3060
asbag48
(g69
g50
NtRp3061
(dp3062
g53
(dp3063
g80
g81
ssg62
g3052
sg55
(lp3064
S':'
asbag48
(g69
g50
NtRp3065
(dp3066
g53
(dp3067
sg62
g3052
sg55
(lp3068
g48
(g49
g50
NtRp3069
(dp3070
g53
(dp3071
g61
I3
ssg62
g3065
sg55
(lp3072
g1513
asbasbasbag48
(g64
g50
NtRp3073
(dp3074
g53
(dp3075
sg62
g2670
sg55
(lp3076
g48
(g69
g50
NtRp3077
(dp3078
g53
(dp3079
g73
g74
ssg62
g3073
sg55
(lp3080
S'SERVER_SOFTWARE'
p3081
asbag48
(g69
g50
NtRp3082
(dp3083
g53
(dp3084
g80
g81
ssg62
g3073
sg55
(lp3085
S':'
asbag48
(g69
g50
NtRp3086
(dp3087
g53
(dp3088
sg62
g3073
sg55
(lp3089
g48
(g49
g50
NtRp3090
(dp3091
g53
(dp3092
g61
I3
ssg62
g3086
sg55
(lp3093
g1535
asbasbasbag48
(g64
g50
NtRp3094
(dp3095
g53
(dp3096
sg62
g2670
sg55
(lp3097
g48
(g69
g50
NtRp3098
(dp3099
g53
(dp3100
g73
g74
ssg62
g3094
sg55
(lp3101
S'WEB2PY_ORIGINAL_URI'
p3102
asbag48
(g69
g50
NtRp3103
(dp3104
g53
(dp3105
g80
g81
ssg62
g3094
sg55
(lp3106
S':'
asbag48
(g69
g50
NtRp3107
(dp3108
g53
(dp3109
sg62
g3094
sg55
(lp3110
g48
(g49
g50
NtRp3111
(dp3112
g53
(dp3113
g61
I3
ssg62
g3107
sg55
(lp3114
g1579
asbasbasbag48
(g64
g50
NtRp3115
(dp3116
g53
(dp3117
sg62
g2670
sg55
(lp3118
g48
(g69
g50
NtRp3119
(dp3120
g53
(dp3121
g73
g74
ssg62
g3115
sg55
(lp3122
S'wsgi.errors'
p3123
asbag48
(g69
g50
NtRp3124
(dp3125
g53
(dp3126
g80
g81
ssg62
g3115
sg55
(lp3127
S':'
asbag48
(g69
g50
NtRp3128
(dp3129
g53
(dp3130
sg62
g3115
sg55
(lp3131
g48
(g49
g50
NtRp3132
(dp3133
g53
(dp3134
g61
I3
ssg62
g3128
sg55
(lp3135
S"<open file '<stderr>', mode 'w' at 0x01D300B0>"
p3136
asbasbasbag48
(g64
g50
NtRp3137
(dp3138
g53
(dp3139
sg62
g2670
sg55
(lp3140
g48
(g69
g50
NtRp3141
(dp3142
g53
(dp3143
g73
g74
ssg62
g3137
sg55
(lp3144
S'wsgi.file_wrapper'
p3145
asbag48
(g69
g50
NtRp3146
(dp3147
g53
(dp3148
g80
g81
ssg62
g3137
sg55
(lp3149
S':'
asbag48
(g69
g50
NtRp3150
(dp3151
g53
(dp3152
sg62
g3137
sg55
(lp3153
g48
(g49
g50
NtRp3154
(dp3155
g53
(dp3156
g61
I3
ssg62
g3150
sg55
(lp3157
S'<class wsgiref.util.FileWrapper at 0x0318A600>'
p3158
asbasbasbag48
(g64
g50
NtRp3159
(dp3160
g53
(dp3161
sg62
g2670
sg55
(lp3162
g48
(g69
g50
NtRp3163
(dp3164
g53
(dp3165
g73
g74
ssg62
g3159
sg55
(lp3166
S'wsgi.input'
p3167
asbag48
(g69
g50
NtRp3168
(dp3169
g53
(dp3170
g80
g81
ssg62
g3159
sg55
(lp3171
S':'
asbag48
(g69
g50
NtRp3172
(dp3173
g53
(dp3174
sg62
g3159
sg55
(lp3175
g48
(g49
g50
NtRp3176
(dp3177
g53
(dp3178
g61
I3
ssg62
g3172
sg55
(lp3179
S'<cStringIO.StringO object at 0x07CF01C0>'
p3180
asbasbasbag48
(g64
g50
NtRp3181
(dp3182
g53
(dp3183
sg62
g2670
sg55
(lp3184
g48
(g69
g50
NtRp3185
(dp3186
g53
(dp3187
g73
g74
ssg62
g3181
sg55
(lp3188
S'wsgi.multiprocess'
p3189
asbag48
(g69
g50
NtRp3190
(dp3191
g53
(dp3192
g80
g81
ssg62
g3181
sg55
(lp3193
S':'
asbag48
(g69
g50
NtRp3194
(dp3195
g53
(dp3196
sg62
g3181
sg55
(lp3197
g48
(g49
g50
NtRp3198
(dp3199
g53
(dp3200
g61
I3
ssg62
g3194
sg55
(lp3201
g91
asbasbasbag48
(g64
g50
NtRp3202
(dp3203
g53
(dp3204
sg62
g2670
sg55
(lp3205
g48
(g69
g50
NtRp3206
(dp3207
g53
(dp3208
g73
g74
ssg62
g3202
sg55
(lp3209
S'wsgi.multithread'
p3210
asbag48
(g69
g50
NtRp3211
(dp3212
g53
(dp3213
g80
g81
ssg62
g3202
sg55
(lp3214
S':'
asbag48
(g69
g50
NtRp3215
(dp3216
g53
(dp3217
sg62
g3202
sg55
(lp3218
g48
(g49
g50
NtRp3219
(dp3220
g53
(dp3221
g61
I3
ssg62
g3215
sg55
(lp3222
g1797
asbasbasbag48
(g64
g50
NtRp3223
(dp3224
g53
(dp3225
sg62
g2670
sg55
(lp3226
g48
(g69
g50
NtRp3227
(dp3228
g53
(dp3229
g73
g74
ssg62
g3223
sg55
(lp3230
S'wsgi.run_once'
p3231
asbag48
(g69
g50
NtRp3232
(dp3233
g53
(dp3234
g80
g81
ssg62
g3223
sg55
(lp3235
S':'
asbag48
(g69
g50
NtRp3236
(dp3237
g53
(dp3238
sg62
g3223
sg55
(lp3239
g48
(g49
g50
NtRp3240
(dp3241
g53
(dp3242
g61
I3
ssg62
g3236
sg55
(lp3243
g91
asbasbasbag48
(g64
g50
NtRp3244
(dp3245
g53
(dp3246
sg62
g2670
sg55
(lp3247
g48
(g69
g50
NtRp3248
(dp3249
g53
(dp3250
g73
g74
ssg62
g3244
sg55
(lp3251
S'wsgi.url_scheme'
p3252
asbag48
(g69
g50
NtRp3253
(dp3254
g53
(dp3255
g80
g81
ssg62
g3244
sg55
(lp3256
S':'
asbag48
(g69
g50
NtRp3257
(dp3258
g53
(dp3259
sg62
g3244
sg55
(lp3260
g48
(g49
g50
NtRp3261
(dp3262
g53
(dp3263
g61
I3
ssg62
g3257
sg55
(lp3264
g1840
asbasbasbag48
(g64
g50
NtRp3265
(dp3266
g53
(dp3267
sg62
g2670
sg55
(lp3268
g48
(g69
g50
NtRp3269
(dp3270
g53
(dp3271
g73
g74
ssg62
g3265
sg55
(lp3272
S'wsgi.version'
p3273
asbag48
(g69
g50
NtRp3274
(dp3275
g53
(dp3276
g80
g81
ssg62
g3265
sg55
(lp3277
S':'
asbag48
(g69
g50
NtRp3278
(dp3279
g53
(dp3280
sg62
g3265
sg55
(lp3281
g48
(g49
g50
NtRp3282
(dp3283
g53
(dp3284
g61
I3
ssg62
g3278
sg55
(lp3285
S'1'
asbasbasbasbasbasbasbasbasbasbasbasbasbsS'frames'
p3286
(lp3287
(dp3288
S'file'
p3289
S'D:\\git_projs\\Gabblista\\web2py\\web2py\\gluon\\restricted.py'
p3290
sS'dump'
p3291
(dp3292
S'environment'
p3293
S"{'A': <class 'gluon.html.A'>, 'Auth': <class 'gluon.tools.Auth'>, 'B': <class 'gluon.html.B'>, 'BEAUTIFY': <class 'gluon.html.BEAUTIFY'>, 'BODY': <class 'gluon.html.BODY'>, 'BR': <class 'gluon.html.BR'>, 'BUTTON': <class 'gluon.html.BUTTON'>, 'CAT': <class 'gluon.html.CAT'>, 'CENTER': <class 'gluon.html.CENTER'>, 'CLEANUP': <class 'gluon.validators.CLEANUP'>, ...}"
p3294
sS'ccode'
p3295
S'<code object <module> at 07E9A020, file "D:\\git_...plications\\Gabb1\\controllers/fb_serv.py", line 2>'
p3296
ssS'lnum'
p3297
I194
sS'lines'
p3298
(dp3299
I192
S'        else:'
p3300
sI193
S'            ccode = compile2(code,layer)'
p3301
sI194
S'        exec ccode in environment'
p3302
sI195
S'    except HTTP:'
p3303
sI196
S'        raise'
p3304
sI197
S'    except Exception, error:'
p3305
sI198
S'        # XXX Show exception in Wing IDE if running in debugger'
p3306
sI189
S'    try:'
p3307
sI190
S'        if type(code) == types.CodeType:'
p3308
sI191
S'            ccode = code'
p3309
ssS'call'
p3310
S"(code='# -*- coding: utf-8 -*-\\nfrom random import Rando...sponse._vars=response._caller(serve_player_data)\\n', environment={'A': <class 'gluon.html.A'>, 'Auth': <class 'gluon.tools.Auth'>, 'B': <class 'gluon.html.B'>, 'BEAUTIFY': <class 'gluon.html.BEAUTIFY'>, 'BODY': <class 'gluon.html.BODY'>, 'BR': <class 'gluon.html.BR'>, 'BUTTON': <class 'gluon.html.BUTTON'>, 'CAT': <class 'gluon.html.CAT'>, 'CENTER': <class 'gluon.html.CENTER'>, 'CLEANUP': <class 'gluon.validators.CLEANUP'>, ...}, layer=r'D:\\git_projs\\Gabblista\\web2py\\web2py\\applications\\Gabb1\\controllers/fb_serv.py')"
p3311
sS'func'
p3312
S'restricted'
p3313
sa(dp3314
g3289
S'D:\\git_projs\\Gabblista\\web2py\\web2py\\applications\\Gabb1\\controllers\\fb_serv.py'
p3315
sg3291
(dp3316
sg3297
I116
sg3298
(dp3317
I106
S'    # 1 - 3x - 30%'
p3318
sI107
S'    # 2 - 4x - 10%'
p3319
sI108
S'    rand_int = random.randint(0,10)'
p3320
sI109
S''
sI110
S'    if rand_int < 6:'
p3321
sI111
S'        return "0"'
p3322
sI112
S'    elif rand_int <9:'
p3323
sI113
S'        return "1"'
p3324
sI114
S'    else:'
p3325
sI115
S'        return "2"'
p3326
ssg3310
S'()'
p3327
sg3312
S'<module>'
p3328
sa(dp3329
g3289
S'D:\\git_projs\\Gabblista\\web2py\\web2py\\gluon\\globals.py'
p3330
sg3291
(dp3331
S'self'
p3332
S'undefined'
p3333
sS'f'
S'<function serve_player_data at 0x07E960B0>'
p3334
ssg3297
I149
sg3298
(dp3335
I144
S'        self.meta = Storage()      # used by web2py_ajax.html'
p3336
sI145
S'        self.menu = []             # used by the default view layout'
p3337
sI146
S'        self.files = []            # used by web2py_ajax.html'
p3338
sI147
S'        self.generic_patterns = [] # patterns to allow generic views'
p3339
sI148
S'        self._vars = None'
p3340
sI149
S'        self._caller = lambda f: f()'
p3341
sI150
S'        self._view_environment = None'
p3342
sI151
S'        self._custom_commit = None'
p3343
sI152
S'        self._custom_rollback = None'
p3344
sI153
S''
ssg3310
S'(f=<function serve_player_data at 0x07E960B0>)'
p3345
sg3312
S'<lambda>'
p3346
sa(dp3347
g3289
S'D:\\git_projs\\Gabblista\\web2py\\web2py\\applications\\Gabb1\\controllers\\fb_serv.py'
p3348
sg3291
(dp3349
S'js_1'
p3350
g3333
ssg3297
I18
sg3298
(dp3351
I13
S''
sI14
S'    player_ID = request.vars.player_ID'
p3352
sI15
S'    opponent_ID = request.vars.opponent_ID'
p3353
sI16
S'    game_ID = request.vars.game_ID'
p3354
sI17
S''
sI18
S'    game_data_row = get_player_data(player_ID,opponent_ID,game_ID);'
p3355
sI19
S'    return dict(game_data_row=game_data_row)'
p3356
sI20
S''
sI21
S'def get_player_data(player_ID,opponent_ID,game_ID):'
p3357
sI22
S''
ssg3310
S'()'
p3358
sg3312
S'serve_player_data'
p3359
sa(dp3360
g3289
S'D:\\git_projs\\Gabblista\\web2py\\web2py\\applications\\Gabb1\\controllers\\fb_serv.py'
p3361
sg3291
(dp3362
sg3297
I26
sg3298
(dp3363
I21
S'def get_player_data(player_ID,opponent_ID,game_ID):'
p3364
sI22
S''
sI23
S'    # Generate the player data'
p3365
sI24
S'    if(int(game_ID)==0):'
p3366
sI25
S'        letter_data = generate_new_letter_data()'
p3367
sI26
S'        event_data = generate_new_event_data()'
p3368
sI27
S'#        db.game_data_table.insert(player_1_ID = int(player_ID),'
p3369
sI28
S'#                                  player_2_ID = int(opponent_ID),'
p3370
sI29
S'#                                  event_string = str(event_data),'
p3371
sI30
S'#                                  letter_string = str(letter_data)'
p3372
ssg3310
S"(player_ID='0', opponent_ID='1', game_ID='0')"
p3373
sg3312
S'get_player_data'
p3374
sa(dp3375
g3289
S'D:\\git_projs\\Gabblista\\web2py\\web2py\\applications\\Gabb1\\controllers\\fb_serv.py'
p3376
sg3291
(dp3377
sg3297
I50
sg3298
(dp3378
I45
S'    return letter_string'
p3379
sI46
S''
sI47
S'def generate_new_event_data():'
p3380
sI48
S'    # Go through and generate game data'
p3381
sI49
S'    NUM_EVENTS = 24 # 2 MINUTES. 1 EVENT EVERY 5 SECS'
p3382
sI50
S'    random_letter_events_string = get_random_letter_events_string(NUM_EVENTS2)'
p3383
sI51
S'    random_mult_events_string = get_random_mult_events_string(NUM_EVENTS/2)'
p3384
sI52
S'    return random_letter_events_string + random_mult_events_string'
p3385
sI53
S''
sI54
S'def get_random_letter_events_string(len_req):'
p3386
ssg3310
S'()'
p3387
sg3312
S'generate_new_event_data'
p3388
sasS'pyver'
p3389
S'Python 2.5.4: C:\\python25\\python.exe'
p3390
sS'session'
p3391
g48
(g49
g50
NtRp3392
(dp3393
g53
(dp3394
sg55
(lp3395
g48
(g57
g50
NtRp3396
(dp3397
g53
(dp3398
g61
I5
ssg62
Nsg55
(lp3399
sbasbsS'etype'
p3400
S"<type 'exceptions.NameError'>"
p3401
sS'date'
p3402
S'Thu Jan 19 14:49:28 2012'
p3403
sS'response'
p3404
g48
(g49
g50
NtRp3405
(dp3406
g53
(dp3407
sg55
(lp3408
g48
(g57
g50
NtRp3409
(dp3410
g53
(dp3411
g61
I5
ssg62
Nsg55
(lp3412
g48
(g64
g50
NtRp3413
(dp3414
g53
(dp3415
sg62
g3409
sg55
(lp3416
g48
(g69
g50
NtRp3417
(dp3418
g53
(dp3419
g73
g74
ssg62
g3413
sg55
(lp3420
g146
asbag48
(g69
g50
NtRp3421
(dp3422
g53
(dp3423
g80
g81
ssg62
g3413
sg55
(lp3424
S':'
asbag48
(g69
g50
NtRp3425
(dp3426
g53
(dp3427
sg62
g3413
sg55
(lp3428
g48
(g49
g50
NtRp3429
(dp3430
g53
(dp3431
g61
I5
ssg62
g3425
sg55
(lp3432
S'<cStringIO.StringO object at 0x07CF0700>'
p3433
asbasbasbag48
(g64
g50
NtRp3434
(dp3435
g53
(dp3436
sg62
g3409
sg55
(lp3437
g48
(g69
g50
NtRp3438
(dp3439
g53
(dp3440
g73
g74
ssg62
g3434
sg55
(lp3441
g212
asbag48
(g69
g50
NtRp3442
(dp3443
g53
(dp3444
g80
g81
ssg62
g3434
sg55
(lp3445
S':'
asbag48
(g69
g50
NtRp3446
(dp3447
g53
(dp3448
sg62
g3434
sg55
(lp3449
g48
(g49
g50
NtRp3450
(dp3451
g53
(dp3452
g61
I5
ssg62
g3446
sg55
(lp3453
g48
(g57
g50
NtRp3454
(dp3455
g53
(dp3456
g61
I4
ssg62
Nsg55
(lp3457
g48
(g64
g50
NtRp3458
(dp3459
g53
(dp3460
sg62
g3454
sg55
(lp3461
g48
(g69
g50
NtRp3462
(dp3463
g53
(dp3464
g73
g74
ssg62
g3458
sg55
(lp3465
S'session_id_gabb1'
p3466
asbag48
(g69
g50
NtRp3467
(dp3468
g53
(dp3469
g80
g81
ssg62
g3458
sg55
(lp3470
S':'
asbag48
(g69
g50
NtRp3471
(dp3472
g53
(dp3473
sg62
g3458
sg55
(lp3474
g48
(g49
g50
NtRp3475
(dp3476
g53
(dp3477
g61
I4
ssg62
g3471
sg55
(lp3478
g48
(g57
g50
NtRp3479
(dp3480
g53
(dp3481
g61
I3
ssg62
Nsg55
(lp3482
g48
(g64
g50
NtRp3483
(dp3484
g53
(dp3485
sg62
g3479
sg55
(lp3486
g48
(g69
g50
NtRp3487
(dp3488
g53
(dp3489
g73
g74
ssg62
g3483
sg55
(lp3490
g262
asbag48
(g69
g50
NtRp3491
(dp3492
g53
(dp3493
g80
g81
ssg62
g3483
sg55
(lp3494
S':'
asbag48
(g69
g50
NtRp3495
(dp3496
g53
(dp3497
sg62
g3483
sg55
(lp3498
g48
(g49
g50
NtRp3499
(dp3500
g53
(dp3501
g61
I3
ssg62
g3495
sg55
(lp3502
S''
asbasbasbag48
(g64
g50
NtRp3503
(dp3504
g53
(dp3505
sg62
g3479
sg55
(lp3506
g48
(g69
g50
NtRp3507
(dp3508
g53
(dp3509
g73
g74
ssg62
g3503
sg55
(lp3510
g283
asbag48
(g69
g50
NtRp3511
(dp3512
g53
(dp3513
g80
g81
ssg62
g3503
sg55
(lp3514
S':'
asbag48
(g69
g50
NtRp3515
(dp3516
g53
(dp3517
sg62
g3503
sg55
(lp3518
g48
(g49
g50
NtRp3519
(dp3520
g53
(dp3521
g61
I3
ssg62
g3515
sg55
(lp3522
S''
asbasbasbag48
(g64
g50
NtRp3523
(dp3524
g53
(dp3525
sg62
g3479
sg55
(lp3526
g48
(g69
g50
NtRp3527
(dp3528
g53
(dp3529
g73
g74
ssg62
g3523
sg55
(lp3530
g304
asbag48
(g69
g50
NtRp3531
(dp3532
g53
(dp3533
g80
g81
ssg62
g3523
sg55
(lp3534
S':'
asbag48
(g69
g50
NtRp3535
(dp3536
g53
(dp3537
sg62
g3523
sg55
(lp3538
g48
(g49
g50
NtRp3539
(dp3540
g53
(dp3541
g61
I3
ssg62
g3535
sg55
(lp3542
S''
asbasbasbag48
(g64
g50
NtRp3543
(dp3544
g53
(dp3545
sg62
g3479
sg55
(lp3546
g48
(g69
g50
NtRp3547
(dp3548
g53
(dp3549
g73
g74
ssg62
g3543
sg55
(lp3550
g325
asbag48
(g69
g50
NtRp3551
(dp3552
g53
(dp3553
g80
g81
ssg62
g3543
sg55
(lp3554
S':'
asbag48
(g69
g50
NtRp3555
(dp3556
g53
(dp3557
sg62
g3543
sg55
(lp3558
g48
(g49
g50
NtRp3559
(dp3560
g53
(dp3561
g61
I3
ssg62
g3555
sg55
(lp3562
S''
asbasbasbag48
(g64
g50
NtRp3563
(dp3564
g53
(dp3565
sg62
g3479
sg55
(lp3566
g48
(g69
g50
NtRp3567
(dp3568
g53
(dp3569
g73
g74
ssg62
g3563
sg55
(lp3570
g346
asbag48
(g69
g50
NtRp3571
(dp3572
g53
(dp3573
g80
g81
ssg62
g3563
sg55
(lp3574
S':'
asbag48
(g69
g50
NtRp3575
(dp3576
g53
(dp3577
sg62
g3563
sg55
(lp3578
g48
(g49
g50
NtRp3579
(dp3580
g53
(dp3581
g61
I3
ssg62
g3575
sg55
(lp3582
S'/'
asbasbasbag48
(g64
g50
NtRp3583
(dp3584
g53
(dp3585
sg62
g3479
sg55
(lp3586
g48
(g69
g50
NtRp3587
(dp3588
g53
(dp3589
g73
g74
ssg62
g3583
sg55
(lp3590
g367
asbag48
(g69
g50
NtRp3591
(dp3592
g53
(dp3593
g80
g81
ssg62
g3583
sg55
(lp3594
S':'
asbag48
(g69
g50
NtRp3595
(dp3596
g53
(dp3597
sg62
g3583
sg55
(lp3598
g48
(g49
g50
NtRp3599
(dp3600
g53
(dp3601
g61
I3
ssg62
g3595
sg55
(lp3602
S''
asbasbasbag48
(g64
g50
NtRp3603
(dp3604
g53
(dp3605
sg62
g3479
sg55
(lp3606
g48
(g69
g50
NtRp3607
(dp3608
g53
(dp3609
g73
g74
ssg62
g3603
sg55
(lp3610
g388
asbag48
(g69
g50
NtRp3611
(dp3612
g53
(dp3613
g80
g81
ssg62
g3603
sg55
(lp3614
S':'
asbag48
(g69
g50
NtRp3615
(dp3616
g53
(dp3617
sg62
g3603
sg55
(lp3618
g48
(g49
g50
NtRp3619
(dp3620
g53
(dp3621
g61
I3
ssg62
g3615
sg55
(lp3622
S''
asbasbasbasbasbasbasbasbasbasbasbag48
(g64
g50
NtRp3623
(dp3624
g53
(dp3625
sg62
g3409
sg55
(lp3626
g48
(g69
g50
NtRp3627
(dp3628
g53
(dp3629
g73
g74
ssg62
g3623
sg55
(lp3630
S'files'
p3631
asbag48
(g69
g50
NtRp3632
(dp3633
g53
(dp3634
g80
g81
ssg62
g3623
sg55
(lp3635
S':'
asbag48
(g69
g50
NtRp3636
(dp3637
g53
(dp3638
sg62
g3623
sg55
(lp3639
g48
(g49
g50
NtRp3640
(dp3641
g53
(dp3642
g61
I5
ssg62
g3636
sg55
(lp3643
g48
(g57
g50
NtRp3644
(dp3645
g53
(dp3646
g61
I4
ssg62
Nsg55
(lp3647
sbasbasbasbag48
(g64
g50
NtRp3648
(dp3649
g53
(dp3650
sg62
g3409
sg55
(lp3651
g48
(g69
g50
NtRp3652
(dp3653
g53
(dp3654
g73
g74
ssg62
g3648
sg55
(lp3655
S'flash'
p3656
asbag48
(g69
g50
NtRp3657
(dp3658
g53
(dp3659
g80
g81
ssg62
g3648
sg55
(lp3660
S':'
asbag48
(g69
g50
NtRp3661
(dp3662
g53
(dp3663
sg62
g3648
sg55
(lp3664
g48
(g49
g50
NtRp3665
(dp3666
g53
(dp3667
g61
I5
ssg62
g3661
sg55
(lp3668
S''
asbasbasbag48
(g64
g50
NtRp3669
(dp3670
g53
(dp3671
sg62
g3409
sg55
(lp3672
g48
(g69
g50
NtRp3673
(dp3674
g53
(dp3675
g73
g74
ssg62
g3669
sg55
(lp3676
S'generic_patterns'
p3677
asbag48
(g69
g50
NtRp3678
(dp3679
g53
(dp3680
g80
g81
ssg62
g3669
sg55
(lp3681
S':'
asbag48
(g69
g50
NtRp3682
(dp3683
g53
(dp3684
sg62
g3669
sg55
(lp3685
g48
(g49
g50
NtRp3686
(dp3687
g53
(dp3688
g61
I5
ssg62
g3682
sg55
(lp3689
g48
(g57
g50
NtRp3690
(dp3691
g53
(dp3692
g61
I4
ssg62
Nsg55
(lp3693
g48
(g64
g50
NtRp3694
(dp3695
g53
(dp3696
sg62
g3690
sg55
(lp3697
g48
(g69
g50
NtRp3698
(dp3699
g53
(dp3700
sg62
g3694
sg55
(lp3701
g48
(g49
g50
NtRp3702
(dp3703
g53
(dp3704
g61
I4
ssg62
g3698
sg55
(lp3705
S'*'
asbasbasbasbasbasbasbag48
(g64
g50
NtRp3706
(dp3707
g53
(dp3708
sg62
g3409
sg55
(lp3709
g48
(g69
g50
NtRp3710
(dp3711
g53
(dp3712
g73
g74
ssg62
g3706
sg55
(lp3713
S'headers'
p3714
asbag48
(g69
g50
NtRp3715
(dp3716
g53
(dp3717
g80
g81
ssg62
g3706
sg55
(lp3718
S':'
asbag48
(g69
g50
NtRp3719
(dp3720
g53
(dp3721
sg62
g3706
sg55
(lp3722
g48
(g49
g50
NtRp3723
(dp3724
g53
(dp3725
g61
I5
ssg62
g3719
sg55
(lp3726
g48
(g57
g50
NtRp3727
(dp3728
g53
(dp3729
g61
I4
ssg62
Nsg55
(lp3730
g48
(g64
g50
NtRp3731
(dp3732
g53
(dp3733
sg62
g3727
sg55
(lp3734
g48
(g69
g50
NtRp3735
(dp3736
g53
(dp3737
g73
g74
ssg62
g3731
sg55
(lp3738
S'Cache-Control'
p3739
asbag48
(g69
g50
NtRp3740
(dp3741
g53
(dp3742
g80
g81
ssg62
g3731
sg55
(lp3743
S':'
asbag48
(g69
g50
NtRp3744
(dp3745
g53
(dp3746
sg62
g3731
sg55
(lp3747
g48
(g49
g50
NtRp3748
(dp3749
g53
(dp3750
g61
I4
ssg62
g3744
sg55
(lp3751
S'no-store, no-cache, must-revalidate, post-check=0, pre-check=0'
p3752
asbasbasbag48
(g64
g50
NtRp3753
(dp3754
g53
(dp3755
sg62
g3727
sg55
(lp3756
g48
(g69
g50
NtRp3757
(dp3758
g53
(dp3759
g73
g74
ssg62
g3753
sg55
(lp3760
S'Content-Type'
p3761
asbag48
(g69
g50
NtRp3762
(dp3763
g53
(dp3764
g80
g81
ssg62
g3753
sg55
(lp3765
S':'
asbag48
(g69
g50
NtRp3766
(dp3767
g53
(dp3768
sg62
g3753
sg55
(lp3769
g48
(g49
g50
NtRp3770
(dp3771
g53
(dp3772
g61
I4
ssg62
g3766
sg55
(lp3773
S'text/plain; charset=utf-8'
p3774
asbasbasbag48
(g64
g50
NtRp3775
(dp3776
g53
(dp3777
sg62
g3727
sg55
(lp3778
g48
(g69
g50
NtRp3779
(dp3780
g53
(dp3781
g73
g74
ssg62
g3775
sg55
(lp3782
S'Expires'
p3783
asbag48
(g69
g50
NtRp3784
(dp3785
g53
(dp3786
g80
g81
ssg62
g3775
sg55
(lp3787
S':'
asbag48
(g69
g50
NtRp3788
(dp3789
g53
(dp3790
sg62
g3775
sg55
(lp3791
g48
(g49
g50
NtRp3792
(dp3793
g53
(dp3794
g61
I4
ssg62
g3788
sg55
(lp3795
S'Thu, 19 Jan 2012 19:49:28 GMT'
p3796
asbasbasbag48
(g64
g50
NtRp3797
(dp3798
g53
(dp3799
sg62
g3727
sg55
(lp3800
g48
(g69
g50
NtRp3801
(dp3802
g53
(dp3803
g73
g74
ssg62
g3797
sg55
(lp3804
S'NingNang'
p3805
asbag48
(g69
g50
NtRp3806
(dp3807
g53
(dp3808
g80
g81
ssg62
g3797
sg55
(lp3809
S':'
asbag48
(g69
g50
NtRp3810
(dp3811
g53
(dp3812
sg62
g3797
sg55
(lp3813
g48
(g49
g50
NtRp3814
(dp3815
g53
(dp3816
g61
I4
ssg62
g3810
sg55
(lp3817
S'Nong'
p3818
asbasbasbag48
(g64
g50
NtRp3819
(dp3820
g53
(dp3821
sg62
g3727
sg55
(lp3822
g48
(g69
g50
NtRp3823
(dp3824
g53
(dp3825
g73
g74
ssg62
g3819
sg55
(lp3826
S'Pragma'
p3827
asbag48
(g69
g50
NtRp3828
(dp3829
g53
(dp3830
g80
g81
ssg62
g3819
sg55
(lp3831
S':'
asbag48
(g69
g50
NtRp3832
(dp3833
g53
(dp3834
sg62
g3819
sg55
(lp3835
g48
(g49
g50
NtRp3836
(dp3837
g53
(dp3838
g61
I4
ssg62
g3832
sg55
(lp3839
S'no-cache'
p3840
asbasbasbasbasbasbasbag48
(g64
g50
NtRp3841
(dp3842
g53
(dp3843
sg62
g3409
sg55
(lp3844
g48
(g69
g50
NtRp3845
(dp3846
g53
(dp3847
g73
g74
ssg62
g3841
sg55
(lp3848
S'menu'
p3849
asbag48
(g69
g50
NtRp3850
(dp3851
g53
(dp3852
g80
g81
ssg62
g3841
sg55
(lp3853
S':'
asbag48
(g69
g50
NtRp3854
(dp3855
g53
(dp3856
sg62
g3841
sg55
(lp3857
g48
(g49
g50
NtRp3858
(dp3859
g53
(dp3860
g61
I5
ssg62
g3854
sg55
(lp3861
g48
(g57
g50
NtRp3862
(dp3863
g53
(dp3864
g61
I4
ssg62
Nsg55
(lp3865
g48
(g64
g50
NtRp3866
(dp3867
g53
(dp3868
sg62
g3862
sg55
(lp3869
g48
(g69
g50
NtRp3870
(dp3871
g53
(dp3872
sg62
g3866
sg55
(lp3873
g48
(g49
g50
NtRp3874
(dp3875
g53
(dp3876
g61
I4
ssg62
g3870
sg55
(lp3877
g48
(g57
g50
NtRp3878
(dp3879
g53
(dp3880
g61
I3
ssg62
Nsg55
(lp3881
g48
(g64
g50
NtRp3882
(dp3883
g53
(dp3884
sg62
g3878
sg55
(lp3885
g48
(g69
g50
NtRp3886
(dp3887
g53
(dp3888
sg62
g3882
sg55
(lp3889
g48
(g49
g50
NtRp3890
(dp3891
g53
(dp3892
g61
I3
ssg62
g3886
sg55
(lp3893
cgluon.languages
lazyT_unpickle
p3894
(S's\x04\x00\x00\x00Home'
tRp3895
asbasbasbag48
(g64
g50
NtRp3896
(dp3897
g53
(dp3898
sg62
g3878
sg55
(lp3899
g48
(g69
g50
NtRp3900
(dp3901
g53
(dp3902
sg62
g3896
sg55
(lp3903
g48
(g49
g50
NtRp3904
(dp3905
g53
(dp3906
g61
I3
ssg62
g3900
sg55
(lp3907
g91
asbasbasbag48
(g64
g50
NtRp3908
(dp3909
g53
(dp3910
sg62
g3878
sg55
(lp3911
g48
(g69
g50
NtRp3912
(dp3913
g53
(dp3914
sg62
g3908
sg55
(lp3915
g48
(g49
g50
NtRp3916
(dp3917
g53
(dp3918
g61
I3
ssg62
g3912
sg55
(lp3919
S'/Gabb1/default/index.txt'
p3920
asbasbasbag48
(g64
g50
NtRp3921
(dp3922
g53
(dp3923
sg62
g3878
sg55
(lp3924
g48
(g69
g50
NtRp3925
(dp3926
g53
(dp3927
sg62
g3921
sg55
(lp3928
g48
(g49
g50
NtRp3929
(dp3930
g53
(dp3931
g61
I3
ssg62
g3925
sg55
(lp3932
g48
(g57
g50
NtRp3933
(dp3934
g53
(dp3935
g61
I2
ssg62
Nsg55
(lp3936
sbasbasbasbasbasbasbasbag48
(g64
g50
NtRp3937
(dp3938
g53
(dp3939
sg62
g3862
sg55
(lp3940
g48
(g69
g50
NtRp3941
(dp3942
g53
(dp3943
sg62
g3937
sg55
(lp3944
g48
(g49
g50
NtRp3945
(dp3946
g53
(dp3947
g61
I4
ssg62
g3941
sg55
(lp3948
g48
(g57
g50
NtRp3949
(dp3950
g53
(dp3951
g61
I3
ssg62
Nsg55
(lp3952
g48
(g64
g50
NtRp3953
(dp3954
g53
(dp3955
sg62
g3949
sg55
(lp3956
g48
(g69
g50
NtRp3957
(dp3958
g53
(dp3959
sg62
g3953
sg55
(lp3960
g48
(g49
g50
NtRp3961
(dp3962
g53
(dp3963
g61
I3
ssg62
g3957
sg55
(lp3964
g3894
(S's\x08\x00\x00\x00This App'
tRp3965
asbasbasbag48
(g64
g50
NtRp3966
(dp3967
g53
(dp3968
sg62
g3949
sg55
(lp3969
g48
(g69
g50
NtRp3970
(dp3971
g53
(dp3972
sg62
g3966
sg55
(lp3973
g48
(g49
g50
NtRp3974
(dp3975
g53
(dp3976
g61
I3
ssg62
g3970
sg55
(lp3977
g91
asbasbasbag48
(g64
g50
NtRp3978
(dp3979
g53
(dp3980
sg62
g3949
sg55
(lp3981
g48
(g69
g50
NtRp3982
(dp3983
g53
(dp3984
sg62
g3978
sg55
(lp3985
g48
(g49
g50
NtRp3986
(dp3987
g53
(dp3988
g61
I3
ssg62
g3982
sg55
(lp3989
S'/admin/default/design/Gabb1.txt'
p3990
asbasbasbag48
(g64
g50
NtRp3991
(dp3992
g53
(dp3993
sg62
g3949
sg55
(lp3994
g48
(g69
g50
NtRp3995
(dp3996
g53
(dp3997
sg62
g3991
sg55
(lp3998
g48
(g49
g50
NtRp3999
(dp4000
g53
(dp4001
g61
I3
ssg62
g3995
sg55
(lp4002
g48
(g57
g50
NtRp4003
(dp4004
g53
(dp4005
g61
I2
ssg62
Nsg55
(lp4006
g48
(g64
g50
NtRp4007
(dp4008
g53
(dp4009
sg62
g4003
sg55
(lp4010
g48
(g69
g50
NtRp4011
(dp4012
g53
(dp4013
sg62
g4007
sg55
(lp4014
g48
(g49
g50
NtRp4015
(dp4016
g53
(dp4017
g61
I2
ssg62
g4011
sg55
(lp4018
g48
(g57
g50
NtRp4019
(dp4020
g53
(dp4021
g61
I1
ssg62
Nsg55
(lp4022
g48
(g64
g50
NtRp4023
(dp4024
g53
(dp4025
sg62
g4019
sg55
(lp4026
g48
(g69
g50
NtRp4027
(dp4028
g53
(dp4029
sg62
g4023
sg55
(lp4030
g48
(g49
g50
NtRp4031
(dp4032
g53
(dp4033
g61
I1
ssg62
g4027
sg55
(lp4034
g3894
(S's\n\x00\x00\x00Controller'
tRp4035
asbasbasbag48
(g64
g50
NtRp4036
(dp4037
g53
(dp4038
sg62
g4019
sg55
(lp4039
g48
(g69
g50
NtRp4040
(dp4041
g53
(dp4042
sg62
g4036
sg55
(lp4043
g48
(g49
g50
NtRp4044
(dp4045
g53
(dp4046
g61
I1
ssg62
g4040
sg55
(lp4047
I00
asbasbasbag48
(g64
g50
NtRp4048
(dp4049
g53
(dp4050
sg62
g4019
sg55
(lp4051
g48
(g69
g50
NtRp4052
(dp4053
g53
(dp4054
sg62
g4048
sg55
(lp4055
g48
(g49
g50
NtRp4056
(dp4057
g53
(dp4058
g61
I1
ssg62
g4052
sg55
(lp4059
S'/admin/default/edit/Gabb1/controllers/fb_serv.py'
p4060
asbasbasbasbasbasbasbag48
(g64
g50
NtRp4061
(dp4062
g53
(dp4063
sg62
g4003
sg55
(lp4064
g48
(g69
g50
NtRp4065
(dp4066
g53
(dp4067
sg62
g4061
sg55
(lp4068
g48
(g49
g50
NtRp4069
(dp4070
g53
(dp4071
g61
I2
ssg62
g4065
sg55
(lp4072
g48
(g57
g50
NtRp4073
(dp4074
g53
(dp4075
g61
I1
ssg62
Nsg55
(lp4076
g48
(g64
g50
NtRp4077
(dp4078
g53
(dp4079
sg62
g4073
sg55
(lp4080
g48
(g69
g50
NtRp4081
(dp4082
g53
(dp4083
sg62
g4077
sg55
(lp4084
g48
(g49
g50
NtRp4085
(dp4086
g53
(dp4087
g61
I1
ssg62
g4081
sg55
(lp4088
g3894
(S's\x04\x00\x00\x00View'
tRp4089
asbasbasbag48
(g64
g50
NtRp4090
(dp4091
g53
(dp4092
sg62
g4073
sg55
(lp4093
g48
(g69
g50
NtRp4094
(dp4095
g53
(dp4096
sg62
g4090
sg55
(lp4097
g48
(g49
g50
NtRp4098
(dp4099
g53
(dp4100
g61
I1
ssg62
g4094
sg55
(lp4101
I00
asbasbasbag48
(g64
g50
NtRp4102
(dp4103
g53
(dp4104
sg62
g4073
sg55
(lp4105
g48
(g69
g50
NtRp4106
(dp4107
g53
(dp4108
sg62
g4102
sg55
(lp4109
g48
(g49
g50
NtRp4110
(dp4111
g53
(dp4112
g61
I1
ssg62
g4106
sg55
(lp4113
S'/admin/default/edit/Gabb1/views/fb_serv/serve_player_data.txt'
p4114
asbasbasbasbasbasbasbag48
(g64
g50
NtRp4115
(dp4116
g53
(dp4117
sg62
g4003
sg55
(lp4118
g48
(g69
g50
NtRp4119
(dp4120
g53
(dp4121
sg62
g4115
sg55
(lp4122
g48
(g49
g50
NtRp4123
(dp4124
g53
(dp4125
g61
I2
ssg62
g4119
sg55
(lp4126
g48
(g57
g50
NtRp4127
(dp4128
g53
(dp4129
g61
I1
ssg62
Nsg55
(lp4130
g48
(g64
g50
NtRp4131
(dp4132
g53
(dp4133
sg62
g4127
sg55
(lp4134
g48
(g69
g50
NtRp4135
(dp4136
g53
(dp4137
sg62
g4131
sg55
(lp4138
g48
(g49
g50
NtRp4139
(dp4140
g53
(dp4141
g61
I1
ssg62
g4135
sg55
(lp4142
g3894
(S's\x06\x00\x00\x00Layout'
tRp4143
asbasbasbag48
(g64
g50
NtRp4144
(dp4145
g53
(dp4146
sg62
g4127
sg55
(lp4147
g48
(g69
g50
NtRp4148
(dp4149
g53
(dp4150
sg62
g4144
sg55
(lp4151
g48
(g49
g50
NtRp4152
(dp4153
g53
(dp4154
g61
I1
ssg62
g4148
sg55
(lp4155
I00
asbasbasbag48
(g64
g50
NtRp4156
(dp4157
g53
(dp4158
sg62
g4127
sg55
(lp4159
g48
(g69
g50
NtRp4160
(dp4161
g53
(dp4162
sg62
g4156
sg55
(lp4163
g48
(g49
g50
NtRp4164
(dp4165
g53
(dp4166
g61
I1
ssg62
g4160
sg55
(lp4167
S'/admin/default/edit/Gabb1/views/layout.html'
p4168
asbasbasbasbasbasbasbag48
(g64
g50
NtRp4169
(dp4170
g53
(dp4171
sg62
g4003
sg55
(lp4172
g48
(g69
g50
NtRp4173
(dp4174
g53
(dp4175
sg62
g4169
sg55
(lp4176
g48
(g49
g50
NtRp4177
(dp4178
g53
(dp4179
g61
I2
ssg62
g4173
sg55
(lp4180
g48
(g57
g50
NtRp4181
(dp4182
g53
(dp4183
g61
I1
ssg62
Nsg55
(lp4184
g48
(g64
g50
NtRp4185
(dp4186
g53
(dp4187
sg62
g4181
sg55
(lp4188
g48
(g69
g50
NtRp4189
(dp4190
g53
(dp4191
sg62
g4185
sg55
(lp4192
g48
(g49
g50
NtRp4193
(dp4194
g53
(dp4195
g61
I1
ssg62
g4189
sg55
(lp4196
g3894
(S's\n\x00\x00\x00Stylesheet'
tRp4197
asbasbasbag48
(g64
g50
NtRp4198
(dp4199
g53
(dp4200
sg62
g4181
sg55
(lp4201
g48
(g69
g50
NtRp4202
(dp4203
g53
(dp4204
sg62
g4198
sg55
(lp4205
g48
(g49
g50
NtRp4206
(dp4207
g53
(dp4208
g61
I1
ssg62
g4202
sg55
(lp4209
I00
asbasbasbag48
(g64
g50
NtRp4210
(dp4211
g53
(dp4212
sg62
g4181
sg55
(lp4213
g48
(g69
g50
NtRp4214
(dp4215
g53
(dp4216
sg62
g4210
sg55
(lp4217
g48
(g49
g50
NtRp4218
(dp4219
g53
(dp4220
g61
I1
ssg62
g4214
sg55
(lp4221
S'/admin/default/edit/Gabb1/static/base.css'
p4222
asbasbasbasbasbasbasbag48
(g64
g50
NtRp4223
(dp4224
g53
(dp4225
sg62
g4003
sg55
(lp4226
g48
(g69
g50
NtRp4227
(dp4228
g53
(dp4229
sg62
g4223
sg55
(lp4230
g48
(g49
g50
NtRp4231
(dp4232
g53
(dp4233
g61
I2
ssg62
g4227
sg55
(lp4234
g48
(g57
g50
NtRp4235
(dp4236
g53
(dp4237
g61
I1
ssg62
Nsg55
(lp4238
g48
(g64
g50
NtRp4239
(dp4240
g53
(dp4241
sg62
g4235
sg55
(lp4242
g48
(g69
g50
NtRp4243
(dp4244
g53
(dp4245
sg62
g4239
sg55
(lp4246
g48
(g49
g50
NtRp4247
(dp4248
g53
(dp4249
g61
I1
ssg62
g4243
sg55
(lp4250
g3894
(S's\x08\x00\x00\x00DB Model'
tRp4251
asbasbasbag48
(g64
g50
NtRp4252
(dp4253
g53
(dp4254
sg62
g4235
sg55
(lp4255
g48
(g69
g50
NtRp4256
(dp4257
g53
(dp4258
sg62
g4252
sg55
(lp4259
g48
(g49
g50
NtRp4260
(dp4261
g53
(dp4262
g61
I1
ssg62
g4256
sg55
(lp4263
I00
asbasbasbag48
(g64
g50
NtRp4264
(dp4265
g53
(dp4266
sg62
g4235
sg55
(lp4267
g48
(g69
g50
NtRp4268
(dp4269
g53
(dp4270
sg62
g4264
sg55
(lp4271
g48
(g49
g50
NtRp4272
(dp4273
g53
(dp4274
g61
I1
ssg62
g4268
sg55
(lp4275
S'/admin/default/edit/Gabb1/models/db.py'
p4276
asbasbasbasbasbasbasbag48
(g64
g50
NtRp4277
(dp4278
g53
(dp4279
sg62
g4003
sg55
(lp4280
g48
(g69
g50
NtRp4281
(dp4282
g53
(dp4283
sg62
g4277
sg55
(lp4284
g48
(g49
g50
NtRp4285
(dp4286
g53
(dp4287
g61
I2
ssg62
g4281
sg55
(lp4288
g48
(g57
g50
NtRp4289
(dp4290
g53
(dp4291
g61
I1
ssg62
Nsg55
(lp4292
g48
(g64
g50
NtRp4293
(dp4294
g53
(dp4295
sg62
g4289
sg55
(lp4296
g48
(g69
g50
NtRp4297
(dp4298
g53
(dp4299
sg62
g4293
sg55
(lp4300
g48
(g49
g50
NtRp4301
(dp4302
g53
(dp4303
g61
I1
ssg62
g4297
sg55
(lp4304
g3894
(S's\n\x00\x00\x00Menu Model'
tRp4305
asbasbasbag48
(g64
g50
NtRp4306
(dp4307
g53
(dp4308
sg62
g4289
sg55
(lp4309
g48
(g69
g50
NtRp4310
(dp4311
g53
(dp4312
sg62
g4306
sg55
(lp4313
g48
(g49
g50
NtRp4314
(dp4315
g53
(dp4316
g61
I1
ssg62
g4310
sg55
(lp4317
I00
asbasbasbag48
(g64
g50
NtRp4318
(dp4319
g53
(dp4320
sg62
g4289
sg55
(lp4321
g48
(g69
g50
NtRp4322
(dp4323
g53
(dp4324
sg62
g4318
sg55
(lp4325
g48
(g49
g50
NtRp4326
(dp4327
g53
(dp4328
g61
I1
ssg62
g4322
sg55
(lp4329
S'/admin/default/edit/Gabb1/models/menu.py'
p4330
asbasbasbasbasbasbasbag48
(g64
g50
NtRp4331
(dp4332
g53
(dp4333
sg62
g4003
sg55
(lp4334
g48
(g69
g50
NtRp4335
(dp4336
g53
(dp4337
sg62
g4331
sg55
(lp4338
g48
(g49
g50
NtRp4339
(dp4340
g53
(dp4341
g61
I2
ssg62
g4335
sg55
(lp4342
g48
(g57
g50
NtRp4343
(dp4344
g53
(dp4345
g61
I1
ssg62
Nsg55
(lp4346
g48
(g64
g50
NtRp4347
(dp4348
g53
(dp4349
sg62
g4343
sg55
(lp4350
g48
(g69
g50
NtRp4351
(dp4352
g53
(dp4353
sg62
g4347
sg55
(lp4354
g48
(g49
g50
NtRp4355
(dp4356
g53
(dp4357
g61
I1
ssg62
g4351
sg55
(lp4358
g3894
(S's\x08\x00\x00\x00Database'
tRp4359
asbasbasbag48
(g64
g50
NtRp4360
(dp4361
g53
(dp4362
sg62
g4343
sg55
(lp4363
g48
(g69
g50
NtRp4364
(dp4365
g53
(dp4366
sg62
g4360
sg55
(lp4367
g48
(g49
g50
NtRp4368
(dp4369
g53
(dp4370
g61
I1
ssg62
g4364
sg55
(lp4371
I00
asbasbasbag48
(g64
g50
NtRp4372
(dp4373
g53
(dp4374
sg62
g4343
sg55
(lp4375
g48
(g69
g50
NtRp4376
(dp4377
g53
(dp4378
sg62
g4372
sg55
(lp4379
g48
(g49
g50
NtRp4380
(dp4381
g53
(dp4382
g61
I1
ssg62
g4376
sg55
(lp4383
S'/Gabb1/appadmin/index.txt'
p4384
asbasbasbasbasbasbasbag48
(g64
g50
NtRp4385
(dp4386
g53
(dp4387
sg62
g4003
sg55
(lp4388
g48
(g69
g50
NtRp4389
(dp4390
g53
(dp4391
sg62
g4385
sg55
(lp4392
g48
(g49
g50
NtRp4393
(dp4394
g53
(dp4395
g61
I2
ssg62
g4389
sg55
(lp4396
g48
(g57
g50
NtRp4397
(dp4398
g53
(dp4399
g61
I1
ssg62
Nsg55
(lp4400
g48
(g64
g50
NtRp4401
(dp4402
g53
(dp4403
sg62
g4397
sg55
(lp4404
g48
(g69
g50
NtRp4405
(dp4406
g53
(dp4407
sg62
g4401
sg55
(lp4408
g48
(g49
g50
NtRp4409
(dp4410
g53
(dp4411
g61
I1
ssg62
g4405
sg55
(lp4412
g3894
(S's\x06\x00\x00\x00Errors'
tRp4413
asbasbasbag48
(g64
g50
NtRp4414
(dp4415
g53
(dp4416
sg62
g4397
sg55
(lp4417
g48
(g69
g50
NtRp4418
(dp4419
g53
(dp4420
sg62
g4414
sg55
(lp4421
g48
(g49
g50
NtRp4422
(dp4423
g53
(dp4424
g61
I1
ssg62
g4418
sg55
(lp4425
I00
asbasbasbag48
(g64
g50
NtRp4426
(dp4427
g53
(dp4428
sg62
g4397
sg55
(lp4429
g48
(g69
g50
NtRp4430
(dp4431
g53
(dp4432
sg62
g4426
sg55
(lp4433
g48
(g49
g50
NtRp4434
(dp4435
g53
(dp4436
g61
I1
ssg62
g4430
sg55
(lp4437
S'/admin/default/errors/Gabb1.txt'
p4438
asbasbasbasbasbasbasbag48
(g64
g50
NtRp4439
(dp4440
g53
(dp4441
sg62
g4003
sg55
(lp4442
g48
(g69
g50
NtRp4443
(dp4444
g53
(dp4445
sg62
g4439
sg55
(lp4446
g48
(g49
g50
NtRp4447
(dp4448
g53
(dp4449
g61
I2
ssg62
g4443
sg55
(lp4450
g48
(g57
g50
NtRp4451
(dp4452
g53
(dp4453
g61
I1
ssg62
Nsg55
(lp4454
g48
(g64
g50
NtRp4455
(dp4456
g53
(dp4457
sg62
g4451
sg55
(lp4458
g48
(g69
g50
NtRp4459
(dp4460
g53
(dp4461
sg62
g4455
sg55
(lp4462
g48
(g49
g50
NtRp4463
(dp4464
g53
(dp4465
g61
I1
ssg62
g4459
sg55
(lp4466
g3894
(S's\x05\x00\x00\x00About'
tRp4467
asbasbasbag48
(g64
g50
NtRp4468
(dp4469
g53
(dp4470
sg62
g4451
sg55
(lp4471
g48
(g69
g50
NtRp4472
(dp4473
g53
(dp4474
sg62
g4468
sg55
(lp4475
g48
(g49
g50
NtRp4476
(dp4477
g53
(dp4478
g61
I1
ssg62
g4472
sg55
(lp4479
I00
asbasbasbag48
(g64
g50
NtRp4480
(dp4481
g53
(dp4482
sg62
g4451
sg55
(lp4483
g48
(g69
g50
NtRp4484
(dp4485
g53
(dp4486
sg62
g4480
sg55
(lp4487
g48
(g49
g50
NtRp4488
(dp4489
g53
(dp4490
g61
I1
ssg62
g4484
sg55
(lp4491
S'/admin/default/about/Gabb1.txt'
p4492
asbasbasbasbasbasbasbasbasbasbasbasbasbasbasbag48
(g64
g50
NtRp4493
(dp4494
g53
(dp4495
sg62
g3862
sg55
(lp4496
g48
(g69
g50
NtRp4497
(dp4498
g53
(dp4499
sg62
g4493
sg55
(lp4500
g48
(g49
g50
NtRp4501
(dp4502
g53
(dp4503
g61
I4
ssg62
g4497
sg55
(lp4504
g48
(g57
g50
NtRp4505
(dp4506
g53
(dp4507
g61
I3
ssg62
Nsg55
(lp4508
g48
(g64
g50
NtRp4509
(dp4510
g53
(dp4511
sg62
g4505
sg55
(lp4512
g48
(g69
g50
NtRp4513
(dp4514
g53
(dp4515
sg62
g4509
sg55
(lp4516
g48
(g49
g50
NtRp4517
(dp4518
g53
(dp4519
g61
I3
ssg62
g4513
sg55
(lp4520
g3894
(S's\t\x00\x00\x00Resources'
tRp4521
asbasbasbag48
(g64
g50
NtRp4522
(dp4523
g53
(dp4524
sg62
g4505
sg55
(lp4525
g48
(g69
g50
NtRp4526
(dp4527
g53
(dp4528
sg62
g4522
sg55
(lp4529
g48
(g49
g50
NtRp4530
(dp4531
g53
(dp4532
g61
I3
ssg62
g4526
sg55
(lp4533
g91
asbasbasbag48
(g64
g50
NtRp4534
(dp4535
g53
(dp4536
sg62
g4505
sg55
(lp4537
g48
(g69
g50
NtRp4538
(dp4539
g53
(dp4540
sg62
g4534
sg55
(lp4541
g48
(g49
g50
NtRp4542
(dp4543
g53
(dp4544
g61
I3
ssg62
g4538
sg55
(lp4545
S'None'
p4546
asbasbasbag48
(g64
g50
NtRp4547
(dp4548
g53
(dp4549
sg62
g4505
sg55
(lp4550
g48
(g69
g50
NtRp4551
(dp4552
g53
(dp4553
sg62
g4547
sg55
(lp4554
g48
(g49
g50
NtRp4555
(dp4556
g53
(dp4557
g61
I3
ssg62
g4551
sg55
(lp4558
g48
(g57
g50
NtRp4559
(dp4560
g53
(dp4561
g61
I2
ssg62
Nsg55
(lp4562
g48
(g64
g50
NtRp4563
(dp4564
g53
(dp4565
sg62
g4559
sg55
(lp4566
g48
(g69
g50
NtRp4567
(dp4568
g53
(dp4569
sg62
g4563
sg55
(lp4570
g48
(g49
g50
NtRp4571
(dp4572
g53
(dp4573
g61
I2
ssg62
g4567
sg55
(lp4574
g48
(g57
g50
NtRp4575
(dp4576
g53
(dp4577
g61
I1
ssg62
Nsg55
(lp4578
g48
(g64
g50
NtRp4579
(dp4580
g53
(dp4581
sg62
g4575
sg55
(lp4582
g48
(g69
g50
NtRp4583
(dp4584
g53
(dp4585
sg62
g4579
sg55
(lp4586
g48
(g49
g50
NtRp4587
(dp4588
g53
(dp4589
g61
I1
ssg62
g4583
sg55
(lp4590
g3894
(S's\r\x00\x00\x00Documentation'
tRp4591
asbasbasbag48
(g64
g50
NtRp4592
(dp4593
g53
(dp4594
sg62
g4575
sg55
(lp4595
g48
(g69
g50
NtRp4596
(dp4597
g53
(dp4598
sg62
g4592
sg55
(lp4599
g48
(g49
g50
NtRp4600
(dp4601
g53
(dp4602
g61
I1
ssg62
g4596
sg55
(lp4603
I00
asbasbasbag48
(g64
g50
NtRp4604
(dp4605
g53
(dp4606
sg62
g4575
sg55
(lp4607
g48
(g69
g50
NtRp4608
(dp4609
g53
(dp4610
sg62
g4604
sg55
(lp4611
g48
(g49
g50
NtRp4612
(dp4613
g53
(dp4614
g61
I1
ssg62
g4608
sg55
(lp4615
S'http://www.web2py.com/book'
p4616
asbasbasbag48
(g64
g50
NtRp4617
(dp4618
g53
(dp4619
sg62
g4575
sg55
(lp4620
g48
(g69
g50
NtRp4621
(dp4622
g53
(dp4623
sg62
g4617
sg55
(lp4624
g48
(g49
g50
NtRp4625
(dp4626
g53
(dp4627
g61
I1
ssg62
g4621
sg55
(lp4628
(lp4629
(g3894
(S's\x07\x00\x00\x00Preface'
tRp4630
I00
S'http://www.web2py.com/book/default/chapter/00'
p4631
tp4632
a(g3894
(S's\x0c\x00\x00\x00Introduction'
tRp4633
I00
S'http://www.web2py.com/book/default/chapter/01'
p4634
tp4635
a(g3894
(S's\x06\x00\x00\x00Python'
tRp4636
I00
S'http://www.web2py.com/book/default/chapter/02'
p4637
tp4638
a(g3894
(S's\x08\x00\x00\x00Overview'
tRp4639
I00
S'http://www.web2py.com/book/default/chapter/03'
p4640
tp4641
a(g3894
(S's\x08\x00\x00\x00The Core'
tRp4642
I00
S'http://www.web2py.com/book/default/chapter/04'
p4643
tp4644
a(g3894
(S's\t\x00\x00\x00The Views'
tRp4645
I00
S'http://www.web2py.com/book/default/chapter/05'
p4646
tp4647
a(g3894
(S's\x08\x00\x00\x00Database'
tRp4648
I00
S'http://www.web2py.com/book/default/chapter/06'
p4649
tp4650
a(g3894
(S's\x14\x00\x00\x00Forms and Validators'
tRp4651
I00
S'http://www.web2py.com/book/default/chapter/07'
p4652
tp4653
a(g3894
(S's\x0e\x00\x00\x00Access Control'
tRp4654
I00
S'http://www.web2py.com/book/default/chapter/08'
p4655
tp4656
a(g3894
(S's\x08\x00\x00\x00Services'
tRp4657
I00
S'http://www.web2py.com/book/default/chapter/09'
p4658
tp4659
a(g3894
(S's\x0c\x00\x00\x00Ajax Recipes'
tRp4660
I00
S'http://www.web2py.com/book/default/chapter/10'
p4661
tp4662
a(g3894
(S's\x12\x00\x00\x00Deployment Recipes'
tRp4663
I00
S'http://www.web2py.com/book/default/chapter/11'
p4664
tp4665
a(g3894
(S's\r\x00\x00\x00Other Recipes'
tRp4666
I00
S'http://www.web2py.com/book/default/chapter/12'
p4667
tp4668
a(g3894
(S's\r\x00\x00\x00Buy this book'
tRp4669
I00
S'http://stores.lulu.com/web2py'
p4670
tp4671
aasbasbasbasbasbasbasbag48
(g64
g50
NtRp4672
(dp4673
g53
(dp4674
sg62
g4559
sg55
(lp4675
g48
(g69
g50
NtRp4676
(dp4677
g53
(dp4678
sg62
g4672
sg55
(lp4679
g48
(g49
g50
NtRp4680
(dp4681
g53
(dp4682
g61
I2
ssg62
g4676
sg55
(lp4683
g48
(g57
g50
NtRp4684
(dp4685
g53
(dp4686
g61
I1
ssg62
Nsg55
(lp4687
g48
(g64
g50
NtRp4688
(dp4689
g53
(dp4690
sg62
g4684
sg55
(lp4691
g48
(g69
g50
NtRp4692
(dp4693
g53
(dp4694
sg62
g4688
sg55
(lp4695
g48
(g49
g50
NtRp4696
(dp4697
g53
(dp4698
g61
I1
ssg62
g4692
sg55
(lp4699
g3894
(S's\t\x00\x00\x00Community'
tRp4700
asbasbasbag48
(g64
g50
NtRp4701
(dp4702
g53
(dp4703
sg62
g4684
sg55
(lp4704
g48
(g69
g50
NtRp4705
(dp4706
g53
(dp4707
sg62
g4701
sg55
(lp4708
g48
(g49
g50
NtRp4709
(dp4710
g53
(dp4711
g61
I1
ssg62
g4705
sg55
(lp4712
I00
asbasbasbag48
(g64
g50
NtRp4713
(dp4714
g53
(dp4715
sg62
g4684
sg55
(lp4716
g48
(g69
g50
NtRp4717
(dp4718
g53
(dp4719
sg62
g4713
sg55
(lp4720
g48
(g49
g50
NtRp4721
(dp4722
g53
(dp4723
g61
I1
ssg62
g4717
sg55
(lp4724
Nasbasbasbag48
(g64
g50
NtRp4725
(dp4726
g53
(dp4727
sg62
g4684
sg55
(lp4728
g48
(g69
g50
NtRp4729
(dp4730
g53
(dp4731
sg62
g4725
sg55
(lp4732
g48
(g49
g50
NtRp4733
(dp4734
g53
(dp4735
g61
I1
ssg62
g4729
sg55
(lp4736
(lp4737
(g3894
(S's\x06\x00\x00\x00Groups'
tRp4738
I00
S'http://www.web2py.com/examples/default/usergroups'
p4739
tp4740
a(g3894
(S's\x07\x00\x00\x00Twitter'
tRp4741
I00
S'http://twitter.com/web2py'
p4742
tp4743
a(g3894
(S's\t\x00\x00\x00Live chat'
tRp4744
I00
S'http://mibbit.com/?channel=%23web2py&server=irc.mibbit.net'
p4745
tp4746
a(g3894
(S's\n\x00\x00\x00User Voice'
tRp4747
I00
S'http://web2py.uservoice.com/'
p4748
tp4749
aasbasbasbasbasbasbasbag48
(g64
g50
NtRp4750
(dp4751
g53
(dp4752
sg62
g4559
sg55
(lp4753
g48
(g69
g50
NtRp4754
(dp4755
g53
(dp4756
sg62
g4750
sg55
(lp4757
g48
(g49
g50
NtRp4758
(dp4759
g53
(dp4760
g61
I2
ssg62
g4754
sg55
(lp4761
g48
(g57
g50
NtRp4762
(dp4763
g53
(dp4764
g61
I1
ssg62
Nsg55
(lp4765
g48
(g64
g50
NtRp4766
(dp4767
g53
(dp4768
sg62
g4762
sg55
(lp4769
g48
(g69
g50
NtRp4770
(dp4771
g53
(dp4772
sg62
g4766
sg55
(lp4773
g48
(g49
g50
NtRp4774
(dp4775
g53
(dp4776
g61
I1
ssg62
g4770
sg55
(lp4777
g3894
(S's\x06\x00\x00\x00Web2py'
tRp4778
asbasbasbag48
(g64
g50
NtRp4779
(dp4780
g53
(dp4781
sg62
g4762
sg55
(lp4782
g48
(g69
g50
NtRp4783
(dp4784
g53
(dp4785
sg62
g4779
sg55
(lp4786
g48
(g49
g50
NtRp4787
(dp4788
g53
(dp4789
g61
I1
ssg62
g4783
sg55
(lp4790
I00
asbasbasbag48
(g64
g50
NtRp4791
(dp4792
g53
(dp4793
sg62
g4762
sg55
(lp4794
g48
(g69
g50
NtRp4795
(dp4796
g53
(dp4797
sg62
g4791
sg55
(lp4798
g48
(g49
g50
NtRp4799
(dp4800
g53
(dp4801
g61
I1
ssg62
g4795
sg55
(lp4802
S'http://www.web2py.com'
p4803
asbasbasbag48
(g64
g50
NtRp4804
(dp4805
g53
(dp4806
sg62
g4762
sg55
(lp4807
g48
(g69
g50
NtRp4808
(dp4809
g53
(dp4810
sg62
g4804
sg55
(lp4811
g48
(g49
g50
NtRp4812
(dp4813
g53
(dp4814
g61
I1
ssg62
g4808
sg55
(lp4815
(lp4816
(g3894
(S's\x08\x00\x00\x00Download'
tRp4817
I00
S'http://www.web2py.com/examples/default/download'
p4818
tp4819
a(g3894
(S's\x07\x00\x00\x00Support'
tRp4820
I00
S'http://www.web2py.com/examples/default/support'
p4821
tp4822
a(g3894
(S's\x0e\x00\x00\x00Quick Examples'
tRp4823
I00
S'http://web2py.com/examples/default/examples'
p4824
tp4825
a(g3894
(S's\x03\x00\x00\x00FAQ'
tRp4826
I00
S'http://web2py.com/AlterEgo'
p4827
tp4828
a(g3894
(S's\x11\x00\x00\x00Free Applications'
tRp4829
I00
S'http://web2py.com/appliances'
p4830
tp4831
a(g3894
(S's\x07\x00\x00\x00Plugins'
tRp4832
I00
S'http://web2py.com/plugins'
p4833
tp4834
a(g3894
(S's\x07\x00\x00\x00Recipes'
tRp4835
I00
S'http://web2pyslices.com/'
p4836
tp4837
a(g3894
(S's\x04\x00\x00\x00Demo'
tRp4838
I00
S'http://web2py.com/demo_admin'
p4839
tp4840
a(g3894
(S's\x08\x00\x00\x00Semantic'
tRp4841
I00
S'http://web2py.com/semantic'
p4842
tp4843
a(g3894
(S's\x07\x00\x00\x00Layouts'
tRp4844
I00
S'http://web2py.com/layouts'
p4845
tp4846
a(g3894
(S's\x06\x00\x00\x00Videos'
tRp4847
I00
S'http://www.web2py.com/examples/default/videos/'
p4848
tp4849
aasbasbasbasbasbasbasbasbasbasbasbasbasbasbasbasbasbasbasbag48
(g64
g50
NtRp4850
(dp4851
g53
(dp4852
sg62
g3409
sg55
(lp4853
g48
(g69
g50
NtRp4854
(dp4855
g53
(dp4856
g73
g74
ssg62
g4850
sg55
(lp4857
S'meta'
p4858
asbag48
(g69
g50
NtRp4859
(dp4860
g53
(dp4861
g80
g81
ssg62
g4850
sg55
(lp4862
S':'
asbag48
(g69
g50
NtRp4863
(dp4864
g53
(dp4865
sg62
g4850
sg55
(lp4866
g48
(g49
g50
NtRp4867
(dp4868
g53
(dp4869
g61
I5
ssg62
g4863
sg55
(lp4870
g48
(g57
g50
NtRp4871
(dp4872
g53
(dp4873
g61
I4
ssg62
Nsg55
(lp4874
g48
(g64
g50
NtRp4875
(dp4876
g53
(dp4877
sg62
g4871
sg55
(lp4878
g48
(g69
g50
NtRp4879
(dp4880
g53
(dp4881
g73
g74
ssg62
g4875
sg55
(lp4882
S'author'
p4883
asbag48
(g69
g50
NtRp4884
(dp4885
g53
(dp4886
g80
g81
ssg62
g4875
sg55
(lp4887
S':'
asbag48
(g69
g50
NtRp4888
(dp4889
g53
(dp4890
sg62
g4875
sg55
(lp4891
g48
(g49
g50
NtRp4892
(dp4893
g53
(dp4894
g61
I4
ssg62
g4888
sg55
(lp4895
S'Your Name <you@example.com>'
p4896
asbasbasbag48
(g64
g50
NtRp4897
(dp4898
g53
(dp4899
sg62
g4871
sg55
(lp4900
g48
(g69
g50
NtRp4901
(dp4902
g53
(dp4903
g73
g74
ssg62
g4897
sg55
(lp4904
S'copyright'
p4905
asbag48
(g69
g50
NtRp4906
(dp4907
g53
(dp4908
g80
g81
ssg62
g4897
sg55
(lp4909
S':'
asbag48
(g69
g50
NtRp4910
(dp4911
g53
(dp4912
sg62
g4897
sg55
(lp4913
g48
(g49
g50
NtRp4914
(dp4915
g53
(dp4916
g61
I4
ssg62
g4910
sg55
(lp4917
S'Copyright 2011'
p4918
asbasbasbag48
(g64
g50
NtRp4919
(dp4920
g53
(dp4921
sg62
g4871
sg55
(lp4922
g48
(g69
g50
NtRp4923
(dp4924
g53
(dp4925
g73
g74
ssg62
g4919
sg55
(lp4926
S'description'
p4927
asbag48
(g69
g50
NtRp4928
(dp4929
g53
(dp4930
g80
g81
ssg62
g4919
sg55
(lp4931
S':'
asbag48
(g69
g50
NtRp4932
(dp4933
g53
(dp4934
sg62
g4919
sg55
(lp4935
g48
(g49
g50
NtRp4936
(dp4937
g53
(dp4938
g61
I4
ssg62
g4932
sg55
(lp4939
S'a cool new app'
p4940
asbasbasbag48
(g64
g50
NtRp4941
(dp4942
g53
(dp4943
sg62
g4871
sg55
(lp4944
g48
(g69
g50
NtRp4945
(dp4946
g53
(dp4947
g73
g74
ssg62
g4941
sg55
(lp4948
S'generator'
p4949
asbag48
(g69
g50
NtRp4950
(dp4951
g53
(dp4952
g80
g81
ssg62
g4941
sg55
(lp4953
S':'
asbag48
(g69
g50
NtRp4954
(dp4955
g53
(dp4956
sg62
g4941
sg55
(lp4957
g48
(g49
g50
NtRp4958
(dp4959
g53
(dp4960
g61
I4
ssg62
g4954
sg55
(lp4961
S'Web2py Web Framework'
p4962
asbasbasbag48
(g64
g50
NtRp4963
(dp4964
g53
(dp4965
sg62
g4871
sg55
(lp4966
g48
(g69
g50
NtRp4967
(dp4968
g53
(dp4969
g73
g74
ssg62
g4963
sg55
(lp4970
S'keywords'
p4971
asbag48
(g69
g50
NtRp4972
(dp4973
g53
(dp4974
g80
g81
ssg62
g4963
sg55
(lp4975
S':'
asbag48
(g69
g50
NtRp4976
(dp4977
g53
(dp4978
sg62
g4963
sg55
(lp4979
g48
(g49
g50
NtRp4980
(dp4981
g53
(dp4982
g61
I4
ssg62
g4976
sg55
(lp4983
S'web2py, python, framework'
p4984
asbasbasbasbasbasbasbag48
(g64
g50
NtRp4985
(dp4986
g53
(dp4987
sg62
g3409
sg55
(lp4988
g48
(g69
g50
NtRp4989
(dp4990
g53
(dp4991
g73
g74
ssg62
g4985
sg55
(lp4992
S'postprocessing'
p4993
asbag48
(g69
g50
NtRp4994
(dp4995
g53
(dp4996
g80
g81
ssg62
g4985
sg55
(lp4997
S':'
asbag48
(g69
g50
NtRp4998
(dp4999
g53
(dp5000
sg62
g4985
sg55
(lp5001
g48
(g49
g50
NtRp5002
(dp5003
g53
(dp5004
g61
I5
ssg62
g4998
sg55
(lp5005
g48
(g57
g50
NtRp5006
(dp5007
g53
(dp5008
g61
I4
ssg62
Nsg55
(lp5009
sbasbasbasbag48
(g64
g50
NtRp5010
(dp5011
g53
(dp5012
sg62
g3409
sg55
(lp5013
g48
(g69
g50
NtRp5014
(dp5015
g53
(dp5016
g73
g74
ssg62
g5010
sg55
(lp5017
S'session_filename'
p5018
asbag48
(g69
g50
NtRp5019
(dp5020
g53
(dp5021
g80
g81
ssg62
g5010
sg55
(lp5022
S':'
asbag48
(g69
g50
NtRp5023
(dp5024
g53
(dp5025
sg62
g5010
sg55
(lp5026
g48
(g49
g50
NtRp5027
(dp5028
g53
(dp5029
g61
I5
ssg62
g5023
sg55
(lp5030
S'D:\\git_projs\\Gabblista\\web2py\\web2py\\applications\\Gabb1\\sessions\\127.0.0.1-d678036c-8ba0-4d27-9922-4c3e9a96397e'
p5031
asbasbasbag48
(g64
g50
NtRp5032
(dp5033
g53
(dp5034
sg62
g3409
sg55
(lp5035
g48
(g69
g50
NtRp5036
(dp5037
g53
(dp5038
g73
g74
ssg62
g5032
sg55
(lp5039
S'session_id'
p5040
asbag48
(g69
g50
NtRp5041
(dp5042
g53
(dp5043
g80
g81
ssg62
g5032
sg55
(lp5044
S':'
asbag48
(g69
g50
NtRp5045
(dp5046
g53
(dp5047
sg62
g5032
sg55
(lp5048
g48
(g49
g50
NtRp5049
(dp5050
g53
(dp5051
g61
I5
ssg62
g5045
sg55
(lp5052
S'127.0.0.1-d678036c-8ba0-4d27-9922-4c3e9a96397e'
p5053
asbasbasbag48
(g64
g50
NtRp5054
(dp5055
g53
(dp5056
sg62
g3409
sg55
(lp5057
g48
(g69
g50
NtRp5058
(dp5059
g53
(dp5060
g73
g74
ssg62
g5054
sg55
(lp5061
S'session_id_name'
p5062
asbag48
(g69
g50
NtRp5063
(dp5064
g53
(dp5065
g80
g81
ssg62
g5054
sg55
(lp5066
S':'
asbag48
(g69
g50
NtRp5067
(dp5068
g53
(dp5069
sg62
g5054
sg55
(lp5070
g48
(g49
g50
NtRp5071
(dp5072
g53
(dp5073
g61
I5
ssg62
g5067
sg55
(lp5074
g3466
asbasbasbag48
(g64
g50
NtRp5075
(dp5076
g53
(dp5077
sg62
g3409
sg55
(lp5078
g48
(g69
g50
NtRp5079
(dp5080
g53
(dp5081
g73
g74
ssg62
g5075
sg55
(lp5082
S'session_new'
p5083
asbag48
(g69
g50
NtRp5084
(dp5085
g53
(dp5086
g80
g81
ssg62
g5075
sg55
(lp5087
S':'
asbag48
(g69
g50
NtRp5088
(dp5089
g53
(dp5090
sg62
g5075
sg55
(lp5091
g48
(g49
g50
NtRp5092
(dp5093
g53
(dp5094
g61
I5
ssg62
g5088
sg55
(lp5095
g1797
asbasbasbag48
(g64
g50
NtRp5096
(dp5097
g53
(dp5098
sg62
g3409
sg55
(lp5099
g48
(g69
g50
NtRp5100
(dp5101
g53
(dp5102
g73
g74
ssg62
g5096
sg55
(lp5103
S'status'
p5104
asbag48
(g69
g50
NtRp5105
(dp5106
g53
(dp5107
g80
g81
ssg62
g5096
sg55
(lp5108
S':'
asbag48
(g69
g50
NtRp5109
(dp5110
g53
(dp5111
sg62
g5096
sg55
(lp5112
g48
(g49
g50
NtRp5113
(dp5114
g53
(dp5115
g61
I5
ssg62
g5109
sg55
(lp5116
S'200'
p5117
asbasbasbag48
(g64
g50
NtRp5118
(dp5119
g53
(dp5120
sg62
g3409
sg55
(lp5121
g48
(g69
g50
NtRp5122
(dp5123
g53
(dp5124
g73
g74
ssg62
g5118
sg55
(lp5125
S'subtitle'
p5126
asbag48
(g69
g50
NtRp5127
(dp5128
g53
(dp5129
g80
g81
ssg62
g5118
sg55
(lp5130
S':'
asbag48
(g69
g50
NtRp5131
(dp5132
g53
(dp5133
sg62
g5118
sg55
(lp5134
g48
(g49
g50
NtRp5135
(dp5136
g53
(dp5137
g61
I5
ssg62
g5131
sg55
(lp5138
g3894
(S's\r\x00\x00\x00customize me!'
tRp5139
asbasbasbag48
(g64
g50
NtRp5140
(dp5141
g53
(dp5142
sg62
g3409
sg55
(lp5143
g48
(g69
g50
NtRp5144
(dp5145
g53
(dp5146
g73
g74
ssg62
g5140
sg55
(lp5147
S'title'
p5148
asbag48
(g69
g50
NtRp5149
(dp5150
g53
(dp5151
g80
g81
ssg62
g5140
sg55
(lp5152
S':'
asbag48
(g69
g50
NtRp5153
(dp5154
g53
(dp5155
sg62
g5140
sg55
(lp5156
g48
(g49
g50
NtRp5157
(dp5158
g53
(dp5159
g61
I5
ssg62
g5153
sg55
(lp5160
g113
asbasbasbag48
(g64
g50
NtRp5161
(dp5162
g53
(dp5163
sg62
g3409
sg55
(lp5164
g48
(g69
g50
NtRp5165
(dp5166
g53
(dp5167
g73
g74
ssg62
g5161
sg55
(lp5168
g2525
asbag48
(g69
g50
NtRp5169
(dp5170
g53
(dp5171
g80
g81
ssg62
g5161
sg55
(lp5172
S':'
asbag48
(g69
g50
NtRp5173
(dp5174
g53
(dp5175
sg62
g5161
sg55
(lp5176
g48
(g49
g50
NtRp5177
(dp5178
g53
(dp5179
g61
I5
ssg62
g5173
sg55
(lp5180
g2538
asbasbasbag48
(g64
g50
NtRp5181
(dp5182
g53
(dp5183
sg62
g3409
sg55
(lp5184
g48
(g69
g50
NtRp5185
(dp5186
g53
(dp5187
g73
g74
ssg62
g5181
sg55
(lp5188
S'view'
p5189
asbag48
(g69
g50
NtRp5190
(dp5191
g53
(dp5192
g80
g81
ssg62
g5181
sg55
(lp5193
S':'
asbag48
(g69
g50
NtRp5194
(dp5195
g53
(dp5196
sg62
g5181
sg55
(lp5197
g48
(g49
g50
NtRp5198
(dp5199
g53
(dp5200
g61
I5
ssg62
g5194
sg55
(lp5201
S'fb_serv/serve_player_data.txt'
p5202
asbasbasbasbasbsS'locals'
p5203
(dp5204
S'NUM_EVENTS'
p5205
S'24'
p5206
sssS'traceback'
p5207
S'Traceback (most recent call last):\n  File "D:\\git_projs\\Gabblista\\web2py\\web2py\\gluon\\restricted.py", line 194, in restricted\n    exec ccode in environment\n  File "D:\\git_projs\\Gabblista\\web2py\\web2py\\applications\\Gabb1\\controllers/fb_serv.py", line 116, in <module>\n  File "D:\\git_projs\\Gabblista\\web2py\\web2py\\gluon\\globals.py", line 149, in <lambda>\n    self._caller = lambda f: f()\n  File "D:\\git_projs\\Gabblista\\web2py\\web2py\\applications\\Gabb1\\controllers/fb_serv.py", line 18, in serve_player_data\n    game_data_row = get_player_data(player_ID,opponent_ID,game_ID);\n  File "D:\\git_projs\\Gabblista\\web2py\\web2py\\applications\\Gabb1\\controllers/fb_serv.py", line 26, in get_player_data\n    event_data = generate_new_event_data()\n  File "D:\\git_projs\\Gabblista\\web2py\\web2py\\applications\\Gabb1\\controllers/fb_serv.py", line 50, in generate_new_event_data\n    random_letter_events_string = get_random_letter_events_string(NUM_EVENTS2)\nNameError: global name \'NUM_EVENTS2\' is not defined\n'
p5208
s.