(dp1
S'output'
p2
S''
sS'layer'
p3
S'D:\\git_projs\\Gabblista\\web2py\\web2py\\applications\\Gabb1\\views\\fb_serv/serve_player_data.txt'
p4
sS'code'
p5
S"response.write(game_data_row.letter_data)\nresponse.write('\\r\\n', escape=False)\nresponse.write(game_data_row.event_data)\nresponse.write('\\r\\n', escape=False)"
p6
sS'snapshot'
p7
(dp8
S'exception'
p9
(dp10
S'__hash__'
p11
S"<method-wrapper '__hash__' of exceptions.AttributeError object at 0x07C95EE0>"
p12
sS'__setattr__'
p13
S"<method-wrapper '__setattr__' of exceptions.AttributeError object at 0x07C95EE0>"
p14
sS'__reduce_ex__'
p15
S'<built-in method __reduce_ex__ of exceptions.AttributeError object at 0x07C95EE0>'
p16
sS'__getslice__'
p17
S"<method-wrapper '__getslice__' of exceptions.AttributeError object at 0x07C95EE0>"
p18
sS'__getitem__'
p19
S"<method-wrapper '__getitem__' of exceptions.AttributeError object at 0x07C95EE0>"
p20
sS'__setstate__'
p21
S'<built-in method __setstate__ of exceptions.AttributeError object at 0x07C95EE0>'
p22
sS'__reduce__'
p23
S'<built-in method __reduce__ of exceptions.AttributeError object at 0x07C95EE0>'
p24
sS'__str__'
p25
S"<method-wrapper '__str__' of exceptions.AttributeError object at 0x07C95EE0>"
p26
sS'args'
p27
S'("\'dict\' object has no attribute \'letter_data\'",)'
p28
sS'__getattribute__'
p29
S"<method-wrapper '__getattribute__' of exceptions.AttributeError object at 0x07C95EE0>"
p30
sS'__class__'
p31
S"<type 'exceptions.AttributeError'>"
p32
sS'__delattr__'
p33
S"<method-wrapper '__delattr__' of exceptions.AttributeError object at 0x07C95EE0>"
p34
sS'__repr__'
p35
S"<method-wrapper '__repr__' of exceptions.AttributeError object at 0x07C95EE0>"
p36
sS'__dict__'
p37
S'{}'
p38
sS'__doc__'
p39
S"'Attribute not found.'"
p40
sS'__init__'
p41
S"<method-wrapper '__init__' of exceptions.AttributeError object at 0x07C95EE0>"
p42
sS'__new__'
p43
S'<built-in method __new__ of type object at 0x1E1CDA68>'
p44
ssS'evalue'
p45
S"'dict' object has no attribute 'letter_data'"
p46
sS'request'
p47
ccopy_reg
_reconstructor
p48
(cgluon.html
BEAUTIFY
p49
c__builtin__
object
p50
NtRp51
(dp52
S'attributes'
p53
(dp54
sS'components'
p55
(lp56
g48
(cgluon.html
TABLE
p57
g50
NtRp58
(dp59
g53
(dp60
S'level'
p61
I5
ssS'parent'
p62
Nsg55
(lp63
g48
(cgluon.html
TR
p64
g50
NtRp65
(dp66
g53
(dp67
sg62
g58
sg55
(lp68
g48
(cgluon.html
TD
p69
g50
NtRp70
(dp71
g53
(dp72
S'_style'
p73
S'font-weight:bold;'
p74
ssg62
g65
sg55
(lp75
S'ajax'
p76
asbag48
(g69
g50
NtRp77
(dp78
g53
(dp79
S'_valign'
p80
S'top'
p81
ssg62
g65
sg55
(lp82
S':'
asbag48
(g69
g50
NtRp83
(dp84
g53
(dp85
sg62
g65
sg55
(lp86
g48
(g49
g50
NtRp87
(dp88
g53
(dp89
g61
I5
ssg62
g83
sg55
(lp90
S'False'
p91
asbasbasbag48
(g64
g50
NtRp92
(dp93
g53
(dp94
sg62
g58
sg55
(lp95
g48
(g69
g50
NtRp96
(dp97
g53
(dp98
g73
g74
ssg62
g92
sg55
(lp99
S'application'
p100
asbag48
(g69
g50
NtRp101
(dp102
g53
(dp103
g80
g81
ssg62
g92
sg55
(lp104
S':'
asbag48
(g69
g50
NtRp105
(dp106
g53
(dp107
sg62
g92
sg55
(lp108
g48
(g49
g50
NtRp109
(dp110
g53
(dp111
g61
I5
ssg62
g105
sg55
(lp112
S'Gabb1'
p113
asbasbasbag48
(g64
g50
NtRp114
(dp115
g53
(dp116
sg62
g58
sg55
(lp117
g48
(g69
g50
NtRp118
(dp119
g53
(dp120
g73
g74
ssg62
g114
sg55
(lp121
g27
asbag48
(g69
g50
NtRp122
(dp123
g53
(dp124
g80
g81
ssg62
g114
sg55
(lp125
S':'
asbag48
(g69
g50
NtRp126
(dp127
g53
(dp128
sg62
g114
sg55
(lp129
g48
(g49
g50
NtRp130
(dp131
g53
(dp132
g61
I5
ssg62
g126
sg55
(lp133
g48
(g57
g50
NtRp134
(dp135
g53
(dp136
g61
I4
ssg62
Nsg55
(lp137
sbasbasbasbag48
(g64
g50
NtRp138
(dp139
g53
(dp140
sg62
g58
sg55
(lp141
g48
(g69
g50
NtRp142
(dp143
g53
(dp144
g73
g74
ssg62
g138
sg55
(lp145
S'body'
p146
asbag48
(g69
g50
NtRp147
(dp148
g53
(dp149
g80
g81
ssg62
g138
sg55
(lp150
S':'
asbag48
(g69
g50
NtRp151
(dp152
g53
(dp153
sg62
g138
sg55
(lp154
g48
(g49
g50
NtRp155
(dp156
g53
(dp157
g61
I5
ssg62
g151
sg55
(lp158
S'<cStringIO.StringO object at 0x035B5B20>'
p159
asbasbasbag48
(g64
g50
NtRp160
(dp161
g53
(dp162
sg62
g58
sg55
(lp163
g48
(g69
g50
NtRp164
(dp165
g53
(dp166
g73
g74
ssg62
g160
sg55
(lp167
S'client'
p168
asbag48
(g69
g50
NtRp169
(dp170
g53
(dp171
g80
g81
ssg62
g160
sg55
(lp172
S':'
asbag48
(g69
g50
NtRp173
(dp174
g53
(dp175
sg62
g160
sg55
(lp176
g48
(g49
g50
NtRp177
(dp178
g53
(dp179
g61
I5
ssg62
g173
sg55
(lp180
S'127.0.0.1'
p181
asbasbasbag48
(g64
g50
NtRp182
(dp183
g53
(dp184
sg62
g58
sg55
(lp185
g48
(g69
g50
NtRp186
(dp187
g53
(dp188
g73
g74
ssg62
g182
sg55
(lp189
S'controller'
p190
asbag48
(g69
g50
NtRp191
(dp192
g53
(dp193
g80
g81
ssg62
g182
sg55
(lp194
S':'
asbag48
(g69
g50
NtRp195
(dp196
g53
(dp197
sg62
g182
sg55
(lp198
g48
(g49
g50
NtRp199
(dp200
g53
(dp201
g61
I5
ssg62
g195
sg55
(lp202
S'fb_serv'
p203
asbasbasbag48
(g64
g50
NtRp204
(dp205
g53
(dp206
sg62
g58
sg55
(lp207
g48
(g69
g50
NtRp208
(dp209
g53
(dp210
g73
g74
ssg62
g204
sg55
(lp211
S'cookies'
p212
asbag48
(g69
g50
NtRp213
(dp214
g53
(dp215
g80
g81
ssg62
g204
sg55
(lp216
S':'
asbag48
(g69
g50
NtRp217
(dp218
g53
(dp219
sg62
g204
sg55
(lp220
g48
(g49
g50
NtRp221
(dp222
g53
(dp223
g61
I5
ssg62
g217
sg55
(lp224
g48
(g57
g50
NtRp225
(dp226
g53
(dp227
g61
I4
ssg62
Nsg55
(lp228
g48
(g64
g50
NtRp229
(dp230
g53
(dp231
sg62
g225
sg55
(lp232
g48
(g69
g50
NtRp233
(dp234
g53
(dp235
g73
g74
ssg62
g229
sg55
(lp236
S'session_id_admin'
p237
asbag48
(g69
g50
NtRp238
(dp239
g53
(dp240
g80
g81
ssg62
g229
sg55
(lp241
S':'
asbag48
(g69
g50
NtRp242
(dp243
g53
(dp244
sg62
g229
sg55
(lp245
g48
(g49
g50
NtRp246
(dp247
g53
(dp248
g61
I4
ssg62
g242
sg55
(lp249
g48
(g57
g50
NtRp250
(dp251
g53
(dp252
g61
I3
ssg62
Nsg55
(lp253
g48
(g64
g50
NtRp254
(dp255
g53
(dp256
sg62
g250
sg55
(lp257
g48
(g69
g50
NtRp258
(dp259
g53
(dp260
g73
g74
ssg62
g254
sg55
(lp261
S'comment'
p262
asbag48
(g69
g50
NtRp263
(dp264
g53
(dp265
g80
g81
ssg62
g254
sg55
(lp266
S':'
asbag48
(g69
g50
NtRp267
(dp268
g53
(dp269
sg62
g254
sg55
(lp270
g48
(g49
g50
NtRp271
(dp272
g53
(dp273
g61
I3
ssg62
g267
sg55
(lp274
S''
asbasbasbag48
(g64
g50
NtRp275
(dp276
g53
(dp277
sg62
g250
sg55
(lp278
g48
(g69
g50
NtRp279
(dp280
g53
(dp281
g73
g74
ssg62
g275
sg55
(lp282
S'domain'
p283
asbag48
(g69
g50
NtRp284
(dp285
g53
(dp286
g80
g81
ssg62
g275
sg55
(lp287
S':'
asbag48
(g69
g50
NtRp288
(dp289
g53
(dp290
sg62
g275
sg55
(lp291
g48
(g49
g50
NtRp292
(dp293
g53
(dp294
g61
I3
ssg62
g288
sg55
(lp295
S''
asbasbasbag48
(g64
g50
NtRp296
(dp297
g53
(dp298
sg62
g250
sg55
(lp299
g48
(g69
g50
NtRp300
(dp301
g53
(dp302
g73
g74
ssg62
g296
sg55
(lp303
S'expires'
p304
asbag48
(g69
g50
NtRp305
(dp306
g53
(dp307
g80
g81
ssg62
g296
sg55
(lp308
S':'
asbag48
(g69
g50
NtRp309
(dp310
g53
(dp311
sg62
g296
sg55
(lp312
g48
(g49
g50
NtRp313
(dp314
g53
(dp315
g61
I3
ssg62
g309
sg55
(lp316
S''
asbasbasbag48
(g64
g50
NtRp317
(dp318
g53
(dp319
sg62
g250
sg55
(lp320
g48
(g69
g50
NtRp321
(dp322
g53
(dp323
g73
g74
ssg62
g317
sg55
(lp324
S'max-age'
p325
asbag48
(g69
g50
NtRp326
(dp327
g53
(dp328
g80
g81
ssg62
g317
sg55
(lp329
S':'
asbag48
(g69
g50
NtRp330
(dp331
g53
(dp332
sg62
g317
sg55
(lp333
g48
(g49
g50
NtRp334
(dp335
g53
(dp336
g61
I3
ssg62
g330
sg55
(lp337
S''
asbasbasbag48
(g64
g50
NtRp338
(dp339
g53
(dp340
sg62
g250
sg55
(lp341
g48
(g69
g50
NtRp342
(dp343
g53
(dp344
g73
g74
ssg62
g338
sg55
(lp345
S'path'
p346
asbag48
(g69
g50
NtRp347
(dp348
g53
(dp349
g80
g81
ssg62
g338
sg55
(lp350
S':'
asbag48
(g69
g50
NtRp351
(dp352
g53
(dp353
sg62
g338
sg55
(lp354
g48
(g49
g50
NtRp355
(dp356
g53
(dp357
g61
I3
ssg62
g351
sg55
(lp358
S''
asbasbasbag48
(g64
g50
NtRp359
(dp360
g53
(dp361
sg62
g250
sg55
(lp362
g48
(g69
g50
NtRp363
(dp364
g53
(dp365
g73
g74
ssg62
g359
sg55
(lp366
S'secure'
p367
asbag48
(g69
g50
NtRp368
(dp369
g53
(dp370
g80
g81
ssg62
g359
sg55
(lp371
S':'
asbag48
(g69
g50
NtRp372
(dp373
g53
(dp374
sg62
g359
sg55
(lp375
g48
(g49
g50
NtRp376
(dp377
g53
(dp378
g61
I3
ssg62
g372
sg55
(lp379
S''
asbasbasbag48
(g64
g50
NtRp380
(dp381
g53
(dp382
sg62
g250
sg55
(lp383
g48
(g69
g50
NtRp384
(dp385
g53
(dp386
g73
g74
ssg62
g380
sg55
(lp387
S'version'
p388
asbag48
(g69
g50
NtRp389
(dp390
g53
(dp391
g80
g81
ssg62
g380
sg55
(lp392
S':'
asbag48
(g69
g50
NtRp393
(dp394
g53
(dp395
sg62
g380
sg55
(lp396
g48
(g49
g50
NtRp397
(dp398
g53
(dp399
g61
I3
ssg62
g393
sg55
(lp400
S''
asbasbasbasbasbasbasbag48
(g64
g50
NtRp401
(dp402
g53
(dp403
sg62
g225
sg55
(lp404
g48
(g69
g50
NtRp405
(dp406
g53
(dp407
g73
g74
ssg62
g401
sg55
(lp408
S'session_id_gabb1'
p409
asbag48
(g69
g50
NtRp410
(dp411
g53
(dp412
g80
g81
ssg62
g401
sg55
(lp413
S':'
asbag48
(g69
g50
NtRp414
(dp415
g53
(dp416
sg62
g401
sg55
(lp417
g48
(g49
g50
NtRp418
(dp419
g53
(dp420
g61
I4
ssg62
g414
sg55
(lp421
g48
(g57
g50
NtRp422
(dp423
g53
(dp424
g61
I3
ssg62
Nsg55
(lp425
g48
(g64
g50
NtRp426
(dp427
g53
(dp428
sg62
g422
sg55
(lp429
g48
(g69
g50
NtRp430
(dp431
g53
(dp432
g73
g74
ssg62
g426
sg55
(lp433
g262
asbag48
(g69
g50
NtRp434
(dp435
g53
(dp436
g80
g81
ssg62
g426
sg55
(lp437
S':'
asbag48
(g69
g50
NtRp438
(dp439
g53
(dp440
sg62
g426
sg55
(lp441
g48
(g49
g50
NtRp442
(dp443
g53
(dp444
g61
I3
ssg62
g438
sg55
(lp445
S''
asbasbasbag48
(g64
g50
NtRp446
(dp447
g53
(dp448
sg62
g422
sg55
(lp449
g48
(g69
g50
NtRp450
(dp451
g53
(dp452
g73
g74
ssg62
g446
sg55
(lp453
g283
asbag48
(g69
g50
NtRp454
(dp455
g53
(dp456
g80
g81
ssg62
g446
sg55
(lp457
S':'
asbag48
(g69
g50
NtRp458
(dp459
g53
(dp460
sg62
g446
sg55
(lp461
g48
(g49
g50
NtRp462
(dp463
g53
(dp464
g61
I3
ssg62
g458
sg55
(lp465
S''
asbasbasbag48
(g64
g50
NtRp466
(dp467
g53
(dp468
sg62
g422
sg55
(lp469
g48
(g69
g50
NtRp470
(dp471
g53
(dp472
g73
g74
ssg62
g466
sg55
(lp473
g304
asbag48
(g69
g50
NtRp474
(dp475
g53
(dp476
g80
g81
ssg62
g466
sg55
(lp477
S':'
asbag48
(g69
g50
NtRp478
(dp479
g53
(dp480
sg62
g466
sg55
(lp481
g48
(g49
g50
NtRp482
(dp483
g53
(dp484
g61
I3
ssg62
g478
sg55
(lp485
S''
asbasbasbag48
(g64
g50
NtRp486
(dp487
g53
(dp488
sg62
g422
sg55
(lp489
g48
(g69
g50
NtRp490
(dp491
g53
(dp492
g73
g74
ssg62
g486
sg55
(lp493
g325
asbag48
(g69
g50
NtRp494
(dp495
g53
(dp496
g80
g81
ssg62
g486
sg55
(lp497
S':'
asbag48
(g69
g50
NtRp498
(dp499
g53
(dp500
sg62
g486
sg55
(lp501
g48
(g49
g50
NtRp502
(dp503
g53
(dp504
g61
I3
ssg62
g498
sg55
(lp505
S''
asbasbasbag48
(g64
g50
NtRp506
(dp507
g53
(dp508
sg62
g422
sg55
(lp509
g48
(g69
g50
NtRp510
(dp511
g53
(dp512
g73
g74
ssg62
g506
sg55
(lp513
g346
asbag48
(g69
g50
NtRp514
(dp515
g53
(dp516
g80
g81
ssg62
g506
sg55
(lp517
S':'
asbag48
(g69
g50
NtRp518
(dp519
g53
(dp520
sg62
g506
sg55
(lp521
g48
(g49
g50
NtRp522
(dp523
g53
(dp524
g61
I3
ssg62
g518
sg55
(lp525
S''
asbasbasbag48
(g64
g50
NtRp526
(dp527
g53
(dp528
sg62
g422
sg55
(lp529
g48
(g69
g50
NtRp530
(dp531
g53
(dp532
g73
g74
ssg62
g526
sg55
(lp533
g367
asbag48
(g69
g50
NtRp534
(dp535
g53
(dp536
g80
g81
ssg62
g526
sg55
(lp537
S':'
asbag48
(g69
g50
NtRp538
(dp539
g53
(dp540
sg62
g526
sg55
(lp541
g48
(g49
g50
NtRp542
(dp543
g53
(dp544
g61
I3
ssg62
g538
sg55
(lp545
S''
asbasbasbag48
(g64
g50
NtRp546
(dp547
g53
(dp548
sg62
g422
sg55
(lp549
g48
(g69
g50
NtRp550
(dp551
g53
(dp552
g73
g74
ssg62
g546
sg55
(lp553
g388
asbag48
(g69
g50
NtRp554
(dp555
g53
(dp556
g80
g81
ssg62
g546
sg55
(lp557
S':'
asbag48
(g69
g50
NtRp558
(dp559
g53
(dp560
sg62
g546
sg55
(lp561
g48
(g49
g50
NtRp562
(dp563
g53
(dp564
g61
I3
ssg62
g558
sg55
(lp565
S''
asbasbasbasbasbasbasbag48
(g64
g50
NtRp566
(dp567
g53
(dp568
sg62
g225
sg55
(lp569
g48
(g69
g50
NtRp570
(dp571
g53
(dp572
g73
g74
ssg62
g566
sg55
(lp573
S'session_id_ojtest'
p574
asbag48
(g69
g50
NtRp575
(dp576
g53
(dp577
g80
g81
ssg62
g566
sg55
(lp578
S':'
asbag48
(g69
g50
NtRp579
(dp580
g53
(dp581
sg62
g566
sg55
(lp582
g48
(g49
g50
NtRp583
(dp584
g53
(dp585
g61
I4
ssg62
g579
sg55
(lp586
g48
(g57
g50
NtRp587
(dp588
g53
(dp589
g61
I3
ssg62
Nsg55
(lp590
g48
(g64
g50
NtRp591
(dp592
g53
(dp593
sg62
g587
sg55
(lp594
g48
(g69
g50
NtRp595
(dp596
g53
(dp597
g73
g74
ssg62
g591
sg55
(lp598
g262
asbag48
(g69
g50
NtRp599
(dp600
g53
(dp601
g80
g81
ssg62
g591
sg55
(lp602
S':'
asbag48
(g69
g50
NtRp603
(dp604
g53
(dp605
sg62
g591
sg55
(lp606
g48
(g49
g50
NtRp607
(dp608
g53
(dp609
g61
I3
ssg62
g603
sg55
(lp610
S''
asbasbasbag48
(g64
g50
NtRp611
(dp612
g53
(dp613
sg62
g587
sg55
(lp614
g48
(g69
g50
NtRp615
(dp616
g53
(dp617
g73
g74
ssg62
g611
sg55
(lp618
g283
asbag48
(g69
g50
NtRp619
(dp620
g53
(dp621
g80
g81
ssg62
g611
sg55
(lp622
S':'
asbag48
(g69
g50
NtRp623
(dp624
g53
(dp625
sg62
g611
sg55
(lp626
g48
(g49
g50
NtRp627
(dp628
g53
(dp629
g61
I3
ssg62
g623
sg55
(lp630
S''
asbasbasbag48
(g64
g50
NtRp631
(dp632
g53
(dp633
sg62
g587
sg55
(lp634
g48
(g69
g50
NtRp635
(dp636
g53
(dp637
g73
g74
ssg62
g631
sg55
(lp638
g304
asbag48
(g69
g50
NtRp639
(dp640
g53
(dp641
g80
g81
ssg62
g631
sg55
(lp642
S':'
asbag48
(g69
g50
NtRp643
(dp644
g53
(dp645
sg62
g631
sg55
(lp646
g48
(g49
g50
NtRp647
(dp648
g53
(dp649
g61
I3
ssg62
g643
sg55
(lp650
S''
asbasbasbag48
(g64
g50
NtRp651
(dp652
g53
(dp653
sg62
g587
sg55
(lp654
g48
(g69
g50
NtRp655
(dp656
g53
(dp657
g73
g74
ssg62
g651
sg55
(lp658
g325
asbag48
(g69
g50
NtRp659
(dp660
g53
(dp661
g80
g81
ssg62
g651
sg55
(lp662
S':'
asbag48
(g69
g50
NtRp663
(dp664
g53
(dp665
sg62
g651
sg55
(lp666
g48
(g49
g50
NtRp667
(dp668
g53
(dp669
g61
I3
ssg62
g663
sg55
(lp670
S''
asbasbasbag48
(g64
g50
NtRp671
(dp672
g53
(dp673
sg62
g587
sg55
(lp674
g48
(g69
g50
NtRp675
(dp676
g53
(dp677
g73
g74
ssg62
g671
sg55
(lp678
g346
asbag48
(g69
g50
NtRp679
(dp680
g53
(dp681
g80
g81
ssg62
g671
sg55
(lp682
S':'
asbag48
(g69
g50
NtRp683
(dp684
g53
(dp685
sg62
g671
sg55
(lp686
g48
(g49
g50
NtRp687
(dp688
g53
(dp689
g61
I3
ssg62
g683
sg55
(lp690
S''
asbasbasbag48
(g64
g50
NtRp691
(dp692
g53
(dp693
sg62
g587
sg55
(lp694
g48
(g69
g50
NtRp695
(dp696
g53
(dp697
g73
g74
ssg62
g691
sg55
(lp698
g367
asbag48
(g69
g50
NtRp699
(dp700
g53
(dp701
g80
g81
ssg62
g691
sg55
(lp702
S':'
asbag48
(g69
g50
NtRp703
(dp704
g53
(dp705
sg62
g691
sg55
(lp706
g48
(g49
g50
NtRp707
(dp708
g53
(dp709
g61
I3
ssg62
g703
sg55
(lp710
S''
asbasbasbag48
(g64
g50
NtRp711
(dp712
g53
(dp713
sg62
g587
sg55
(lp714
g48
(g69
g50
NtRp715
(dp716
g53
(dp717
g73
g74
ssg62
g711
sg55
(lp718
g388
asbag48
(g69
g50
NtRp719
(dp720
g53
(dp721
g80
g81
ssg62
g711
sg55
(lp722
S':'
asbag48
(g69
g50
NtRp723
(dp724
g53
(dp725
sg62
g711
sg55
(lp726
g48
(g49
g50
NtRp727
(dp728
g53
(dp729
g61
I3
ssg62
g723
sg55
(lp730
S''
asbasbasbasbasbasbasbag48
(g64
g50
NtRp731
(dp732
g53
(dp733
sg62
g225
sg55
(lp734
g48
(g69
g50
NtRp735
(dp736
g53
(dp737
g73
g74
ssg62
g731
sg55
(lp738
S'session_id_welcome'
p739
asbag48
(g69
g50
NtRp740
(dp741
g53
(dp742
g80
g81
ssg62
g731
sg55
(lp743
S':'
asbag48
(g69
g50
NtRp744
(dp745
g53
(dp746
sg62
g731
sg55
(lp747
g48
(g49
g50
NtRp748
(dp749
g53
(dp750
g61
I4
ssg62
g744
sg55
(lp751
g48
(g57
g50
NtRp752
(dp753
g53
(dp754
g61
I3
ssg62
Nsg55
(lp755
g48
(g64
g50
NtRp756
(dp757
g53
(dp758
sg62
g752
sg55
(lp759
g48
(g69
g50
NtRp760
(dp761
g53
(dp762
g73
g74
ssg62
g756
sg55
(lp763
g262
asbag48
(g69
g50
NtRp764
(dp765
g53
(dp766
g80
g81
ssg62
g756
sg55
(lp767
S':'
asbag48
(g69
g50
NtRp768
(dp769
g53
(dp770
sg62
g756
sg55
(lp771
g48
(g49
g50
NtRp772
(dp773
g53
(dp774
g61
I3
ssg62
g768
sg55
(lp775
S''
asbasbasbag48
(g64
g50
NtRp776
(dp777
g53
(dp778
sg62
g752
sg55
(lp779
g48
(g69
g50
NtRp780
(dp781
g53
(dp782
g73
g74
ssg62
g776
sg55
(lp783
g283
asbag48
(g69
g50
NtRp784
(dp785
g53
(dp786
g80
g81
ssg62
g776
sg55
(lp787
S':'
asbag48
(g69
g50
NtRp788
(dp789
g53
(dp790
sg62
g776
sg55
(lp791
g48
(g49
g50
NtRp792
(dp793
g53
(dp794
g61
I3
ssg62
g788
sg55
(lp795
S''
asbasbasbag48
(g64
g50
NtRp796
(dp797
g53
(dp798
sg62
g752
sg55
(lp799
g48
(g69
g50
NtRp800
(dp801
g53
(dp802
g73
g74
ssg62
g796
sg55
(lp803
g304
asbag48
(g69
g50
NtRp804
(dp805
g53
(dp806
g80
g81
ssg62
g796
sg55
(lp807
S':'
asbag48
(g69
g50
NtRp808
(dp809
g53
(dp810
sg62
g796
sg55
(lp811
g48
(g49
g50
NtRp812
(dp813
g53
(dp814
g61
I3
ssg62
g808
sg55
(lp815
S''
asbasbasbag48
(g64
g50
NtRp816
(dp817
g53
(dp818
sg62
g752
sg55
(lp819
g48
(g69
g50
NtRp820
(dp821
g53
(dp822
g73
g74
ssg62
g816
sg55
(lp823
g325
asbag48
(g69
g50
NtRp824
(dp825
g53
(dp826
g80
g81
ssg62
g816
sg55
(lp827
S':'
asbag48
(g69
g50
NtRp828
(dp829
g53
(dp830
sg62
g816
sg55
(lp831
g48
(g49
g50
NtRp832
(dp833
g53
(dp834
g61
I3
ssg62
g828
sg55
(lp835
S''
asbasbasbag48
(g64
g50
NtRp836
(dp837
g53
(dp838
sg62
g752
sg55
(lp839
g48
(g69
g50
NtRp840
(dp841
g53
(dp842
g73
g74
ssg62
g836
sg55
(lp843
g346
asbag48
(g69
g50
NtRp844
(dp845
g53
(dp846
g80
g81
ssg62
g836
sg55
(lp847
S':'
asbag48
(g69
g50
NtRp848
(dp849
g53
(dp850
sg62
g836
sg55
(lp851
g48
(g49
g50
NtRp852
(dp853
g53
(dp854
g61
I3
ssg62
g848
sg55
(lp855
S''
asbasbasbag48
(g64
g50
NtRp856
(dp857
g53
(dp858
sg62
g752
sg55
(lp859
g48
(g69
g50
NtRp860
(dp861
g53
(dp862
g73
g74
ssg62
g856
sg55
(lp863
g367
asbag48
(g69
g50
NtRp864
(dp865
g53
(dp866
g80
g81
ssg62
g856
sg55
(lp867
S':'
asbag48
(g69
g50
NtRp868
(dp869
g53
(dp870
sg62
g856
sg55
(lp871
g48
(g49
g50
NtRp872
(dp873
g53
(dp874
g61
I3
ssg62
g868
sg55
(lp875
S''
asbasbasbag48
(g64
g50
NtRp876
(dp877
g53
(dp878
sg62
g752
sg55
(lp879
g48
(g69
g50
NtRp880
(dp881
g53
(dp882
g73
g74
ssg62
g876
sg55
(lp883
g388
asbag48
(g69
g50
NtRp884
(dp885
g53
(dp886
g80
g81
ssg62
g876
sg55
(lp887
S':'
asbag48
(g69
g50
NtRp888
(dp889
g53
(dp890
sg62
g876
sg55
(lp891
g48
(g49
g50
NtRp892
(dp893
g53
(dp894
g61
I3
ssg62
g888
sg55
(lp895
S''
asbasbasbasbasbasbasbasbasbasbasbag48
(g64
g50
NtRp896
(dp897
g53
(dp898
sg62
g58
sg55
(lp899
g48
(g69
g50
NtRp900
(dp901
g53
(dp902
g73
g74
ssg62
g896
sg55
(lp903
S'env'
p904
asbag48
(g69
g50
NtRp905
(dp906
g53
(dp907
g80
g81
ssg62
g896
sg55
(lp908
S':'
asbag48
(g69
g50
NtRp909
(dp910
g53
(dp911
sg62
g896
sg55
(lp912
g48
(g49
g50
NtRp913
(dp914
g53
(dp915
g61
I5
ssg62
g909
sg55
(lp916
g48
(g57
g50
NtRp917
(dp918
g53
(dp919
g61
I4
ssg62
Nsg55
(lp920
g48
(g64
g50
NtRp921
(dp922
g53
(dp923
sg62
g917
sg55
(lp924
g48
(g69
g50
NtRp925
(dp926
g53
(dp927
g73
g74
ssg62
g921
sg55
(lp928
S'app_folders'
p929
asbag48
(g69
g50
NtRp930
(dp931
g53
(dp932
g80
g81
ssg62
g921
sg55
(lp933
S':'
asbag48
(g69
g50
NtRp934
(dp935
g53
(dp936
sg62
g921
sg55
(lp937
g48
(g49
g50
NtRp938
(dp939
g53
(dp940
g61
I4
ssg62
g934
sg55
(lp941
S"set(['D:\\\\git_projs\\\\Gabblista\\\\web2py\\\\web2py\\\\applications\\\\gabb1\\\\', 'D:\\\\git_projs\\\\Gabblista\\\\web2py\\\\web2py\\\\applications\\\\Gabb1\\\\', 'D:\\\\git_projs\\\\Gabblista\\\\web2py\\\\web2py\\\\applications\\\\admin\\\\', 'D:\\\\git_projs\\\\Gabblista\\\\web2py\\\\web2py\\\\applications\\\\welcome\\\\'])"
p942
asbasbasbag48
(g64
g50
NtRp943
(dp944
g53
(dp945
sg62
g917
sg55
(lp946
g48
(g69
g50
NtRp947
(dp948
g53
(dp949
g73
g74
ssg62
g943
sg55
(lp950
S'applications_parent'
p951
asbag48
(g69
g50
NtRp952
(dp953
g53
(dp954
g80
g81
ssg62
g943
sg55
(lp955
S':'
asbag48
(g69
g50
NtRp956
(dp957
g53
(dp958
sg62
g943
sg55
(lp959
g48
(g49
g50
NtRp960
(dp961
g53
(dp962
g61
I4
ssg62
g956
sg55
(lp963
S'D:\\git_projs\\Gabblista\\web2py\\web2py'
p964
asbasbasbag48
(g64
g50
NtRp965
(dp966
g53
(dp967
sg62
g917
sg55
(lp968
g48
(g69
g50
NtRp969
(dp970
g53
(dp971
g73
g74
ssg62
g965
sg55
(lp972
S'cmd_args'
p973
asbag48
(g69
g50
NtRp974
(dp975
g53
(dp976
g80
g81
ssg62
g965
sg55
(lp977
S':'
asbag48
(g69
g50
NtRp978
(dp979
g53
(dp980
sg62
g965
sg55
(lp981
g48
(g49
g50
NtRp982
(dp983
g53
(dp984
g61
I4
ssg62
g978
sg55
(lp985
g48
(g57
g50
NtRp986
(dp987
g53
(dp988
g61
I3
ssg62
Nsg55
(lp989
sbasbasbasbag48
(g64
g50
NtRp990
(dp991
g53
(dp992
sg62
g917
sg55
(lp993
g48
(g69
g50
NtRp994
(dp995
g53
(dp996
g73
g74
ssg62
g990
sg55
(lp997
S'cmd_options'
p998
asbag48
(g69
g50
NtRp999
(dp1000
g53
(dp1001
g80
g81
ssg62
g990
sg55
(lp1002
S':'
asbag48
(g69
g50
NtRp1003
(dp1004
g53
(dp1005
sg62
g990
sg55
(lp1006
g48
(g49
g50
NtRp1007
(dp1008
g53
(dp1009
g61
I4
ssg62
g1003
sg55
(lp1010
S"<Values at 0x325b800: {'verbose': False, 'ip': '127.0.0.1', 'shutdown_timeout': 5, 'taskbar': False, 'nocron': False, 'pid_filename': 'httpserver.pid', 'maxthreads': None, 'softcron': False, 'server_name': 'John-PC', 'bpython': False, 'nogui': False, 'port': 8000, 'extcron': False, 'debuglevel': 30, 'test': None, 'folder': 'D:\\\\git_projs\\\\Gabblista\\\\web2py\\\\web2py', 'config': '', 'import_models': False, 'winservice': '', 'shell': None, 'run': '', 'log_filename': 'httpserver.log', 'args': [''], 'ssl_ca_certificate': None, 'scheduler': None, 'profiler_filename': None, 'ssl_private_key': '', 'password': '<ask>', 'request_queue_size': 5, 'ssl_certificate': '', 'cronjob': False, 'plain': False, 'quiet': False, 'interfaces': None, 'minthreads': None, 'timeout': 10, 'numthreads': None, 'nobanner': False}>"
p1011
asbasbasbag48
(g64
g50
NtRp1012
(dp1013
g53
(dp1014
sg62
g917
sg55
(lp1015
g48
(g69
g50
NtRp1016
(dp1017
g53
(dp1018
g73
g74
ssg62
g1012
sg55
(lp1019
S'db_sessions'
p1020
asbag48
(g69
g50
NtRp1021
(dp1022
g53
(dp1023
g80
g81
ssg62
g1012
sg55
(lp1024
S':'
asbag48
(g69
g50
NtRp1025
(dp1026
g53
(dp1027
sg62
g1012
sg55
(lp1028
g48
(g49
g50
NtRp1029
(dp1030
g53
(dp1031
g61
I4
ssg62
g1025
sg55
(lp1032
S'set([])'
p1033
asbasbasbag48
(g64
g50
NtRp1034
(dp1035
g53
(dp1036
sg62
g917
sg55
(lp1037
g48
(g69
g50
NtRp1038
(dp1039
g53
(dp1040
g73
g74
ssg62
g1034
sg55
(lp1041
S'debugging'
p1042
asbag48
(g69
g50
NtRp1043
(dp1044
g53
(dp1045
g80
g81
ssg62
g1034
sg55
(lp1046
S':'
asbag48
(g69
g50
NtRp1047
(dp1048
g53
(dp1049
sg62
g1034
sg55
(lp1050
g48
(g49
g50
NtRp1051
(dp1052
g53
(dp1053
g61
I4
ssg62
g1047
sg55
(lp1054
g91
asbasbasbag48
(g64
g50
NtRp1055
(dp1056
g53
(dp1057
sg62
g917
sg55
(lp1058
g48
(g69
g50
NtRp1059
(dp1060
g53
(dp1061
g73
g74
ssg62
g1055
sg55
(lp1062
S'gluon_parent'
p1063
asbag48
(g69
g50
NtRp1064
(dp1065
g53
(dp1066
g80
g81
ssg62
g1055
sg55
(lp1067
S':'
asbag48
(g69
g50
NtRp1068
(dp1069
g53
(dp1070
sg62
g1055
sg55
(lp1071
g48
(g49
g50
NtRp1072
(dp1073
g53
(dp1074
g61
I4
ssg62
g1068
sg55
(lp1075
S'D:\\git_projs\\Gabblista\\web2py\\web2py'
p1076
asbasbasbag48
(g64
g50
NtRp1077
(dp1078
g53
(dp1079
sg62
g917
sg55
(lp1080
g48
(g69
g50
NtRp1081
(dp1082
g53
(dp1083
g73
g74
ssg62
g1077
sg55
(lp1084
S'http_accept'
p1085
asbag48
(g69
g50
NtRp1086
(dp1087
g53
(dp1088
g80
g81
ssg62
g1077
sg55
(lp1089
S':'
asbag48
(g69
g50
NtRp1090
(dp1091
g53
(dp1092
sg62
g1077
sg55
(lp1093
g48
(g49
g50
NtRp1094
(dp1095
g53
(dp1096
g61
I4
ssg62
g1090
sg55
(lp1097
S'text/html,application/xhtml+xml,application/xml;q=0.9,*/*;q=0.8'
p1098
asbasbasbag48
(g64
g50
NtRp1099
(dp1100
g53
(dp1101
sg62
g917
sg55
(lp1102
g48
(g69
g50
NtRp1103
(dp1104
g53
(dp1105
g73
g74
ssg62
g1099
sg55
(lp1106
S'http_accept_charset'
p1107
asbag48
(g69
g50
NtRp1108
(dp1109
g53
(dp1110
g80
g81
ssg62
g1099
sg55
(lp1111
S':'
asbag48
(g69
g50
NtRp1112
(dp1113
g53
(dp1114
sg62
g1099
sg55
(lp1115
g48
(g49
g50
NtRp1116
(dp1117
g53
(dp1118
g61
I4
ssg62
g1112
sg55
(lp1119
S'ISO-8859-1,utf-8;q=0.7,*;q=0.3'
p1120
asbasbasbag48
(g64
g50
NtRp1121
(dp1122
g53
(dp1123
sg62
g917
sg55
(lp1124
g48
(g69
g50
NtRp1125
(dp1126
g53
(dp1127
g73
g74
ssg62
g1121
sg55
(lp1128
S'http_accept_encoding'
p1129
asbag48
(g69
g50
NtRp1130
(dp1131
g53
(dp1132
g80
g81
ssg62
g1121
sg55
(lp1133
S':'
asbag48
(g69
g50
NtRp1134
(dp1135
g53
(dp1136
sg62
g1121
sg55
(lp1137
g48
(g49
g50
NtRp1138
(dp1139
g53
(dp1140
g61
I4
ssg62
g1134
sg55
(lp1141
S'gzip,deflate,sdch'
p1142
asbasbasbag48
(g64
g50
NtRp1143
(dp1144
g53
(dp1145
sg62
g917
sg55
(lp1146
g48
(g69
g50
NtRp1147
(dp1148
g53
(dp1149
g73
g74
ssg62
g1143
sg55
(lp1150
S'http_accept_language'
p1151
asbag48
(g69
g50
NtRp1152
(dp1153
g53
(dp1154
g80
g81
ssg62
g1143
sg55
(lp1155
S':'
asbag48
(g69
g50
NtRp1156
(dp1157
g53
(dp1158
sg62
g1143
sg55
(lp1159
g48
(g49
g50
NtRp1160
(dp1161
g53
(dp1162
g61
I4
ssg62
g1156
sg55
(lp1163
S'en-US,en;q=0.8'
p1164
asbasbasbag48
(g64
g50
NtRp1165
(dp1166
g53
(dp1167
sg62
g917
sg55
(lp1168
g48
(g69
g50
NtRp1169
(dp1170
g53
(dp1171
g73
g74
ssg62
g1165
sg55
(lp1172
S'http_cache_control'
p1173
asbag48
(g69
g50
NtRp1174
(dp1175
g53
(dp1176
g80
g81
ssg62
g1165
sg55
(lp1177
S':'
asbag48
(g69
g50
NtRp1178
(dp1179
g53
(dp1180
sg62
g1165
sg55
(lp1181
g48
(g49
g50
NtRp1182
(dp1183
g53
(dp1184
g61
I4
ssg62
g1178
sg55
(lp1185
S'max-age=0'
p1186
asbasbasbag48
(g64
g50
NtRp1187
(dp1188
g53
(dp1189
sg62
g917
sg55
(lp1190
g48
(g69
g50
NtRp1191
(dp1192
g53
(dp1193
g73
g74
ssg62
g1187
sg55
(lp1194
S'http_connection'
p1195
asbag48
(g69
g50
NtRp1196
(dp1197
g53
(dp1198
g80
g81
ssg62
g1187
sg55
(lp1199
S':'
asbag48
(g69
g50
NtRp1200
(dp1201
g53
(dp1202
sg62
g1187
sg55
(lp1203
g48
(g49
g50
NtRp1204
(dp1205
g53
(dp1206
g61
I4
ssg62
g1200
sg55
(lp1207
S'keep-alive'
p1208
asbasbasbag48
(g64
g50
NtRp1209
(dp1210
g53
(dp1211
sg62
g917
sg55
(lp1212
g48
(g69
g50
NtRp1213
(dp1214
g53
(dp1215
g73
g74
ssg62
g1209
sg55
(lp1216
S'http_cookie'
p1217
asbag48
(g69
g50
NtRp1218
(dp1219
g53
(dp1220
g80
g81
ssg62
g1209
sg55
(lp1221
S':'
asbag48
(g69
g50
NtRp1222
(dp1223
g53
(dp1224
sg62
g1209
sg55
(lp1225
g48
(g49
g50
NtRp1226
(dp1227
g53
(dp1228
g61
I4
ssg62
g1222
sg55
(lp1229
S'session_id_ojtest="1673:0b3a82b6-d697-4763-b7ae-5776f137ef68"; session_id_gabb1=127.0.0.1-3bf8ce85-e0ca-4a46-8cd0-e96e868047a2; session_id_welcome=127.0.0.1-6d50c47e-7f62-40fa-b134-ee701fab76a2; session_id_admin=127.0.0.1-36373dbf-d82c-4405-b2a1-4903a4e5c8b4'
p1230
asbasbasbag48
(g64
g50
NtRp1231
(dp1232
g53
(dp1233
sg62
g917
sg55
(lp1234
g48
(g69
g50
NtRp1235
(dp1236
g53
(dp1237
g73
g74
ssg62
g1231
sg55
(lp1238
S'http_host'
p1239
asbag48
(g69
g50
NtRp1240
(dp1241
g53
(dp1242
g80
g81
ssg62
g1231
sg55
(lp1243
S':'
asbag48
(g69
g50
NtRp1244
(dp1245
g53
(dp1246
sg62
g1231
sg55
(lp1247
g48
(g49
g50
NtRp1248
(dp1249
g53
(dp1250
g61
I4
ssg62
g1244
sg55
(lp1251
S'127.0.0.1:8000'
p1252
asbasbasbag48
(g64
g50
NtRp1253
(dp1254
g53
(dp1255
sg62
g917
sg55
(lp1256
g48
(g69
g50
NtRp1257
(dp1258
g53
(dp1259
g73
g74
ssg62
g1253
sg55
(lp1260
S'http_user_agent'
p1261
asbag48
(g69
g50
NtRp1262
(dp1263
g53
(dp1264
g80
g81
ssg62
g1253
sg55
(lp1265
S':'
asbag48
(g69
g50
NtRp1266
(dp1267
g53
(dp1268
sg62
g1253
sg55
(lp1269
g48
(g49
g50
NtRp1270
(dp1271
g53
(dp1272
g61
I4
ssg62
g1266
sg55
(lp1273
S'Mozilla/5.0 (Windows NT 6.1; WOW64) AppleWebKit/535.7 (KHTML, like Gecko) Chrome/16.0.912.75 Safari/535.7'
p1274
asbasbasbag48
(g64
g50
NtRp1275
(dp1276
g53
(dp1277
sg62
g917
sg55
(lp1278
g48
(g69
g50
NtRp1279
(dp1280
g53
(dp1281
g73
g74
ssg62
g1275
sg55
(lp1282
S'is_jython'
p1283
asbag48
(g69
g50
NtRp1284
(dp1285
g53
(dp1286
g80
g81
ssg62
g1275
sg55
(lp1287
S':'
asbag48
(g69
g50
NtRp1288
(dp1289
g53
(dp1290
sg62
g1275
sg55
(lp1291
g48
(g49
g50
NtRp1292
(dp1293
g53
(dp1294
g61
I4
ssg62
g1288
sg55
(lp1295
g91
asbasbasbag48
(g64
g50
NtRp1296
(dp1297
g53
(dp1298
sg62
g917
sg55
(lp1299
g48
(g69
g50
NtRp1300
(dp1301
g53
(dp1302
g73
g74
ssg62
g1296
sg55
(lp1303
S'path_info'
p1304
asbag48
(g69
g50
NtRp1305
(dp1306
g53
(dp1307
g80
g81
ssg62
g1296
sg55
(lp1308
S':'
asbag48
(g69
g50
NtRp1309
(dp1310
g53
(dp1311
sg62
g1296
sg55
(lp1312
g48
(g49
g50
NtRp1313
(dp1314
g53
(dp1315
g61
I4
ssg62
g1309
sg55
(lp1316
S'/Gabb1/fb_serv/serve_player_data.txt'
p1317
asbasbasbag48
(g64
g50
NtRp1318
(dp1319
g53
(dp1320
sg62
g917
sg55
(lp1321
g48
(g69
g50
NtRp1322
(dp1323
g53
(dp1324
g73
g74
ssg62
g1318
sg55
(lp1325
S'query_string'
p1326
asbag48
(g69
g50
NtRp1327
(dp1328
g53
(dp1329
g80
g81
ssg62
g1318
sg55
(lp1330
S':'
asbag48
(g69
g50
NtRp1331
(dp1332
g53
(dp1333
sg62
g1318
sg55
(lp1334
g48
(g49
g50
NtRp1335
(dp1336
g53
(dp1337
g61
I4
ssg62
g1331
sg55
(lp1338
S'player_ID=0&opponent_ID=1&game_ID=0'
p1339
asbasbasbag48
(g64
g50
NtRp1340
(dp1341
g53
(dp1342
sg62
g917
sg55
(lp1343
g48
(g69
g50
NtRp1344
(dp1345
g53
(dp1346
g73
g74
ssg62
g1340
sg55
(lp1347
S'remote_addr'
p1348
asbag48
(g69
g50
NtRp1349
(dp1350
g53
(dp1351
g80
g81
ssg62
g1340
sg55
(lp1352
S':'
asbag48
(g69
g50
NtRp1353
(dp1354
g53
(dp1355
sg62
g1340
sg55
(lp1356
g48
(g49
g50
NtRp1357
(dp1358
g53
(dp1359
g61
I4
ssg62
g1353
sg55
(lp1360
g181
asbasbasbag48
(g64
g50
NtRp1361
(dp1362
g53
(dp1363
sg62
g917
sg55
(lp1364
g48
(g69
g50
NtRp1365
(dp1366
g53
(dp1367
g73
g74
ssg62
g1361
sg55
(lp1368
S'remote_port'
p1369
asbag48
(g69
g50
NtRp1370
(dp1371
g53
(dp1372
g80
g81
ssg62
g1361
sg55
(lp1373
S':'
asbag48
(g69
g50
NtRp1374
(dp1375
g53
(dp1376
sg62
g1361
sg55
(lp1377
g48
(g49
g50
NtRp1378
(dp1379
g53
(dp1380
g61
I4
ssg62
g1374
sg55
(lp1381
S'64640'
p1382
asbasbasbag48
(g64
g50
NtRp1383
(dp1384
g53
(dp1385
sg62
g917
sg55
(lp1386
g48
(g69
g50
NtRp1387
(dp1388
g53
(dp1389
g73
g74
ssg62
g1383
sg55
(lp1390
S'request_method'
p1391
asbag48
(g69
g50
NtRp1392
(dp1393
g53
(dp1394
g80
g81
ssg62
g1383
sg55
(lp1395
S':'
asbag48
(g69
g50
NtRp1396
(dp1397
g53
(dp1398
sg62
g1383
sg55
(lp1399
g48
(g49
g50
NtRp1400
(dp1401
g53
(dp1402
g61
I4
ssg62
g1396
sg55
(lp1403
S'GET'
p1404
asbasbasbag48
(g64
g50
NtRp1405
(dp1406
g53
(dp1407
sg62
g917
sg55
(lp1408
g48
(g69
g50
NtRp1409
(dp1410
g53
(dp1411
g73
g74
ssg62
g1405
sg55
(lp1412
S'request_uri'
p1413
asbag48
(g69
g50
NtRp1414
(dp1415
g53
(dp1416
g80
g81
ssg62
g1405
sg55
(lp1417
S':'
asbag48
(g69
g50
NtRp1418
(dp1419
g53
(dp1420
sg62
g1405
sg55
(lp1421
g48
(g49
g50
NtRp1422
(dp1423
g53
(dp1424
g61
I4
ssg62
g1418
sg55
(lp1425
S'/Gabb1/fb_serv/serve_player_data.txt?player_ID=0&opponent_ID=1&game_ID=0'
p1426
asbasbasbag48
(g64
g50
NtRp1427
(dp1428
g53
(dp1429
sg62
g917
sg55
(lp1430
g48
(g69
g50
NtRp1431
(dp1432
g53
(dp1433
g73
g74
ssg62
g1427
sg55
(lp1434
S'script_name'
p1435
asbag48
(g69
g50
NtRp1436
(dp1437
g53
(dp1438
g80
g81
ssg62
g1427
sg55
(lp1439
S':'
asbag48
(g69
g50
NtRp1440
(dp1441
g53
(dp1442
sg62
g1427
sg55
(lp1443
g48
(g49
g50
NtRp1444
(dp1445
g53
(dp1446
g61
I4
ssg62
g1440
sg55
(lp1447
S''
asbasbasbag48
(g64
g50
NtRp1448
(dp1449
g53
(dp1450
sg62
g917
sg55
(lp1451
g48
(g69
g50
NtRp1452
(dp1453
g53
(dp1454
g73
g74
ssg62
g1448
sg55
(lp1455
S'server_name'
p1456
asbag48
(g69
g50
NtRp1457
(dp1458
g53
(dp1459
g80
g81
ssg62
g1448
sg55
(lp1460
S':'
asbag48
(g69
g50
NtRp1461
(dp1462
g53
(dp1463
sg62
g1448
sg55
(lp1464
g48
(g49
g50
NtRp1465
(dp1466
g53
(dp1467
g61
I4
ssg62
g1461
sg55
(lp1468
S'John-PC'
p1469
asbasbasbag48
(g64
g50
NtRp1470
(dp1471
g53
(dp1472
sg62
g917
sg55
(lp1473
g48
(g69
g50
NtRp1474
(dp1475
g53
(dp1476
g73
g74
ssg62
g1470
sg55
(lp1477
S'server_port'
p1478
asbag48
(g69
g50
NtRp1479
(dp1480
g53
(dp1481
g80
g81
ssg62
g1470
sg55
(lp1482
S':'
asbag48
(g69
g50
NtRp1483
(dp1484
g53
(dp1485
sg62
g1470
sg55
(lp1486
g48
(g49
g50
NtRp1487
(dp1488
g53
(dp1489
g61
I4
ssg62
g1483
sg55
(lp1490
S'8000'
p1491
asbasbasbag48
(g64
g50
NtRp1492
(dp1493
g53
(dp1494
sg62
g917
sg55
(lp1495
g48
(g69
g50
NtRp1496
(dp1497
g53
(dp1498
g73
g74
ssg62
g1492
sg55
(lp1499
S'server_protocol'
p1500
asbag48
(g69
g50
NtRp1501
(dp1502
g53
(dp1503
g80
g81
ssg62
g1492
sg55
(lp1504
S':'
asbag48
(g69
g50
NtRp1505
(dp1506
g53
(dp1507
sg62
g1492
sg55
(lp1508
g48
(g49
g50
NtRp1509
(dp1510
g53
(dp1511
g61
I4
ssg62
g1505
sg55
(lp1512
S'HTTP/1.1'
p1513
asbasbasbag48
(g64
g50
NtRp1514
(dp1515
g53
(dp1516
sg62
g917
sg55
(lp1517
g48
(g69
g50
NtRp1518
(dp1519
g53
(dp1520
g73
g74
ssg62
g1514
sg55
(lp1521
S'server_software'
p1522
asbag48
(g69
g50
NtRp1523
(dp1524
g53
(dp1525
g80
g81
ssg62
g1514
sg55
(lp1526
S':'
asbag48
(g69
g50
NtRp1527
(dp1528
g53
(dp1529
sg62
g1514
sg55
(lp1530
g48
(g49
g50
NtRp1531
(dp1532
g53
(dp1533
g61
I4
ssg62
g1527
sg55
(lp1534
S'Rocket 1.2.4'
p1535
asbasbasbag48
(g64
g50
NtRp1536
(dp1537
g53
(dp1538
sg62
g917
sg55
(lp1539
g48
(g69
g50
NtRp1540
(dp1541
g53
(dp1542
g73
g74
ssg62
g1536
sg55
(lp1543
S'web2py_crontype'
p1544
asbag48
(g69
g50
NtRp1545
(dp1546
g53
(dp1547
g80
g81
ssg62
g1536
sg55
(lp1548
S':'
asbag48
(g69
g50
NtRp1549
(dp1550
g53
(dp1551
sg62
g1536
sg55
(lp1552
g48
(g49
g50
NtRp1553
(dp1554
g53
(dp1555
g61
I4
ssg62
g1549
sg55
(lp1556
S'hard'
p1557
asbasbasbag48
(g64
g50
NtRp1558
(dp1559
g53
(dp1560
sg62
g917
sg55
(lp1561
g48
(g69
g50
NtRp1562
(dp1563
g53
(dp1564
g73
g74
ssg62
g1558
sg55
(lp1565
S'web2py_original_uri'
p1566
asbag48
(g69
g50
NtRp1567
(dp1568
g53
(dp1569
g80
g81
ssg62
g1558
sg55
(lp1570
S':'
asbag48
(g69
g50
NtRp1571
(dp1572
g53
(dp1573
sg62
g1558
sg55
(lp1574
g48
(g49
g50
NtRp1575
(dp1576
g53
(dp1577
g61
I4
ssg62
g1571
sg55
(lp1578
S'/Gabb1/fb_serv/serve_player_data.txt?player_ID=0&opponent_ID=1&game_ID=0'
p1579
asbasbasbag48
(g64
g50
NtRp1580
(dp1581
g53
(dp1582
sg62
g917
sg55
(lp1583
g48
(g69
g50
NtRp1584
(dp1585
g53
(dp1586
g73
g74
ssg62
g1580
sg55
(lp1587
S'web2py_path'
p1588
asbag48
(g69
g50
NtRp1589
(dp1590
g53
(dp1591
g80
g81
ssg62
g1580
sg55
(lp1592
S':'
asbag48
(g69
g50
NtRp1593
(dp1594
g53
(dp1595
sg62
g1580
sg55
(lp1596
g48
(g49
g50
NtRp1597
(dp1598
g53
(dp1599
g61
I4
ssg62
g1593
sg55
(lp1600
g964
asbasbasbag48
(g64
g50
NtRp1601
(dp1602
g53
(dp1603
sg62
g917
sg55
(lp1604
g48
(g69
g50
NtRp1605
(dp1606
g53
(dp1607
g73
g74
ssg62
g1601
sg55
(lp1608
S'web2py_version'
p1609
asbag48
(g69
g50
NtRp1610
(dp1611
g53
(dp1612
g80
g81
ssg62
g1601
sg55
(lp1613
S':'
asbag48
(g69
g50
NtRp1614
(dp1615
g53
(dp1616
sg62
g1601
sg55
(lp1617
g48
(g49
g50
NtRp1618
(dp1619
g53
(dp1620
g61
I4
ssg62
g1614
sg55
(lp1621
g48
(g57
g50
NtRp1622
(dp1623
g53
(dp1624
g61
I3
ssg62
Nsg55
(lp1625
g48
(g64
g50
NtRp1626
(dp1627
g53
(dp1628
sg62
g1622
sg55
(lp1629
g48
(g69
g50
NtRp1630
(dp1631
g53
(dp1632
sg62
g1626
sg55
(lp1633
g48
(g49
g50
NtRp1634
(dp1635
g53
(dp1636
g61
I3
ssg62
g1630
sg55
(lp1637
S'1'
asbasbasbag48
(g64
g50
NtRp1638
(dp1639
g53
(dp1640
sg62
g1622
sg55
(lp1641
g48
(g69
g50
NtRp1642
(dp1643
g53
(dp1644
sg62
g1638
sg55
(lp1645
g48
(g49
g50
NtRp1646
(dp1647
g53
(dp1648
g61
I3
ssg62
g1642
sg55
(lp1649
S'99'
p1650
asbasbasbag48
(g64
g50
NtRp1651
(dp1652
g53
(dp1653
sg62
g1622
sg55
(lp1654
g48
(g69
g50
NtRp1655
(dp1656
g53
(dp1657
sg62
g1651
sg55
(lp1658
g48
(g49
g50
NtRp1659
(dp1660
g53
(dp1661
g61
I3
ssg62
g1655
sg55
(lp1662
S'2'
asbasbasbag48
(g64
g50
NtRp1663
(dp1664
g53
(dp1665
sg62
g1622
sg55
(lp1666
g48
(g69
g50
NtRp1667
(dp1668
g53
(dp1669
sg62
g1663
sg55
(lp1670
g48
(g49
g50
NtRp1671
(dp1672
g53
(dp1673
g61
I3
ssg62
g1667
sg55
(lp1674
S'datetime.datetime(2011, 9, 26, 6, 55, 33)'
p1675
asbasbasbag48
(g64
g50
NtRp1676
(dp1677
g53
(dp1678
sg62
g1622
sg55
(lp1679
g48
(g69
g50
NtRp1680
(dp1681
g53
(dp1682
sg62
g1676
sg55
(lp1683
g48
(g49
g50
NtRp1684
(dp1685
g53
(dp1686
g61
I3
ssg62
g1680
sg55
(lp1687
S'stable'
p1688
asbasbasbasbasbasbasbag48
(g64
g50
NtRp1689
(dp1690
g53
(dp1691
sg62
g917
sg55
(lp1692
g48
(g69
g50
NtRp1693
(dp1694
g53
(dp1695
g73
g74
ssg62
g1689
sg55
(lp1696
S'wsgi_errors'
p1697
asbag48
(g69
g50
NtRp1698
(dp1699
g53
(dp1700
g80
g81
ssg62
g1689
sg55
(lp1701
S':'
asbag48
(g69
g50
NtRp1702
(dp1703
g53
(dp1704
sg62
g1689
sg55
(lp1705
g48
(g49
g50
NtRp1706
(dp1707
g53
(dp1708
g61
I4
ssg62
g1702
sg55
(lp1709
S"<open file '<stderr>', mode 'w' at 0x01D300B0>"
p1710
asbasbasbag48
(g64
g50
NtRp1711
(dp1712
g53
(dp1713
sg62
g917
sg55
(lp1714
g48
(g69
g50
NtRp1715
(dp1716
g53
(dp1717
g73
g74
ssg62
g1711
sg55
(lp1718
S'wsgi_file_wrapper'
p1719
asbag48
(g69
g50
NtRp1720
(dp1721
g53
(dp1722
g80
g81
ssg62
g1711
sg55
(lp1723
S':'
asbag48
(g69
g50
NtRp1724
(dp1725
g53
(dp1726
sg62
g1711
sg55
(lp1727
g48
(g49
g50
NtRp1728
(dp1729
g53
(dp1730
g61
I4
ssg62
g1724
sg55
(lp1731
S'<class wsgiref.util.FileWrapper at 0x0318A600>'
p1732
asbasbasbag48
(g64
g50
NtRp1733
(dp1734
g53
(dp1735
sg62
g917
sg55
(lp1736
g48
(g69
g50
NtRp1737
(dp1738
g53
(dp1739
g73
g74
ssg62
g1733
sg55
(lp1740
S'wsgi_input'
p1741
asbag48
(g69
g50
NtRp1742
(dp1743
g53
(dp1744
g80
g81
ssg62
g1733
sg55
(lp1745
S':'
asbag48
(g69
g50
NtRp1746
(dp1747
g53
(dp1748
sg62
g1733
sg55
(lp1749
g48
(g49
g50
NtRp1750
(dp1751
g53
(dp1752
g61
I4
ssg62
g1746
sg55
(lp1753
S'<socket._fileobject object at 0x080219F0>'
p1754
asbasbasbag48
(g64
g50
NtRp1755
(dp1756
g53
(dp1757
sg62
g917
sg55
(lp1758
g48
(g69
g50
NtRp1759
(dp1760
g53
(dp1761
g73
g74
ssg62
g1755
sg55
(lp1762
S'wsgi_multiprocess'
p1763
asbag48
(g69
g50
NtRp1764
(dp1765
g53
(dp1766
g80
g81
ssg62
g1755
sg55
(lp1767
S':'
asbag48
(g69
g50
NtRp1768
(dp1769
g53
(dp1770
sg62
g1755
sg55
(lp1771
g48
(g49
g50
NtRp1772
(dp1773
g53
(dp1774
g61
I4
ssg62
g1768
sg55
(lp1775
g91
asbasbasbag48
(g64
g50
NtRp1776
(dp1777
g53
(dp1778
sg62
g917
sg55
(lp1779
g48
(g69
g50
NtRp1780
(dp1781
g53
(dp1782
g73
g74
ssg62
g1776
sg55
(lp1783
S'wsgi_multithread'
p1784
asbag48
(g69
g50
NtRp1785
(dp1786
g53
(dp1787
g80
g81
ssg62
g1776
sg55
(lp1788
S':'
asbag48
(g69
g50
NtRp1789
(dp1790
g53
(dp1791
sg62
g1776
sg55
(lp1792
g48
(g49
g50
NtRp1793
(dp1794
g53
(dp1795
g61
I4
ssg62
g1789
sg55
(lp1796
S'True'
p1797
asbasbasbag48
(g64
g50
NtRp1798
(dp1799
g53
(dp1800
sg62
g917
sg55
(lp1801
g48
(g69
g50
NtRp1802
(dp1803
g53
(dp1804
g73
g74
ssg62
g1798
sg55
(lp1805
S'wsgi_run_once'
p1806
asbag48
(g69
g50
NtRp1807
(dp1808
g53
(dp1809
g80
g81
ssg62
g1798
sg55
(lp1810
S':'
asbag48
(g69
g50
NtRp1811
(dp1812
g53
(dp1813
sg62
g1798
sg55
(lp1814
g48
(g49
g50
NtRp1815
(dp1816
g53
(dp1817
g61
I4
ssg62
g1811
sg55
(lp1818
g91
asbasbasbag48
(g64
g50
NtRp1819
(dp1820
g53
(dp1821
sg62
g917
sg55
(lp1822
g48
(g69
g50
NtRp1823
(dp1824
g53
(dp1825
g73
g74
ssg62
g1819
sg55
(lp1826
S'wsgi_url_scheme'
p1827
asbag48
(g69
g50
NtRp1828
(dp1829
g53
(dp1830
g80
g81
ssg62
g1819
sg55
(lp1831
S':'
asbag48
(g69
g50
NtRp1832
(dp1833
g53
(dp1834
sg62
g1819
sg55
(lp1835
g48
(g49
g50
NtRp1836
(dp1837
g53
(dp1838
g61
I4
ssg62
g1832
sg55
(lp1839
S'http'
p1840
asbasbasbag48
(g64
g50
NtRp1841
(dp1842
g53
(dp1843
sg62
g917
sg55
(lp1844
g48
(g69
g50
NtRp1845
(dp1846
g53
(dp1847
g73
g74
ssg62
g1841
sg55
(lp1848
S'wsgi_version'
p1849
asbag48
(g69
g50
NtRp1850
(dp1851
g53
(dp1852
g80
g81
ssg62
g1841
sg55
(lp1853
S':'
asbag48
(g69
g50
NtRp1854
(dp1855
g53
(dp1856
sg62
g1841
sg55
(lp1857
g48
(g49
g50
NtRp1858
(dp1859
g53
(dp1860
g61
I4
ssg62
g1854
sg55
(lp1861
g48
(g57
g50
NtRp1862
(dp1863
g53
(dp1864
g61
I3
ssg62
Nsg55
(lp1865
g48
(g64
g50
NtRp1866
(dp1867
g53
(dp1868
sg62
g1862
sg55
(lp1869
g48
(g69
g50
NtRp1870
(dp1871
g53
(dp1872
sg62
g1866
sg55
(lp1873
g48
(g49
g50
NtRp1874
(dp1875
g53
(dp1876
g61
I3
ssg62
g1870
sg55
(lp1877
S'1'
asbasbasbag48
(g64
g50
NtRp1878
(dp1879
g53
(dp1880
sg62
g1862
sg55
(lp1881
g48
(g69
g50
NtRp1882
(dp1883
g53
(dp1884
sg62
g1878
sg55
(lp1885
g48
(g49
g50
NtRp1886
(dp1887
g53
(dp1888
g61
I3
ssg62
g1882
sg55
(lp1889
S'0'
asbasbasbasbasbasbasbasbasbasbasbag48
(g64
g50
NtRp1890
(dp1891
g53
(dp1892
sg62
g58
sg55
(lp1893
g48
(g69
g50
NtRp1894
(dp1895
g53
(dp1896
g73
g74
ssg62
g1890
sg55
(lp1897
S'extension'
p1898
asbag48
(g69
g50
NtRp1899
(dp1900
g53
(dp1901
g80
g81
ssg62
g1890
sg55
(lp1902
S':'
asbag48
(g69
g50
NtRp1903
(dp1904
g53
(dp1905
sg62
g1890
sg55
(lp1906
g48
(g49
g50
NtRp1907
(dp1908
g53
(dp1909
g61
I5
ssg62
g1903
sg55
(lp1910
S'txt'
p1911
asbasbasbag48
(g64
g50
NtRp1912
(dp1913
g53
(dp1914
sg62
g58
sg55
(lp1915
g48
(g69
g50
NtRp1916
(dp1917
g53
(dp1918
g73
g74
ssg62
g1912
sg55
(lp1919
S'folder'
p1920
asbag48
(g69
g50
NtRp1921
(dp1922
g53
(dp1923
g80
g81
ssg62
g1912
sg55
(lp1924
S':'
asbag48
(g69
g50
NtRp1925
(dp1926
g53
(dp1927
sg62
g1912
sg55
(lp1928
g48
(g49
g50
NtRp1929
(dp1930
g53
(dp1931
g61
I5
ssg62
g1925
sg55
(lp1932
S'D:\\git_projs\\Gabblista\\web2py\\web2py\\applications\\Gabb1\\'
p1933
asbasbasbag48
(g64
g50
NtRp1934
(dp1935
g53
(dp1936
sg62
g58
sg55
(lp1937
g48
(g69
g50
NtRp1938
(dp1939
g53
(dp1940
g73
g74
ssg62
g1934
sg55
(lp1941
S'function'
p1942
asbag48
(g69
g50
NtRp1943
(dp1944
g53
(dp1945
g80
g81
ssg62
g1934
sg55
(lp1946
S':'
asbag48
(g69
g50
NtRp1947
(dp1948
g53
(dp1949
sg62
g1934
sg55
(lp1950
g48
(g49
g50
NtRp1951
(dp1952
g53
(dp1953
g61
I5
ssg62
g1947
sg55
(lp1954
S'serve_player_data'
p1955
asbasbasbag48
(g64
g50
NtRp1956
(dp1957
g53
(dp1958
sg62
g58
sg55
(lp1959
g48
(g69
g50
NtRp1960
(dp1961
g53
(dp1962
g73
g74
ssg62
g1956
sg55
(lp1963
S'get_vars'
p1964
asbag48
(g69
g50
NtRp1965
(dp1966
g53
(dp1967
g80
g81
ssg62
g1956
sg55
(lp1968
S':'
asbag48
(g69
g50
NtRp1969
(dp1970
g53
(dp1971
sg62
g1956
sg55
(lp1972
g48
(g49
g50
NtRp1973
(dp1974
g53
(dp1975
g61
I5
ssg62
g1969
sg55
(lp1976
g48
(g57
g50
NtRp1977
(dp1978
g53
(dp1979
g61
I4
ssg62
Nsg55
(lp1980
g48
(g64
g50
NtRp1981
(dp1982
g53
(dp1983
sg62
g1977
sg55
(lp1984
g48
(g69
g50
NtRp1985
(dp1986
g53
(dp1987
g73
g74
ssg62
g1981
sg55
(lp1988
S'game_ID'
p1989
asbag48
(g69
g50
NtRp1990
(dp1991
g53
(dp1992
g80
g81
ssg62
g1981
sg55
(lp1993
S':'
asbag48
(g69
g50
NtRp1994
(dp1995
g53
(dp1996
sg62
g1981
sg55
(lp1997
g48
(g49
g50
NtRp1998
(dp1999
g53
(dp2000
g61
I4
ssg62
g1994
sg55
(lp2001
S'0'
asbasbasbag48
(g64
g50
NtRp2002
(dp2003
g53
(dp2004
sg62
g1977
sg55
(lp2005
g48
(g69
g50
NtRp2006
(dp2007
g53
(dp2008
g73
g74
ssg62
g2002
sg55
(lp2009
S'opponent_ID'
p2010
asbag48
(g69
g50
NtRp2011
(dp2012
g53
(dp2013
g80
g81
ssg62
g2002
sg55
(lp2014
S':'
asbag48
(g69
g50
NtRp2015
(dp2016
g53
(dp2017
sg62
g2002
sg55
(lp2018
g48
(g49
g50
NtRp2019
(dp2020
g53
(dp2021
g61
I4
ssg62
g2015
sg55
(lp2022
S'1'
asbasbasbag48
(g64
g50
NtRp2023
(dp2024
g53
(dp2025
sg62
g1977
sg55
(lp2026
g48
(g69
g50
NtRp2027
(dp2028
g53
(dp2029
g73
g74
ssg62
g2023
sg55
(lp2030
S'player_ID'
p2031
asbag48
(g69
g50
NtRp2032
(dp2033
g53
(dp2034
g80
g81
ssg62
g2023
sg55
(lp2035
S':'
asbag48
(g69
g50
NtRp2036
(dp2037
g53
(dp2038
sg62
g2023
sg55
(lp2039
g48
(g49
g50
NtRp2040
(dp2041
g53
(dp2042
g61
I4
ssg62
g2036
sg55
(lp2043
S'0'
asbasbasbasbasbasbasbag48
(g64
g50
NtRp2044
(dp2045
g53
(dp2046
sg62
g58
sg55
(lp2047
g48
(g69
g50
NtRp2048
(dp2049
g53
(dp2050
g73
g74
ssg62
g2044
sg55
(lp2051
S'global_settings'
p2052
asbag48
(g69
g50
NtRp2053
(dp2054
g53
(dp2055
g80
g81
ssg62
g2044
sg55
(lp2056
S':'
asbag48
(g69
g50
NtRp2057
(dp2058
g53
(dp2059
sg62
g2044
sg55
(lp2060
g48
(g49
g50
NtRp2061
(dp2062
g53
(dp2063
g61
I5
ssg62
g2057
sg55
(lp2064
g48
(g57
g50
NtRp2065
(dp2066
g53
(dp2067
g61
I4
ssg62
Nsg55
(lp2068
g48
(g64
g50
NtRp2069
(dp2070
g53
(dp2071
sg62
g2065
sg55
(lp2072
g48
(g69
g50
NtRp2073
(dp2074
g53
(dp2075
g73
g74
ssg62
g2069
sg55
(lp2076
g929
asbag48
(g69
g50
NtRp2077
(dp2078
g53
(dp2079
g80
g81
ssg62
g2069
sg55
(lp2080
S':'
asbag48
(g69
g50
NtRp2081
(dp2082
g53
(dp2083
sg62
g2069
sg55
(lp2084
g48
(g49
g50
NtRp2085
(dp2086
g53
(dp2087
g61
I4
ssg62
g2081
sg55
(lp2088
S"set(['D:\\\\git_projs\\\\Gabblista\\\\web2py\\\\web2py\\\\applications\\\\gabb1\\\\', 'D:\\\\git_projs\\\\Gabblista\\\\web2py\\\\web2py\\\\applications\\\\Gabb1\\\\', 'D:\\\\git_projs\\\\Gabblista\\\\web2py\\\\web2py\\\\applications\\\\admin\\\\', 'D:\\\\git_projs\\\\Gabblista\\\\web2py\\\\web2py\\\\applications\\\\welcome\\\\'])"
p2089
asbasbasbag48
(g64
g50
NtRp2090
(dp2091
g53
(dp2092
sg62
g2065
sg55
(lp2093
g48
(g69
g50
NtRp2094
(dp2095
g53
(dp2096
g73
g74
ssg62
g2090
sg55
(lp2097
g951
asbag48
(g69
g50
NtRp2098
(dp2099
g53
(dp2100
g80
g81
ssg62
g2090
sg55
(lp2101
S':'
asbag48
(g69
g50
NtRp2102
(dp2103
g53
(dp2104
sg62
g2090
sg55
(lp2105
g48
(g49
g50
NtRp2106
(dp2107
g53
(dp2108
g61
I4
ssg62
g2102
sg55
(lp2109
g964
asbasbasbag48
(g64
g50
NtRp2110
(dp2111
g53
(dp2112
sg62
g2065
sg55
(lp2113
g48
(g69
g50
NtRp2114
(dp2115
g53
(dp2116
g73
g74
ssg62
g2110
sg55
(lp2117
g973
asbag48
(g69
g50
NtRp2118
(dp2119
g53
(dp2120
g80
g81
ssg62
g2110
sg55
(lp2121
S':'
asbag48
(g69
g50
NtRp2122
(dp2123
g53
(dp2124
sg62
g2110
sg55
(lp2125
g48
(g49
g50
NtRp2126
(dp2127
g53
(dp2128
g61
I4
ssg62
g2122
sg55
(lp2129
g48
(g57
g50
NtRp2130
(dp2131
g53
(dp2132
g61
I3
ssg62
Nsg55
(lp2133
sbasbasbasbag48
(g64
g50
NtRp2134
(dp2135
g53
(dp2136
sg62
g2065
sg55
(lp2137
g48
(g69
g50
NtRp2138
(dp2139
g53
(dp2140
g73
g74
ssg62
g2134
sg55
(lp2141
g998
asbag48
(g69
g50
NtRp2142
(dp2143
g53
(dp2144
g80
g81
ssg62
g2134
sg55
(lp2145
S':'
asbag48
(g69
g50
NtRp2146
(dp2147
g53
(dp2148
sg62
g2134
sg55
(lp2149
g48
(g49
g50
NtRp2150
(dp2151
g53
(dp2152
g61
I4
ssg62
g2146
sg55
(lp2153
S"<Values at 0x325b800: {'verbose': False, 'ip': '127.0.0.1', 'shutdown_timeout': 5, 'taskbar': False, 'nocron': False, 'pid_filename': 'httpserver.pid', 'maxthreads': None, 'softcron': False, 'server_name': 'John-PC', 'bpython': False, 'nogui': False, 'port': 8000, 'extcron': False, 'debuglevel': 30, 'test': None, 'folder': 'D:\\\\git_projs\\\\Gabblista\\\\web2py\\\\web2py', 'config': '', 'import_models': False, 'winservice': '', 'shell': None, 'run': '', 'log_filename': 'httpserver.log', 'args': [''], 'ssl_ca_certificate': None, 'scheduler': None, 'profiler_filename': None, 'ssl_private_key': '', 'password': '<ask>', 'request_queue_size': 5, 'ssl_certificate': '', 'cronjob': False, 'plain': False, 'quiet': False, 'interfaces': None, 'minthreads': None, 'timeout': 10, 'numthreads': None, 'nobanner': False}>"
p2154
asbasbasbag48
(g64
g50
NtRp2155
(dp2156
g53
(dp2157
sg62
g2065
sg55
(lp2158
g48
(g69
g50
NtRp2159
(dp2160
g53
(dp2161
g73
g74
ssg62
g2155
sg55
(lp2162
g1020
asbag48
(g69
g50
NtRp2163
(dp2164
g53
(dp2165
g80
g81
ssg62
g2155
sg55
(lp2166
S':'
asbag48
(g69
g50
NtRp2167
(dp2168
g53
(dp2169
sg62
g2155
sg55
(lp2170
g48
(g49
g50
NtRp2171
(dp2172
g53
(dp2173
g61
I4
ssg62
g2167
sg55
(lp2174
S'set([])'
p2175
asbasbasbag48
(g64
g50
NtRp2176
(dp2177
g53
(dp2178
sg62
g2065
sg55
(lp2179
g48
(g69
g50
NtRp2180
(dp2181
g53
(dp2182
g73
g74
ssg62
g2176
sg55
(lp2183
g1042
asbag48
(g69
g50
NtRp2184
(dp2185
g53
(dp2186
g80
g81
ssg62
g2176
sg55
(lp2187
S':'
asbag48
(g69
g50
NtRp2188
(dp2189
g53
(dp2190
sg62
g2176
sg55
(lp2191
g48
(g49
g50
NtRp2192
(dp2193
g53
(dp2194
g61
I4
ssg62
g2188
sg55
(lp2195
g91
asbasbasbag48
(g64
g50
NtRp2196
(dp2197
g53
(dp2198
sg62
g2065
sg55
(lp2199
g48
(g69
g50
NtRp2200
(dp2201
g53
(dp2202
g73
g74
ssg62
g2196
sg55
(lp2203
g1063
asbag48
(g69
g50
NtRp2204
(dp2205
g53
(dp2206
g80
g81
ssg62
g2196
sg55
(lp2207
S':'
asbag48
(g69
g50
NtRp2208
(dp2209
g53
(dp2210
sg62
g2196
sg55
(lp2211
g48
(g49
g50
NtRp2212
(dp2213
g53
(dp2214
g61
I4
ssg62
g2208
sg55
(lp2215
g1076
asbasbasbag48
(g64
g50
NtRp2216
(dp2217
g53
(dp2218
sg62
g2065
sg55
(lp2219
g48
(g69
g50
NtRp2220
(dp2221
g53
(dp2222
g73
g74
ssg62
g2216
sg55
(lp2223
g1283
asbag48
(g69
g50
NtRp2224
(dp2225
g53
(dp2226
g80
g81
ssg62
g2216
sg55
(lp2227
S':'
asbag48
(g69
g50
NtRp2228
(dp2229
g53
(dp2230
sg62
g2216
sg55
(lp2231
g48
(g49
g50
NtRp2232
(dp2233
g53
(dp2234
g61
I4
ssg62
g2228
sg55
(lp2235
g91
asbasbasbag48
(g64
g50
NtRp2236
(dp2237
g53
(dp2238
sg62
g2065
sg55
(lp2239
g48
(g69
g50
NtRp2240
(dp2241
g53
(dp2242
g73
g74
ssg62
g2236
sg55
(lp2243
g1544
asbag48
(g69
g50
NtRp2244
(dp2245
g53
(dp2246
g80
g81
ssg62
g2236
sg55
(lp2247
S':'
asbag48
(g69
g50
NtRp2248
(dp2249
g53
(dp2250
sg62
g2236
sg55
(lp2251
g48
(g49
g50
NtRp2252
(dp2253
g53
(dp2254
g61
I4
ssg62
g2248
sg55
(lp2255
g1557
asbasbasbag48
(g64
g50
NtRp2256
(dp2257
g53
(dp2258
sg62
g2065
sg55
(lp2259
g48
(g69
g50
NtRp2260
(dp2261
g53
(dp2262
g73
g74
ssg62
g2256
sg55
(lp2263
g1609
asbag48
(g69
g50
NtRp2264
(dp2265
g53
(dp2266
g80
g81
ssg62
g2256
sg55
(lp2267
S':'
asbag48
(g69
g50
NtRp2268
(dp2269
g53
(dp2270
sg62
g2256
sg55
(lp2271
g48
(g49
g50
NtRp2272
(dp2273
g53
(dp2274
g61
I4
ssg62
g2268
sg55
(lp2275
g48
(g57
g50
NtRp2276
(dp2277
g53
(dp2278
g61
I3
ssg62
Nsg55
(lp2279
g48
(g64
g50
NtRp2280
(dp2281
g53
(dp2282
sg62
g2276
sg55
(lp2283
g48
(g69
g50
NtRp2284
(dp2285
g53
(dp2286
sg62
g2280
sg55
(lp2287
g48
(g49
g50
NtRp2288
(dp2289
g53
(dp2290
g61
I3
ssg62
g2284
sg55
(lp2291
S'1'
asbasbasbag48
(g64
g50
NtRp2292
(dp2293
g53
(dp2294
sg62
g2276
sg55
(lp2295
g48
(g69
g50
NtRp2296
(dp2297
g53
(dp2298
sg62
g2292
sg55
(lp2299
g48
(g49
g50
NtRp2300
(dp2301
g53
(dp2302
g61
I3
ssg62
g2296
sg55
(lp2303
S'99'
p2304
asbasbasbag48
(g64
g50
NtRp2305
(dp2306
g53
(dp2307
sg62
g2276
sg55
(lp2308
g48
(g69
g50
NtRp2309
(dp2310
g53
(dp2311
sg62
g2305
sg55
(lp2312
g48
(g49
g50
NtRp2313
(dp2314
g53
(dp2315
g61
I3
ssg62
g2309
sg55
(lp2316
S'2'
asbasbasbag48
(g64
g50
NtRp2317
(dp2318
g53
(dp2319
sg62
g2276
sg55
(lp2320
g48
(g69
g50
NtRp2321
(dp2322
g53
(dp2323
sg62
g2317
sg55
(lp2324
g48
(g49
g50
NtRp2325
(dp2326
g53
(dp2327
g61
I3
ssg62
g2321
sg55
(lp2328
S'datetime.datetime(2011, 9, 26, 6, 55, 33)'
p2329
asbasbasbag48
(g64
g50
NtRp2330
(dp2331
g53
(dp2332
sg62
g2276
sg55
(lp2333
g48
(g69
g50
NtRp2334
(dp2335
g53
(dp2336
sg62
g2330
sg55
(lp2337
g48
(g49
g50
NtRp2338
(dp2339
g53
(dp2340
g61
I3
ssg62
g2334
sg55
(lp2341
g1688
asbasbasbasbasbasbasbasbasbasbasbag48
(g64
g50
NtRp2342
(dp2343
g53
(dp2344
sg62
g58
sg55
(lp2345
g48
(g69
g50
NtRp2346
(dp2347
g53
(dp2348
g73
g74
ssg62
g2342
sg55
(lp2349
S'is_https'
p2350
asbag48
(g69
g50
NtRp2351
(dp2352
g53
(dp2353
g80
g81
ssg62
g2342
sg55
(lp2354
S':'
asbag48
(g69
g50
NtRp2355
(dp2356
g53
(dp2357
sg62
g2342
sg55
(lp2358
g48
(g49
g50
NtRp2359
(dp2360
g53
(dp2361
g61
I5
ssg62
g2355
sg55
(lp2362
g91
asbasbasbag48
(g64
g50
NtRp2363
(dp2364
g53
(dp2365
sg62
g58
sg55
(lp2366
g48
(g69
g50
NtRp2367
(dp2368
g53
(dp2369
g73
g74
ssg62
g2363
sg55
(lp2370
S'is_local'
p2371
asbag48
(g69
g50
NtRp2372
(dp2373
g53
(dp2374
g80
g81
ssg62
g2363
sg55
(lp2375
S':'
asbag48
(g69
g50
NtRp2376
(dp2377
g53
(dp2378
sg62
g2363
sg55
(lp2379
g48
(g49
g50
NtRp2380
(dp2381
g53
(dp2382
g61
I5
ssg62
g2376
sg55
(lp2383
g1797
asbasbasbag48
(g64
g50
NtRp2384
(dp2385
g53
(dp2386
sg62
g58
sg55
(lp2387
g48
(g69
g50
NtRp2388
(dp2389
g53
(dp2390
g73
g74
ssg62
g2384
sg55
(lp2391
S'is_restful'
p2392
asbag48
(g69
g50
NtRp2393
(dp2394
g53
(dp2395
g80
g81
ssg62
g2384
sg55
(lp2396
S':'
asbag48
(g69
g50
NtRp2397
(dp2398
g53
(dp2399
sg62
g2384
sg55
(lp2400
g48
(g49
g50
NtRp2401
(dp2402
g53
(dp2403
g61
I5
ssg62
g2397
sg55
(lp2404
g91
asbasbasbag48
(g64
g50
NtRp2405
(dp2406
g53
(dp2407
sg62
g58
sg55
(lp2408
g48
(g69
g50
NtRp2409
(dp2410
g53
(dp2411
g73
g74
ssg62
g2405
sg55
(lp2412
S'now'
p2413
asbag48
(g69
g50
NtRp2414
(dp2415
g53
(dp2416
g80
g81
ssg62
g2405
sg55
(lp2417
S':'
asbag48
(g69
g50
NtRp2418
(dp2419
g53
(dp2420
sg62
g2405
sg55
(lp2421
g48
(g49
g50
NtRp2422
(dp2423
g53
(dp2424
g61
I5
ssg62
g2418
sg55
(lp2425
S'datetime.datetime(2012, 1, 19, 14, 50, 59, 340000)'
p2426
asbasbasbag48
(g64
g50
NtRp2427
(dp2428
g53
(dp2429
sg62
g58
sg55
(lp2430
g48
(g69
g50
NtRp2431
(dp2432
g53
(dp2433
g73
g74
ssg62
g2427
sg55
(lp2434
S'post_vars'
p2435
asbag48
(g69
g50
NtRp2436
(dp2437
g53
(dp2438
g80
g81
ssg62
g2427
sg55
(lp2439
S':'
asbag48
(g69
g50
NtRp2440
(dp2441
g53
(dp2442
sg62
g2427
sg55
(lp2443
g48
(g49
g50
NtRp2444
(dp2445
g53
(dp2446
g61
I5
ssg62
g2440
sg55
(lp2447
g48
(g57
g50
NtRp2448
(dp2449
g53
(dp2450
g61
I4
ssg62
Nsg55
(lp2451
sbasbasbasbag48
(g64
g50
NtRp2452
(dp2453
g53
(dp2454
sg62
g58
sg55
(lp2455
g48
(g69
g50
NtRp2456
(dp2457
g53
(dp2458
g73
g74
ssg62
g2452
sg55
(lp2459
S'raw_extension'
p2460
asbag48
(g69
g50
NtRp2461
(dp2462
g53
(dp2463
g80
g81
ssg62
g2452
sg55
(lp2464
S':'
asbag48
(g69
g50
NtRp2465
(dp2466
g53
(dp2467
sg62
g2452
sg55
(lp2468
g48
(g49
g50
NtRp2469
(dp2470
g53
(dp2471
g61
I5
ssg62
g2465
sg55
(lp2472
g1911
asbasbasbag48
(g64
g50
NtRp2473
(dp2474
g53
(dp2475
sg62
g58
sg55
(lp2476
g48
(g69
g50
NtRp2477
(dp2478
g53
(dp2479
g73
g74
ssg62
g2473
sg55
(lp2480
S'url'
p2481
asbag48
(g69
g50
NtRp2482
(dp2483
g53
(dp2484
g80
g81
ssg62
g2473
sg55
(lp2485
S':'
asbag48
(g69
g50
NtRp2486
(dp2487
g53
(dp2488
sg62
g2473
sg55
(lp2489
g48
(g49
g50
NtRp2490
(dp2491
g53
(dp2492
g61
I5
ssg62
g2486
sg55
(lp2493
S'/Gabb1/fb_serv/serve_player_data.txt'
p2494
asbasbasbag48
(g64
g50
NtRp2495
(dp2496
g53
(dp2497
sg62
g58
sg55
(lp2498
g48
(g69
g50
NtRp2499
(dp2500
g53
(dp2501
g73
g74
ssg62
g2495
sg55
(lp2502
S'utcnow'
p2503
asbag48
(g69
g50
NtRp2504
(dp2505
g53
(dp2506
g80
g81
ssg62
g2495
sg55
(lp2507
S':'
asbag48
(g69
g50
NtRp2508
(dp2509
g53
(dp2510
sg62
g2495
sg55
(lp2511
g48
(g49
g50
NtRp2512
(dp2513
g53
(dp2514
g61
I5
ssg62
g2508
sg55
(lp2515
S'datetime.datetime(2012, 1, 19, 19, 50, 59, 341000)'
p2516
asbasbasbag48
(g64
g50
NtRp2517
(dp2518
g53
(dp2519
sg62
g58
sg55
(lp2520
g48
(g69
g50
NtRp2521
(dp2522
g53
(dp2523
g73
g74
ssg62
g2517
sg55
(lp2524
S'uuid'
p2525
asbag48
(g69
g50
NtRp2526
(dp2527
g53
(dp2528
g80
g81
ssg62
g2517
sg55
(lp2529
S':'
asbag48
(g69
g50
NtRp2530
(dp2531
g53
(dp2532
sg62
g2517
sg55
(lp2533
g48
(g49
g50
NtRp2534
(dp2535
g53
(dp2536
g61
I5
ssg62
g2530
sg55
(lp2537
S'Gabb1/127.0.0.1.2012-01-19.14-50-59.8f323afc-5f4c-4609-8818-6818d150d25f'
p2538
asbasbasbag48
(g64
g50
NtRp2539
(dp2540
g53
(dp2541
sg62
g58
sg55
(lp2542
g48
(g69
g50
NtRp2543
(dp2544
g53
(dp2545
g73
g74
ssg62
g2539
sg55
(lp2546
S'vars'
p2547
asbag48
(g69
g50
NtRp2548
(dp2549
g53
(dp2550
g80
g81
ssg62
g2539
sg55
(lp2551
S':'
asbag48
(g69
g50
NtRp2552
(dp2553
g53
(dp2554
sg62
g2539
sg55
(lp2555
g48
(g49
g50
NtRp2556
(dp2557
g53
(dp2558
g61
I5
ssg62
g2552
sg55
(lp2559
g48
(g57
g50
NtRp2560
(dp2561
g53
(dp2562
g61
I4
ssg62
Nsg55
(lp2563
g48
(g64
g50
NtRp2564
(dp2565
g53
(dp2566
sg62
g2560
sg55
(lp2567
g48
(g69
g50
NtRp2568
(dp2569
g53
(dp2570
g73
g74
ssg62
g2564
sg55
(lp2571
g1989
asbag48
(g69
g50
NtRp2572
(dp2573
g53
(dp2574
g80
g81
ssg62
g2564
sg55
(lp2575
S':'
asbag48
(g69
g50
NtRp2576
(dp2577
g53
(dp2578
sg62
g2564
sg55
(lp2579
g48
(g49
g50
NtRp2580
(dp2581
g53
(dp2582
g61
I4
ssg62
g2576
sg55
(lp2583
S'0'
asbasbasbag48
(g64
g50
NtRp2584
(dp2585
g53
(dp2586
sg62
g2560
sg55
(lp2587
g48
(g69
g50
NtRp2588
(dp2589
g53
(dp2590
g73
g74
ssg62
g2584
sg55
(lp2591
g2010
asbag48
(g69
g50
NtRp2592
(dp2593
g53
(dp2594
g80
g81
ssg62
g2584
sg55
(lp2595
S':'
asbag48
(g69
g50
NtRp2596
(dp2597
g53
(dp2598
sg62
g2584
sg55
(lp2599
g48
(g49
g50
NtRp2600
(dp2601
g53
(dp2602
g61
I4
ssg62
g2596
sg55
(lp2603
S'1'
asbasbasbag48
(g64
g50
NtRp2604
(dp2605
g53
(dp2606
sg62
g2560
sg55
(lp2607
g48
(g69
g50
NtRp2608
(dp2609
g53
(dp2610
g73
g74
ssg62
g2604
sg55
(lp2611
g2031
asbag48
(g69
g50
NtRp2612
(dp2613
g53
(dp2614
g80
g81
ssg62
g2604
sg55
(lp2615
S':'
asbag48
(g69
g50
NtRp2616
(dp2617
g53
(dp2618
sg62
g2604
sg55
(lp2619
g48
(g49
g50
NtRp2620
(dp2621
g53
(dp2622
g61
I4
ssg62
g2616
sg55
(lp2623
S'0'
asbasbasbasbasbasbasbag48
(g64
g50
NtRp2624
(dp2625
g53
(dp2626
sg62
g58
sg55
(lp2627
g48
(g69
g50
NtRp2628
(dp2629
g53
(dp2630
g73
g74
ssg62
g2624
sg55
(lp2631
S'wsgi'
p2632
asbag48
(g69
g50
NtRp2633
(dp2634
g53
(dp2635
g80
g81
ssg62
g2624
sg55
(lp2636
S':'
asbag48
(g69
g50
NtRp2637
(dp2638
g53
(dp2639
sg62
g2624
sg55
(lp2640
g48
(g49
g50
NtRp2641
(dp2642
g53
(dp2643
g61
I5
ssg62
g2637
sg55
(lp2644
g48
(g57
g50
NtRp2645
(dp2646
g53
(dp2647
g61
I4
ssg62
Nsg55
(lp2648
g48
(g64
g50
NtRp2649
(dp2650
g53
(dp2651
sg62
g2645
sg55
(lp2652
g48
(g69
g50
NtRp2653
(dp2654
g53
(dp2655
g73
g74
ssg62
g2649
sg55
(lp2656
S'environ'
p2657
asbag48
(g69
g50
NtRp2658
(dp2659
g53
(dp2660
g80
g81
ssg62
g2649
sg55
(lp2661
S':'
asbag48
(g69
g50
NtRp2662
(dp2663
g53
(dp2664
sg62
g2649
sg55
(lp2665
g48
(g49
g50
NtRp2666
(dp2667
g53
(dp2668
g61
I4
ssg62
g2662
sg55
(lp2669
g48
(g57
g50
NtRp2670
(dp2671
g53
(dp2672
g61
I3
ssg62
Nsg55
(lp2673
g48
(g64
g50
NtRp2674
(dp2675
g53
(dp2676
sg62
g2670
sg55
(lp2677
g48
(g69
g50
NtRp2678
(dp2679
g53
(dp2680
g73
g74
ssg62
g2674
sg55
(lp2681
S'HTTP_ACCEPT'
p2682
asbag48
(g69
g50
NtRp2683
(dp2684
g53
(dp2685
g80
g81
ssg62
g2674
sg55
(lp2686
S':'
asbag48
(g69
g50
NtRp2687
(dp2688
g53
(dp2689
sg62
g2674
sg55
(lp2690
g48
(g49
g50
NtRp2691
(dp2692
g53
(dp2693
g61
I3
ssg62
g2687
sg55
(lp2694
g1098
asbasbasbag48
(g64
g50
NtRp2695
(dp2696
g53
(dp2697
sg62
g2670
sg55
(lp2698
g48
(g69
g50
NtRp2699
(dp2700
g53
(dp2701
g73
g74
ssg62
g2695
sg55
(lp2702
S'HTTP_ACCEPT_CHARSET'
p2703
asbag48
(g69
g50
NtRp2704
(dp2705
g53
(dp2706
g80
g81
ssg62
g2695
sg55
(lp2707
S':'
asbag48
(g69
g50
NtRp2708
(dp2709
g53
(dp2710
sg62
g2695
sg55
(lp2711
g48
(g49
g50
NtRp2712
(dp2713
g53
(dp2714
g61
I3
ssg62
g2708
sg55
(lp2715
g1120
asbasbasbag48
(g64
g50
NtRp2716
(dp2717
g53
(dp2718
sg62
g2670
sg55
(lp2719
g48
(g69
g50
NtRp2720
(dp2721
g53
(dp2722
g73
g74
ssg62
g2716
sg55
(lp2723
S'HTTP_ACCEPT_ENCODING'
p2724
asbag48
(g69
g50
NtRp2725
(dp2726
g53
(dp2727
g80
g81
ssg62
g2716
sg55
(lp2728
S':'
asbag48
(g69
g50
NtRp2729
(dp2730
g53
(dp2731
sg62
g2716
sg55
(lp2732
g48
(g49
g50
NtRp2733
(dp2734
g53
(dp2735
g61
I3
ssg62
g2729
sg55
(lp2736
g1142
asbasbasbag48
(g64
g50
NtRp2737
(dp2738
g53
(dp2739
sg62
g2670
sg55
(lp2740
g48
(g69
g50
NtRp2741
(dp2742
g53
(dp2743
g73
g74
ssg62
g2737
sg55
(lp2744
S'HTTP_ACCEPT_LANGUAGE'
p2745
asbag48
(g69
g50
NtRp2746
(dp2747
g53
(dp2748
g80
g81
ssg62
g2737
sg55
(lp2749
S':'
asbag48
(g69
g50
NtRp2750
(dp2751
g53
(dp2752
sg62
g2737
sg55
(lp2753
g48
(g49
g50
NtRp2754
(dp2755
g53
(dp2756
g61
I3
ssg62
g2750
sg55
(lp2757
g1164
asbasbasbag48
(g64
g50
NtRp2758
(dp2759
g53
(dp2760
sg62
g2670
sg55
(lp2761
g48
(g69
g50
NtRp2762
(dp2763
g53
(dp2764
g73
g74
ssg62
g2758
sg55
(lp2765
S'HTTP_CACHE_CONTROL'
p2766
asbag48
(g69
g50
NtRp2767
(dp2768
g53
(dp2769
g80
g81
ssg62
g2758
sg55
(lp2770
S':'
asbag48
(g69
g50
NtRp2771
(dp2772
g53
(dp2773
sg62
g2758
sg55
(lp2774
g48
(g49
g50
NtRp2775
(dp2776
g53
(dp2777
g61
I3
ssg62
g2771
sg55
(lp2778
g1186
asbasbasbag48
(g64
g50
NtRp2779
(dp2780
g53
(dp2781
sg62
g2670
sg55
(lp2782
g48
(g69
g50
NtRp2783
(dp2784
g53
(dp2785
g73
g74
ssg62
g2779
sg55
(lp2786
S'HTTP_CONNECTION'
p2787
asbag48
(g69
g50
NtRp2788
(dp2789
g53
(dp2790
g80
g81
ssg62
g2779
sg55
(lp2791
S':'
asbag48
(g69
g50
NtRp2792
(dp2793
g53
(dp2794
sg62
g2779
sg55
(lp2795
g48
(g49
g50
NtRp2796
(dp2797
g53
(dp2798
g61
I3
ssg62
g2792
sg55
(lp2799
g1208
asbasbasbag48
(g64
g50
NtRp2800
(dp2801
g53
(dp2802
sg62
g2670
sg55
(lp2803
g48
(g69
g50
NtRp2804
(dp2805
g53
(dp2806
g73
g74
ssg62
g2800
sg55
(lp2807
S'HTTP_COOKIE'
p2808
asbag48
(g69
g50
NtRp2809
(dp2810
g53
(dp2811
g80
g81
ssg62
g2800
sg55
(lp2812
S':'
asbag48
(g69
g50
NtRp2813
(dp2814
g53
(dp2815
sg62
g2800
sg55
(lp2816
g48
(g49
g50
NtRp2817
(dp2818
g53
(dp2819
g61
I3
ssg62
g2813
sg55
(lp2820
g1230
asbasbasbag48
(g64
g50
NtRp2821
(dp2822
g53
(dp2823
sg62
g2670
sg55
(lp2824
g48
(g69
g50
NtRp2825
(dp2826
g53
(dp2827
g73
g74
ssg62
g2821
sg55
(lp2828
S'HTTP_HOST'
p2829
asbag48
(g69
g50
NtRp2830
(dp2831
g53
(dp2832
g80
g81
ssg62
g2821
sg55
(lp2833
S':'
asbag48
(g69
g50
NtRp2834
(dp2835
g53
(dp2836
sg62
g2821
sg55
(lp2837
g48
(g49
g50
NtRp2838
(dp2839
g53
(dp2840
g61
I3
ssg62
g2834
sg55
(lp2841
g1252
asbasbasbag48
(g64
g50
NtRp2842
(dp2843
g53
(dp2844
sg62
g2670
sg55
(lp2845
g48
(g69
g50
NtRp2846
(dp2847
g53
(dp2848
g73
g74
ssg62
g2842
sg55
(lp2849
S'HTTP_USER_AGENT'
p2850
asbag48
(g69
g50
NtRp2851
(dp2852
g53
(dp2853
g80
g81
ssg62
g2842
sg55
(lp2854
S':'
asbag48
(g69
g50
NtRp2855
(dp2856
g53
(dp2857
sg62
g2842
sg55
(lp2858
g48
(g49
g50
NtRp2859
(dp2860
g53
(dp2861
g61
I3
ssg62
g2855
sg55
(lp2862
g1274
asbasbasbag48
(g64
g50
NtRp2863
(dp2864
g53
(dp2865
sg62
g2670
sg55
(lp2866
g48
(g69
g50
NtRp2867
(dp2868
g53
(dp2869
g73
g74
ssg62
g2863
sg55
(lp2870
S'PATH_INFO'
p2871
asbag48
(g69
g50
NtRp2872
(dp2873
g53
(dp2874
g80
g81
ssg62
g2863
sg55
(lp2875
S':'
asbag48
(g69
g50
NtRp2876
(dp2877
g53
(dp2878
sg62
g2863
sg55
(lp2879
g48
(g49
g50
NtRp2880
(dp2881
g53
(dp2882
g61
I3
ssg62
g2876
sg55
(lp2883
g1317
asbasbasbag48
(g64
g50
NtRp2884
(dp2885
g53
(dp2886
sg62
g2670
sg55
(lp2887
g48
(g69
g50
NtRp2888
(dp2889
g53
(dp2890
g73
g74
ssg62
g2884
sg55
(lp2891
S'QUERY_STRING'
p2892
asbag48
(g69
g50
NtRp2893
(dp2894
g53
(dp2895
g80
g81
ssg62
g2884
sg55
(lp2896
S':'
asbag48
(g69
g50
NtRp2897
(dp2898
g53
(dp2899
sg62
g2884
sg55
(lp2900
g48
(g49
g50
NtRp2901
(dp2902
g53
(dp2903
g61
I3
ssg62
g2897
sg55
(lp2904
g1339
asbasbasbag48
(g64
g50
NtRp2905
(dp2906
g53
(dp2907
sg62
g2670
sg55
(lp2908
g48
(g69
g50
NtRp2909
(dp2910
g53
(dp2911
g73
g74
ssg62
g2905
sg55
(lp2912
S'REMOTE_ADDR'
p2913
asbag48
(g69
g50
NtRp2914
(dp2915
g53
(dp2916
g80
g81
ssg62
g2905
sg55
(lp2917
S':'
asbag48
(g69
g50
NtRp2918
(dp2919
g53
(dp2920
sg62
g2905
sg55
(lp2921
g48
(g49
g50
NtRp2922
(dp2923
g53
(dp2924
g61
I3
ssg62
g2918
sg55
(lp2925
g181
asbasbasbag48
(g64
g50
NtRp2926
(dp2927
g53
(dp2928
sg62
g2670
sg55
(lp2929
g48
(g69
g50
NtRp2930
(dp2931
g53
(dp2932
g73
g74
ssg62
g2926
sg55
(lp2933
S'REMOTE_PORT'
p2934
asbag48
(g69
g50
NtRp2935
(dp2936
g53
(dp2937
g80
g81
ssg62
g2926
sg55
(lp2938
S':'
asbag48
(g69
g50
NtRp2939
(dp2940
g53
(dp2941
sg62
g2926
sg55
(lp2942
g48
(g49
g50
NtRp2943
(dp2944
g53
(dp2945
g61
I3
ssg62
g2939
sg55
(lp2946
g1382
asbasbasbag48
(g64
g50
NtRp2947
(dp2948
g53
(dp2949
sg62
g2670
sg55
(lp2950
g48
(g69
g50
NtRp2951
(dp2952
g53
(dp2953
g73
g74
ssg62
g2947
sg55
(lp2954
S'REQUEST_METHOD'
p2955
asbag48
(g69
g50
NtRp2956
(dp2957
g53
(dp2958
g80
g81
ssg62
g2947
sg55
(lp2959
S':'
asbag48
(g69
g50
NtRp2960
(dp2961
g53
(dp2962
sg62
g2947
sg55
(lp2963
g48
(g49
g50
NtRp2964
(dp2965
g53
(dp2966
g61
I3
ssg62
g2960
sg55
(lp2967
g1404
asbasbasbag48
(g64
g50
NtRp2968
(dp2969
g53
(dp2970
sg62
g2670
sg55
(lp2971
g48
(g69
g50
NtRp2972
(dp2973
g53
(dp2974
g73
g74
ssg62
g2968
sg55
(lp2975
S'REQUEST_URI'
p2976
asbag48
(g69
g50
NtRp2977
(dp2978
g53
(dp2979
g80
g81
ssg62
g2968
sg55
(lp2980
S':'
asbag48
(g69
g50
NtRp2981
(dp2982
g53
(dp2983
sg62
g2968
sg55
(lp2984
g48
(g49
g50
NtRp2985
(dp2986
g53
(dp2987
g61
I3
ssg62
g2981
sg55
(lp2988
g1426
asbasbasbag48
(g64
g50
NtRp2989
(dp2990
g53
(dp2991
sg62
g2670
sg55
(lp2992
g48
(g69
g50
NtRp2993
(dp2994
g53
(dp2995
g73
g74
ssg62
g2989
sg55
(lp2996
S'SCRIPT_NAME'
p2997
asbag48
(g69
g50
NtRp2998
(dp2999
g53
(dp3000
g80
g81
ssg62
g2989
sg55
(lp3001
S':'
asbag48
(g69
g50
NtRp3002
(dp3003
g53
(dp3004
sg62
g2989
sg55
(lp3005
g48
(g49
g50
NtRp3006
(dp3007
g53
(dp3008
g61
I3
ssg62
g3002
sg55
(lp3009
S''
asbasbasbag48
(g64
g50
NtRp3010
(dp3011
g53
(dp3012
sg62
g2670
sg55
(lp3013
g48
(g69
g50
NtRp3014
(dp3015
g53
(dp3016
g73
g74
ssg62
g3010
sg55
(lp3017
S'SERVER_NAME'
p3018
asbag48
(g69
g50
NtRp3019
(dp3020
g53
(dp3021
g80
g81
ssg62
g3010
sg55
(lp3022
S':'
asbag48
(g69
g50
NtRp3023
(dp3024
g53
(dp3025
sg62
g3010
sg55
(lp3026
g48
(g49
g50
NtRp3027
(dp3028
g53
(dp3029
g61
I3
ssg62
g3023
sg55
(lp3030
g1469
asbasbasbag48
(g64
g50
NtRp3031
(dp3032
g53
(dp3033
sg62
g2670
sg55
(lp3034
g48
(g69
g50
NtRp3035
(dp3036
g53
(dp3037
g73
g74
ssg62
g3031
sg55
(lp3038
S'SERVER_PORT'
p3039
asbag48
(g69
g50
NtRp3040
(dp3041
g53
(dp3042
g80
g81
ssg62
g3031
sg55
(lp3043
S':'
asbag48
(g69
g50
NtRp3044
(dp3045
g53
(dp3046
sg62
g3031
sg55
(lp3047
g48
(g49
g50
NtRp3048
(dp3049
g53
(dp3050
g61
I3
ssg62
g3044
sg55
(lp3051
g1491
asbasbasbag48
(g64
g50
NtRp3052
(dp3053
g53
(dp3054
sg62
g2670
sg55
(lp3055
g48
(g69
g50
NtRp3056
(dp3057
g53
(dp3058
g73
g74
ssg62
g3052
sg55
(lp3059
S'SERVER_PROTOCOL'
p3060
asbag48
(g69
g50
NtRp3061
(dp3062
g53
(dp3063
g80
g81
ssg62
g3052
sg55
(lp3064
S':'
asbag48
(g69
g50
NtRp3065
(dp3066
g53
(dp3067
sg62
g3052
sg55
(lp3068
g48
(g49
g50
NtRp3069
(dp3070
g53
(dp3071
g61
I3
ssg62
g3065
sg55
(lp3072
g1513
asbasbasbag48
(g64
g50
NtRp3073
(dp3074
g53
(dp3075
sg62
g2670
sg55
(lp3076
g48
(g69
g50
NtRp3077
(dp3078
g53
(dp3079
g73
g74
ssg62
g3073
sg55
(lp3080
S'SERVER_SOFTWARE'
p3081
asbag48
(g69
g50
NtRp3082
(dp3083
g53
(dp3084
g80
g81
ssg62
g3073
sg55
(lp3085
S':'
asbag48
(g69
g50
NtRp3086
(dp3087
g53
(dp3088
sg62
g3073
sg55
(lp3089
g48
(g49
g50
NtRp3090
(dp3091
g53
(dp3092
g61
I3
ssg62
g3086
sg55
(lp3093
g1535
asbasbasbag48
(g64
g50
NtRp3094
(dp3095
g53
(dp3096
sg62
g2670
sg55
(lp3097
g48
(g69
g50
NtRp3098
(dp3099
g53
(dp3100
g73
g74
ssg62
g3094
sg55
(lp3101
S'WEB2PY_ORIGINAL_URI'
p3102
asbag48
(g69
g50
NtRp3103
(dp3104
g53
(dp3105
g80
g81
ssg62
g3094
sg55
(lp3106
S':'
asbag48
(g69
g50
NtRp3107
(dp3108
g53
(dp3109
sg62
g3094
sg55
(lp3110
g48
(g49
g50
NtRp3111
(dp3112
g53
(dp3113
g61
I3
ssg62
g3107
sg55
(lp3114
g1579
asbasbasbag48
(g64
g50
NtRp3115
(dp3116
g53
(dp3117
sg62
g2670
sg55
(lp3118
g48
(g69
g50
NtRp3119
(dp3120
g53
(dp3121
g73
g74
ssg62
g3115
sg55
(lp3122
S'wsgi.errors'
p3123
asbag48
(g69
g50
NtRp3124
(dp3125
g53
(dp3126
g80
g81
ssg62
g3115
sg55
(lp3127
S':'
asbag48
(g69
g50
NtRp3128
(dp3129
g53
(dp3130
sg62
g3115
sg55
(lp3131
g48
(g49
g50
NtRp3132
(dp3133
g53
(dp3134
g61
I3
ssg62
g3128
sg55
(lp3135
S"<open file '<stderr>', mode 'w' at 0x01D300B0>"
p3136
asbasbasbag48
(g64
g50
NtRp3137
(dp3138
g53
(dp3139
sg62
g2670
sg55
(lp3140
g48
(g69
g50
NtRp3141
(dp3142
g53
(dp3143
g73
g74
ssg62
g3137
sg55
(lp3144
S'wsgi.file_wrapper'
p3145
asbag48
(g69
g50
NtRp3146
(dp3147
g53
(dp3148
g80
g81
ssg62
g3137
sg55
(lp3149
S':'
asbag48
(g69
g50
NtRp3150
(dp3151
g53
(dp3152
sg62
g3137
sg55
(lp3153
g48
(g49
g50
NtRp3154
(dp3155
g53
(dp3156
g61
I3
ssg62
g3150
sg55
(lp3157
S'<class wsgiref.util.FileWrapper at 0x0318A600>'
p3158
asbasbasbag48
(g64
g50
NtRp3159
(dp3160
g53
(dp3161
sg62
g2670
sg55
(lp3162
g48
(g69
g50
NtRp3163
(dp3164
g53
(dp3165
g73
g74
ssg62
g3159
sg55
(lp3166
S'wsgi.input'
p3167
asbag48
(g69
g50
NtRp3168
(dp3169
g53
(dp3170
g80
g81
ssg62
g3159
sg55
(lp3171
S':'
asbag48
(g69
g50
NtRp3172
(dp3173
g53
(dp3174
sg62
g3159
sg55
(lp3175
g48
(g49
g50
NtRp3176
(dp3177
g53
(dp3178
g61
I3
ssg62
g3172
sg55
(lp3179
S'<cStringIO.StringO object at 0x035B5B20>'
p3180
asbasbasbag48
(g64
g50
NtRp3181
(dp3182
g53
(dp3183
sg62
g2670
sg55
(lp3184
g48
(g69
g50
NtRp3185
(dp3186
g53
(dp3187
g73
g74
ssg62
g3181
sg55
(lp3188
S'wsgi.multiprocess'
p3189
asbag48
(g69
g50
NtRp3190
(dp3191
g53
(dp3192
g80
g81
ssg62
g3181
sg55
(lp3193
S':'
asbag48
(g69
g50
NtRp3194
(dp3195
g53
(dp3196
sg62
g3181
sg55
(lp3197
g48
(g49
g50
NtRp3198
(dp3199
g53
(dp3200
g61
I3
ssg62
g3194
sg55
(lp3201
g91
asbasbasbag48
(g64
g50
NtRp3202
(dp3203
g53
(dp3204
sg62
g2670
sg55
(lp3205
g48
(g69
g50
NtRp3206
(dp3207
g53
(dp3208
g73
g74
ssg62
g3202
sg55
(lp3209
S'wsgi.multithread'
p3210
asbag48
(g69
g50
NtRp3211
(dp3212
g53
(dp3213
g80
g81
ssg62
g3202
sg55
(lp3214
S':'
asbag48
(g69
g50
NtRp3215
(dp3216
g53
(dp3217
sg62
g3202
sg55
(lp3218
g48
(g49
g50
NtRp3219
(dp3220
g53
(dp3221
g61
I3
ssg62
g3215
sg55
(lp3222
g1797
asbasbasbag48
(g64
g50
NtRp3223
(dp3224
g53
(dp3225
sg62
g2670
sg55
(lp3226
g48
(g69
g50
NtRp3227
(dp3228
g53
(dp3229
g73
g74
ssg62
g3223
sg55
(lp3230
S'wsgi.run_once'
p3231
asbag48
(g69
g50
NtRp3232
(dp3233
g53
(dp3234
g80
g81
ssg62
g3223
sg55
(lp3235
S':'
asbag48
(g69
g50
NtRp3236
(dp3237
g53
(dp3238
sg62
g3223
sg55
(lp3239
g48
(g49
g50
NtRp3240
(dp3241
g53
(dp3242
g61
I3
ssg62
g3236
sg55
(lp3243
g91
asbasbasbag48
(g64
g50
NtRp3244
(dp3245
g53
(dp3246
sg62
g2670
sg55
(lp3247
g48
(g69
g50
NtRp3248
(dp3249
g53
(dp3250
g73
g74
ssg62
g3244
sg55
(lp3251
S'wsgi.url_scheme'
p3252
asbag48
(g69
g50
NtRp3253
(dp3254
g53
(dp3255
g80
g81
ssg62
g3244
sg55
(lp3256
S':'
asbag48
(g69
g50
NtRp3257
(dp3258
g53
(dp3259
sg62
g3244
sg55
(lp3260
g48
(g49
g50
NtRp3261
(dp3262
g53
(dp3263
g61
I3
ssg62
g3257
sg55
(lp3264
g1840
asbasbasbag48
(g64
g50
NtRp3265
(dp3266
g53
(dp3267
sg62
g2670
sg55
(lp3268
g48
(g69
g50
NtRp3269
(dp3270
g53
(dp3271
g73
g74
ssg62
g3265
sg55
(lp3272
S'wsgi.version'
p3273
asbag48
(g69
g50
NtRp3274
(dp3275
g53
(dp3276
g80
g81
ssg62
g3265
sg55
(lp3277
S':'
asbag48
(g69
g50
NtRp3278
(dp3279
g53
(dp3280
sg62
g3265
sg55
(lp3281
g48
(g49
g50
NtRp3282
(dp3283
g53
(dp3284
g61
I3
ssg62
g3278
sg55
(lp3285
S'1'
asbasbasbasbasbasbasbasbasbasbasbasbasbsS'frames'
p3286
(lp3287
(dp3288
S'file'
p3289
S'D:\\git_projs\\Gabblista\\web2py\\web2py\\gluon\\restricted.py'
p3290
sS'dump'
p3291
(dp3292
S'environment'
p3293
S"{'A': <class 'gluon.html.A'>, 'Auth': <class 'gluon.tools.Auth'>, 'B': <class 'gluon.html.B'>, 'BEAUTIFY': <class 'gluon.html.BEAUTIFY'>, 'BODY': <class 'gluon.html.BODY'>, 'BR': <class 'gluon.html.BR'>, 'BUTTON': <class 'gluon.html.BUTTON'>, 'CAT': <class 'gluon.html.CAT'>, 'CENTER': <class 'gluon.html.CENTER'>, 'CLEANUP': <class 'gluon.validators.CLEANUP'>, ...}"
p3294
sS'ccode'
p3295
S'<code object <module> at 080C75C0, file "D:\\git_...bb1\\views\\fb_serv/serve_player_data.txt", line 1>'
p3296
ssS'lnum'
p3297
I194
sS'lines'
p3298
(dp3299
I192
S'        else:'
p3300
sI193
S'            ccode = compile2(code,layer)'
p3301
sI194
S'        exec ccode in environment'
p3302
sI195
S'    except HTTP:'
p3303
sI196
S'        raise'
p3304
sI197
S'    except Exception, error:'
p3305
sI198
S'        # XXX Show exception in Wing IDE if running in debugger'
p3306
sI189
S'    try:'
p3307
sI190
S'        if type(code) == types.CodeType:'
p3308
sI191
S'            ccode = code'
p3309
ssS'call'
p3310
S'(code="response.write(game_data_row.letter_data)\\nrespon....event_data)\\nresponse.write(\'\\\\r\\\\n\', escape=False)", environment={\'A\': <class \'gluon.html.A\'>, \'Auth\': <class \'gluon.tools.Auth\'>, \'B\': <class \'gluon.html.B\'>, \'BEAUTIFY\': <class \'gluon.html.BEAUTIFY\'>, \'BODY\': <class \'gluon.html.BODY\'>, \'BR\': <class \'gluon.html.BR\'>, \'BUTTON\': <class \'gluon.html.BUTTON\'>, \'CAT\': <class \'gluon.html.CAT\'>, \'CENTER\': <class \'gluon.html.CENTER\'>, \'CLEANUP\': <class \'gluon.validators.CLEANUP\'>, ...}, layer=r\'D:\\git_projs\\Gabblista\\web2py\\web2py\\applications\\Gabb1\\views\\fb_serv/serve_player_data.txt\')'
p3311
sS'func'
p3312
S'restricted'
p3313
sa(dp3314
g3289
S'D:\\git_projs\\Gabblista\\web2py\\web2py\\applications\\Gabb1\\views\\fb_serv\\serve_player_data.txt'
p3315
sg3291
(dp3316
S'game_data_row'
p3317
S"{'event_data': '10212810311101091011071101011061091010', 'letter_data': 'KJNDEIUYQVKC'}"
p3318
sS'game_data_row.letter_data'
p3319
S'undefined'
p3320
ssg3297
I1
sg3298
(dp3321
I1
S'{{=game_data_row.letter_data}}'
p3322
sI2
S'{{=game_data_row.event_data}}'
p3323
ssg3310
S'()'
p3324
sg3312
S'<module>'
p3325
sasS'pyver'
p3326
S'Python 2.5.4: C:\\python25\\python.exe'
p3327
sS'session'
p3328
g48
(g49
g50
NtRp3329
(dp3330
g53
(dp3331
sg55
(lp3332
g48
(g57
g50
NtRp3333
(dp3334
g53
(dp3335
g61
I5
ssg62
Nsg55
(lp3336
sbasbsS'etype'
p3337
S"<type 'exceptions.AttributeError'>"
p3338
sS'date'
p3339
S'Thu Jan 19 14:50:59 2012'
p3340
sS'response'
p3341
g48
(g49
g50
NtRp3342
(dp3343
g53
(dp3344
sg55
(lp3345
g48
(g57
g50
NtRp3346
(dp3347
g53
(dp3348
g61
I5
ssg62
Nsg55
(lp3349
g48
(g64
g50
NtRp3350
(dp3351
g53
(dp3352
sg62
g3346
sg55
(lp3353
g48
(g69
g50
NtRp3354
(dp3355
g53
(dp3356
g73
g74
ssg62
g3350
sg55
(lp3357
g146
asbag48
(g69
g50
NtRp3358
(dp3359
g53
(dp3360
g80
g81
ssg62
g3350
sg55
(lp3361
S':'
asbag48
(g69
g50
NtRp3362
(dp3363
g53
(dp3364
sg62
g3350
sg55
(lp3365
g48
(g49
g50
NtRp3366
(dp3367
g53
(dp3368
g61
I5
ssg62
g3362
sg55
(lp3369
S'<cStringIO.StringO object at 0x035B5380>'
p3370
asbasbasbag48
(g64
g50
NtRp3371
(dp3372
g53
(dp3373
sg62
g3346
sg55
(lp3374
g48
(g69
g50
NtRp3375
(dp3376
g53
(dp3377
g73
g74
ssg62
g3371
sg55
(lp3378
g212
asbag48
(g69
g50
NtRp3379
(dp3380
g53
(dp3381
g80
g81
ssg62
g3371
sg55
(lp3382
S':'
asbag48
(g69
g50
NtRp3383
(dp3384
g53
(dp3385
sg62
g3371
sg55
(lp3386
g48
(g49
g50
NtRp3387
(dp3388
g53
(dp3389
g61
I5
ssg62
g3383
sg55
(lp3390
g48
(g57
g50
NtRp3391
(dp3392
g53
(dp3393
g61
I4
ssg62
Nsg55
(lp3394
g48
(g64
g50
NtRp3395
(dp3396
g53
(dp3397
sg62
g3391
sg55
(lp3398
g48
(g69
g50
NtRp3399
(dp3400
g53
(dp3401
g73
g74
ssg62
g3395
sg55
(lp3402
S'session_id_gabb1'
p3403
asbag48
(g69
g50
NtRp3404
(dp3405
g53
(dp3406
g80
g81
ssg62
g3395
sg55
(lp3407
S':'
asbag48
(g69
g50
NtRp3408
(dp3409
g53
(dp3410
sg62
g3395
sg55
(lp3411
g48
(g49
g50
NtRp3412
(dp3413
g53
(dp3414
g61
I4
ssg62
g3408
sg55
(lp3415
g48
(g57
g50
NtRp3416
(dp3417
g53
(dp3418
g61
I3
ssg62
Nsg55
(lp3419
g48
(g64
g50
NtRp3420
(dp3421
g53
(dp3422
sg62
g3416
sg55
(lp3423
g48
(g69
g50
NtRp3424
(dp3425
g53
(dp3426
g73
g74
ssg62
g3420
sg55
(lp3427
g262
asbag48
(g69
g50
NtRp3428
(dp3429
g53
(dp3430
g80
g81
ssg62
g3420
sg55
(lp3431
S':'
asbag48
(g69
g50
NtRp3432
(dp3433
g53
(dp3434
sg62
g3420
sg55
(lp3435
g48
(g49
g50
NtRp3436
(dp3437
g53
(dp3438
g61
I3
ssg62
g3432
sg55
(lp3439
S''
asbasbasbag48
(g64
g50
NtRp3440
(dp3441
g53
(dp3442
sg62
g3416
sg55
(lp3443
g48
(g69
g50
NtRp3444
(dp3445
g53
(dp3446
g73
g74
ssg62
g3440
sg55
(lp3447
g283
asbag48
(g69
g50
NtRp3448
(dp3449
g53
(dp3450
g80
g81
ssg62
g3440
sg55
(lp3451
S':'
asbag48
(g69
g50
NtRp3452
(dp3453
g53
(dp3454
sg62
g3440
sg55
(lp3455
g48
(g49
g50
NtRp3456
(dp3457
g53
(dp3458
g61
I3
ssg62
g3452
sg55
(lp3459
S''
asbasbasbag48
(g64
g50
NtRp3460
(dp3461
g53
(dp3462
sg62
g3416
sg55
(lp3463
g48
(g69
g50
NtRp3464
(dp3465
g53
(dp3466
g73
g74
ssg62
g3460
sg55
(lp3467
g304
asbag48
(g69
g50
NtRp3468
(dp3469
g53
(dp3470
g80
g81
ssg62
g3460
sg55
(lp3471
S':'
asbag48
(g69
g50
NtRp3472
(dp3473
g53
(dp3474
sg62
g3460
sg55
(lp3475
g48
(g49
g50
NtRp3476
(dp3477
g53
(dp3478
g61
I3
ssg62
g3472
sg55
(lp3479
S''
asbasbasbag48
(g64
g50
NtRp3480
(dp3481
g53
(dp3482
sg62
g3416
sg55
(lp3483
g48
(g69
g50
NtRp3484
(dp3485
g53
(dp3486
g73
g74
ssg62
g3480
sg55
(lp3487
g325
asbag48
(g69
g50
NtRp3488
(dp3489
g53
(dp3490
g80
g81
ssg62
g3480
sg55
(lp3491
S':'
asbag48
(g69
g50
NtRp3492
(dp3493
g53
(dp3494
sg62
g3480
sg55
(lp3495
g48
(g49
g50
NtRp3496
(dp3497
g53
(dp3498
g61
I3
ssg62
g3492
sg55
(lp3499
S''
asbasbasbag48
(g64
g50
NtRp3500
(dp3501
g53
(dp3502
sg62
g3416
sg55
(lp3503
g48
(g69
g50
NtRp3504
(dp3505
g53
(dp3506
g73
g74
ssg62
g3500
sg55
(lp3507
g346
asbag48
(g69
g50
NtRp3508
(dp3509
g53
(dp3510
g80
g81
ssg62
g3500
sg55
(lp3511
S':'
asbag48
(g69
g50
NtRp3512
(dp3513
g53
(dp3514
sg62
g3500
sg55
(lp3515
g48
(g49
g50
NtRp3516
(dp3517
g53
(dp3518
g61
I3
ssg62
g3512
sg55
(lp3519
S'/'
asbasbasbag48
(g64
g50
NtRp3520
(dp3521
g53
(dp3522
sg62
g3416
sg55
(lp3523
g48
(g69
g50
NtRp3524
(dp3525
g53
(dp3526
g73
g74
ssg62
g3520
sg55
(lp3527
g367
asbag48
(g69
g50
NtRp3528
(dp3529
g53
(dp3530
g80
g81
ssg62
g3520
sg55
(lp3531
S':'
asbag48
(g69
g50
NtRp3532
(dp3533
g53
(dp3534
sg62
g3520
sg55
(lp3535
g48
(g49
g50
NtRp3536
(dp3537
g53
(dp3538
g61
I3
ssg62
g3532
sg55
(lp3539
S''
asbasbasbag48
(g64
g50
NtRp3540
(dp3541
g53
(dp3542
sg62
g3416
sg55
(lp3543
g48
(g69
g50
NtRp3544
(dp3545
g53
(dp3546
g73
g74
ssg62
g3540
sg55
(lp3547
g388
asbag48
(g69
g50
NtRp3548
(dp3549
g53
(dp3550
g80
g81
ssg62
g3540
sg55
(lp3551
S':'
asbag48
(g69
g50
NtRp3552
(dp3553
g53
(dp3554
sg62
g3540
sg55
(lp3555
g48
(g49
g50
NtRp3556
(dp3557
g53
(dp3558
g61
I3
ssg62
g3552
sg55
(lp3559
S''
asbasbasbasbasbasbasbasbasbasbasbag48
(g64
g50
NtRp3560
(dp3561
g53
(dp3562
sg62
g3346
sg55
(lp3563
g48
(g69
g50
NtRp3564
(dp3565
g53
(dp3566
g73
g74
ssg62
g3560
sg55
(lp3567
S'files'
p3568
asbag48
(g69
g50
NtRp3569
(dp3570
g53
(dp3571
g80
g81
ssg62
g3560
sg55
(lp3572
S':'
asbag48
(g69
g50
NtRp3573
(dp3574
g53
(dp3575
sg62
g3560
sg55
(lp3576
g48
(g49
g50
NtRp3577
(dp3578
g53
(dp3579
g61
I5
ssg62
g3573
sg55
(lp3580
g48
(g57
g50
NtRp3581
(dp3582
g53
(dp3583
g61
I4
ssg62
Nsg55
(lp3584
sbasbasbasbag48
(g64
g50
NtRp3585
(dp3586
g53
(dp3587
sg62
g3346
sg55
(lp3588
g48
(g69
g50
NtRp3589
(dp3590
g53
(dp3591
g73
g74
ssg62
g3585
sg55
(lp3592
S'flash'
p3593
asbag48
(g69
g50
NtRp3594
(dp3595
g53
(dp3596
g80
g81
ssg62
g3585
sg55
(lp3597
S':'
asbag48
(g69
g50
NtRp3598
(dp3599
g53
(dp3600
sg62
g3585
sg55
(lp3601
g48
(g49
g50
NtRp3602
(dp3603
g53
(dp3604
g61
I5
ssg62
g3598
sg55
(lp3605
S''
asbasbasbag48
(g64
g50
NtRp3606
(dp3607
g53
(dp3608
sg62
g3346
sg55
(lp3609
g48
(g69
g50
NtRp3610
(dp3611
g53
(dp3612
g73
g74
ssg62
g3606
sg55
(lp3613
S'generic_patterns'
p3614
asbag48
(g69
g50
NtRp3615
(dp3616
g53
(dp3617
g80
g81
ssg62
g3606
sg55
(lp3618
S':'
asbag48
(g69
g50
NtRp3619
(dp3620
g53
(dp3621
sg62
g3606
sg55
(lp3622
g48
(g49
g50
NtRp3623
(dp3624
g53
(dp3625
g61
I5
ssg62
g3619
sg55
(lp3626
g48
(g57
g50
NtRp3627
(dp3628
g53
(dp3629
g61
I4
ssg62
Nsg55
(lp3630
g48
(g64
g50
NtRp3631
(dp3632
g53
(dp3633
sg62
g3627
sg55
(lp3634
g48
(g69
g50
NtRp3635
(dp3636
g53
(dp3637
sg62
g3631
sg55
(lp3638
g48
(g49
g50
NtRp3639
(dp3640
g53
(dp3641
g61
I4
ssg62
g3635
sg55
(lp3642
S'*'
asbasbasbasbasbasbasbag48
(g64
g50
NtRp3643
(dp3644
g53
(dp3645
sg62
g3346
sg55
(lp3646
g48
(g69
g50
NtRp3647
(dp3648
g53
(dp3649
g73
g74
ssg62
g3643
sg55
(lp3650
S'headers'
p3651
asbag48
(g69
g50
NtRp3652
(dp3653
g53
(dp3654
g80
g81
ssg62
g3643
sg55
(lp3655
S':'
asbag48
(g69
g50
NtRp3656
(dp3657
g53
(dp3658
sg62
g3643
sg55
(lp3659
g48
(g49
g50
NtRp3660
(dp3661
g53
(dp3662
g61
I5
ssg62
g3656
sg55
(lp3663
g48
(g57
g50
NtRp3664
(dp3665
g53
(dp3666
g61
I4
ssg62
Nsg55
(lp3667
g48
(g64
g50
NtRp3668
(dp3669
g53
(dp3670
sg62
g3664
sg55
(lp3671
g48
(g69
g50
NtRp3672
(dp3673
g53
(dp3674
g73
g74
ssg62
g3668
sg55
(lp3675
S'Cache-Control'
p3676
asbag48
(g69
g50
NtRp3677
(dp3678
g53
(dp3679
g80
g81
ssg62
g3668
sg55
(lp3680
S':'
asbag48
(g69
g50
NtRp3681
(dp3682
g53
(dp3683
sg62
g3668
sg55
(lp3684
g48
(g49
g50
NtRp3685
(dp3686
g53
(dp3687
g61
I4
ssg62
g3681
sg55
(lp3688
S'no-store, no-cache, must-revalidate, post-check=0, pre-check=0'
p3689
asbasbasbag48
(g64
g50
NtRp3690
(dp3691
g53
(dp3692
sg62
g3664
sg55
(lp3693
g48
(g69
g50
NtRp3694
(dp3695
g53
(dp3696
g73
g74
ssg62
g3690
sg55
(lp3697
S'Content-Type'
p3698
asbag48
(g69
g50
NtRp3699
(dp3700
g53
(dp3701
g80
g81
ssg62
g3690
sg55
(lp3702
S':'
asbag48
(g69
g50
NtRp3703
(dp3704
g53
(dp3705
sg62
g3690
sg55
(lp3706
g48
(g49
g50
NtRp3707
(dp3708
g53
(dp3709
g61
I4
ssg62
g3703
sg55
(lp3710
S'text/plain; charset=utf-8'
p3711
asbasbasbag48
(g64
g50
NtRp3712
(dp3713
g53
(dp3714
sg62
g3664
sg55
(lp3715
g48
(g69
g50
NtRp3716
(dp3717
g53
(dp3718
g73
g74
ssg62
g3712
sg55
(lp3719
S'Expires'
p3720
asbag48
(g69
g50
NtRp3721
(dp3722
g53
(dp3723
g80
g81
ssg62
g3712
sg55
(lp3724
S':'
asbag48
(g69
g50
NtRp3725
(dp3726
g53
(dp3727
sg62
g3712
sg55
(lp3728
g48
(g49
g50
NtRp3729
(dp3730
g53
(dp3731
g61
I4
ssg62
g3725
sg55
(lp3732
S'Thu, 19 Jan 2012 19:50:59 GMT'
p3733
asbasbasbag48
(g64
g50
NtRp3734
(dp3735
g53
(dp3736
sg62
g3664
sg55
(lp3737
g48
(g69
g50
NtRp3738
(dp3739
g53
(dp3740
g73
g74
ssg62
g3734
sg55
(lp3741
S'NingNang'
p3742
asbag48
(g69
g50
NtRp3743
(dp3744
g53
(dp3745
g80
g81
ssg62
g3734
sg55
(lp3746
S':'
asbag48
(g69
g50
NtRp3747
(dp3748
g53
(dp3749
sg62
g3734
sg55
(lp3750
g48
(g49
g50
NtRp3751
(dp3752
g53
(dp3753
g61
I4
ssg62
g3747
sg55
(lp3754
S'Nong'
p3755
asbasbasbag48
(g64
g50
NtRp3756
(dp3757
g53
(dp3758
sg62
g3664
sg55
(lp3759
g48
(g69
g50
NtRp3760
(dp3761
g53
(dp3762
g73
g74
ssg62
g3756
sg55
(lp3763
S'Pragma'
p3764
asbag48
(g69
g50
NtRp3765
(dp3766
g53
(dp3767
g80
g81
ssg62
g3756
sg55
(lp3768
S':'
asbag48
(g69
g50
NtRp3769
(dp3770
g53
(dp3771
sg62
g3756
sg55
(lp3772
g48
(g49
g50
NtRp3773
(dp3774
g53
(dp3775
g61
I4
ssg62
g3769
sg55
(lp3776
S'no-cache'
p3777
asbasbasbasbasbasbasbag48
(g64
g50
NtRp3778
(dp3779
g53
(dp3780
sg62
g3346
sg55
(lp3781
g48
(g69
g50
NtRp3782
(dp3783
g53
(dp3784
g73
g74
ssg62
g3778
sg55
(lp3785
S'menu'
p3786
asbag48
(g69
g50
NtRp3787
(dp3788
g53
(dp3789
g80
g81
ssg62
g3778
sg55
(lp3790
S':'
asbag48
(g69
g50
NtRp3791
(dp3792
g53
(dp3793
sg62
g3778
sg55
(lp3794
g48
(g49
g50
NtRp3795
(dp3796
g53
(dp3797
g61
I5
ssg62
g3791
sg55
(lp3798
g48
(g57
g50
NtRp3799
(dp3800
g53
(dp3801
g61
I4
ssg62
Nsg55
(lp3802
g48
(g64
g50
NtRp3803
(dp3804
g53
(dp3805
sg62
g3799
sg55
(lp3806
g48
(g69
g50
NtRp3807
(dp3808
g53
(dp3809
sg62
g3803
sg55
(lp3810
g48
(g49
g50
NtRp3811
(dp3812
g53
(dp3813
g61
I4
ssg62
g3807
sg55
(lp3814
g48
(g57
g50
NtRp3815
(dp3816
g53
(dp3817
g61
I3
ssg62
Nsg55
(lp3818
g48
(g64
g50
NtRp3819
(dp3820
g53
(dp3821
sg62
g3815
sg55
(lp3822
g48
(g69
g50
NtRp3823
(dp3824
g53
(dp3825
sg62
g3819
sg55
(lp3826
g48
(g49
g50
NtRp3827
(dp3828
g53
(dp3829
g61
I3
ssg62
g3823
sg55
(lp3830
cgluon.languages
lazyT_unpickle
p3831
(S's\x04\x00\x00\x00Home'
tRp3832
asbasbasbag48
(g64
g50
NtRp3833
(dp3834
g53
(dp3835
sg62
g3815
sg55
(lp3836
g48
(g69
g50
NtRp3837
(dp3838
g53
(dp3839
sg62
g3833
sg55
(lp3840
g48
(g49
g50
NtRp3841
(dp3842
g53
(dp3843
g61
I3
ssg62
g3837
sg55
(lp3844
g91
asbasbasbag48
(g64
g50
NtRp3845
(dp3846
g53
(dp3847
sg62
g3815
sg55
(lp3848
g48
(g69
g50
NtRp3849
(dp3850
g53
(dp3851
sg62
g3845
sg55
(lp3852
g48
(g49
g50
NtRp3853
(dp3854
g53
(dp3855
g61
I3
ssg62
g3849
sg55
(lp3856
S'/Gabb1/default/index.txt'
p3857
asbasbasbag48
(g64
g50
NtRp3858
(dp3859
g53
(dp3860
sg62
g3815
sg55
(lp3861
g48
(g69
g50
NtRp3862
(dp3863
g53
(dp3864
sg62
g3858
sg55
(lp3865
g48
(g49
g50
NtRp3866
(dp3867
g53
(dp3868
g61
I3
ssg62
g3862
sg55
(lp3869
g48
(g57
g50
NtRp3870
(dp3871
g53
(dp3872
g61
I2
ssg62
Nsg55
(lp3873
sbasbasbasbasbasbasbasbag48
(g64
g50
NtRp3874
(dp3875
g53
(dp3876
sg62
g3799
sg55
(lp3877
g48
(g69
g50
NtRp3878
(dp3879
g53
(dp3880
sg62
g3874
sg55
(lp3881
g48
(g49
g50
NtRp3882
(dp3883
g53
(dp3884
g61
I4
ssg62
g3878
sg55
(lp3885
g48
(g57
g50
NtRp3886
(dp3887
g53
(dp3888
g61
I3
ssg62
Nsg55
(lp3889
g48
(g64
g50
NtRp3890
(dp3891
g53
(dp3892
sg62
g3886
sg55
(lp3893
g48
(g69
g50
NtRp3894
(dp3895
g53
(dp3896
sg62
g3890
sg55
(lp3897
g48
(g49
g50
NtRp3898
(dp3899
g53
(dp3900
g61
I3
ssg62
g3894
sg55
(lp3901
g3831
(S's\x08\x00\x00\x00This App'
tRp3902
asbasbasbag48
(g64
g50
NtRp3903
(dp3904
g53
(dp3905
sg62
g3886
sg55
(lp3906
g48
(g69
g50
NtRp3907
(dp3908
g53
(dp3909
sg62
g3903
sg55
(lp3910
g48
(g49
g50
NtRp3911
(dp3912
g53
(dp3913
g61
I3
ssg62
g3907
sg55
(lp3914
g91
asbasbasbag48
(g64
g50
NtRp3915
(dp3916
g53
(dp3917
sg62
g3886
sg55
(lp3918
g48
(g69
g50
NtRp3919
(dp3920
g53
(dp3921
sg62
g3915
sg55
(lp3922
g48
(g49
g50
NtRp3923
(dp3924
g53
(dp3925
g61
I3
ssg62
g3919
sg55
(lp3926
S'/admin/default/design/Gabb1.txt'
p3927
asbasbasbag48
(g64
g50
NtRp3928
(dp3929
g53
(dp3930
sg62
g3886
sg55
(lp3931
g48
(g69
g50
NtRp3932
(dp3933
g53
(dp3934
sg62
g3928
sg55
(lp3935
g48
(g49
g50
NtRp3936
(dp3937
g53
(dp3938
g61
I3
ssg62
g3932
sg55
(lp3939
g48
(g57
g50
NtRp3940
(dp3941
g53
(dp3942
g61
I2
ssg62
Nsg55
(lp3943
g48
(g64
g50
NtRp3944
(dp3945
g53
(dp3946
sg62
g3940
sg55
(lp3947
g48
(g69
g50
NtRp3948
(dp3949
g53
(dp3950
sg62
g3944
sg55
(lp3951
g48
(g49
g50
NtRp3952
(dp3953
g53
(dp3954
g61
I2
ssg62
g3948
sg55
(lp3955
g48
(g57
g50
NtRp3956
(dp3957
g53
(dp3958
g61
I1
ssg62
Nsg55
(lp3959
g48
(g64
g50
NtRp3960
(dp3961
g53
(dp3962
sg62
g3956
sg55
(lp3963
g48
(g69
g50
NtRp3964
(dp3965
g53
(dp3966
sg62
g3960
sg55
(lp3967
g48
(g49
g50
NtRp3968
(dp3969
g53
(dp3970
g61
I1
ssg62
g3964
sg55
(lp3971
g3831
(S's\n\x00\x00\x00Controller'
tRp3972
asbasbasbag48
(g64
g50
NtRp3973
(dp3974
g53
(dp3975
sg62
g3956
sg55
(lp3976
g48
(g69
g50
NtRp3977
(dp3978
g53
(dp3979
sg62
g3973
sg55
(lp3980
g48
(g49
g50
NtRp3981
(dp3982
g53
(dp3983
g61
I1
ssg62
g3977
sg55
(lp3984
I00
asbasbasbag48
(g64
g50
NtRp3985
(dp3986
g53
(dp3987
sg62
g3956
sg55
(lp3988
g48
(g69
g50
NtRp3989
(dp3990
g53
(dp3991
sg62
g3985
sg55
(lp3992
g48
(g49
g50
NtRp3993
(dp3994
g53
(dp3995
g61
I1
ssg62
g3989
sg55
(lp3996
S'/admin/default/edit/Gabb1/controllers/fb_serv.py'
p3997
asbasbasbasbasbasbasbag48
(g64
g50
NtRp3998
(dp3999
g53
(dp4000
sg62
g3940
sg55
(lp4001
g48
(g69
g50
NtRp4002
(dp4003
g53
(dp4004
sg62
g3998
sg55
(lp4005
g48
(g49
g50
NtRp4006
(dp4007
g53
(dp4008
g61
I2
ssg62
g4002
sg55
(lp4009
g48
(g57
g50
NtRp4010
(dp4011
g53
(dp4012
g61
I1
ssg62
Nsg55
(lp4013
g48
(g64
g50
NtRp4014
(dp4015
g53
(dp4016
sg62
g4010
sg55
(lp4017
g48
(g69
g50
NtRp4018
(dp4019
g53
(dp4020
sg62
g4014
sg55
(lp4021
g48
(g49
g50
NtRp4022
(dp4023
g53
(dp4024
g61
I1
ssg62
g4018
sg55
(lp4025
g3831
(S's\x04\x00\x00\x00View'
tRp4026
asbasbasbag48
(g64
g50
NtRp4027
(dp4028
g53
(dp4029
sg62
g4010
sg55
(lp4030
g48
(g69
g50
NtRp4031
(dp4032
g53
(dp4033
sg62
g4027
sg55
(lp4034
g48
(g49
g50
NtRp4035
(dp4036
g53
(dp4037
g61
I1
ssg62
g4031
sg55
(lp4038
I00
asbasbasbag48
(g64
g50
NtRp4039
(dp4040
g53
(dp4041
sg62
g4010
sg55
(lp4042
g48
(g69
g50
NtRp4043
(dp4044
g53
(dp4045
sg62
g4039
sg55
(lp4046
g48
(g49
g50
NtRp4047
(dp4048
g53
(dp4049
g61
I1
ssg62
g4043
sg55
(lp4050
S'/admin/default/edit/Gabb1/views/fb_serv/serve_player_data.txt'
p4051
asbasbasbasbasbasbasbag48
(g64
g50
NtRp4052
(dp4053
g53
(dp4054
sg62
g3940
sg55
(lp4055
g48
(g69
g50
NtRp4056
(dp4057
g53
(dp4058
sg62
g4052
sg55
(lp4059
g48
(g49
g50
NtRp4060
(dp4061
g53
(dp4062
g61
I2
ssg62
g4056
sg55
(lp4063
g48
(g57
g50
NtRp4064
(dp4065
g53
(dp4066
g61
I1
ssg62
Nsg55
(lp4067
g48
(g64
g50
NtRp4068
(dp4069
g53
(dp4070
sg62
g4064
sg55
(lp4071
g48
(g69
g50
NtRp4072
(dp4073
g53
(dp4074
sg62
g4068
sg55
(lp4075
g48
(g49
g50
NtRp4076
(dp4077
g53
(dp4078
g61
I1
ssg62
g4072
sg55
(lp4079
g3831
(S's\x06\x00\x00\x00Layout'
tRp4080
asbasbasbag48
(g64
g50
NtRp4081
(dp4082
g53
(dp4083
sg62
g4064
sg55
(lp4084
g48
(g69
g50
NtRp4085
(dp4086
g53
(dp4087
sg62
g4081
sg55
(lp4088
g48
(g49
g50
NtRp4089
(dp4090
g53
(dp4091
g61
I1
ssg62
g4085
sg55
(lp4092
I00
asbasbasbag48
(g64
g50
NtRp4093
(dp4094
g53
(dp4095
sg62
g4064
sg55
(lp4096
g48
(g69
g50
NtRp4097
(dp4098
g53
(dp4099
sg62
g4093
sg55
(lp4100
g48
(g49
g50
NtRp4101
(dp4102
g53
(dp4103
g61
I1
ssg62
g4097
sg55
(lp4104
S'/admin/default/edit/Gabb1/views/layout.html'
p4105
asbasbasbasbasbasbasbag48
(g64
g50
NtRp4106
(dp4107
g53
(dp4108
sg62
g3940
sg55
(lp4109
g48
(g69
g50
NtRp4110
(dp4111
g53
(dp4112
sg62
g4106
sg55
(lp4113
g48
(g49
g50
NtRp4114
(dp4115
g53
(dp4116
g61
I2
ssg62
g4110
sg55
(lp4117
g48
(g57
g50
NtRp4118
(dp4119
g53
(dp4120
g61
I1
ssg62
Nsg55
(lp4121
g48
(g64
g50
NtRp4122
(dp4123
g53
(dp4124
sg62
g4118
sg55
(lp4125
g48
(g69
g50
NtRp4126
(dp4127
g53
(dp4128
sg62
g4122
sg55
(lp4129
g48
(g49
g50
NtRp4130
(dp4131
g53
(dp4132
g61
I1
ssg62
g4126
sg55
(lp4133
g3831
(S's\n\x00\x00\x00Stylesheet'
tRp4134
asbasbasbag48
(g64
g50
NtRp4135
(dp4136
g53
(dp4137
sg62
g4118
sg55
(lp4138
g48
(g69
g50
NtRp4139
(dp4140
g53
(dp4141
sg62
g4135
sg55
(lp4142
g48
(g49
g50
NtRp4143
(dp4144
g53
(dp4145
g61
I1
ssg62
g4139
sg55
(lp4146
I00
asbasbasbag48
(g64
g50
NtRp4147
(dp4148
g53
(dp4149
sg62
g4118
sg55
(lp4150
g48
(g69
g50
NtRp4151
(dp4152
g53
(dp4153
sg62
g4147
sg55
(lp4154
g48
(g49
g50
NtRp4155
(dp4156
g53
(dp4157
g61
I1
ssg62
g4151
sg55
(lp4158
S'/admin/default/edit/Gabb1/static/base.css'
p4159
asbasbasbasbasbasbasbag48
(g64
g50
NtRp4160
(dp4161
g53
(dp4162
sg62
g3940
sg55
(lp4163
g48
(g69
g50
NtRp4164
(dp4165
g53
(dp4166
sg62
g4160
sg55
(lp4167
g48
(g49
g50
NtRp4168
(dp4169
g53
(dp4170
g61
I2
ssg62
g4164
sg55
(lp4171
g48
(g57
g50
NtRp4172
(dp4173
g53
(dp4174
g61
I1
ssg62
Nsg55
(lp4175
g48
(g64
g50
NtRp4176
(dp4177
g53
(dp4178
sg62
g4172
sg55
(lp4179
g48
(g69
g50
NtRp4180
(dp4181
g53
(dp4182
sg62
g4176
sg55
(lp4183
g48
(g49
g50
NtRp4184
(dp4185
g53
(dp4186
g61
I1
ssg62
g4180
sg55
(lp4187
g3831
(S's\x08\x00\x00\x00DB Model'
tRp4188
asbasbasbag48
(g64
g50
NtRp4189
(dp4190
g53
(dp4191
sg62
g4172
sg55
(lp4192
g48
(g69
g50
NtRp4193
(dp4194
g53
(dp4195
sg62
g4189
sg55
(lp4196
g48
(g49
g50
NtRp4197
(dp4198
g53
(dp4199
g61
I1
ssg62
g4193
sg55
(lp4200
I00
asbasbasbag48
(g64
g50
NtRp4201
(dp4202
g53
(dp4203
sg62
g4172
sg55
(lp4204
g48
(g69
g50
NtRp4205
(dp4206
g53
(dp4207
sg62
g4201
sg55
(lp4208
g48
(g49
g50
NtRp4209
(dp4210
g53
(dp4211
g61
I1
ssg62
g4205
sg55
(lp4212
S'/admin/default/edit/Gabb1/models/db.py'
p4213
asbasbasbasbasbasbasbag48
(g64
g50
NtRp4214
(dp4215
g53
(dp4216
sg62
g3940
sg55
(lp4217
g48
(g69
g50
NtRp4218
(dp4219
g53
(dp4220
sg62
g4214
sg55
(lp4221
g48
(g49
g50
NtRp4222
(dp4223
g53
(dp4224
g61
I2
ssg62
g4218
sg55
(lp4225
g48
(g57
g50
NtRp4226
(dp4227
g53
(dp4228
g61
I1
ssg62
Nsg55
(lp4229
g48
(g64
g50
NtRp4230
(dp4231
g53
(dp4232
sg62
g4226
sg55
(lp4233
g48
(g69
g50
NtRp4234
(dp4235
g53
(dp4236
sg62
g4230
sg55
(lp4237
g48
(g49
g50
NtRp4238
(dp4239
g53
(dp4240
g61
I1
ssg62
g4234
sg55
(lp4241
g3831
(S's\n\x00\x00\x00Menu Model'
tRp4242
asbasbasbag48
(g64
g50
NtRp4243
(dp4244
g53
(dp4245
sg62
g4226
sg55
(lp4246
g48
(g69
g50
NtRp4247
(dp4248
g53
(dp4249
sg62
g4243
sg55
(lp4250
g48
(g49
g50
NtRp4251
(dp4252
g53
(dp4253
g61
I1
ssg62
g4247
sg55
(lp4254
I00
asbasbasbag48
(g64
g50
NtRp4255
(dp4256
g53
(dp4257
sg62
g4226
sg55
(lp4258
g48
(g69
g50
NtRp4259
(dp4260
g53
(dp4261
sg62
g4255
sg55
(lp4262
g48
(g49
g50
NtRp4263
(dp4264
g53
(dp4265
g61
I1
ssg62
g4259
sg55
(lp4266
S'/admin/default/edit/Gabb1/models/menu.py'
p4267
asbasbasbasbasbasbasbag48
(g64
g50
NtRp4268
(dp4269
g53
(dp4270
sg62
g3940
sg55
(lp4271
g48
(g69
g50
NtRp4272
(dp4273
g53
(dp4274
sg62
g4268
sg55
(lp4275
g48
(g49
g50
NtRp4276
(dp4277
g53
(dp4278
g61
I2
ssg62
g4272
sg55
(lp4279
g48
(g57
g50
NtRp4280
(dp4281
g53
(dp4282
g61
I1
ssg62
Nsg55
(lp4283
g48
(g64
g50
NtRp4284
(dp4285
g53
(dp4286
sg62
g4280
sg55
(lp4287
g48
(g69
g50
NtRp4288
(dp4289
g53
(dp4290
sg62
g4284
sg55
(lp4291
g48
(g49
g50
NtRp4292
(dp4293
g53
(dp4294
g61
I1
ssg62
g4288
sg55
(lp4295
g3831
(S's\x08\x00\x00\x00Database'
tRp4296
asbasbasbag48
(g64
g50
NtRp4297
(dp4298
g53
(dp4299
sg62
g4280
sg55
(lp4300
g48
(g69
g50
NtRp4301
(dp4302
g53
(dp4303
sg62
g4297
sg55
(lp4304
g48
(g49
g50
NtRp4305
(dp4306
g53
(dp4307
g61
I1
ssg62
g4301
sg55
(lp4308
I00
asbasbasbag48
(g64
g50
NtRp4309
(dp4310
g53
(dp4311
sg62
g4280
sg55
(lp4312
g48
(g69
g50
NtRp4313
(dp4314
g53
(dp4315
sg62
g4309
sg55
(lp4316
g48
(g49
g50
NtRp4317
(dp4318
g53
(dp4319
g61
I1
ssg62
g4313
sg55
(lp4320
S'/Gabb1/appadmin/index.txt'
p4321
asbasbasbasbasbasbasbag48
(g64
g50
NtRp4322
(dp4323
g53
(dp4324
sg62
g3940
sg55
(lp4325
g48
(g69
g50
NtRp4326
(dp4327
g53
(dp4328
sg62
g4322
sg55
(lp4329
g48
(g49
g50
NtRp4330
(dp4331
g53
(dp4332
g61
I2
ssg62
g4326
sg55
(lp4333
g48
(g57
g50
NtRp4334
(dp4335
g53
(dp4336
g61
I1
ssg62
Nsg55
(lp4337
g48
(g64
g50
NtRp4338
(dp4339
g53
(dp4340
sg62
g4334
sg55
(lp4341
g48
(g69
g50
NtRp4342
(dp4343
g53
(dp4344
sg62
g4338
sg55
(lp4345
g48
(g49
g50
NtRp4346
(dp4347
g53
(dp4348
g61
I1
ssg62
g4342
sg55
(lp4349
g3831
(S's\x06\x00\x00\x00Errors'
tRp4350
asbasbasbag48
(g64
g50
NtRp4351
(dp4352
g53
(dp4353
sg62
g4334
sg55
(lp4354
g48
(g69
g50
NtRp4355
(dp4356
g53
(dp4357
sg62
g4351
sg55
(lp4358
g48
(g49
g50
NtRp4359
(dp4360
g53
(dp4361
g61
I1
ssg62
g4355
sg55
(lp4362
I00
asbasbasbag48
(g64
g50
NtRp4363
(dp4364
g53
(dp4365
sg62
g4334
sg55
(lp4366
g48
(g69
g50
NtRp4367
(dp4368
g53
(dp4369
sg62
g4363
sg55
(lp4370
g48
(g49
g50
NtRp4371
(dp4372
g53
(dp4373
g61
I1
ssg62
g4367
sg55
(lp4374
S'/admin/default/errors/Gabb1.txt'
p4375
asbasbasbasbasbasbasbag48
(g64
g50
NtRp4376
(dp4377
g53
(dp4378
sg62
g3940
sg55
(lp4379
g48
(g69
g50
NtRp4380
(dp4381
g53
(dp4382
sg62
g4376
sg55
(lp4383
g48
(g49
g50
NtRp4384
(dp4385
g53
(dp4386
g61
I2
ssg62
g4380
sg55
(lp4387
g48
(g57
g50
NtRp4388
(dp4389
g53
(dp4390
g61
I1
ssg62
Nsg55
(lp4391
g48
(g64
g50
NtRp4392
(dp4393
g53
(dp4394
sg62
g4388
sg55
(lp4395
g48
(g69
g50
NtRp4396
(dp4397
g53
(dp4398
sg62
g4392
sg55
(lp4399
g48
(g49
g50
NtRp4400
(dp4401
g53
(dp4402
g61
I1
ssg62
g4396
sg55
(lp4403
g3831
(S's\x05\x00\x00\x00About'
tRp4404
asbasbasbag48
(g64
g50
NtRp4405
(dp4406
g53
(dp4407
sg62
g4388
sg55
(lp4408
g48
(g69
g50
NtRp4409
(dp4410
g53
(dp4411
sg62
g4405
sg55
(lp4412
g48
(g49
g50
NtRp4413
(dp4414
g53
(dp4415
g61
I1
ssg62
g4409
sg55
(lp4416
I00
asbasbasbag48
(g64
g50
NtRp4417
(dp4418
g53
(dp4419
sg62
g4388
sg55
(lp4420
g48
(g69
g50
NtRp4421
(dp4422
g53
(dp4423
sg62
g4417
sg55
(lp4424
g48
(g49
g50
NtRp4425
(dp4426
g53
(dp4427
g61
I1
ssg62
g4421
sg55
(lp4428
S'/admin/default/about/Gabb1.txt'
p4429
asbasbasbasbasbasbasbasbasbasbasbasbasbasbasbag48
(g64
g50
NtRp4430
(dp4431
g53
(dp4432
sg62
g3799
sg55
(lp4433
g48
(g69
g50
NtRp4434
(dp4435
g53
(dp4436
sg62
g4430
sg55
(lp4437
g48
(g49
g50
NtRp4438
(dp4439
g53
(dp4440
g61
I4
ssg62
g4434
sg55
(lp4441
g48
(g57
g50
NtRp4442
(dp4443
g53
(dp4444
g61
I3
ssg62
Nsg55
(lp4445
g48
(g64
g50
NtRp4446
(dp4447
g53
(dp4448
sg62
g4442
sg55
(lp4449
g48
(g69
g50
NtRp4450
(dp4451
g53
(dp4452
sg62
g4446
sg55
(lp4453
g48
(g49
g50
NtRp4454
(dp4455
g53
(dp4456
g61
I3
ssg62
g4450
sg55
(lp4457
g3831
(S's\t\x00\x00\x00Resources'
tRp4458
asbasbasbag48
(g64
g50
NtRp4459
(dp4460
g53
(dp4461
sg62
g4442
sg55
(lp4462
g48
(g69
g50
NtRp4463
(dp4464
g53
(dp4465
sg62
g4459
sg55
(lp4466
g48
(g49
g50
NtRp4467
(dp4468
g53
(dp4469
g61
I3
ssg62
g4463
sg55
(lp4470
g91
asbasbasbag48
(g64
g50
NtRp4471
(dp4472
g53
(dp4473
sg62
g4442
sg55
(lp4474
g48
(g69
g50
NtRp4475
(dp4476
g53
(dp4477
sg62
g4471
sg55
(lp4478
g48
(g49
g50
NtRp4479
(dp4480
g53
(dp4481
g61
I3
ssg62
g4475
sg55
(lp4482
S'None'
p4483
asbasbasbag48
(g64
g50
NtRp4484
(dp4485
g53
(dp4486
sg62
g4442
sg55
(lp4487
g48
(g69
g50
NtRp4488
(dp4489
g53
(dp4490
sg62
g4484
sg55
(lp4491
g48
(g49
g50
NtRp4492
(dp4493
g53
(dp4494
g61
I3
ssg62
g4488
sg55
(lp4495
g48
(g57
g50
NtRp4496
(dp4497
g53
(dp4498
g61
I2
ssg62
Nsg55
(lp4499
g48
(g64
g50
NtRp4500
(dp4501
g53
(dp4502
sg62
g4496
sg55
(lp4503
g48
(g69
g50
NtRp4504
(dp4505
g53
(dp4506
sg62
g4500
sg55
(lp4507
g48
(g49
g50
NtRp4508
(dp4509
g53
(dp4510
g61
I2
ssg62
g4504
sg55
(lp4511
g48
(g57
g50
NtRp4512
(dp4513
g53
(dp4514
g61
I1
ssg62
Nsg55
(lp4515
g48
(g64
g50
NtRp4516
(dp4517
g53
(dp4518
sg62
g4512
sg55
(lp4519
g48
(g69
g50
NtRp4520
(dp4521
g53
(dp4522
sg62
g4516
sg55
(lp4523
g48
(g49
g50
NtRp4524
(dp4525
g53
(dp4526
g61
I1
ssg62
g4520
sg55
(lp4527
g3831
(S's\r\x00\x00\x00Documentation'
tRp4528
asbasbasbag48
(g64
g50
NtRp4529
(dp4530
g53
(dp4531
sg62
g4512
sg55
(lp4532
g48
(g69
g50
NtRp4533
(dp4534
g53
(dp4535
sg62
g4529
sg55
(lp4536
g48
(g49
g50
NtRp4537
(dp4538
g53
(dp4539
g61
I1
ssg62
g4533
sg55
(lp4540
I00
asbasbasbag48
(g64
g50
NtRp4541
(dp4542
g53
(dp4543
sg62
g4512
sg55
(lp4544
g48
(g69
g50
NtRp4545
(dp4546
g53
(dp4547
sg62
g4541
sg55
(lp4548
g48
(g49
g50
NtRp4549
(dp4550
g53
(dp4551
g61
I1
ssg62
g4545
sg55
(lp4552
S'http://www.web2py.com/book'
p4553
asbasbasbag48
(g64
g50
NtRp4554
(dp4555
g53
(dp4556
sg62
g4512
sg55
(lp4557
g48
(g69
g50
NtRp4558
(dp4559
g53
(dp4560
sg62
g4554
sg55
(lp4561
g48
(g49
g50
NtRp4562
(dp4563
g53
(dp4564
g61
I1
ssg62
g4558
sg55
(lp4565
(lp4566
(g3831
(S's\x07\x00\x00\x00Preface'
tRp4567
I00
S'http://www.web2py.com/book/default/chapter/00'
p4568
tp4569
a(g3831
(S's\x0c\x00\x00\x00Introduction'
tRp4570
I00
S'http://www.web2py.com/book/default/chapter/01'
p4571
tp4572
a(g3831
(S's\x06\x00\x00\x00Python'
tRp4573
I00
S'http://www.web2py.com/book/default/chapter/02'
p4574
tp4575
a(g3831
(S's\x08\x00\x00\x00Overview'
tRp4576
I00
S'http://www.web2py.com/book/default/chapter/03'
p4577
tp4578
a(g3831
(S's\x08\x00\x00\x00The Core'
tRp4579
I00
S'http://www.web2py.com/book/default/chapter/04'
p4580
tp4581
a(g3831
(S's\t\x00\x00\x00The Views'
tRp4582
I00
S'http://www.web2py.com/book/default/chapter/05'
p4583
tp4584
a(g3831
(S's\x08\x00\x00\x00Database'
tRp4585
I00
S'http://www.web2py.com/book/default/chapter/06'
p4586
tp4587
a(g3831
(S's\x14\x00\x00\x00Forms and Validators'
tRp4588
I00
S'http://www.web2py.com/book/default/chapter/07'
p4589
tp4590
a(g3831
(S's\x0e\x00\x00\x00Access Control'
tRp4591
I00
S'http://www.web2py.com/book/default/chapter/08'
p4592
tp4593
a(g3831
(S's\x08\x00\x00\x00Services'
tRp4594
I00
S'http://www.web2py.com/book/default/chapter/09'
p4595
tp4596
a(g3831
(S's\x0c\x00\x00\x00Ajax Recipes'
tRp4597
I00
S'http://www.web2py.com/book/default/chapter/10'
p4598
tp4599
a(g3831
(S's\x12\x00\x00\x00Deployment Recipes'
tRp4600
I00
S'http://www.web2py.com/book/default/chapter/11'
p4601
tp4602
a(g3831
(S's\r\x00\x00\x00Other Recipes'
tRp4603
I00
S'http://www.web2py.com/book/default/chapter/12'
p4604
tp4605
a(g3831
(S's\r\x00\x00\x00Buy this book'
tRp4606
I00
S'http://stores.lulu.com/web2py'
p4607
tp4608
aasbasbasbasbasbasbasbag48
(g64
g50
NtRp4609
(dp4610
g53
(dp4611
sg62
g4496
sg55
(lp4612
g48
(g69
g50
NtRp4613
(dp4614
g53
(dp4615
sg62
g4609
sg55
(lp4616
g48
(g49
g50
NtRp4617
(dp4618
g53
(dp4619
g61
I2
ssg62
g4613
sg55
(lp4620
g48
(g57
g50
NtRp4621
(dp4622
g53
(dp4623
g61
I1
ssg62
Nsg55
(lp4624
g48
(g64
g50
NtRp4625
(dp4626
g53
(dp4627
sg62
g4621
sg55
(lp4628
g48
(g69
g50
NtRp4629
(dp4630
g53
(dp4631
sg62
g4625
sg55
(lp4632
g48
(g49
g50
NtRp4633
(dp4634
g53
(dp4635
g61
I1
ssg62
g4629
sg55
(lp4636
g3831
(S's\t\x00\x00\x00Community'
tRp4637
asbasbasbag48
(g64
g50
NtRp4638
(dp4639
g53
(dp4640
sg62
g4621
sg55
(lp4641
g48
(g69
g50
NtRp4642
(dp4643
g53
(dp4644
sg62
g4638
sg55
(lp4645
g48
(g49
g50
NtRp4646
(dp4647
g53
(dp4648
g61
I1
ssg62
g4642
sg55
(lp4649
I00
asbasbasbag48
(g64
g50
NtRp4650
(dp4651
g53
(dp4652
sg62
g4621
sg55
(lp4653
g48
(g69
g50
NtRp4654
(dp4655
g53
(dp4656
sg62
g4650
sg55
(lp4657
g48
(g49
g50
NtRp4658
(dp4659
g53
(dp4660
g61
I1
ssg62
g4654
sg55
(lp4661
Nasbasbasbag48
(g64
g50
NtRp4662
(dp4663
g53
(dp4664
sg62
g4621
sg55
(lp4665
g48
(g69
g50
NtRp4666
(dp4667
g53
(dp4668
sg62
g4662
sg55
(lp4669
g48
(g49
g50
NtRp4670
(dp4671
g53
(dp4672
g61
I1
ssg62
g4666
sg55
(lp4673
(lp4674
(g3831
(S's\x06\x00\x00\x00Groups'
tRp4675
I00
S'http://www.web2py.com/examples/default/usergroups'
p4676
tp4677
a(g3831
(S's\x07\x00\x00\x00Twitter'
tRp4678
I00
S'http://twitter.com/web2py'
p4679
tp4680
a(g3831
(S's\t\x00\x00\x00Live chat'
tRp4681
I00
S'http://mibbit.com/?channel=%23web2py&server=irc.mibbit.net'
p4682
tp4683
a(g3831
(S's\n\x00\x00\x00User Voice'
tRp4684
I00
S'http://web2py.uservoice.com/'
p4685
tp4686
aasbasbasbasbasbasbasbag48
(g64
g50
NtRp4687
(dp4688
g53
(dp4689
sg62
g4496
sg55
(lp4690
g48
(g69
g50
NtRp4691
(dp4692
g53
(dp4693
sg62
g4687
sg55
(lp4694
g48
(g49
g50
NtRp4695
(dp4696
g53
(dp4697
g61
I2
ssg62
g4691
sg55
(lp4698
g48
(g57
g50
NtRp4699
(dp4700
g53
(dp4701
g61
I1
ssg62
Nsg55
(lp4702
g48
(g64
g50
NtRp4703
(dp4704
g53
(dp4705
sg62
g4699
sg55
(lp4706
g48
(g69
g50
NtRp4707
(dp4708
g53
(dp4709
sg62
g4703
sg55
(lp4710
g48
(g49
g50
NtRp4711
(dp4712
g53
(dp4713
g61
I1
ssg62
g4707
sg55
(lp4714
g3831
(S's\x06\x00\x00\x00Web2py'
tRp4715
asbasbasbag48
(g64
g50
NtRp4716
(dp4717
g53
(dp4718
sg62
g4699
sg55
(lp4719
g48
(g69
g50
NtRp4720
(dp4721
g53
(dp4722
sg62
g4716
sg55
(lp4723
g48
(g49
g50
NtRp4724
(dp4725
g53
(dp4726
g61
I1
ssg62
g4720
sg55
(lp4727
I00
asbasbasbag48
(g64
g50
NtRp4728
(dp4729
g53
(dp4730
sg62
g4699
sg55
(lp4731
g48
(g69
g50
NtRp4732
(dp4733
g53
(dp4734
sg62
g4728
sg55
(lp4735
g48
(g49
g50
NtRp4736
(dp4737
g53
(dp4738
g61
I1
ssg62
g4732
sg55
(lp4739
S'http://www.web2py.com'
p4740
asbasbasbag48
(g64
g50
NtRp4741
(dp4742
g53
(dp4743
sg62
g4699
sg55
(lp4744
g48
(g69
g50
NtRp4745
(dp4746
g53
(dp4747
sg62
g4741
sg55
(lp4748
g48
(g49
g50
NtRp4749
(dp4750
g53
(dp4751
g61
I1
ssg62
g4745
sg55
(lp4752
(lp4753
(g3831
(S's\x08\x00\x00\x00Download'
tRp4754
I00
S'http://www.web2py.com/examples/default/download'
p4755
tp4756
a(g3831
(S's\x07\x00\x00\x00Support'
tRp4757
I00
S'http://www.web2py.com/examples/default/support'
p4758
tp4759
a(g3831
(S's\x0e\x00\x00\x00Quick Examples'
tRp4760
I00
S'http://web2py.com/examples/default/examples'
p4761
tp4762
a(g3831
(S's\x03\x00\x00\x00FAQ'
tRp4763
I00
S'http://web2py.com/AlterEgo'
p4764
tp4765
a(g3831
(S's\x11\x00\x00\x00Free Applications'
tRp4766
I00
S'http://web2py.com/appliances'
p4767
tp4768
a(g3831
(S's\x07\x00\x00\x00Plugins'
tRp4769
I00
S'http://web2py.com/plugins'
p4770
tp4771
a(g3831
(S's\x07\x00\x00\x00Recipes'
tRp4772
I00
S'http://web2pyslices.com/'
p4773
tp4774
a(g3831
(S's\x04\x00\x00\x00Demo'
tRp4775
I00
S'http://web2py.com/demo_admin'
p4776
tp4777
a(g3831
(S's\x08\x00\x00\x00Semantic'
tRp4778
I00
S'http://web2py.com/semantic'
p4779
tp4780
a(g3831
(S's\x07\x00\x00\x00Layouts'
tRp4781
I00
S'http://web2py.com/layouts'
p4782
tp4783
a(g3831
(S's\x06\x00\x00\x00Videos'
tRp4784
I00
S'http://www.web2py.com/examples/default/videos/'
p4785
tp4786
aasbasbasbasbasbasbasbasbasbasbasbasbasbasbasbasbasbasbasbag48
(g64
g50
NtRp4787
(dp4788
g53
(dp4789
sg62
g3346
sg55
(lp4790
g48
(g69
g50
NtRp4791
(dp4792
g53
(dp4793
g73
g74
ssg62
g4787
sg55
(lp4794
S'meta'
p4795
asbag48
(g69
g50
NtRp4796
(dp4797
g53
(dp4798
g80
g81
ssg62
g4787
sg55
(lp4799
S':'
asbag48
(g69
g50
NtRp4800
(dp4801
g53
(dp4802
sg62
g4787
sg55
(lp4803
g48
(g49
g50
NtRp4804
(dp4805
g53
(dp4806
g61
I5
ssg62
g4800
sg55
(lp4807
g48
(g57
g50
NtRp4808
(dp4809
g53
(dp4810
g61
I4
ssg62
Nsg55
(lp4811
g48
(g64
g50
NtRp4812
(dp4813
g53
(dp4814
sg62
g4808
sg55
(lp4815
g48
(g69
g50
NtRp4816
(dp4817
g53
(dp4818
g73
g74
ssg62
g4812
sg55
(lp4819
S'author'
p4820
asbag48
(g69
g50
NtRp4821
(dp4822
g53
(dp4823
g80
g81
ssg62
g4812
sg55
(lp4824
S':'
asbag48
(g69
g50
NtRp4825
(dp4826
g53
(dp4827
sg62
g4812
sg55
(lp4828
g48
(g49
g50
NtRp4829
(dp4830
g53
(dp4831
g61
I4
ssg62
g4825
sg55
(lp4832
S'Your Name <you@example.com>'
p4833
asbasbasbag48
(g64
g50
NtRp4834
(dp4835
g53
(dp4836
sg62
g4808
sg55
(lp4837
g48
(g69
g50
NtRp4838
(dp4839
g53
(dp4840
g73
g74
ssg62
g4834
sg55
(lp4841
S'copyright'
p4842
asbag48
(g69
g50
NtRp4843
(dp4844
g53
(dp4845
g80
g81
ssg62
g4834
sg55
(lp4846
S':'
asbag48
(g69
g50
NtRp4847
(dp4848
g53
(dp4849
sg62
g4834
sg55
(lp4850
g48
(g49
g50
NtRp4851
(dp4852
g53
(dp4853
g61
I4
ssg62
g4847
sg55
(lp4854
S'Copyright 2011'
p4855
asbasbasbag48
(g64
g50
NtRp4856
(dp4857
g53
(dp4858
sg62
g4808
sg55
(lp4859
g48
(g69
g50
NtRp4860
(dp4861
g53
(dp4862
g73
g74
ssg62
g4856
sg55
(lp4863
S'description'
p4864
asbag48
(g69
g50
NtRp4865
(dp4866
g53
(dp4867
g80
g81
ssg62
g4856
sg55
(lp4868
S':'
asbag48
(g69
g50
NtRp4869
(dp4870
g53
(dp4871
sg62
g4856
sg55
(lp4872
g48
(g49
g50
NtRp4873
(dp4874
g53
(dp4875
g61
I4
ssg62
g4869
sg55
(lp4876
S'a cool new app'
p4877
asbasbasbag48
(g64
g50
NtRp4878
(dp4879
g53
(dp4880
sg62
g4808
sg55
(lp4881
g48
(g69
g50
NtRp4882
(dp4883
g53
(dp4884
g73
g74
ssg62
g4878
sg55
(lp4885
S'generator'
p4886
asbag48
(g69
g50
NtRp4887
(dp4888
g53
(dp4889
g80
g81
ssg62
g4878
sg55
(lp4890
S':'
asbag48
(g69
g50
NtRp4891
(dp4892
g53
(dp4893
sg62
g4878
sg55
(lp4894
g48
(g49
g50
NtRp4895
(dp4896
g53
(dp4897
g61
I4
ssg62
g4891
sg55
(lp4898
S'Web2py Web Framework'
p4899
asbasbasbag48
(g64
g50
NtRp4900
(dp4901
g53
(dp4902
sg62
g4808
sg55
(lp4903
g48
(g69
g50
NtRp4904
(dp4905
g53
(dp4906
g73
g74
ssg62
g4900
sg55
(lp4907
S'keywords'
p4908
asbag48
(g69
g50
NtRp4909
(dp4910
g53
(dp4911
g80
g81
ssg62
g4900
sg55
(lp4912
S':'
asbag48
(g69
g50
NtRp4913
(dp4914
g53
(dp4915
sg62
g4900
sg55
(lp4916
g48
(g49
g50
NtRp4917
(dp4918
g53
(dp4919
g61
I4
ssg62
g4913
sg55
(lp4920
S'web2py, python, framework'
p4921
asbasbasbasbasbasbasbag48
(g64
g50
NtRp4922
(dp4923
g53
(dp4924
sg62
g3346
sg55
(lp4925
g48
(g69
g50
NtRp4926
(dp4927
g53
(dp4928
g73
g74
ssg62
g4922
sg55
(lp4929
S'postprocessing'
p4930
asbag48
(g69
g50
NtRp4931
(dp4932
g53
(dp4933
g80
g81
ssg62
g4922
sg55
(lp4934
S':'
asbag48
(g69
g50
NtRp4935
(dp4936
g53
(dp4937
sg62
g4922
sg55
(lp4938
g48
(g49
g50
NtRp4939
(dp4940
g53
(dp4941
g61
I5
ssg62
g4935
sg55
(lp4942
g48
(g57
g50
NtRp4943
(dp4944
g53
(dp4945
g61
I4
ssg62
Nsg55
(lp4946
sbasbasbasbag48
(g64
g50
NtRp4947
(dp4948
g53
(dp4949
sg62
g3346
sg55
(lp4950
g48
(g69
g50
NtRp4951
(dp4952
g53
(dp4953
g73
g74
ssg62
g4947
sg55
(lp4954
S'session_filename'
p4955
asbag48
(g69
g50
NtRp4956
(dp4957
g53
(dp4958
g80
g81
ssg62
g4947
sg55
(lp4959
S':'
asbag48
(g69
g50
NtRp4960
(dp4961
g53
(dp4962
sg62
g4947
sg55
(lp4963
g48
(g49
g50
NtRp4964
(dp4965
g53
(dp4966
g61
I5
ssg62
g4960
sg55
(lp4967
S'D:\\git_projs\\Gabblista\\web2py\\web2py\\applications\\Gabb1\\sessions\\127.0.0.1-732db66b-01b4-4bab-8cfa-b6e6db737cc4'
p4968
asbasbasbag48
(g64
g50
NtRp4969
(dp4970
g53
(dp4971
sg62
g3346
sg55
(lp4972
g48
(g69
g50
NtRp4973
(dp4974
g53
(dp4975
g73
g74
ssg62
g4969
sg55
(lp4976
S'session_id'
p4977
asbag48
(g69
g50
NtRp4978
(dp4979
g53
(dp4980
g80
g81
ssg62
g4969
sg55
(lp4981
S':'
asbag48
(g69
g50
NtRp4982
(dp4983
g53
(dp4984
sg62
g4969
sg55
(lp4985
g48
(g49
g50
NtRp4986
(dp4987
g53
(dp4988
g61
I5
ssg62
g4982
sg55
(lp4989
S'127.0.0.1-732db66b-01b4-4bab-8cfa-b6e6db737cc4'
p4990
asbasbasbag48
(g64
g50
NtRp4991
(dp4992
g53
(dp4993
sg62
g3346
sg55
(lp4994
g48
(g69
g50
NtRp4995
(dp4996
g53
(dp4997
g73
g74
ssg62
g4991
sg55
(lp4998
S'session_id_name'
p4999
asbag48
(g69
g50
NtRp5000
(dp5001
g53
(dp5002
g80
g81
ssg62
g4991
sg55
(lp5003
S':'
asbag48
(g69
g50
NtRp5004
(dp5005
g53
(dp5006
sg62
g4991
sg55
(lp5007
g48
(g49
g50
NtRp5008
(dp5009
g53
(dp5010
g61
I5
ssg62
g5004
sg55
(lp5011
g3403
asbasbasbag48
(g64
g50
NtRp5012
(dp5013
g53
(dp5014
sg62
g3346
sg55
(lp5015
g48
(g69
g50
NtRp5016
(dp5017
g53
(dp5018
g73
g74
ssg62
g5012
sg55
(lp5019
S'session_new'
p5020
asbag48
(g69
g50
NtRp5021
(dp5022
g53
(dp5023
g80
g81
ssg62
g5012
sg55
(lp5024
S':'
asbag48
(g69
g50
NtRp5025
(dp5026
g53
(dp5027
sg62
g5012
sg55
(lp5028
g48
(g49
g50
NtRp5029
(dp5030
g53
(dp5031
g61
I5
ssg62
g5025
sg55
(lp5032
g1797
asbasbasbag48
(g64
g50
NtRp5033
(dp5034
g53
(dp5035
sg62
g3346
sg55
(lp5036
g48
(g69
g50
NtRp5037
(dp5038
g53
(dp5039
g73
g74
ssg62
g5033
sg55
(lp5040
S'status'
p5041
asbag48
(g69
g50
NtRp5042
(dp5043
g53
(dp5044
g80
g81
ssg62
g5033
sg55
(lp5045
S':'
asbag48
(g69
g50
NtRp5046
(dp5047
g53
(dp5048
sg62
g5033
sg55
(lp5049
g48
(g49
g50
NtRp5050
(dp5051
g53
(dp5052
g61
I5
ssg62
g5046
sg55
(lp5053
S'200'
p5054
asbasbasbag48
(g64
g50
NtRp5055
(dp5056
g53
(dp5057
sg62
g3346
sg55
(lp5058
g48
(g69
g50
NtRp5059
(dp5060
g53
(dp5061
g73
g74
ssg62
g5055
sg55
(lp5062
S'subtitle'
p5063
asbag48
(g69
g50
NtRp5064
(dp5065
g53
(dp5066
g80
g81
ssg62
g5055
sg55
(lp5067
S':'
asbag48
(g69
g50
NtRp5068
(dp5069
g53
(dp5070
sg62
g5055
sg55
(lp5071
g48
(g49
g50
NtRp5072
(dp5073
g53
(dp5074
g61
I5
ssg62
g5068
sg55
(lp5075
g3831
(S's\r\x00\x00\x00customize me!'
tRp5076
asbasbasbag48
(g64
g50
NtRp5077
(dp5078
g53
(dp5079
sg62
g3346
sg55
(lp5080
g48
(g69
g50
NtRp5081
(dp5082
g53
(dp5083
g73
g74
ssg62
g5077
sg55
(lp5084
S'title'
p5085
asbag48
(g69
g50
NtRp5086
(dp5087
g53
(dp5088
g80
g81
ssg62
g5077
sg55
(lp5089
S':'
asbag48
(g69
g50
NtRp5090
(dp5091
g53
(dp5092
sg62
g5077
sg55
(lp5093
g48
(g49
g50
NtRp5094
(dp5095
g53
(dp5096
g61
I5
ssg62
g5090
sg55
(lp5097
g113
asbasbasbag48
(g64
g50
NtRp5098
(dp5099
g53
(dp5100
sg62
g3346
sg55
(lp5101
g48
(g69
g50
NtRp5102
(dp5103
g53
(dp5104
g73
g74
ssg62
g5098
sg55
(lp5105
g2525
asbag48
(g69
g50
NtRp5106
(dp5107
g53
(dp5108
g80
g81
ssg62
g5098
sg55
(lp5109
S':'
asbag48
(g69
g50
NtRp5110
(dp5111
g53
(dp5112
sg62
g5098
sg55
(lp5113
g48
(g49
g50
NtRp5114
(dp5115
g53
(dp5116
g61
I5
ssg62
g5110
sg55
(lp5117
g2538
asbasbasbag48
(g64
g50
NtRp5118
(dp5119
g53
(dp5120
sg62
g3346
sg55
(lp5121
g48
(g69
g50
NtRp5122
(dp5123
g53
(dp5124
g73
g74
ssg62
g5118
sg55
(lp5125
S'view'
p5126
asbag48
(g69
g50
NtRp5127
(dp5128
g53
(dp5129
g80
g81
ssg62
g5118
sg55
(lp5130
S':'
asbag48
(g69
g50
NtRp5131
(dp5132
g53
(dp5133
sg62
g5118
sg55
(lp5134
g48
(g49
g50
NtRp5135
(dp5136
g53
(dp5137
g61
I5
ssg62
g5131
sg55
(lp5138
S'fb_serv/serve_player_data.txt'
p5139
asbasbasbasbasbsS'locals'
p5140
(dp5141
S'Service'
p5142
S"<class 'gluon.tools.Service'>"
p5143
sS'OBJECT'
p5144
S"<class 'gluon.html.OBJECT'>"
p5145
sS'SQLDB'
p5146
S"<class 'gluon.dal.DAL'>"
p5147
sg3328
S"<Storage {'_Session__hash': '\\xc8[\\xd5\\xc1#\\xd8e\\x10\\xe3\\x06\\x0ba\\xddT\\x92m'}>"
p5148
sS'LINK'
p5149
S"<class 'gluon.html.LINK'>"
p5150
sS'BR'
p5151
S"<class 'gluon.html.BR'>"
p5152
sS'local_import'
p5153
S'<function <lambda> at 0x03706DF0>'
p5154
sS'OPTGROUP'
p5155
S"<class 'gluon.html.OPTGROUP'>"
p5156
sS'PRE'
p5157
S"<class 'gluon.html.PRE'>"
p5158
sS'IS_INT_IN_RANGE'
p5159
S"<class 'gluon.validators.IS_INT_IN_RANGE'>"
p5160
sS'IS_LOWER'
p5161
S"<class 'gluon.validators.IS_LOWER'>"
p5162
sS'IS_STRONG'
p5163
S"<class 'gluon.validators.IS_STRONG'>"
p5164
sS'cache'
p5165
S'<gluon.cache.Cache object at 0x035B5EB0>'
p5166
sS'IS_IN_DB'
p5167
S"<class 'gluon.validators.IS_IN_DB'>"
p5168
sS'TAG'
p5169
S'<gluon.html.__TAG__ object at 0x02C2AD30>'
p5170
sS'SQLField'
p5171
S"<class 'gluon.dal.Field'>"
p5172
sS'mail'
p5173
S'<gluon.tools.Mail object at 0x035B5330>'
p5174
sS'BODY'
p5175
S"<class 'gluon.html.BODY'>"
p5176
sS'IS_DATE_IN_RANGE'
p5177
S"<class 'gluon.validators.IS_DATE_IN_RANGE'>"
p5178
sS'TH'
p5179
S"<class 'gluon.html.TH'>"
p5180
sS'URL'
p5181
S'<function URL at 0x02C6C730>'
p5182
sS'__file__'
p5183
S"r'D:\\git_projs\\Gabblista\\web2py\\web2py\\applications\\Gabb1\\views\\fb_serv/serve_player_data.txt'"
p5184
sS'db'
p5185
S"<DAL {'auth_event': <Table {'origin': <gluon.dal...'_id': <gluon.dal.Field object at 0x07E3BB90>}>}>"
p5186
sS'auth'
p5187
S'<gluon.tools.Auth object at 0x035B5AD0>'
p5188
sS'P'
S"<class 'gluon.html.P'>"
p5189
sS'TFOOT'
p5190
S"<class 'gluon.html.TFOOT'>"
p5191
sS'XHTML'
p5192
S"<class 'gluon.html.XHTML'>"
p5193
sS'ON'
p5194
g1797
sS'OL'
p5195
S"<class 'gluon.html.OL'>"
p5196
sS'TEXTAREA'
p5197
S"<class 'gluon.html.TEXTAREA'>"
p5198
sS'settings'
p5199
S"<Storage {'layout_theme': 'Default', 'subtitle':...l_server': 'localhost', 'login_method': 'local'}>"
p5200
sS'MENU'
p5201
S"<class 'gluon.html.MENU'>"
p5202
sS'LOAD'
p5203
S'<gluon.compileapp.LoadFactory object at 0x035B5F30>'
p5204
sS'CODE'
p5205
S"<class 'gluon.html.CODE'>"
p5206
sS'HTTP'
p5207
S"<class 'gluon.http.HTTP'>"
p5208
sS'HR'
p5209
S"<class 'gluon.html.HR'>"
p5210
sS'IS_DATETIME'
p5211
S"<class 'gluon.validators.IS_DATETIME'>"
p5212
sS'Storage'
p5213
S"<class 'gluon.storage.Storage'>"
p5214
sS'HEAD'
p5215
S"<class 'gluon.html.HEAD'>"
p5216
sS'LABEL'
p5217
S"<class 'gluon.html.LABEL'>"
p5218
sS'CLEANUP'
p5219
S"<class 'gluon.validators.CLEANUP'>"
p5220
sS'plugins'
p5221
S'<gluon.tools.PluginManager object at 0x035B5230>'
p5222
sS'SELECT'
p5223
S"<class 'gluon.html.SELECT'>"
p5224
sS'use_janrain'
p5225
S'<function use_janrain at 0x03486B70>'
p5226
sS'CENTER'
p5227
S"<class 'gluon.html.CENTER'>"
p5228
sS'prettydate'
p5229
S'<function prettydate at 0x03486430>'
p5230
sS'Crud'
p5231
S"<class 'gluon.tools.Crud'>"
p5232
sS'Auth'
p5233
S"<class 'gluon.tools.Auth'>"
p5234
sS'__builtins__'
p5235
S"{'ArithmeticError': <type 'exceptions.ArithmeticError'>, 'AssertionError': <type 'exceptions.AssertionError'>, 'AttributeError': <type 'exceptions.AttributeError'>, 'BaseException': <type 'exceptions.BaseException'>, 'DeprecationWarning': <type 'exceptions.DeprecationWarning'>, 'EOFError': <type 'exceptions.EOFError'>, 'Ellipsis': Ellipsis, 'EnvironmentError': <type 'exceptions.EnvironmentError'>, 'Exception': <type 'exceptions.Exception'>, 'False': False, ...}"
p5236
sS'HTML'
p5237
S"<class 'gluon.html.HTML'>"
p5238
sS'SQLFORM'
p5239
S"<class 'gluon.sqlhtml.SQLFORM'>"
p5240
sS'EM'
p5241
S"<class 'gluon.html.EM'>"
p5242
sS'redirect'
p5243
S'<function redirect at 0x025ADC30>'
p5244
sS'FIELDSET'
p5245
S"<class 'gluon.html.FIELDSET'>"
p5246
sS'IS_EQUAL_TO'
p5247
S"<class 'gluon.validators.IS_EQUAL_TO'>"
p5248
sS'embed64'
p5249
S'<function embed64 at 0x02C7A230>'
p5250
sS'IS_LIST_OF'
p5251
S"<class 'gluon.validators.IS_LIST_OF'>"
p5252
sS'INPUT'
p5253
S"<class 'gluon.html.INPUT'>"
p5254
sS'EMBED'
p5255
S"<class 'gluon.html.EMBED'>"
p5256
sS'_'
S'<function _ at 0x08133470>'
p5257
sS'FORM'
p5258
S"<class 'gluon.html.FORM'>"
p5259
sS'game_data_row'
p5260
S"{'event_data': '10212810311101091011071101011061091010', 'letter_data': 'KJNDEIUYQVKC'}"
p5261
sS'H2'
p5262
S"<class 'gluon.html.H2'>"
p5263
sS'H3'
p5264
S"<class 'gluon.html.H3'>"
p5265
sS'BUTTON'
p5266
S"<class 'gluon.html.BUTTON'>"
p5267
sS'H1'
p5268
S"<class 'gluon.html.H1'>"
p5269
sS'H6'
p5270
S"<class 'gluon.html.H6'>"
p5271
sS'H4'
p5272
S"<class 'gluon.html.H4'>"
p5273
sS'H5'
p5274
S"<class 'gluon.html.H5'>"
p5275
sS'UL'
p5276
S"<class 'gluon.html.UL'>"
p5277
sS'IS_UPPER'
p5278
S"<class 'gluon.validators.IS_UPPER'>"
p5279
sS'xmlescape'
p5280
S'<function xmlescape at 0x02C6C6B0>'
p5281
sS'IS_TIME'
p5282
S"<class 'gluon.validators.IS_TIME'>"
p5283
sS'OPTION'
p5284
S"<class 'gluon.html.OPTION'>"
p5285
sS'TITLE'
p5286
S"<class 'gluon.html.TITLE'>"
p5287
sS'CRYPT'
p5288
S"<class 'gluon.validators.CRYPT'>"
p5289
sS'IS_EMPTY_OR'
p5290
S"<class 'gluon.validators.IS_EMPTY_OR'>"
p5291
sS'MARKMIN'
p5292
S"<class 'gluon.html.MARKMIN'>"
p5293
sS'COL'
p5294
S"<class 'gluon.html.COL'>"
p5295
sS'service'
p5296
S'<gluon.tools.Service object at 0x035B50F0>'
p5297
sS'SCRIPT'
p5298
S"<class 'gluon.html.SCRIPT'>"
p5299
sS'TABLE'
p5300
S"<class 'gluon.html.TABLE'>"
p5301
sS'IS_IPV4'
p5302
S"<class 'gluon.validators.IS_IPV4'>"
p5303
sS'IS_LENGTH'
p5304
S"<class 'gluon.validators.IS_LENGTH'>"
p5305
sS'XML'
p5306
S"<class 'gluon.html.XML'>"
p5307
sS'B'
S"<class 'gluon.html.B'>"
p5308
sS'IMG'
p5309
S"<class 'gluon.html.IMG'>"
p5310
sS'SQLTABLE'
p5311
S"<class 'gluon.sqlhtml.SQLTABLE'>"
p5312
sS'IS_MATCH'
p5313
S"<class 'gluon.validators.IS_MATCH'>"
p5314
sS'IS_ALPHANUMERIC'
p5315
S"<class 'gluon.validators.IS_ALPHANUMERIC'>"
p5316
sS'SPAN'
p5317
S"<class 'gluon.html.SPAN'>"
p5318
sS'IS_SLUG'
p5319
S"<class 'gluon.validators.IS_SLUG'>"
p5320
sS'BEAUTIFY'
p5321
S"<class 'gluon.html.BEAUTIFY'>"
p5322
sS'META'
p5323
S"<class 'gluon.html.META'>"
p5324
sS'IS_DATE'
p5325
S"<class 'gluon.validators.IS_DATE'>"
p5326
sS'IS_EMAIL'
p5327
S"<class 'gluon.validators.IS_EMAIL'>"
p5328
sS'IS_NOT_EMPTY'
p5329
S"<class 'gluon.validators.IS_NOT_EMPTY'>"
p5330
sS'IS_FLOAT_IN_RANGE'
p5331
S"<class 'gluon.validators.IS_FLOAT_IN_RANGE'>"
p5332
sS'TBODY'
p5333
S"<class 'gluon.html.TBODY'>"
p5334
sS'CAT'
p5335
S"<class 'gluon.html.CAT'>"
p5336
sS'Field'
p5337
S"<class 'gluon.dal.Field'>"
p5338
sS'DIV'
p5339
S"<class 'gluon.html.DIV'>"
p5340
sS'LEGEND'
p5341
S"<class 'gluon.html.LEGEND'>"
p5342
sS'COLGROUP'
p5343
S"<class 'gluon.html.COLGROUP'>"
p5344
sS'DAL'
p5345
S"<class 'gluon.dal.DAL'>"
p5346
sS'TT'
p5347
S"<class 'gluon.html.TT'>"
p5348
sS'TR'
p5349
S"<class 'gluon.html.TR'>"
p5350
sS'LI'
p5351
S"<class 'gluon.html.LI'>"
p5352
sS'IFRAME'
p5353
S"<class 'gluon.html.IFRAME'>"
p5354
sS'TD'
p5355
S"<class 'gluon.html.TD'>"
p5356
sS'PluginManager'
p5357
S"<class 'gluon.tools.PluginManager'>"
p5358
sS'IS_URL'
p5359
S"<class 'gluon.validators.IS_URL'>"
p5360
sS'A'
S"<class 'gluon.html.A'>"
p5361
sS'STYLE'
p5362
S"<class 'gluon.html.STYLE'>"
p5363
sS'IS_DATETIME_IN_RANGE'
p5364
S"<class 'gluon.validators.IS_DATETIME_IN_RANGE'>"
p5365
sS'IS_IMAGE'
p5366
S"<class 'gluon.validators.IS_IMAGE'>"
p5367
sS'I'
S"<class 'gluon.html.I'>"
p5368
sS'crud'
p5369
S'<gluon.tools.Crud object at 0x035B56F0>'
p5370
sS'IS_NOT_IN_DB'
p5371
S"<class 'gluon.validators.IS_NOT_IN_DB'>"
p5372
sg3341
S"<Storage {'status': 200, 'body': <cStringIO.Stri...s': [], 'view': 'fb_serv/serve_player_data.txt'}>"
p5373
sS'THEAD'
p5374
S"<class 'gluon.html.THEAD'>"
p5375
sS'IS_NULL_OR'
p5376
S"<class 'gluon.validators.IS_EMPTY_OR'>"
p5377
sg47
S"<Storage {'body': <cStringIO.StringO object at 0...'opponent_ID': '1'}>, 'post_vars': <Storage {}>}>"
p5378
sS'IS_EXPR'
p5379
S"<class 'gluon.validators.IS_EXPR'>"
p5380
sS'T'
S'<gluon.languages.translator object at 0x035B5FF0>'
p5381
sS'IS_IN_SET'
p5382
S"<class 'gluon.validators.IS_IN_SET'>"
p5383
sS'IS_UPLOAD_FILENAME'
p5384
S"<class 'gluon.validators.IS_UPLOAD_FILENAME'>"
p5385
sS'IS_DECIMAL_IN_RANGE'
p5386
S"<class 'gluon.validators.IS_DECIMAL_IN_RANGE'>"
p5387
sssS'traceback'
p5388
S'Traceback (most recent call last):\n  File "D:\\git_projs\\Gabblista\\web2py\\web2py\\gluon\\restricted.py", line 194, in restricted\n    exec ccode in environment\n  File "D:\\git_projs\\Gabblista\\web2py\\web2py\\applications\\Gabb1\\views\\fb_serv/serve_player_data.txt", line 1, in <module>\n    {{=game_data_row.letter_data}}\nAttributeError: \'dict\' object has no attribute \'letter_data\'\n'
p5389
s.