(dp1
S'output'
p2
S''
sS'layer'
p3
S'D:\\git_projs\\Gabblista\\web2py\\web2py\\applications\\Gabb1\\views\\fb_serv/serve_player_data.txt'
p4
sS'code'
p5
S"response.write(message)\nresponse.write('\\r\\n\\r\\n', escape=False)\nresponse.write(test_var)\nresponse.write('\\r\\n', escape=False)"
p6
sS'snapshot'
p7
(dp8
S'exception'
p9
(dp10
S'__hash__'
p11
S"<method-wrapper '__hash__' of exceptions.NameError object at 0x0331F0A8>"
p12
sS'__setattr__'
p13
S"<method-wrapper '__setattr__' of exceptions.NameError object at 0x0331F0A8>"
p14
sS'__reduce_ex__'
p15
S'<built-in method __reduce_ex__ of exceptions.NameError object at 0x0331F0A8>'
p16
sS'__getslice__'
p17
S"<method-wrapper '__getslice__' of exceptions.NameError object at 0x0331F0A8>"
p18
sS'__getitem__'
p19
S"<method-wrapper '__getitem__' of exceptions.NameError object at 0x0331F0A8>"
p20
sS'__setstate__'
p21
S'<built-in method __setstate__ of exceptions.NameError object at 0x0331F0A8>'
p22
sS'__reduce__'
p23
S'<built-in method __reduce__ of exceptions.NameError object at 0x0331F0A8>'
p24
sS'__str__'
p25
S"<method-wrapper '__str__' of exceptions.NameError object at 0x0331F0A8>"
p26
sS'args'
p27
S'("name \'test_var\' is not defined",)'
p28
sS'__getattribute__'
p29
S"<method-wrapper '__getattribute__' of exceptions.NameError object at 0x0331F0A8>"
p30
sS'__class__'
p31
S"<type 'exceptions.NameError'>"
p32
sS'__delattr__'
p33
S"<method-wrapper '__delattr__' of exceptions.NameError object at 0x0331F0A8>"
p34
sS'__repr__'
p35
S"<method-wrapper '__repr__' of exceptions.NameError object at 0x0331F0A8>"
p36
sS'__dict__'
p37
S'{}'
p38
sS'__doc__'
p39
S"'Name not found globally.'"
p40
sS'__init__'
p41
S"<method-wrapper '__init__' of exceptions.NameError object at 0x0331F0A8>"
p42
sS'__new__'
p43
S'<built-in method __new__ of type object at 0x1E1CD8D8>'
p44
ssS'evalue'
p45
S"name 'test_var' is not defined"
p46
sS'request'
p47
ccopy_reg
_reconstructor
p48
(cgluon.html
BEAUTIFY
p49
c__builtin__
object
p50
NtRp51
(dp52
S'attributes'
p53
(dp54
sS'components'
p55
(lp56
g48
(cgluon.html
TABLE
p57
g50
NtRp58
(dp59
g53
(dp60
S'level'
p61
I5
ssS'parent'
p62
Nsg55
(lp63
g48
(cgluon.html
TR
p64
g50
NtRp65
(dp66
g53
(dp67
sg62
g58
sg55
(lp68
g48
(cgluon.html
TD
p69
g50
NtRp70
(dp71
g53
(dp72
S'_style'
p73
S'font-weight:bold;'
p74
ssg62
g65
sg55
(lp75
S'ajax'
p76
asbag48
(g69
g50
NtRp77
(dp78
g53
(dp79
S'_valign'
p80
S'top'
p81
ssg62
g65
sg55
(lp82
S':'
asbag48
(g69
g50
NtRp83
(dp84
g53
(dp85
sg62
g65
sg55
(lp86
g48
(g49
g50
NtRp87
(dp88
g53
(dp89
g61
I5
ssg62
g83
sg55
(lp90
S'False'
p91
asbasbasbag48
(g64
g50
NtRp92
(dp93
g53
(dp94
sg62
g58
sg55
(lp95
g48
(g69
g50
NtRp96
(dp97
g53
(dp98
g73
g74
ssg62
g92
sg55
(lp99
S'application'
p100
asbag48
(g69
g50
NtRp101
(dp102
g53
(dp103
g80
g81
ssg62
g92
sg55
(lp104
S':'
asbag48
(g69
g50
NtRp105
(dp106
g53
(dp107
sg62
g92
sg55
(lp108
g48
(g49
g50
NtRp109
(dp110
g53
(dp111
g61
I5
ssg62
g105
sg55
(lp112
S'Gabb1'
p113
asbasbasbag48
(g64
g50
NtRp114
(dp115
g53
(dp116
sg62
g58
sg55
(lp117
g48
(g69
g50
NtRp118
(dp119
g53
(dp120
g73
g74
ssg62
g114
sg55
(lp121
g27
asbag48
(g69
g50
NtRp122
(dp123
g53
(dp124
g80
g81
ssg62
g114
sg55
(lp125
S':'
asbag48
(g69
g50
NtRp126
(dp127
g53
(dp128
sg62
g114
sg55
(lp129
g48
(g49
g50
NtRp130
(dp131
g53
(dp132
g61
I5
ssg62
g126
sg55
(lp133
g48
(g57
g50
NtRp134
(dp135
g53
(dp136
g61
I4
ssg62
Nsg55
(lp137
sbasbasbasbag48
(g64
g50
NtRp138
(dp139
g53
(dp140
sg62
g58
sg55
(lp141
g48
(g69
g50
NtRp142
(dp143
g53
(dp144
g73
g74
ssg62
g138
sg55
(lp145
S'body'
p146
asbag48
(g69
g50
NtRp147
(dp148
g53
(dp149
g80
g81
ssg62
g138
sg55
(lp150
S':'
asbag48
(g69
g50
NtRp151
(dp152
g53
(dp153
sg62
g138
sg55
(lp154
g48
(g49
g50
NtRp155
(dp156
g53
(dp157
g61
I5
ssg62
g151
sg55
(lp158
S'<cStringIO.StringO object at 0x03348BA0>'
p159
asbasbasbag48
(g64
g50
NtRp160
(dp161
g53
(dp162
sg62
g58
sg55
(lp163
g48
(g69
g50
NtRp164
(dp165
g53
(dp166
g73
g74
ssg62
g160
sg55
(lp167
S'client'
p168
asbag48
(g69
g50
NtRp169
(dp170
g53
(dp171
g80
g81
ssg62
g160
sg55
(lp172
S':'
asbag48
(g69
g50
NtRp173
(dp174
g53
(dp175
sg62
g160
sg55
(lp176
g48
(g49
g50
NtRp177
(dp178
g53
(dp179
g61
I5
ssg62
g173
sg55
(lp180
S'127.0.0.1'
p181
asbasbasbag48
(g64
g50
NtRp182
(dp183
g53
(dp184
sg62
g58
sg55
(lp185
g48
(g69
g50
NtRp186
(dp187
g53
(dp188
g73
g74
ssg62
g182
sg55
(lp189
S'controller'
p190
asbag48
(g69
g50
NtRp191
(dp192
g53
(dp193
g80
g81
ssg62
g182
sg55
(lp194
S':'
asbag48
(g69
g50
NtRp195
(dp196
g53
(dp197
sg62
g182
sg55
(lp198
g48
(g49
g50
NtRp199
(dp200
g53
(dp201
g61
I5
ssg62
g195
sg55
(lp202
S'fb_serv'
p203
asbasbasbag48
(g64
g50
NtRp204
(dp205
g53
(dp206
sg62
g58
sg55
(lp207
g48
(g69
g50
NtRp208
(dp209
g53
(dp210
g73
g74
ssg62
g204
sg55
(lp211
S'cookies'
p212
asbag48
(g69
g50
NtRp213
(dp214
g53
(dp215
g80
g81
ssg62
g204
sg55
(lp216
S':'
asbag48
(g69
g50
NtRp217
(dp218
g53
(dp219
sg62
g204
sg55
(lp220
g48
(g49
g50
NtRp221
(dp222
g53
(dp223
g61
I5
ssg62
g217
sg55
(lp224
g48
(g57
g50
NtRp225
(dp226
g53
(dp227
g61
I4
ssg62
Nsg55
(lp228
g48
(g64
g50
NtRp229
(dp230
g53
(dp231
sg62
g225
sg55
(lp232
g48
(g69
g50
NtRp233
(dp234
g53
(dp235
g73
g74
ssg62
g229
sg55
(lp236
S'session_id_gabb1'
p237
asbag48
(g69
g50
NtRp238
(dp239
g53
(dp240
g80
g81
ssg62
g229
sg55
(lp241
S':'
asbag48
(g69
g50
NtRp242
(dp243
g53
(dp244
sg62
g229
sg55
(lp245
g48
(g49
g50
NtRp246
(dp247
g53
(dp248
g61
I4
ssg62
g242
sg55
(lp249
g48
(g57
g50
NtRp250
(dp251
g53
(dp252
g61
I3
ssg62
Nsg55
(lp253
g48
(g64
g50
NtRp254
(dp255
g53
(dp256
sg62
g250
sg55
(lp257
g48
(g69
g50
NtRp258
(dp259
g53
(dp260
g73
g74
ssg62
g254
sg55
(lp261
S'comment'
p262
asbag48
(g69
g50
NtRp263
(dp264
g53
(dp265
g80
g81
ssg62
g254
sg55
(lp266
S':'
asbag48
(g69
g50
NtRp267
(dp268
g53
(dp269
sg62
g254
sg55
(lp270
g48
(g49
g50
NtRp271
(dp272
g53
(dp273
g61
I3
ssg62
g267
sg55
(lp274
S''
asbasbasbag48
(g64
g50
NtRp275
(dp276
g53
(dp277
sg62
g250
sg55
(lp278
g48
(g69
g50
NtRp279
(dp280
g53
(dp281
g73
g74
ssg62
g275
sg55
(lp282
S'domain'
p283
asbag48
(g69
g50
NtRp284
(dp285
g53
(dp286
g80
g81
ssg62
g275
sg55
(lp287
S':'
asbag48
(g69
g50
NtRp288
(dp289
g53
(dp290
sg62
g275
sg55
(lp291
g48
(g49
g50
NtRp292
(dp293
g53
(dp294
g61
I3
ssg62
g288
sg55
(lp295
S''
asbasbasbag48
(g64
g50
NtRp296
(dp297
g53
(dp298
sg62
g250
sg55
(lp299
g48
(g69
g50
NtRp300
(dp301
g53
(dp302
g73
g74
ssg62
g296
sg55
(lp303
S'expires'
p304
asbag48
(g69
g50
NtRp305
(dp306
g53
(dp307
g80
g81
ssg62
g296
sg55
(lp308
S':'
asbag48
(g69
g50
NtRp309
(dp310
g53
(dp311
sg62
g296
sg55
(lp312
g48
(g49
g50
NtRp313
(dp314
g53
(dp315
g61
I3
ssg62
g309
sg55
(lp316
S''
asbasbasbag48
(g64
g50
NtRp317
(dp318
g53
(dp319
sg62
g250
sg55
(lp320
g48
(g69
g50
NtRp321
(dp322
g53
(dp323
g73
g74
ssg62
g317
sg55
(lp324
S'max-age'
p325
asbag48
(g69
g50
NtRp326
(dp327
g53
(dp328
g80
g81
ssg62
g317
sg55
(lp329
S':'
asbag48
(g69
g50
NtRp330
(dp331
g53
(dp332
sg62
g317
sg55
(lp333
g48
(g49
g50
NtRp334
(dp335
g53
(dp336
g61
I3
ssg62
g330
sg55
(lp337
S''
asbasbasbag48
(g64
g50
NtRp338
(dp339
g53
(dp340
sg62
g250
sg55
(lp341
g48
(g69
g50
NtRp342
(dp343
g53
(dp344
g73
g74
ssg62
g338
sg55
(lp345
S'path'
p346
asbag48
(g69
g50
NtRp347
(dp348
g53
(dp349
g80
g81
ssg62
g338
sg55
(lp350
S':'
asbag48
(g69
g50
NtRp351
(dp352
g53
(dp353
sg62
g338
sg55
(lp354
g48
(g49
g50
NtRp355
(dp356
g53
(dp357
g61
I3
ssg62
g351
sg55
(lp358
S''
asbasbasbag48
(g64
g50
NtRp359
(dp360
g53
(dp361
sg62
g250
sg55
(lp362
g48
(g69
g50
NtRp363
(dp364
g53
(dp365
g73
g74
ssg62
g359
sg55
(lp366
S'secure'
p367
asbag48
(g69
g50
NtRp368
(dp369
g53
(dp370
g80
g81
ssg62
g359
sg55
(lp371
S':'
asbag48
(g69
g50
NtRp372
(dp373
g53
(dp374
sg62
g359
sg55
(lp375
g48
(g49
g50
NtRp376
(dp377
g53
(dp378
g61
I3
ssg62
g372
sg55
(lp379
S''
asbasbasbag48
(g64
g50
NtRp380
(dp381
g53
(dp382
sg62
g250
sg55
(lp383
g48
(g69
g50
NtRp384
(dp385
g53
(dp386
g73
g74
ssg62
g380
sg55
(lp387
S'version'
p388
asbag48
(g69
g50
NtRp389
(dp390
g53
(dp391
g80
g81
ssg62
g380
sg55
(lp392
S':'
asbag48
(g69
g50
NtRp393
(dp394
g53
(dp395
sg62
g380
sg55
(lp396
g48
(g49
g50
NtRp397
(dp398
g53
(dp399
g61
I3
ssg62
g393
sg55
(lp400
S''
asbasbasbasbasbasbasbag48
(g64
g50
NtRp401
(dp402
g53
(dp403
sg62
g225
sg55
(lp404
g48
(g69
g50
NtRp405
(dp406
g53
(dp407
g73
g74
ssg62
g401
sg55
(lp408
S'session_id_welcome'
p409
asbag48
(g69
g50
NtRp410
(dp411
g53
(dp412
g80
g81
ssg62
g401
sg55
(lp413
S':'
asbag48
(g69
g50
NtRp414
(dp415
g53
(dp416
sg62
g401
sg55
(lp417
g48
(g49
g50
NtRp418
(dp419
g53
(dp420
g61
I4
ssg62
g414
sg55
(lp421
g48
(g57
g50
NtRp422
(dp423
g53
(dp424
g61
I3
ssg62
Nsg55
(lp425
g48
(g64
g50
NtRp426
(dp427
g53
(dp428
sg62
g422
sg55
(lp429
g48
(g69
g50
NtRp430
(dp431
g53
(dp432
g73
g74
ssg62
g426
sg55
(lp433
g262
asbag48
(g69
g50
NtRp434
(dp435
g53
(dp436
g80
g81
ssg62
g426
sg55
(lp437
S':'
asbag48
(g69
g50
NtRp438
(dp439
g53
(dp440
sg62
g426
sg55
(lp441
g48
(g49
g50
NtRp442
(dp443
g53
(dp444
g61
I3
ssg62
g438
sg55
(lp445
S''
asbasbasbag48
(g64
g50
NtRp446
(dp447
g53
(dp448
sg62
g422
sg55
(lp449
g48
(g69
g50
NtRp450
(dp451
g53
(dp452
g73
g74
ssg62
g446
sg55
(lp453
g283
asbag48
(g69
g50
NtRp454
(dp455
g53
(dp456
g80
g81
ssg62
g446
sg55
(lp457
S':'
asbag48
(g69
g50
NtRp458
(dp459
g53
(dp460
sg62
g446
sg55
(lp461
g48
(g49
g50
NtRp462
(dp463
g53
(dp464
g61
I3
ssg62
g458
sg55
(lp465
S''
asbasbasbag48
(g64
g50
NtRp466
(dp467
g53
(dp468
sg62
g422
sg55
(lp469
g48
(g69
g50
NtRp470
(dp471
g53
(dp472
g73
g74
ssg62
g466
sg55
(lp473
g304
asbag48
(g69
g50
NtRp474
(dp475
g53
(dp476
g80
g81
ssg62
g466
sg55
(lp477
S':'
asbag48
(g69
g50
NtRp478
(dp479
g53
(dp480
sg62
g466
sg55
(lp481
g48
(g49
g50
NtRp482
(dp483
g53
(dp484
g61
I3
ssg62
g478
sg55
(lp485
S''
asbasbasbag48
(g64
g50
NtRp486
(dp487
g53
(dp488
sg62
g422
sg55
(lp489
g48
(g69
g50
NtRp490
(dp491
g53
(dp492
g73
g74
ssg62
g486
sg55
(lp493
g325
asbag48
(g69
g50
NtRp494
(dp495
g53
(dp496
g80
g81
ssg62
g486
sg55
(lp497
S':'
asbag48
(g69
g50
NtRp498
(dp499
g53
(dp500
sg62
g486
sg55
(lp501
g48
(g49
g50
NtRp502
(dp503
g53
(dp504
g61
I3
ssg62
g498
sg55
(lp505
S''
asbasbasbag48
(g64
g50
NtRp506
(dp507
g53
(dp508
sg62
g422
sg55
(lp509
g48
(g69
g50
NtRp510
(dp511
g53
(dp512
g73
g74
ssg62
g506
sg55
(lp513
g346
asbag48
(g69
g50
NtRp514
(dp515
g53
(dp516
g80
g81
ssg62
g506
sg55
(lp517
S':'
asbag48
(g69
g50
NtRp518
(dp519
g53
(dp520
sg62
g506
sg55
(lp521
g48
(g49
g50
NtRp522
(dp523
g53
(dp524
g61
I3
ssg62
g518
sg55
(lp525
S''
asbasbasbag48
(g64
g50
NtRp526
(dp527
g53
(dp528
sg62
g422
sg55
(lp529
g48
(g69
g50
NtRp530
(dp531
g53
(dp532
g73
g74
ssg62
g526
sg55
(lp533
g367
asbag48
(g69
g50
NtRp534
(dp535
g53
(dp536
g80
g81
ssg62
g526
sg55
(lp537
S':'
asbag48
(g69
g50
NtRp538
(dp539
g53
(dp540
sg62
g526
sg55
(lp541
g48
(g49
g50
NtRp542
(dp543
g53
(dp544
g61
I3
ssg62
g538
sg55
(lp545
S''
asbasbasbag48
(g64
g50
NtRp546
(dp547
g53
(dp548
sg62
g422
sg55
(lp549
g48
(g69
g50
NtRp550
(dp551
g53
(dp552
g73
g74
ssg62
g546
sg55
(lp553
g388
asbag48
(g69
g50
NtRp554
(dp555
g53
(dp556
g80
g81
ssg62
g546
sg55
(lp557
S':'
asbag48
(g69
g50
NtRp558
(dp559
g53
(dp560
sg62
g546
sg55
(lp561
g48
(g49
g50
NtRp562
(dp563
g53
(dp564
g61
I3
ssg62
g558
sg55
(lp565
S''
asbasbasbasbasbasbasbasbasbasbasbag48
(g64
g50
NtRp566
(dp567
g53
(dp568
sg62
g58
sg55
(lp569
g48
(g69
g50
NtRp570
(dp571
g53
(dp572
g73
g74
ssg62
g566
sg55
(lp573
S'env'
p574
asbag48
(g69
g50
NtRp575
(dp576
g53
(dp577
g80
g81
ssg62
g566
sg55
(lp578
S':'
asbag48
(g69
g50
NtRp579
(dp580
g53
(dp581
sg62
g566
sg55
(lp582
g48
(g49
g50
NtRp583
(dp584
g53
(dp585
g61
I5
ssg62
g579
sg55
(lp586
g48
(g57
g50
NtRp587
(dp588
g53
(dp589
g61
I4
ssg62
Nsg55
(lp590
g48
(g64
g50
NtRp591
(dp592
g53
(dp593
sg62
g587
sg55
(lp594
g48
(g69
g50
NtRp595
(dp596
g53
(dp597
g73
g74
ssg62
g591
sg55
(lp598
S'app_folders'
p599
asbag48
(g69
g50
NtRp600
(dp601
g53
(dp602
g80
g81
ssg62
g591
sg55
(lp603
S':'
asbag48
(g69
g50
NtRp604
(dp605
g53
(dp606
sg62
g591
sg55
(lp607
g48
(g49
g50
NtRp608
(dp609
g53
(dp610
g61
I4
ssg62
g604
sg55
(lp611
S"set(['D:\\\\git_projs\\\\Gabblista\\\\web2py\\\\web2py\\\\applications\\\\Gabb1\\\\', 'D:\\\\git_projs\\\\Gabblista\\\\web2py\\\\web2py\\\\applications\\\\welcome\\\\'])"
p612
asbasbasbag48
(g64
g50
NtRp613
(dp614
g53
(dp615
sg62
g587
sg55
(lp616
g48
(g69
g50
NtRp617
(dp618
g53
(dp619
g73
g74
ssg62
g613
sg55
(lp620
S'applications_parent'
p621
asbag48
(g69
g50
NtRp622
(dp623
g53
(dp624
g80
g81
ssg62
g613
sg55
(lp625
S':'
asbag48
(g69
g50
NtRp626
(dp627
g53
(dp628
sg62
g613
sg55
(lp629
g48
(g49
g50
NtRp630
(dp631
g53
(dp632
g61
I4
ssg62
g626
sg55
(lp633
S'D:\\git_projs\\Gabblista\\web2py\\web2py'
p634
asbasbasbag48
(g64
g50
NtRp635
(dp636
g53
(dp637
sg62
g587
sg55
(lp638
g48
(g69
g50
NtRp639
(dp640
g53
(dp641
g73
g74
ssg62
g635
sg55
(lp642
S'cmd_args'
p643
asbag48
(g69
g50
NtRp644
(dp645
g53
(dp646
g80
g81
ssg62
g635
sg55
(lp647
S':'
asbag48
(g69
g50
NtRp648
(dp649
g53
(dp650
sg62
g635
sg55
(lp651
g48
(g49
g50
NtRp652
(dp653
g53
(dp654
g61
I4
ssg62
g648
sg55
(lp655
g48
(g57
g50
NtRp656
(dp657
g53
(dp658
g61
I3
ssg62
Nsg55
(lp659
sbasbasbasbag48
(g64
g50
NtRp660
(dp661
g53
(dp662
sg62
g587
sg55
(lp663
g48
(g69
g50
NtRp664
(dp665
g53
(dp666
g73
g74
ssg62
g660
sg55
(lp667
S'cmd_options'
p668
asbag48
(g69
g50
NtRp669
(dp670
g53
(dp671
g80
g81
ssg62
g660
sg55
(lp672
S':'
asbag48
(g69
g50
NtRp673
(dp674
g53
(dp675
sg62
g660
sg55
(lp676
g48
(g49
g50
NtRp677
(dp678
g53
(dp679
g61
I4
ssg62
g673
sg55
(lp680
S"<Values at 0x36fc3c8: {'verbose': False, 'ip': '127.0.0.1', 'shutdown_timeout': 5, 'taskbar': False, 'nocron': False, 'pid_filename': 'httpserver.pid', 'maxthreads': None, 'softcron': False, 'server_name': 'John-PC', 'bpython': False, 'nogui': False, 'port': 8000, 'extcron': False, 'debuglevel': 30, 'test': None, 'folder': 'D:\\\\git_projs\\\\Gabblista\\\\web2py\\\\web2py', 'config': '', 'import_models': False, 'winservice': '', 'shell': None, 'run': '', 'log_filename': 'httpserver.log', 'args': [''], 'ssl_ca_certificate': None, 'scheduler': None, 'profiler_filename': None, 'ssl_private_key': '', 'password': '<ask>', 'request_queue_size': 5, 'ssl_certificate': '', 'cronjob': False, 'plain': False, 'quiet': False, 'interfaces': None, 'minthreads': None, 'timeout': 10, 'numthreads': None, 'nobanner': False}>"
p681
asbasbasbag48
(g64
g50
NtRp682
(dp683
g53
(dp684
sg62
g587
sg55
(lp685
g48
(g69
g50
NtRp686
(dp687
g53
(dp688
g73
g74
ssg62
g682
sg55
(lp689
S'db_sessions'
p690
asbag48
(g69
g50
NtRp691
(dp692
g53
(dp693
g80
g81
ssg62
g682
sg55
(lp694
S':'
asbag48
(g69
g50
NtRp695
(dp696
g53
(dp697
sg62
g682
sg55
(lp698
g48
(g49
g50
NtRp699
(dp700
g53
(dp701
g61
I4
ssg62
g695
sg55
(lp702
S'set([])'
p703
asbasbasbag48
(g64
g50
NtRp704
(dp705
g53
(dp706
sg62
g587
sg55
(lp707
g48
(g69
g50
NtRp708
(dp709
g53
(dp710
g73
g74
ssg62
g704
sg55
(lp711
S'debugging'
p712
asbag48
(g69
g50
NtRp713
(dp714
g53
(dp715
g80
g81
ssg62
g704
sg55
(lp716
S':'
asbag48
(g69
g50
NtRp717
(dp718
g53
(dp719
sg62
g704
sg55
(lp720
g48
(g49
g50
NtRp721
(dp722
g53
(dp723
g61
I4
ssg62
g717
sg55
(lp724
g91
asbasbasbag48
(g64
g50
NtRp725
(dp726
g53
(dp727
sg62
g587
sg55
(lp728
g48
(g69
g50
NtRp729
(dp730
g53
(dp731
g73
g74
ssg62
g725
sg55
(lp732
S'gluon_parent'
p733
asbag48
(g69
g50
NtRp734
(dp735
g53
(dp736
g80
g81
ssg62
g725
sg55
(lp737
S':'
asbag48
(g69
g50
NtRp738
(dp739
g53
(dp740
sg62
g725
sg55
(lp741
g48
(g49
g50
NtRp742
(dp743
g53
(dp744
g61
I4
ssg62
g738
sg55
(lp745
S'D:\\git_projs\\Gabblista\\web2py\\web2py'
p746
asbasbasbag48
(g64
g50
NtRp747
(dp748
g53
(dp749
sg62
g587
sg55
(lp750
g48
(g69
g50
NtRp751
(dp752
g53
(dp753
g73
g74
ssg62
g747
sg55
(lp754
S'http_accept'
p755
asbag48
(g69
g50
NtRp756
(dp757
g53
(dp758
g80
g81
ssg62
g747
sg55
(lp759
S':'
asbag48
(g69
g50
NtRp760
(dp761
g53
(dp762
sg62
g747
sg55
(lp763
g48
(g49
g50
NtRp764
(dp765
g53
(dp766
g61
I4
ssg62
g760
sg55
(lp767
S'text/html,application/xhtml+xml,application/xml;q=0.9,*/*;q=0.8'
p768
asbasbasbag48
(g64
g50
NtRp769
(dp770
g53
(dp771
sg62
g587
sg55
(lp772
g48
(g69
g50
NtRp773
(dp774
g53
(dp775
g73
g74
ssg62
g769
sg55
(lp776
S'http_accept_charset'
p777
asbag48
(g69
g50
NtRp778
(dp779
g53
(dp780
g80
g81
ssg62
g769
sg55
(lp781
S':'
asbag48
(g69
g50
NtRp782
(dp783
g53
(dp784
sg62
g769
sg55
(lp785
g48
(g49
g50
NtRp786
(dp787
g53
(dp788
g61
I4
ssg62
g782
sg55
(lp789
S'ISO-8859-1,utf-8;q=0.7,*;q=0.3'
p790
asbasbasbag48
(g64
g50
NtRp791
(dp792
g53
(dp793
sg62
g587
sg55
(lp794
g48
(g69
g50
NtRp795
(dp796
g53
(dp797
g73
g74
ssg62
g791
sg55
(lp798
S'http_accept_encoding'
p799
asbag48
(g69
g50
NtRp800
(dp801
g53
(dp802
g80
g81
ssg62
g791
sg55
(lp803
S':'
asbag48
(g69
g50
NtRp804
(dp805
g53
(dp806
sg62
g791
sg55
(lp807
g48
(g49
g50
NtRp808
(dp809
g53
(dp810
g61
I4
ssg62
g804
sg55
(lp811
S'gzip,deflate,sdch'
p812
asbasbasbag48
(g64
g50
NtRp813
(dp814
g53
(dp815
sg62
g587
sg55
(lp816
g48
(g69
g50
NtRp817
(dp818
g53
(dp819
g73
g74
ssg62
g813
sg55
(lp820
S'http_accept_language'
p821
asbag48
(g69
g50
NtRp822
(dp823
g53
(dp824
g80
g81
ssg62
g813
sg55
(lp825
S':'
asbag48
(g69
g50
NtRp826
(dp827
g53
(dp828
sg62
g813
sg55
(lp829
g48
(g49
g50
NtRp830
(dp831
g53
(dp832
g61
I4
ssg62
g826
sg55
(lp833
S'en-US,en;q=0.8'
p834
asbasbasbag48
(g64
g50
NtRp835
(dp836
g53
(dp837
sg62
g587
sg55
(lp838
g48
(g69
g50
NtRp839
(dp840
g53
(dp841
g73
g74
ssg62
g835
sg55
(lp842
S'http_cache_control'
p843
asbag48
(g69
g50
NtRp844
(dp845
g53
(dp846
g80
g81
ssg62
g835
sg55
(lp847
S':'
asbag48
(g69
g50
NtRp848
(dp849
g53
(dp850
sg62
g835
sg55
(lp851
g48
(g49
g50
NtRp852
(dp853
g53
(dp854
g61
I4
ssg62
g848
sg55
(lp855
S'max-age=0'
p856
asbasbasbag48
(g64
g50
NtRp857
(dp858
g53
(dp859
sg62
g587
sg55
(lp860
g48
(g69
g50
NtRp861
(dp862
g53
(dp863
g73
g74
ssg62
g857
sg55
(lp864
S'http_connection'
p865
asbag48
(g69
g50
NtRp866
(dp867
g53
(dp868
g80
g81
ssg62
g857
sg55
(lp869
S':'
asbag48
(g69
g50
NtRp870
(dp871
g53
(dp872
sg62
g857
sg55
(lp873
g48
(g49
g50
NtRp874
(dp875
g53
(dp876
g61
I4
ssg62
g870
sg55
(lp877
S'keep-alive'
p878
asbasbasbag48
(g64
g50
NtRp879
(dp880
g53
(dp881
sg62
g587
sg55
(lp882
g48
(g69
g50
NtRp883
(dp884
g53
(dp885
g73
g74
ssg62
g879
sg55
(lp886
S'http_cookie'
p887
asbag48
(g69
g50
NtRp888
(dp889
g53
(dp890
g80
g81
ssg62
g879
sg55
(lp891
S':'
asbag48
(g69
g50
NtRp892
(dp893
g53
(dp894
sg62
g879
sg55
(lp895
g48
(g49
g50
NtRp896
(dp897
g53
(dp898
g61
I4
ssg62
g892
sg55
(lp899
S'session_id_welcome=127.0.0.1-a4f32c6f-d04a-428c-9fe4-3d0041e1119e; session_id_gabb1=127.0.0.1-e8ee158a-b502-4c37-bb34-17d2e93f96f3'
p900
asbasbasbag48
(g64
g50
NtRp901
(dp902
g53
(dp903
sg62
g587
sg55
(lp904
g48
(g69
g50
NtRp905
(dp906
g53
(dp907
g73
g74
ssg62
g901
sg55
(lp908
S'http_host'
p909
asbag48
(g69
g50
NtRp910
(dp911
g53
(dp912
g80
g81
ssg62
g901
sg55
(lp913
S':'
asbag48
(g69
g50
NtRp914
(dp915
g53
(dp916
sg62
g901
sg55
(lp917
g48
(g49
g50
NtRp918
(dp919
g53
(dp920
g61
I4
ssg62
g914
sg55
(lp921
S'127.0.0.1:8000'
p922
asbasbasbag48
(g64
g50
NtRp923
(dp924
g53
(dp925
sg62
g587
sg55
(lp926
g48
(g69
g50
NtRp927
(dp928
g53
(dp929
g73
g74
ssg62
g923
sg55
(lp930
S'http_user_agent'
p931
asbag48
(g69
g50
NtRp932
(dp933
g53
(dp934
g80
g81
ssg62
g923
sg55
(lp935
S':'
asbag48
(g69
g50
NtRp936
(dp937
g53
(dp938
sg62
g923
sg55
(lp939
g48
(g49
g50
NtRp940
(dp941
g53
(dp942
g61
I4
ssg62
g936
sg55
(lp943
S'Mozilla/5.0 (Windows NT 6.1; WOW64) AppleWebKit/535.7 (KHTML, like Gecko) Chrome/16.0.912.75 Safari/535.7'
p944
asbasbasbag48
(g64
g50
NtRp945
(dp946
g53
(dp947
sg62
g587
sg55
(lp948
g48
(g69
g50
NtRp949
(dp950
g53
(dp951
g73
g74
ssg62
g945
sg55
(lp952
S'is_jython'
p953
asbag48
(g69
g50
NtRp954
(dp955
g53
(dp956
g80
g81
ssg62
g945
sg55
(lp957
S':'
asbag48
(g69
g50
NtRp958
(dp959
g53
(dp960
sg62
g945
sg55
(lp961
g48
(g49
g50
NtRp962
(dp963
g53
(dp964
g61
I4
ssg62
g958
sg55
(lp965
g91
asbasbasbag48
(g64
g50
NtRp966
(dp967
g53
(dp968
sg62
g587
sg55
(lp969
g48
(g69
g50
NtRp970
(dp971
g53
(dp972
g73
g74
ssg62
g966
sg55
(lp973
S'path_info'
p974
asbag48
(g69
g50
NtRp975
(dp976
g53
(dp977
g80
g81
ssg62
g966
sg55
(lp978
S':'
asbag48
(g69
g50
NtRp979
(dp980
g53
(dp981
sg62
g966
sg55
(lp982
g48
(g49
g50
NtRp983
(dp984
g53
(dp985
g61
I4
ssg62
g979
sg55
(lp986
S'/Gabb1/fb_serv/serve_player_data.txt'
p987
asbasbasbag48
(g64
g50
NtRp988
(dp989
g53
(dp990
sg62
g587
sg55
(lp991
g48
(g69
g50
NtRp992
(dp993
g53
(dp994
g73
g74
ssg62
g988
sg55
(lp995
S'query_string'
p996
asbag48
(g69
g50
NtRp997
(dp998
g53
(dp999
g80
g81
ssg62
g988
sg55
(lp1000
S':'
asbag48
(g69
g50
NtRp1001
(dp1002
g53
(dp1003
sg62
g988
sg55
(lp1004
g48
(g49
g50
NtRp1005
(dp1006
g53
(dp1007
g61
I4
ssg62
g1001
sg55
(lp1008
S''
asbasbasbag48
(g64
g50
NtRp1009
(dp1010
g53
(dp1011
sg62
g587
sg55
(lp1012
g48
(g69
g50
NtRp1013
(dp1014
g53
(dp1015
g73
g74
ssg62
g1009
sg55
(lp1016
S'remote_addr'
p1017
asbag48
(g69
g50
NtRp1018
(dp1019
g53
(dp1020
g80
g81
ssg62
g1009
sg55
(lp1021
S':'
asbag48
(g69
g50
NtRp1022
(dp1023
g53
(dp1024
sg62
g1009
sg55
(lp1025
g48
(g49
g50
NtRp1026
(dp1027
g53
(dp1028
g61
I4
ssg62
g1022
sg55
(lp1029
g181
asbasbasbag48
(g64
g50
NtRp1030
(dp1031
g53
(dp1032
sg62
g587
sg55
(lp1033
g48
(g69
g50
NtRp1034
(dp1035
g53
(dp1036
g73
g74
ssg62
g1030
sg55
(lp1037
S'remote_port'
p1038
asbag48
(g69
g50
NtRp1039
(dp1040
g53
(dp1041
g80
g81
ssg62
g1030
sg55
(lp1042
S':'
asbag48
(g69
g50
NtRp1043
(dp1044
g53
(dp1045
sg62
g1030
sg55
(lp1046
g48
(g49
g50
NtRp1047
(dp1048
g53
(dp1049
g61
I4
ssg62
g1043
sg55
(lp1050
S'53367'
p1051
asbasbasbag48
(g64
g50
NtRp1052
(dp1053
g53
(dp1054
sg62
g587
sg55
(lp1055
g48
(g69
g50
NtRp1056
(dp1057
g53
(dp1058
g73
g74
ssg62
g1052
sg55
(lp1059
S'request_method'
p1060
asbag48
(g69
g50
NtRp1061
(dp1062
g53
(dp1063
g80
g81
ssg62
g1052
sg55
(lp1064
S':'
asbag48
(g69
g50
NtRp1065
(dp1066
g53
(dp1067
sg62
g1052
sg55
(lp1068
g48
(g49
g50
NtRp1069
(dp1070
g53
(dp1071
g61
I4
ssg62
g1065
sg55
(lp1072
S'GET'
p1073
asbasbasbag48
(g64
g50
NtRp1074
(dp1075
g53
(dp1076
sg62
g587
sg55
(lp1077
g48
(g69
g50
NtRp1078
(dp1079
g53
(dp1080
g73
g74
ssg62
g1074
sg55
(lp1081
S'request_uri'
p1082
asbag48
(g69
g50
NtRp1083
(dp1084
g53
(dp1085
g80
g81
ssg62
g1074
sg55
(lp1086
S':'
asbag48
(g69
g50
NtRp1087
(dp1088
g53
(dp1089
sg62
g1074
sg55
(lp1090
g48
(g49
g50
NtRp1091
(dp1092
g53
(dp1093
g61
I4
ssg62
g1087
sg55
(lp1094
g987
asbasbasbag48
(g64
g50
NtRp1095
(dp1096
g53
(dp1097
sg62
g587
sg55
(lp1098
g48
(g69
g50
NtRp1099
(dp1100
g53
(dp1101
g73
g74
ssg62
g1095
sg55
(lp1102
S'script_name'
p1103
asbag48
(g69
g50
NtRp1104
(dp1105
g53
(dp1106
g80
g81
ssg62
g1095
sg55
(lp1107
S':'
asbag48
(g69
g50
NtRp1108
(dp1109
g53
(dp1110
sg62
g1095
sg55
(lp1111
g48
(g49
g50
NtRp1112
(dp1113
g53
(dp1114
g61
I4
ssg62
g1108
sg55
(lp1115
S''
asbasbasbag48
(g64
g50
NtRp1116
(dp1117
g53
(dp1118
sg62
g587
sg55
(lp1119
g48
(g69
g50
NtRp1120
(dp1121
g53
(dp1122
g73
g74
ssg62
g1116
sg55
(lp1123
S'server_name'
p1124
asbag48
(g69
g50
NtRp1125
(dp1126
g53
(dp1127
g80
g81
ssg62
g1116
sg55
(lp1128
S':'
asbag48
(g69
g50
NtRp1129
(dp1130
g53
(dp1131
sg62
g1116
sg55
(lp1132
g48
(g49
g50
NtRp1133
(dp1134
g53
(dp1135
g61
I4
ssg62
g1129
sg55
(lp1136
S'John-PC'
p1137
asbasbasbag48
(g64
g50
NtRp1138
(dp1139
g53
(dp1140
sg62
g587
sg55
(lp1141
g48
(g69
g50
NtRp1142
(dp1143
g53
(dp1144
g73
g74
ssg62
g1138
sg55
(lp1145
S'server_port'
p1146
asbag48
(g69
g50
NtRp1147
(dp1148
g53
(dp1149
g80
g81
ssg62
g1138
sg55
(lp1150
S':'
asbag48
(g69
g50
NtRp1151
(dp1152
g53
(dp1153
sg62
g1138
sg55
(lp1154
g48
(g49
g50
NtRp1155
(dp1156
g53
(dp1157
g61
I4
ssg62
g1151
sg55
(lp1158
S'8000'
p1159
asbasbasbag48
(g64
g50
NtRp1160
(dp1161
g53
(dp1162
sg62
g587
sg55
(lp1163
g48
(g69
g50
NtRp1164
(dp1165
g53
(dp1166
g73
g74
ssg62
g1160
sg55
(lp1167
S'server_protocol'
p1168
asbag48
(g69
g50
NtRp1169
(dp1170
g53
(dp1171
g80
g81
ssg62
g1160
sg55
(lp1172
S':'
asbag48
(g69
g50
NtRp1173
(dp1174
g53
(dp1175
sg62
g1160
sg55
(lp1176
g48
(g49
g50
NtRp1177
(dp1178
g53
(dp1179
g61
I4
ssg62
g1173
sg55
(lp1180
S'HTTP/1.1'
p1181
asbasbasbag48
(g64
g50
NtRp1182
(dp1183
g53
(dp1184
sg62
g587
sg55
(lp1185
g48
(g69
g50
NtRp1186
(dp1187
g53
(dp1188
g73
g74
ssg62
g1182
sg55
(lp1189
S'server_software'
p1190
asbag48
(g69
g50
NtRp1191
(dp1192
g53
(dp1193
g80
g81
ssg62
g1182
sg55
(lp1194
S':'
asbag48
(g69
g50
NtRp1195
(dp1196
g53
(dp1197
sg62
g1182
sg55
(lp1198
g48
(g49
g50
NtRp1199
(dp1200
g53
(dp1201
g61
I4
ssg62
g1195
sg55
(lp1202
S'Rocket 1.2.4'
p1203
asbasbasbag48
(g64
g50
NtRp1204
(dp1205
g53
(dp1206
sg62
g587
sg55
(lp1207
g48
(g69
g50
NtRp1208
(dp1209
g53
(dp1210
g73
g74
ssg62
g1204
sg55
(lp1211
S'web2py_crontype'
p1212
asbag48
(g69
g50
NtRp1213
(dp1214
g53
(dp1215
g80
g81
ssg62
g1204
sg55
(lp1216
S':'
asbag48
(g69
g50
NtRp1217
(dp1218
g53
(dp1219
sg62
g1204
sg55
(lp1220
g48
(g49
g50
NtRp1221
(dp1222
g53
(dp1223
g61
I4
ssg62
g1217
sg55
(lp1224
S'hard'
p1225
asbasbasbag48
(g64
g50
NtRp1226
(dp1227
g53
(dp1228
sg62
g587
sg55
(lp1229
g48
(g69
g50
NtRp1230
(dp1231
g53
(dp1232
g73
g74
ssg62
g1226
sg55
(lp1233
S'web2py_original_uri'
p1234
asbag48
(g69
g50
NtRp1235
(dp1236
g53
(dp1237
g80
g81
ssg62
g1226
sg55
(lp1238
S':'
asbag48
(g69
g50
NtRp1239
(dp1240
g53
(dp1241
sg62
g1226
sg55
(lp1242
g48
(g49
g50
NtRp1243
(dp1244
g53
(dp1245
g61
I4
ssg62
g1239
sg55
(lp1246
S'/Gabb1/fb_serv/serve_player_data.txt'
p1247
asbasbasbag48
(g64
g50
NtRp1248
(dp1249
g53
(dp1250
sg62
g587
sg55
(lp1251
g48
(g69
g50
NtRp1252
(dp1253
g53
(dp1254
g73
g74
ssg62
g1248
sg55
(lp1255
S'web2py_path'
p1256
asbag48
(g69
g50
NtRp1257
(dp1258
g53
(dp1259
g80
g81
ssg62
g1248
sg55
(lp1260
S':'
asbag48
(g69
g50
NtRp1261
(dp1262
g53
(dp1263
sg62
g1248
sg55
(lp1264
g48
(g49
g50
NtRp1265
(dp1266
g53
(dp1267
g61
I4
ssg62
g1261
sg55
(lp1268
g634
asbasbasbag48
(g64
g50
NtRp1269
(dp1270
g53
(dp1271
sg62
g587
sg55
(lp1272
g48
(g69
g50
NtRp1273
(dp1274
g53
(dp1275
g73
g74
ssg62
g1269
sg55
(lp1276
S'web2py_version'
p1277
asbag48
(g69
g50
NtRp1278
(dp1279
g53
(dp1280
g80
g81
ssg62
g1269
sg55
(lp1281
S':'
asbag48
(g69
g50
NtRp1282
(dp1283
g53
(dp1284
sg62
g1269
sg55
(lp1285
g48
(g49
g50
NtRp1286
(dp1287
g53
(dp1288
g61
I4
ssg62
g1282
sg55
(lp1289
g48
(g57
g50
NtRp1290
(dp1291
g53
(dp1292
g61
I3
ssg62
Nsg55
(lp1293
g48
(g64
g50
NtRp1294
(dp1295
g53
(dp1296
sg62
g1290
sg55
(lp1297
g48
(g69
g50
NtRp1298
(dp1299
g53
(dp1300
sg62
g1294
sg55
(lp1301
g48
(g49
g50
NtRp1302
(dp1303
g53
(dp1304
g61
I3
ssg62
g1298
sg55
(lp1305
S'1'
asbasbasbag48
(g64
g50
NtRp1306
(dp1307
g53
(dp1308
sg62
g1290
sg55
(lp1309
g48
(g69
g50
NtRp1310
(dp1311
g53
(dp1312
sg62
g1306
sg55
(lp1313
g48
(g49
g50
NtRp1314
(dp1315
g53
(dp1316
g61
I3
ssg62
g1310
sg55
(lp1317
S'99'
p1318
asbasbasbag48
(g64
g50
NtRp1319
(dp1320
g53
(dp1321
sg62
g1290
sg55
(lp1322
g48
(g69
g50
NtRp1323
(dp1324
g53
(dp1325
sg62
g1319
sg55
(lp1326
g48
(g49
g50
NtRp1327
(dp1328
g53
(dp1329
g61
I3
ssg62
g1323
sg55
(lp1330
S'2'
asbasbasbag48
(g64
g50
NtRp1331
(dp1332
g53
(dp1333
sg62
g1290
sg55
(lp1334
g48
(g69
g50
NtRp1335
(dp1336
g53
(dp1337
sg62
g1331
sg55
(lp1338
g48
(g49
g50
NtRp1339
(dp1340
g53
(dp1341
g61
I3
ssg62
g1335
sg55
(lp1342
S'datetime.datetime(2011, 9, 26, 6, 55, 33)'
p1343
asbasbasbag48
(g64
g50
NtRp1344
(dp1345
g53
(dp1346
sg62
g1290
sg55
(lp1347
g48
(g69
g50
NtRp1348
(dp1349
g53
(dp1350
sg62
g1344
sg55
(lp1351
g48
(g49
g50
NtRp1352
(dp1353
g53
(dp1354
g61
I3
ssg62
g1348
sg55
(lp1355
S'stable'
p1356
asbasbasbasbasbasbasbag48
(g64
g50
NtRp1357
(dp1358
g53
(dp1359
sg62
g587
sg55
(lp1360
g48
(g69
g50
NtRp1361
(dp1362
g53
(dp1363
g73
g74
ssg62
g1357
sg55
(lp1364
S'wsgi_errors'
p1365
asbag48
(g69
g50
NtRp1366
(dp1367
g53
(dp1368
g80
g81
ssg62
g1357
sg55
(lp1369
S':'
asbag48
(g69
g50
NtRp1370
(dp1371
g53
(dp1372
sg62
g1357
sg55
(lp1373
g48
(g49
g50
NtRp1374
(dp1375
g53
(dp1376
g61
I4
ssg62
g1370
sg55
(lp1377
S"<open file '<stderr>', mode 'w' at 0x01E400B0>"
p1378
asbasbasbag48
(g64
g50
NtRp1379
(dp1380
g53
(dp1381
sg62
g587
sg55
(lp1382
g48
(g69
g50
NtRp1383
(dp1384
g53
(dp1385
g73
g74
ssg62
g1379
sg55
(lp1386
S'wsgi_file_wrapper'
p1387
asbag48
(g69
g50
NtRp1388
(dp1389
g53
(dp1390
g80
g81
ssg62
g1379
sg55
(lp1391
S':'
asbag48
(g69
g50
NtRp1392
(dp1393
g53
(dp1394
sg62
g1379
sg55
(lp1395
g48
(g49
g50
NtRp1396
(dp1397
g53
(dp1398
g61
I4
ssg62
g1392
sg55
(lp1399
S'<class wsgiref.util.FileWrapper at 0x0373C720>'
p1400
asbasbasbag48
(g64
g50
NtRp1401
(dp1402
g53
(dp1403
sg62
g587
sg55
(lp1404
g48
(g69
g50
NtRp1405
(dp1406
g53
(dp1407
g73
g74
ssg62
g1401
sg55
(lp1408
S'wsgi_input'
p1409
asbag48
(g69
g50
NtRp1410
(dp1411
g53
(dp1412
g80
g81
ssg62
g1401
sg55
(lp1413
S':'
asbag48
(g69
g50
NtRp1414
(dp1415
g53
(dp1416
sg62
g1401
sg55
(lp1417
g48
(g49
g50
NtRp1418
(dp1419
g53
(dp1420
g61
I4
ssg62
g1414
sg55
(lp1421
S'<socket._fileobject object at 0x03A86EF0>'
p1422
asbasbasbag48
(g64
g50
NtRp1423
(dp1424
g53
(dp1425
sg62
g587
sg55
(lp1426
g48
(g69
g50
NtRp1427
(dp1428
g53
(dp1429
g73
g74
ssg62
g1423
sg55
(lp1430
S'wsgi_multiprocess'
p1431
asbag48
(g69
g50
NtRp1432
(dp1433
g53
(dp1434
g80
g81
ssg62
g1423
sg55
(lp1435
S':'
asbag48
(g69
g50
NtRp1436
(dp1437
g53
(dp1438
sg62
g1423
sg55
(lp1439
g48
(g49
g50
NtRp1440
(dp1441
g53
(dp1442
g61
I4
ssg62
g1436
sg55
(lp1443
g91
asbasbasbag48
(g64
g50
NtRp1444
(dp1445
g53
(dp1446
sg62
g587
sg55
(lp1447
g48
(g69
g50
NtRp1448
(dp1449
g53
(dp1450
g73
g74
ssg62
g1444
sg55
(lp1451
S'wsgi_multithread'
p1452
asbag48
(g69
g50
NtRp1453
(dp1454
g53
(dp1455
g80
g81
ssg62
g1444
sg55
(lp1456
S':'
asbag48
(g69
g50
NtRp1457
(dp1458
g53
(dp1459
sg62
g1444
sg55
(lp1460
g48
(g49
g50
NtRp1461
(dp1462
g53
(dp1463
g61
I4
ssg62
g1457
sg55
(lp1464
S'True'
p1465
asbasbasbag48
(g64
g50
NtRp1466
(dp1467
g53
(dp1468
sg62
g587
sg55
(lp1469
g48
(g69
g50
NtRp1470
(dp1471
g53
(dp1472
g73
g74
ssg62
g1466
sg55
(lp1473
S'wsgi_run_once'
p1474
asbag48
(g69
g50
NtRp1475
(dp1476
g53
(dp1477
g80
g81
ssg62
g1466
sg55
(lp1478
S':'
asbag48
(g69
g50
NtRp1479
(dp1480
g53
(dp1481
sg62
g1466
sg55
(lp1482
g48
(g49
g50
NtRp1483
(dp1484
g53
(dp1485
g61
I4
ssg62
g1479
sg55
(lp1486
g91
asbasbasbag48
(g64
g50
NtRp1487
(dp1488
g53
(dp1489
sg62
g587
sg55
(lp1490
g48
(g69
g50
NtRp1491
(dp1492
g53
(dp1493
g73
g74
ssg62
g1487
sg55
(lp1494
S'wsgi_url_scheme'
p1495
asbag48
(g69
g50
NtRp1496
(dp1497
g53
(dp1498
g80
g81
ssg62
g1487
sg55
(lp1499
S':'
asbag48
(g69
g50
NtRp1500
(dp1501
g53
(dp1502
sg62
g1487
sg55
(lp1503
g48
(g49
g50
NtRp1504
(dp1505
g53
(dp1506
g61
I4
ssg62
g1500
sg55
(lp1507
S'http'
p1508
asbasbasbag48
(g64
g50
NtRp1509
(dp1510
g53
(dp1511
sg62
g587
sg55
(lp1512
g48
(g69
g50
NtRp1513
(dp1514
g53
(dp1515
g73
g74
ssg62
g1509
sg55
(lp1516
S'wsgi_version'
p1517
asbag48
(g69
g50
NtRp1518
(dp1519
g53
(dp1520
g80
g81
ssg62
g1509
sg55
(lp1521
S':'
asbag48
(g69
g50
NtRp1522
(dp1523
g53
(dp1524
sg62
g1509
sg55
(lp1525
g48
(g49
g50
NtRp1526
(dp1527
g53
(dp1528
g61
I4
ssg62
g1522
sg55
(lp1529
g48
(g57
g50
NtRp1530
(dp1531
g53
(dp1532
g61
I3
ssg62
Nsg55
(lp1533
g48
(g64
g50
NtRp1534
(dp1535
g53
(dp1536
sg62
g1530
sg55
(lp1537
g48
(g69
g50
NtRp1538
(dp1539
g53
(dp1540
sg62
g1534
sg55
(lp1541
g48
(g49
g50
NtRp1542
(dp1543
g53
(dp1544
g61
I3
ssg62
g1538
sg55
(lp1545
S'1'
asbasbasbag48
(g64
g50
NtRp1546
(dp1547
g53
(dp1548
sg62
g1530
sg55
(lp1549
g48
(g69
g50
NtRp1550
(dp1551
g53
(dp1552
sg62
g1546
sg55
(lp1553
g48
(g49
g50
NtRp1554
(dp1555
g53
(dp1556
g61
I3
ssg62
g1550
sg55
(lp1557
S'0'
asbasbasbasbasbasbasbasbasbasbasbag48
(g64
g50
NtRp1558
(dp1559
g53
(dp1560
sg62
g58
sg55
(lp1561
g48
(g69
g50
NtRp1562
(dp1563
g53
(dp1564
g73
g74
ssg62
g1558
sg55
(lp1565
S'extension'
p1566
asbag48
(g69
g50
NtRp1567
(dp1568
g53
(dp1569
g80
g81
ssg62
g1558
sg55
(lp1570
S':'
asbag48
(g69
g50
NtRp1571
(dp1572
g53
(dp1573
sg62
g1558
sg55
(lp1574
g48
(g49
g50
NtRp1575
(dp1576
g53
(dp1577
g61
I5
ssg62
g1571
sg55
(lp1578
S'txt'
p1579
asbasbasbag48
(g64
g50
NtRp1580
(dp1581
g53
(dp1582
sg62
g58
sg55
(lp1583
g48
(g69
g50
NtRp1584
(dp1585
g53
(dp1586
g73
g74
ssg62
g1580
sg55
(lp1587
S'folder'
p1588
asbag48
(g69
g50
NtRp1589
(dp1590
g53
(dp1591
g80
g81
ssg62
g1580
sg55
(lp1592
S':'
asbag48
(g69
g50
NtRp1593
(dp1594
g53
(dp1595
sg62
g1580
sg55
(lp1596
g48
(g49
g50
NtRp1597
(dp1598
g53
(dp1599
g61
I5
ssg62
g1593
sg55
(lp1600
S'D:\\git_projs\\Gabblista\\web2py\\web2py\\applications\\Gabb1\\'
p1601
asbasbasbag48
(g64
g50
NtRp1602
(dp1603
g53
(dp1604
sg62
g58
sg55
(lp1605
g48
(g69
g50
NtRp1606
(dp1607
g53
(dp1608
g73
g74
ssg62
g1602
sg55
(lp1609
S'function'
p1610
asbag48
(g69
g50
NtRp1611
(dp1612
g53
(dp1613
g80
g81
ssg62
g1602
sg55
(lp1614
S':'
asbag48
(g69
g50
NtRp1615
(dp1616
g53
(dp1617
sg62
g1602
sg55
(lp1618
g48
(g49
g50
NtRp1619
(dp1620
g53
(dp1621
g61
I5
ssg62
g1615
sg55
(lp1622
S'serve_player_data'
p1623
asbasbasbag48
(g64
g50
NtRp1624
(dp1625
g53
(dp1626
sg62
g58
sg55
(lp1627
g48
(g69
g50
NtRp1628
(dp1629
g53
(dp1630
g73
g74
ssg62
g1624
sg55
(lp1631
S'get_vars'
p1632
asbag48
(g69
g50
NtRp1633
(dp1634
g53
(dp1635
g80
g81
ssg62
g1624
sg55
(lp1636
S':'
asbag48
(g69
g50
NtRp1637
(dp1638
g53
(dp1639
sg62
g1624
sg55
(lp1640
g48
(g49
g50
NtRp1641
(dp1642
g53
(dp1643
g61
I5
ssg62
g1637
sg55
(lp1644
g48
(g57
g50
NtRp1645
(dp1646
g53
(dp1647
g61
I4
ssg62
Nsg55
(lp1648
sbasbasbasbag48
(g64
g50
NtRp1649
(dp1650
g53
(dp1651
sg62
g58
sg55
(lp1652
g48
(g69
g50
NtRp1653
(dp1654
g53
(dp1655
g73
g74
ssg62
g1649
sg55
(lp1656
S'global_settings'
p1657
asbag48
(g69
g50
NtRp1658
(dp1659
g53
(dp1660
g80
g81
ssg62
g1649
sg55
(lp1661
S':'
asbag48
(g69
g50
NtRp1662
(dp1663
g53
(dp1664
sg62
g1649
sg55
(lp1665
g48
(g49
g50
NtRp1666
(dp1667
g53
(dp1668
g61
I5
ssg62
g1662
sg55
(lp1669
g48
(g57
g50
NtRp1670
(dp1671
g53
(dp1672
g61
I4
ssg62
Nsg55
(lp1673
g48
(g64
g50
NtRp1674
(dp1675
g53
(dp1676
sg62
g1670
sg55
(lp1677
g48
(g69
g50
NtRp1678
(dp1679
g53
(dp1680
g73
g74
ssg62
g1674
sg55
(lp1681
g599
asbag48
(g69
g50
NtRp1682
(dp1683
g53
(dp1684
g80
g81
ssg62
g1674
sg55
(lp1685
S':'
asbag48
(g69
g50
NtRp1686
(dp1687
g53
(dp1688
sg62
g1674
sg55
(lp1689
g48
(g49
g50
NtRp1690
(dp1691
g53
(dp1692
g61
I4
ssg62
g1686
sg55
(lp1693
S"set(['D:\\\\git_projs\\\\Gabblista\\\\web2py\\\\web2py\\\\applications\\\\Gabb1\\\\', 'D:\\\\git_projs\\\\Gabblista\\\\web2py\\\\web2py\\\\applications\\\\welcome\\\\'])"
p1694
asbasbasbag48
(g64
g50
NtRp1695
(dp1696
g53
(dp1697
sg62
g1670
sg55
(lp1698
g48
(g69
g50
NtRp1699
(dp1700
g53
(dp1701
g73
g74
ssg62
g1695
sg55
(lp1702
g621
asbag48
(g69
g50
NtRp1703
(dp1704
g53
(dp1705
g80
g81
ssg62
g1695
sg55
(lp1706
S':'
asbag48
(g69
g50
NtRp1707
(dp1708
g53
(dp1709
sg62
g1695
sg55
(lp1710
g48
(g49
g50
NtRp1711
(dp1712
g53
(dp1713
g61
I4
ssg62
g1707
sg55
(lp1714
g634
asbasbasbag48
(g64
g50
NtRp1715
(dp1716
g53
(dp1717
sg62
g1670
sg55
(lp1718
g48
(g69
g50
NtRp1719
(dp1720
g53
(dp1721
g73
g74
ssg62
g1715
sg55
(lp1722
g643
asbag48
(g69
g50
NtRp1723
(dp1724
g53
(dp1725
g80
g81
ssg62
g1715
sg55
(lp1726
S':'
asbag48
(g69
g50
NtRp1727
(dp1728
g53
(dp1729
sg62
g1715
sg55
(lp1730
g48
(g49
g50
NtRp1731
(dp1732
g53
(dp1733
g61
I4
ssg62
g1727
sg55
(lp1734
g48
(g57
g50
NtRp1735
(dp1736
g53
(dp1737
g61
I3
ssg62
Nsg55
(lp1738
sbasbasbasbag48
(g64
g50
NtRp1739
(dp1740
g53
(dp1741
sg62
g1670
sg55
(lp1742
g48
(g69
g50
NtRp1743
(dp1744
g53
(dp1745
g73
g74
ssg62
g1739
sg55
(lp1746
g668
asbag48
(g69
g50
NtRp1747
(dp1748
g53
(dp1749
g80
g81
ssg62
g1739
sg55
(lp1750
S':'
asbag48
(g69
g50
NtRp1751
(dp1752
g53
(dp1753
sg62
g1739
sg55
(lp1754
g48
(g49
g50
NtRp1755
(dp1756
g53
(dp1757
g61
I4
ssg62
g1751
sg55
(lp1758
S"<Values at 0x36fc3c8: {'verbose': False, 'ip': '127.0.0.1', 'shutdown_timeout': 5, 'taskbar': False, 'nocron': False, 'pid_filename': 'httpserver.pid', 'maxthreads': None, 'softcron': False, 'server_name': 'John-PC', 'bpython': False, 'nogui': False, 'port': 8000, 'extcron': False, 'debuglevel': 30, 'test': None, 'folder': 'D:\\\\git_projs\\\\Gabblista\\\\web2py\\\\web2py', 'config': '', 'import_models': False, 'winservice': '', 'shell': None, 'run': '', 'log_filename': 'httpserver.log', 'args': [''], 'ssl_ca_certificate': None, 'scheduler': None, 'profiler_filename': None, 'ssl_private_key': '', 'password': '<ask>', 'request_queue_size': 5, 'ssl_certificate': '', 'cronjob': False, 'plain': False, 'quiet': False, 'interfaces': None, 'minthreads': None, 'timeout': 10, 'numthreads': None, 'nobanner': False}>"
p1759
asbasbasbag48
(g64
g50
NtRp1760
(dp1761
g53
(dp1762
sg62
g1670
sg55
(lp1763
g48
(g69
g50
NtRp1764
(dp1765
g53
(dp1766
g73
g74
ssg62
g1760
sg55
(lp1767
g690
asbag48
(g69
g50
NtRp1768
(dp1769
g53
(dp1770
g80
g81
ssg62
g1760
sg55
(lp1771
S':'
asbag48
(g69
g50
NtRp1772
(dp1773
g53
(dp1774
sg62
g1760
sg55
(lp1775
g48
(g49
g50
NtRp1776
(dp1777
g53
(dp1778
g61
I4
ssg62
g1772
sg55
(lp1779
S'set([])'
p1780
asbasbasbag48
(g64
g50
NtRp1781
(dp1782
g53
(dp1783
sg62
g1670
sg55
(lp1784
g48
(g69
g50
NtRp1785
(dp1786
g53
(dp1787
g73
g74
ssg62
g1781
sg55
(lp1788
g712
asbag48
(g69
g50
NtRp1789
(dp1790
g53
(dp1791
g80
g81
ssg62
g1781
sg55
(lp1792
S':'
asbag48
(g69
g50
NtRp1793
(dp1794
g53
(dp1795
sg62
g1781
sg55
(lp1796
g48
(g49
g50
NtRp1797
(dp1798
g53
(dp1799
g61
I4
ssg62
g1793
sg55
(lp1800
g91
asbasbasbag48
(g64
g50
NtRp1801
(dp1802
g53
(dp1803
sg62
g1670
sg55
(lp1804
g48
(g69
g50
NtRp1805
(dp1806
g53
(dp1807
g73
g74
ssg62
g1801
sg55
(lp1808
g733
asbag48
(g69
g50
NtRp1809
(dp1810
g53
(dp1811
g80
g81
ssg62
g1801
sg55
(lp1812
S':'
asbag48
(g69
g50
NtRp1813
(dp1814
g53
(dp1815
sg62
g1801
sg55
(lp1816
g48
(g49
g50
NtRp1817
(dp1818
g53
(dp1819
g61
I4
ssg62
g1813
sg55
(lp1820
g746
asbasbasbag48
(g64
g50
NtRp1821
(dp1822
g53
(dp1823
sg62
g1670
sg55
(lp1824
g48
(g69
g50
NtRp1825
(dp1826
g53
(dp1827
g73
g74
ssg62
g1821
sg55
(lp1828
g953
asbag48
(g69
g50
NtRp1829
(dp1830
g53
(dp1831
g80
g81
ssg62
g1821
sg55
(lp1832
S':'
asbag48
(g69
g50
NtRp1833
(dp1834
g53
(dp1835
sg62
g1821
sg55
(lp1836
g48
(g49
g50
NtRp1837
(dp1838
g53
(dp1839
g61
I4
ssg62
g1833
sg55
(lp1840
g91
asbasbasbag48
(g64
g50
NtRp1841
(dp1842
g53
(dp1843
sg62
g1670
sg55
(lp1844
g48
(g69
g50
NtRp1845
(dp1846
g53
(dp1847
g73
g74
ssg62
g1841
sg55
(lp1848
g1212
asbag48
(g69
g50
NtRp1849
(dp1850
g53
(dp1851
g80
g81
ssg62
g1841
sg55
(lp1852
S':'
asbag48
(g69
g50
NtRp1853
(dp1854
g53
(dp1855
sg62
g1841
sg55
(lp1856
g48
(g49
g50
NtRp1857
(dp1858
g53
(dp1859
g61
I4
ssg62
g1853
sg55
(lp1860
g1225
asbasbasbag48
(g64
g50
NtRp1861
(dp1862
g53
(dp1863
sg62
g1670
sg55
(lp1864
g48
(g69
g50
NtRp1865
(dp1866
g53
(dp1867
g73
g74
ssg62
g1861
sg55
(lp1868
g1277
asbag48
(g69
g50
NtRp1869
(dp1870
g53
(dp1871
g80
g81
ssg62
g1861
sg55
(lp1872
S':'
asbag48
(g69
g50
NtRp1873
(dp1874
g53
(dp1875
sg62
g1861
sg55
(lp1876
g48
(g49
g50
NtRp1877
(dp1878
g53
(dp1879
g61
I4
ssg62
g1873
sg55
(lp1880
g48
(g57
g50
NtRp1881
(dp1882
g53
(dp1883
g61
I3
ssg62
Nsg55
(lp1884
g48
(g64
g50
NtRp1885
(dp1886
g53
(dp1887
sg62
g1881
sg55
(lp1888
g48
(g69
g50
NtRp1889
(dp1890
g53
(dp1891
sg62
g1885
sg55
(lp1892
g48
(g49
g50
NtRp1893
(dp1894
g53
(dp1895
g61
I3
ssg62
g1889
sg55
(lp1896
S'1'
asbasbasbag48
(g64
g50
NtRp1897
(dp1898
g53
(dp1899
sg62
g1881
sg55
(lp1900
g48
(g69
g50
NtRp1901
(dp1902
g53
(dp1903
sg62
g1897
sg55
(lp1904
g48
(g49
g50
NtRp1905
(dp1906
g53
(dp1907
g61
I3
ssg62
g1901
sg55
(lp1908
S'99'
p1909
asbasbasbag48
(g64
g50
NtRp1910
(dp1911
g53
(dp1912
sg62
g1881
sg55
(lp1913
g48
(g69
g50
NtRp1914
(dp1915
g53
(dp1916
sg62
g1910
sg55
(lp1917
g48
(g49
g50
NtRp1918
(dp1919
g53
(dp1920
g61
I3
ssg62
g1914
sg55
(lp1921
S'2'
asbasbasbag48
(g64
g50
NtRp1922
(dp1923
g53
(dp1924
sg62
g1881
sg55
(lp1925
g48
(g69
g50
NtRp1926
(dp1927
g53
(dp1928
sg62
g1922
sg55
(lp1929
g48
(g49
g50
NtRp1930
(dp1931
g53
(dp1932
g61
I3
ssg62
g1926
sg55
(lp1933
S'datetime.datetime(2011, 9, 26, 6, 55, 33)'
p1934
asbasbasbag48
(g64
g50
NtRp1935
(dp1936
g53
(dp1937
sg62
g1881
sg55
(lp1938
g48
(g69
g50
NtRp1939
(dp1940
g53
(dp1941
sg62
g1935
sg55
(lp1942
g48
(g49
g50
NtRp1943
(dp1944
g53
(dp1945
g61
I3
ssg62
g1939
sg55
(lp1946
g1356
asbasbasbasbasbasbasbasbasbasbasbag48
(g64
g50
NtRp1947
(dp1948
g53
(dp1949
sg62
g58
sg55
(lp1950
g48
(g69
g50
NtRp1951
(dp1952
g53
(dp1953
g73
g74
ssg62
g1947
sg55
(lp1954
S'is_https'
p1955
asbag48
(g69
g50
NtRp1956
(dp1957
g53
(dp1958
g80
g81
ssg62
g1947
sg55
(lp1959
S':'
asbag48
(g69
g50
NtRp1960
(dp1961
g53
(dp1962
sg62
g1947
sg55
(lp1963
g48
(g49
g50
NtRp1964
(dp1965
g53
(dp1966
g61
I5
ssg62
g1960
sg55
(lp1967
g91
asbasbasbag48
(g64
g50
NtRp1968
(dp1969
g53
(dp1970
sg62
g58
sg55
(lp1971
g48
(g69
g50
NtRp1972
(dp1973
g53
(dp1974
g73
g74
ssg62
g1968
sg55
(lp1975
S'is_local'
p1976
asbag48
(g69
g50
NtRp1977
(dp1978
g53
(dp1979
g80
g81
ssg62
g1968
sg55
(lp1980
S':'
asbag48
(g69
g50
NtRp1981
(dp1982
g53
(dp1983
sg62
g1968
sg55
(lp1984
g48
(g49
g50
NtRp1985
(dp1986
g53
(dp1987
g61
I5
ssg62
g1981
sg55
(lp1988
g1465
asbasbasbag48
(g64
g50
NtRp1989
(dp1990
g53
(dp1991
sg62
g58
sg55
(lp1992
g48
(g69
g50
NtRp1993
(dp1994
g53
(dp1995
g73
g74
ssg62
g1989
sg55
(lp1996
S'is_restful'
p1997
asbag48
(g69
g50
NtRp1998
(dp1999
g53
(dp2000
g80
g81
ssg62
g1989
sg55
(lp2001
S':'
asbag48
(g69
g50
NtRp2002
(dp2003
g53
(dp2004
sg62
g1989
sg55
(lp2005
g48
(g49
g50
NtRp2006
(dp2007
g53
(dp2008
g61
I5
ssg62
g2002
sg55
(lp2009
g91
asbasbasbag48
(g64
g50
NtRp2010
(dp2011
g53
(dp2012
sg62
g58
sg55
(lp2013
g48
(g69
g50
NtRp2014
(dp2015
g53
(dp2016
g73
g74
ssg62
g2010
sg55
(lp2017
S'now'
p2018
asbag48
(g69
g50
NtRp2019
(dp2020
g53
(dp2021
g80
g81
ssg62
g2010
sg55
(lp2022
S':'
asbag48
(g69
g50
NtRp2023
(dp2024
g53
(dp2025
sg62
g2010
sg55
(lp2026
g48
(g49
g50
NtRp2027
(dp2028
g53
(dp2029
g61
I5
ssg62
g2023
sg55
(lp2030
S'datetime.datetime(2012, 1, 18, 8, 52, 22, 708000)'
p2031
asbasbasbag48
(g64
g50
NtRp2032
(dp2033
g53
(dp2034
sg62
g58
sg55
(lp2035
g48
(g69
g50
NtRp2036
(dp2037
g53
(dp2038
g73
g74
ssg62
g2032
sg55
(lp2039
S'post_vars'
p2040
asbag48
(g69
g50
NtRp2041
(dp2042
g53
(dp2043
g80
g81
ssg62
g2032
sg55
(lp2044
S':'
asbag48
(g69
g50
NtRp2045
(dp2046
g53
(dp2047
sg62
g2032
sg55
(lp2048
g48
(g49
g50
NtRp2049
(dp2050
g53
(dp2051
g61
I5
ssg62
g2045
sg55
(lp2052
g48
(g57
g50
NtRp2053
(dp2054
g53
(dp2055
g61
I4
ssg62
Nsg55
(lp2056
sbasbasbasbag48
(g64
g50
NtRp2057
(dp2058
g53
(dp2059
sg62
g58
sg55
(lp2060
g48
(g69
g50
NtRp2061
(dp2062
g53
(dp2063
g73
g74
ssg62
g2057
sg55
(lp2064
S'raw_extension'
p2065
asbag48
(g69
g50
NtRp2066
(dp2067
g53
(dp2068
g80
g81
ssg62
g2057
sg55
(lp2069
S':'
asbag48
(g69
g50
NtRp2070
(dp2071
g53
(dp2072
sg62
g2057
sg55
(lp2073
g48
(g49
g50
NtRp2074
(dp2075
g53
(dp2076
g61
I5
ssg62
g2070
sg55
(lp2077
g1579
asbasbasbag48
(g64
g50
NtRp2078
(dp2079
g53
(dp2080
sg62
g58
sg55
(lp2081
g48
(g69
g50
NtRp2082
(dp2083
g53
(dp2084
g73
g74
ssg62
g2078
sg55
(lp2085
S'url'
p2086
asbag48
(g69
g50
NtRp2087
(dp2088
g53
(dp2089
g80
g81
ssg62
g2078
sg55
(lp2090
S':'
asbag48
(g69
g50
NtRp2091
(dp2092
g53
(dp2093
sg62
g2078
sg55
(lp2094
g48
(g49
g50
NtRp2095
(dp2096
g53
(dp2097
g61
I5
ssg62
g2091
sg55
(lp2098
S'/Gabb1/fb_serv/serve_player_data.txt'
p2099
asbasbasbag48
(g64
g50
NtRp2100
(dp2101
g53
(dp2102
sg62
g58
sg55
(lp2103
g48
(g69
g50
NtRp2104
(dp2105
g53
(dp2106
g73
g74
ssg62
g2100
sg55
(lp2107
S'utcnow'
p2108
asbag48
(g69
g50
NtRp2109
(dp2110
g53
(dp2111
g80
g81
ssg62
g2100
sg55
(lp2112
S':'
asbag48
(g69
g50
NtRp2113
(dp2114
g53
(dp2115
sg62
g2100
sg55
(lp2116
g48
(g49
g50
NtRp2117
(dp2118
g53
(dp2119
g61
I5
ssg62
g2113
sg55
(lp2120
S'datetime.datetime(2012, 1, 18, 13, 52, 22, 708000)'
p2121
asbasbasbag48
(g64
g50
NtRp2122
(dp2123
g53
(dp2124
sg62
g58
sg55
(lp2125
g48
(g69
g50
NtRp2126
(dp2127
g53
(dp2128
g73
g74
ssg62
g2122
sg55
(lp2129
S'uuid'
p2130
asbag48
(g69
g50
NtRp2131
(dp2132
g53
(dp2133
g80
g81
ssg62
g2122
sg55
(lp2134
S':'
asbag48
(g69
g50
NtRp2135
(dp2136
g53
(dp2137
sg62
g2122
sg55
(lp2138
g48
(g49
g50
NtRp2139
(dp2140
g53
(dp2141
g61
I5
ssg62
g2135
sg55
(lp2142
S'Gabb1/127.0.0.1.2012-01-18.08-52-22.7c308334-10f9-4fb9-ab53-7918197d1133'
p2143
asbasbasbag48
(g64
g50
NtRp2144
(dp2145
g53
(dp2146
sg62
g58
sg55
(lp2147
g48
(g69
g50
NtRp2148
(dp2149
g53
(dp2150
g73
g74
ssg62
g2144
sg55
(lp2151
S'vars'
p2152
asbag48
(g69
g50
NtRp2153
(dp2154
g53
(dp2155
g80
g81
ssg62
g2144
sg55
(lp2156
S':'
asbag48
(g69
g50
NtRp2157
(dp2158
g53
(dp2159
sg62
g2144
sg55
(lp2160
g48
(g49
g50
NtRp2161
(dp2162
g53
(dp2163
g61
I5
ssg62
g2157
sg55
(lp2164
g48
(g57
g50
NtRp2165
(dp2166
g53
(dp2167
g61
I4
ssg62
Nsg55
(lp2168
sbasbasbasbag48
(g64
g50
NtRp2169
(dp2170
g53
(dp2171
sg62
g58
sg55
(lp2172
g48
(g69
g50
NtRp2173
(dp2174
g53
(dp2175
g73
g74
ssg62
g2169
sg55
(lp2176
S'wsgi'
p2177
asbag48
(g69
g50
NtRp2178
(dp2179
g53
(dp2180
g80
g81
ssg62
g2169
sg55
(lp2181
S':'
asbag48
(g69
g50
NtRp2182
(dp2183
g53
(dp2184
sg62
g2169
sg55
(lp2185
g48
(g49
g50
NtRp2186
(dp2187
g53
(dp2188
g61
I5
ssg62
g2182
sg55
(lp2189
g48
(g57
g50
NtRp2190
(dp2191
g53
(dp2192
g61
I4
ssg62
Nsg55
(lp2193
g48
(g64
g50
NtRp2194
(dp2195
g53
(dp2196
sg62
g2190
sg55
(lp2197
g48
(g69
g50
NtRp2198
(dp2199
g53
(dp2200
g73
g74
ssg62
g2194
sg55
(lp2201
S'environ'
p2202
asbag48
(g69
g50
NtRp2203
(dp2204
g53
(dp2205
g80
g81
ssg62
g2194
sg55
(lp2206
S':'
asbag48
(g69
g50
NtRp2207
(dp2208
g53
(dp2209
sg62
g2194
sg55
(lp2210
g48
(g49
g50
NtRp2211
(dp2212
g53
(dp2213
g61
I4
ssg62
g2207
sg55
(lp2214
g48
(g57
g50
NtRp2215
(dp2216
g53
(dp2217
g61
I3
ssg62
Nsg55
(lp2218
g48
(g64
g50
NtRp2219
(dp2220
g53
(dp2221
sg62
g2215
sg55
(lp2222
g48
(g69
g50
NtRp2223
(dp2224
g53
(dp2225
g73
g74
ssg62
g2219
sg55
(lp2226
S'HTTP_ACCEPT'
p2227
asbag48
(g69
g50
NtRp2228
(dp2229
g53
(dp2230
g80
g81
ssg62
g2219
sg55
(lp2231
S':'
asbag48
(g69
g50
NtRp2232
(dp2233
g53
(dp2234
sg62
g2219
sg55
(lp2235
g48
(g49
g50
NtRp2236
(dp2237
g53
(dp2238
g61
I3
ssg62
g2232
sg55
(lp2239
g768
asbasbasbag48
(g64
g50
NtRp2240
(dp2241
g53
(dp2242
sg62
g2215
sg55
(lp2243
g48
(g69
g50
NtRp2244
(dp2245
g53
(dp2246
g73
g74
ssg62
g2240
sg55
(lp2247
S'HTTP_ACCEPT_CHARSET'
p2248
asbag48
(g69
g50
NtRp2249
(dp2250
g53
(dp2251
g80
g81
ssg62
g2240
sg55
(lp2252
S':'
asbag48
(g69
g50
NtRp2253
(dp2254
g53
(dp2255
sg62
g2240
sg55
(lp2256
g48
(g49
g50
NtRp2257
(dp2258
g53
(dp2259
g61
I3
ssg62
g2253
sg55
(lp2260
g790
asbasbasbag48
(g64
g50
NtRp2261
(dp2262
g53
(dp2263
sg62
g2215
sg55
(lp2264
g48
(g69
g50
NtRp2265
(dp2266
g53
(dp2267
g73
g74
ssg62
g2261
sg55
(lp2268
S'HTTP_ACCEPT_ENCODING'
p2269
asbag48
(g69
g50
NtRp2270
(dp2271
g53
(dp2272
g80
g81
ssg62
g2261
sg55
(lp2273
S':'
asbag48
(g69
g50
NtRp2274
(dp2275
g53
(dp2276
sg62
g2261
sg55
(lp2277
g48
(g49
g50
NtRp2278
(dp2279
g53
(dp2280
g61
I3
ssg62
g2274
sg55
(lp2281
g812
asbasbasbag48
(g64
g50
NtRp2282
(dp2283
g53
(dp2284
sg62
g2215
sg55
(lp2285
g48
(g69
g50
NtRp2286
(dp2287
g53
(dp2288
g73
g74
ssg62
g2282
sg55
(lp2289
S'HTTP_ACCEPT_LANGUAGE'
p2290
asbag48
(g69
g50
NtRp2291
(dp2292
g53
(dp2293
g80
g81
ssg62
g2282
sg55
(lp2294
S':'
asbag48
(g69
g50
NtRp2295
(dp2296
g53
(dp2297
sg62
g2282
sg55
(lp2298
g48
(g49
g50
NtRp2299
(dp2300
g53
(dp2301
g61
I3
ssg62
g2295
sg55
(lp2302
g834
asbasbasbag48
(g64
g50
NtRp2303
(dp2304
g53
(dp2305
sg62
g2215
sg55
(lp2306
g48
(g69
g50
NtRp2307
(dp2308
g53
(dp2309
g73
g74
ssg62
g2303
sg55
(lp2310
S'HTTP_CACHE_CONTROL'
p2311
asbag48
(g69
g50
NtRp2312
(dp2313
g53
(dp2314
g80
g81
ssg62
g2303
sg55
(lp2315
S':'
asbag48
(g69
g50
NtRp2316
(dp2317
g53
(dp2318
sg62
g2303
sg55
(lp2319
g48
(g49
g50
NtRp2320
(dp2321
g53
(dp2322
g61
I3
ssg62
g2316
sg55
(lp2323
g856
asbasbasbag48
(g64
g50
NtRp2324
(dp2325
g53
(dp2326
sg62
g2215
sg55
(lp2327
g48
(g69
g50
NtRp2328
(dp2329
g53
(dp2330
g73
g74
ssg62
g2324
sg55
(lp2331
S'HTTP_CONNECTION'
p2332
asbag48
(g69
g50
NtRp2333
(dp2334
g53
(dp2335
g80
g81
ssg62
g2324
sg55
(lp2336
S':'
asbag48
(g69
g50
NtRp2337
(dp2338
g53
(dp2339
sg62
g2324
sg55
(lp2340
g48
(g49
g50
NtRp2341
(dp2342
g53
(dp2343
g61
I3
ssg62
g2337
sg55
(lp2344
g878
asbasbasbag48
(g64
g50
NtRp2345
(dp2346
g53
(dp2347
sg62
g2215
sg55
(lp2348
g48
(g69
g50
NtRp2349
(dp2350
g53
(dp2351
g73
g74
ssg62
g2345
sg55
(lp2352
S'HTTP_COOKIE'
p2353
asbag48
(g69
g50
NtRp2354
(dp2355
g53
(dp2356
g80
g81
ssg62
g2345
sg55
(lp2357
S':'
asbag48
(g69
g50
NtRp2358
(dp2359
g53
(dp2360
sg62
g2345
sg55
(lp2361
g48
(g49
g50
NtRp2362
(dp2363
g53
(dp2364
g61
I3
ssg62
g2358
sg55
(lp2365
g900
asbasbasbag48
(g64
g50
NtRp2366
(dp2367
g53
(dp2368
sg62
g2215
sg55
(lp2369
g48
(g69
g50
NtRp2370
(dp2371
g53
(dp2372
g73
g74
ssg62
g2366
sg55
(lp2373
S'HTTP_HOST'
p2374
asbag48
(g69
g50
NtRp2375
(dp2376
g53
(dp2377
g80
g81
ssg62
g2366
sg55
(lp2378
S':'
asbag48
(g69
g50
NtRp2379
(dp2380
g53
(dp2381
sg62
g2366
sg55
(lp2382
g48
(g49
g50
NtRp2383
(dp2384
g53
(dp2385
g61
I3
ssg62
g2379
sg55
(lp2386
g922
asbasbasbag48
(g64
g50
NtRp2387
(dp2388
g53
(dp2389
sg62
g2215
sg55
(lp2390
g48
(g69
g50
NtRp2391
(dp2392
g53
(dp2393
g73
g74
ssg62
g2387
sg55
(lp2394
S'HTTP_USER_AGENT'
p2395
asbag48
(g69
g50
NtRp2396
(dp2397
g53
(dp2398
g80
g81
ssg62
g2387
sg55
(lp2399
S':'
asbag48
(g69
g50
NtRp2400
(dp2401
g53
(dp2402
sg62
g2387
sg55
(lp2403
g48
(g49
g50
NtRp2404
(dp2405
g53
(dp2406
g61
I3
ssg62
g2400
sg55
(lp2407
g944
asbasbasbag48
(g64
g50
NtRp2408
(dp2409
g53
(dp2410
sg62
g2215
sg55
(lp2411
g48
(g69
g50
NtRp2412
(dp2413
g53
(dp2414
g73
g74
ssg62
g2408
sg55
(lp2415
S'PATH_INFO'
p2416
asbag48
(g69
g50
NtRp2417
(dp2418
g53
(dp2419
g80
g81
ssg62
g2408
sg55
(lp2420
S':'
asbag48
(g69
g50
NtRp2421
(dp2422
g53
(dp2423
sg62
g2408
sg55
(lp2424
g48
(g49
g50
NtRp2425
(dp2426
g53
(dp2427
g61
I3
ssg62
g2421
sg55
(lp2428
g987
asbasbasbag48
(g64
g50
NtRp2429
(dp2430
g53
(dp2431
sg62
g2215
sg55
(lp2432
g48
(g69
g50
NtRp2433
(dp2434
g53
(dp2435
g73
g74
ssg62
g2429
sg55
(lp2436
S'QUERY_STRING'
p2437
asbag48
(g69
g50
NtRp2438
(dp2439
g53
(dp2440
g80
g81
ssg62
g2429
sg55
(lp2441
S':'
asbag48
(g69
g50
NtRp2442
(dp2443
g53
(dp2444
sg62
g2429
sg55
(lp2445
g48
(g49
g50
NtRp2446
(dp2447
g53
(dp2448
g61
I3
ssg62
g2442
sg55
(lp2449
S''
asbasbasbag48
(g64
g50
NtRp2450
(dp2451
g53
(dp2452
sg62
g2215
sg55
(lp2453
g48
(g69
g50
NtRp2454
(dp2455
g53
(dp2456
g73
g74
ssg62
g2450
sg55
(lp2457
S'REMOTE_ADDR'
p2458
asbag48
(g69
g50
NtRp2459
(dp2460
g53
(dp2461
g80
g81
ssg62
g2450
sg55
(lp2462
S':'
asbag48
(g69
g50
NtRp2463
(dp2464
g53
(dp2465
sg62
g2450
sg55
(lp2466
g48
(g49
g50
NtRp2467
(dp2468
g53
(dp2469
g61
I3
ssg62
g2463
sg55
(lp2470
g181
asbasbasbag48
(g64
g50
NtRp2471
(dp2472
g53
(dp2473
sg62
g2215
sg55
(lp2474
g48
(g69
g50
NtRp2475
(dp2476
g53
(dp2477
g73
g74
ssg62
g2471
sg55
(lp2478
S'REMOTE_PORT'
p2479
asbag48
(g69
g50
NtRp2480
(dp2481
g53
(dp2482
g80
g81
ssg62
g2471
sg55
(lp2483
S':'
asbag48
(g69
g50
NtRp2484
(dp2485
g53
(dp2486
sg62
g2471
sg55
(lp2487
g48
(g49
g50
NtRp2488
(dp2489
g53
(dp2490
g61
I3
ssg62
g2484
sg55
(lp2491
g1051
asbasbasbag48
(g64
g50
NtRp2492
(dp2493
g53
(dp2494
sg62
g2215
sg55
(lp2495
g48
(g69
g50
NtRp2496
(dp2497
g53
(dp2498
g73
g74
ssg62
g2492
sg55
(lp2499
S'REQUEST_METHOD'
p2500
asbag48
(g69
g50
NtRp2501
(dp2502
g53
(dp2503
g80
g81
ssg62
g2492
sg55
(lp2504
S':'
asbag48
(g69
g50
NtRp2505
(dp2506
g53
(dp2507
sg62
g2492
sg55
(lp2508
g48
(g49
g50
NtRp2509
(dp2510
g53
(dp2511
g61
I3
ssg62
g2505
sg55
(lp2512
g1073
asbasbasbag48
(g64
g50
NtRp2513
(dp2514
g53
(dp2515
sg62
g2215
sg55
(lp2516
g48
(g69
g50
NtRp2517
(dp2518
g53
(dp2519
g73
g74
ssg62
g2513
sg55
(lp2520
S'REQUEST_URI'
p2521
asbag48
(g69
g50
NtRp2522
(dp2523
g53
(dp2524
g80
g81
ssg62
g2513
sg55
(lp2525
S':'
asbag48
(g69
g50
NtRp2526
(dp2527
g53
(dp2528
sg62
g2513
sg55
(lp2529
g48
(g49
g50
NtRp2530
(dp2531
g53
(dp2532
g61
I3
ssg62
g2526
sg55
(lp2533
g987
asbasbasbag48
(g64
g50
NtRp2534
(dp2535
g53
(dp2536
sg62
g2215
sg55
(lp2537
g48
(g69
g50
NtRp2538
(dp2539
g53
(dp2540
g73
g74
ssg62
g2534
sg55
(lp2541
S'SCRIPT_NAME'
p2542
asbag48
(g69
g50
NtRp2543
(dp2544
g53
(dp2545
g80
g81
ssg62
g2534
sg55
(lp2546
S':'
asbag48
(g69
g50
NtRp2547
(dp2548
g53
(dp2549
sg62
g2534
sg55
(lp2550
g48
(g49
g50
NtRp2551
(dp2552
g53
(dp2553
g61
I3
ssg62
g2547
sg55
(lp2554
S''
asbasbasbag48
(g64
g50
NtRp2555
(dp2556
g53
(dp2557
sg62
g2215
sg55
(lp2558
g48
(g69
g50
NtRp2559
(dp2560
g53
(dp2561
g73
g74
ssg62
g2555
sg55
(lp2562
S'SERVER_NAME'
p2563
asbag48
(g69
g50
NtRp2564
(dp2565
g53
(dp2566
g80
g81
ssg62
g2555
sg55
(lp2567
S':'
asbag48
(g69
g50
NtRp2568
(dp2569
g53
(dp2570
sg62
g2555
sg55
(lp2571
g48
(g49
g50
NtRp2572
(dp2573
g53
(dp2574
g61
I3
ssg62
g2568
sg55
(lp2575
g1137
asbasbasbag48
(g64
g50
NtRp2576
(dp2577
g53
(dp2578
sg62
g2215
sg55
(lp2579
g48
(g69
g50
NtRp2580
(dp2581
g53
(dp2582
g73
g74
ssg62
g2576
sg55
(lp2583
S'SERVER_PORT'
p2584
asbag48
(g69
g50
NtRp2585
(dp2586
g53
(dp2587
g80
g81
ssg62
g2576
sg55
(lp2588
S':'
asbag48
(g69
g50
NtRp2589
(dp2590
g53
(dp2591
sg62
g2576
sg55
(lp2592
g48
(g49
g50
NtRp2593
(dp2594
g53
(dp2595
g61
I3
ssg62
g2589
sg55
(lp2596
g1159
asbasbasbag48
(g64
g50
NtRp2597
(dp2598
g53
(dp2599
sg62
g2215
sg55
(lp2600
g48
(g69
g50
NtRp2601
(dp2602
g53
(dp2603
g73
g74
ssg62
g2597
sg55
(lp2604
S'SERVER_PROTOCOL'
p2605
asbag48
(g69
g50
NtRp2606
(dp2607
g53
(dp2608
g80
g81
ssg62
g2597
sg55
(lp2609
S':'
asbag48
(g69
g50
NtRp2610
(dp2611
g53
(dp2612
sg62
g2597
sg55
(lp2613
g48
(g49
g50
NtRp2614
(dp2615
g53
(dp2616
g61
I3
ssg62
g2610
sg55
(lp2617
g1181
asbasbasbag48
(g64
g50
NtRp2618
(dp2619
g53
(dp2620
sg62
g2215
sg55
(lp2621
g48
(g69
g50
NtRp2622
(dp2623
g53
(dp2624
g73
g74
ssg62
g2618
sg55
(lp2625
S'SERVER_SOFTWARE'
p2626
asbag48
(g69
g50
NtRp2627
(dp2628
g53
(dp2629
g80
g81
ssg62
g2618
sg55
(lp2630
S':'
asbag48
(g69
g50
NtRp2631
(dp2632
g53
(dp2633
sg62
g2618
sg55
(lp2634
g48
(g49
g50
NtRp2635
(dp2636
g53
(dp2637
g61
I3
ssg62
g2631
sg55
(lp2638
g1203
asbasbasbag48
(g64
g50
NtRp2639
(dp2640
g53
(dp2641
sg62
g2215
sg55
(lp2642
g48
(g69
g50
NtRp2643
(dp2644
g53
(dp2645
g73
g74
ssg62
g2639
sg55
(lp2646
S'WEB2PY_ORIGINAL_URI'
p2647
asbag48
(g69
g50
NtRp2648
(dp2649
g53
(dp2650
g80
g81
ssg62
g2639
sg55
(lp2651
S':'
asbag48
(g69
g50
NtRp2652
(dp2653
g53
(dp2654
sg62
g2639
sg55
(lp2655
g48
(g49
g50
NtRp2656
(dp2657
g53
(dp2658
g61
I3
ssg62
g2652
sg55
(lp2659
g1247
asbasbasbag48
(g64
g50
NtRp2660
(dp2661
g53
(dp2662
sg62
g2215
sg55
(lp2663
g48
(g69
g50
NtRp2664
(dp2665
g53
(dp2666
g73
g74
ssg62
g2660
sg55
(lp2667
S'wsgi.errors'
p2668
asbag48
(g69
g50
NtRp2669
(dp2670
g53
(dp2671
g80
g81
ssg62
g2660
sg55
(lp2672
S':'
asbag48
(g69
g50
NtRp2673
(dp2674
g53
(dp2675
sg62
g2660
sg55
(lp2676
g48
(g49
g50
NtRp2677
(dp2678
g53
(dp2679
g61
I3
ssg62
g2673
sg55
(lp2680
S"<open file '<stderr>', mode 'w' at 0x01E400B0>"
p2681
asbasbasbag48
(g64
g50
NtRp2682
(dp2683
g53
(dp2684
sg62
g2215
sg55
(lp2685
g48
(g69
g50
NtRp2686
(dp2687
g53
(dp2688
g73
g74
ssg62
g2682
sg55
(lp2689
S'wsgi.file_wrapper'
p2690
asbag48
(g69
g50
NtRp2691
(dp2692
g53
(dp2693
g80
g81
ssg62
g2682
sg55
(lp2694
S':'
asbag48
(g69
g50
NtRp2695
(dp2696
g53
(dp2697
sg62
g2682
sg55
(lp2698
g48
(g49
g50
NtRp2699
(dp2700
g53
(dp2701
g61
I3
ssg62
g2695
sg55
(lp2702
S'<class wsgiref.util.FileWrapper at 0x0373C720>'
p2703
asbasbasbag48
(g64
g50
NtRp2704
(dp2705
g53
(dp2706
sg62
g2215
sg55
(lp2707
g48
(g69
g50
NtRp2708
(dp2709
g53
(dp2710
g73
g74
ssg62
g2704
sg55
(lp2711
S'wsgi.input'
p2712
asbag48
(g69
g50
NtRp2713
(dp2714
g53
(dp2715
g80
g81
ssg62
g2704
sg55
(lp2716
S':'
asbag48
(g69
g50
NtRp2717
(dp2718
g53
(dp2719
sg62
g2704
sg55
(lp2720
g48
(g49
g50
NtRp2721
(dp2722
g53
(dp2723
g61
I3
ssg62
g2717
sg55
(lp2724
S'<cStringIO.StringO object at 0x03348BA0>'
p2725
asbasbasbag48
(g64
g50
NtRp2726
(dp2727
g53
(dp2728
sg62
g2215
sg55
(lp2729
g48
(g69
g50
NtRp2730
(dp2731
g53
(dp2732
g73
g74
ssg62
g2726
sg55
(lp2733
S'wsgi.multiprocess'
p2734
asbag48
(g69
g50
NtRp2735
(dp2736
g53
(dp2737
g80
g81
ssg62
g2726
sg55
(lp2738
S':'
asbag48
(g69
g50
NtRp2739
(dp2740
g53
(dp2741
sg62
g2726
sg55
(lp2742
g48
(g49
g50
NtRp2743
(dp2744
g53
(dp2745
g61
I3
ssg62
g2739
sg55
(lp2746
g91
asbasbasbag48
(g64
g50
NtRp2747
(dp2748
g53
(dp2749
sg62
g2215
sg55
(lp2750
g48
(g69
g50
NtRp2751
(dp2752
g53
(dp2753
g73
g74
ssg62
g2747
sg55
(lp2754
S'wsgi.multithread'
p2755
asbag48
(g69
g50
NtRp2756
(dp2757
g53
(dp2758
g80
g81
ssg62
g2747
sg55
(lp2759
S':'
asbag48
(g69
g50
NtRp2760
(dp2761
g53
(dp2762
sg62
g2747
sg55
(lp2763
g48
(g49
g50
NtRp2764
(dp2765
g53
(dp2766
g61
I3
ssg62
g2760
sg55
(lp2767
g1465
asbasbasbag48
(g64
g50
NtRp2768
(dp2769
g53
(dp2770
sg62
g2215
sg55
(lp2771
g48
(g69
g50
NtRp2772
(dp2773
g53
(dp2774
g73
g74
ssg62
g2768
sg55
(lp2775
S'wsgi.run_once'
p2776
asbag48
(g69
g50
NtRp2777
(dp2778
g53
(dp2779
g80
g81
ssg62
g2768
sg55
(lp2780
S':'
asbag48
(g69
g50
NtRp2781
(dp2782
g53
(dp2783
sg62
g2768
sg55
(lp2784
g48
(g49
g50
NtRp2785
(dp2786
g53
(dp2787
g61
I3
ssg62
g2781
sg55
(lp2788
g91
asbasbasbag48
(g64
g50
NtRp2789
(dp2790
g53
(dp2791
sg62
g2215
sg55
(lp2792
g48
(g69
g50
NtRp2793
(dp2794
g53
(dp2795
g73
g74
ssg62
g2789
sg55
(lp2796
S'wsgi.url_scheme'
p2797
asbag48
(g69
g50
NtRp2798
(dp2799
g53
(dp2800
g80
g81
ssg62
g2789
sg55
(lp2801
S':'
asbag48
(g69
g50
NtRp2802
(dp2803
g53
(dp2804
sg62
g2789
sg55
(lp2805
g48
(g49
g50
NtRp2806
(dp2807
g53
(dp2808
g61
I3
ssg62
g2802
sg55
(lp2809
g1508
asbasbasbag48
(g64
g50
NtRp2810
(dp2811
g53
(dp2812
sg62
g2215
sg55
(lp2813
g48
(g69
g50
NtRp2814
(dp2815
g53
(dp2816
g73
g74
ssg62
g2810
sg55
(lp2817
S'wsgi.version'
p2818
asbag48
(g69
g50
NtRp2819
(dp2820
g53
(dp2821
g80
g81
ssg62
g2810
sg55
(lp2822
S':'
asbag48
(g69
g50
NtRp2823
(dp2824
g53
(dp2825
sg62
g2810
sg55
(lp2826
g48
(g49
g50
NtRp2827
(dp2828
g53
(dp2829
g61
I3
ssg62
g2823
sg55
(lp2830
S'1'
asbasbasbasbasbasbasbasbasbasbasbasbasbsS'frames'
p2831
(lp2832
(dp2833
S'file'
p2834
S'D:\\git_projs\\Gabblista\\web2py\\web2py\\gluon\\restricted.py'
p2835
sS'dump'
p2836
(dp2837
S'environment'
p2838
S"{'A': <class 'gluon.html.A'>, 'Auth': <class 'gluon.tools.Auth'>, 'B': <class 'gluon.html.B'>, 'BEAUTIFY': <class 'gluon.html.BEAUTIFY'>, 'BODY': <class 'gluon.html.BODY'>, 'BR': <class 'gluon.html.BR'>, 'BUTTON': <class 'gluon.html.BUTTON'>, 'CAT': <class 'gluon.html.CAT'>, 'CENTER': <class 'gluon.html.CENTER'>, 'CLEANUP': <class 'gluon.validators.CLEANUP'>, ...}"
p2839
sS'ccode'
p2840
S'<code object <module> at 035C3C80, file "D:\\git_...bb1\\views\\fb_serv/serve_player_data.txt", line 1>'
p2841
ssS'lnum'
p2842
I194
sS'lines'
p2843
(dp2844
I192
S'        else:'
p2845
sI193
S'            ccode = compile2(code,layer)'
p2846
sI194
S'        exec ccode in environment'
p2847
sI195
S'    except HTTP:'
p2848
sI196
S'        raise'
p2849
sI197
S'    except Exception, error:'
p2850
sI198
S'        # XXX Show exception in Wing IDE if running in debugger'
p2851
sI189
S'    try:'
p2852
sI190
S'        if type(code) == types.CodeType:'
p2853
sI191
S'            ccode = code'
p2854
ssS'call'
p2855
S'(code="response.write(message)\\nresponse.write(\'\\\\r\\\\n\\\\r\\\\n...te(test_var)\\nresponse.write(\'\\\\r\\\\n\', escape=False)", environment={\'A\': <class \'gluon.html.A\'>, \'Auth\': <class \'gluon.tools.Auth\'>, \'B\': <class \'gluon.html.B\'>, \'BEAUTIFY\': <class \'gluon.html.BEAUTIFY\'>, \'BODY\': <class \'gluon.html.BODY\'>, \'BR\': <class \'gluon.html.BR\'>, \'BUTTON\': <class \'gluon.html.BUTTON\'>, \'CAT\': <class \'gluon.html.CAT\'>, \'CENTER\': <class \'gluon.html.CENTER\'>, \'CLEANUP\': <class \'gluon.validators.CLEANUP\'>, ...}, layer=r\'D:\\git_projs\\Gabblista\\web2py\\web2py\\applications\\Gabb1\\views\\fb_serv/serve_player_data.txt\')'
p2856
sS'func'
p2857
S'restricted'
p2858
sa(dp2859
g2834
S'D:\\git_projs\\Gabblista\\web2py\\web2py\\applications\\Gabb1\\views\\fb_serv\\serve_player_data.txt'
p2860
sg2836
(dp2861
S'test_var'
p2862
S'undefined'
p2863
ssg2842
I3
sg2843
(dp2864
I1
S'{{=message}}'
p2865
sI2
S''
sI3
S'{{=test_var}}'
p2866
ssg2855
S'()'
p2867
sg2857
S'<module>'
p2868
sasS'pyver'
p2869
S'Python 2.5.4: C:\\python25\\python.exe'
p2870
sS'session'
p2871
g48
(g49
g50
NtRp2872
(dp2873
g53
(dp2874
sg55
(lp2875
g48
(g57
g50
NtRp2876
(dp2877
g53
(dp2878
g61
I5
ssg62
Nsg55
(lp2879
sbasbsS'etype'
p2880
S"<type 'exceptions.NameError'>"
p2881
sS'date'
p2882
S'Wed Jan 18 08:52:22 2012'
p2883
sS'response'
p2884
g48
(g49
g50
NtRp2885
(dp2886
g53
(dp2887
sg55
(lp2888
g48
(g57
g50
NtRp2889
(dp2890
g53
(dp2891
g61
I5
ssg62
Nsg55
(lp2892
g48
(g64
g50
NtRp2893
(dp2894
g53
(dp2895
sg62
g2889
sg55
(lp2896
g48
(g69
g50
NtRp2897
(dp2898
g53
(dp2899
g73
g74
ssg62
g2893
sg55
(lp2900
g146
asbag48
(g69
g50
NtRp2901
(dp2902
g53
(dp2903
g80
g81
ssg62
g2893
sg55
(lp2904
S':'
asbag48
(g69
g50
NtRp2905
(dp2906
g53
(dp2907
sg62
g2893
sg55
(lp2908
g48
(g49
g50
NtRp2909
(dp2910
g53
(dp2911
g61
I5
ssg62
g2905
sg55
(lp2912
S'<cStringIO.StringO object at 0x03348360>'
p2913
asbasbasbag48
(g64
g50
NtRp2914
(dp2915
g53
(dp2916
sg62
g2889
sg55
(lp2917
g48
(g69
g50
NtRp2918
(dp2919
g53
(dp2920
g73
g74
ssg62
g2914
sg55
(lp2921
g212
asbag48
(g69
g50
NtRp2922
(dp2923
g53
(dp2924
g80
g81
ssg62
g2914
sg55
(lp2925
S':'
asbag48
(g69
g50
NtRp2926
(dp2927
g53
(dp2928
sg62
g2914
sg55
(lp2929
g48
(g49
g50
NtRp2930
(dp2931
g53
(dp2932
g61
I5
ssg62
g2926
sg55
(lp2933
g48
(g57
g50
NtRp2934
(dp2935
g53
(dp2936
g61
I4
ssg62
Nsg55
(lp2937
g48
(g64
g50
NtRp2938
(dp2939
g53
(dp2940
sg62
g2934
sg55
(lp2941
g48
(g69
g50
NtRp2942
(dp2943
g53
(dp2944
g73
g74
ssg62
g2938
sg55
(lp2945
S'session_id_gabb1'
p2946
asbag48
(g69
g50
NtRp2947
(dp2948
g53
(dp2949
g80
g81
ssg62
g2938
sg55
(lp2950
S':'
asbag48
(g69
g50
NtRp2951
(dp2952
g53
(dp2953
sg62
g2938
sg55
(lp2954
g48
(g49
g50
NtRp2955
(dp2956
g53
(dp2957
g61
I4
ssg62
g2951
sg55
(lp2958
g48
(g57
g50
NtRp2959
(dp2960
g53
(dp2961
g61
I3
ssg62
Nsg55
(lp2962
g48
(g64
g50
NtRp2963
(dp2964
g53
(dp2965
sg62
g2959
sg55
(lp2966
g48
(g69
g50
NtRp2967
(dp2968
g53
(dp2969
g73
g74
ssg62
g2963
sg55
(lp2970
g262
asbag48
(g69
g50
NtRp2971
(dp2972
g53
(dp2973
g80
g81
ssg62
g2963
sg55
(lp2974
S':'
asbag48
(g69
g50
NtRp2975
(dp2976
g53
(dp2977
sg62
g2963
sg55
(lp2978
g48
(g49
g50
NtRp2979
(dp2980
g53
(dp2981
g61
I3
ssg62
g2975
sg55
(lp2982
S''
asbasbasbag48
(g64
g50
NtRp2983
(dp2984
g53
(dp2985
sg62
g2959
sg55
(lp2986
g48
(g69
g50
NtRp2987
(dp2988
g53
(dp2989
g73
g74
ssg62
g2983
sg55
(lp2990
g283
asbag48
(g69
g50
NtRp2991
(dp2992
g53
(dp2993
g80
g81
ssg62
g2983
sg55
(lp2994
S':'
asbag48
(g69
g50
NtRp2995
(dp2996
g53
(dp2997
sg62
g2983
sg55
(lp2998
g48
(g49
g50
NtRp2999
(dp3000
g53
(dp3001
g61
I3
ssg62
g2995
sg55
(lp3002
S''
asbasbasbag48
(g64
g50
NtRp3003
(dp3004
g53
(dp3005
sg62
g2959
sg55
(lp3006
g48
(g69
g50
NtRp3007
(dp3008
g53
(dp3009
g73
g74
ssg62
g3003
sg55
(lp3010
g304
asbag48
(g69
g50
NtRp3011
(dp3012
g53
(dp3013
g80
g81
ssg62
g3003
sg55
(lp3014
S':'
asbag48
(g69
g50
NtRp3015
(dp3016
g53
(dp3017
sg62
g3003
sg55
(lp3018
g48
(g49
g50
NtRp3019
(dp3020
g53
(dp3021
g61
I3
ssg62
g3015
sg55
(lp3022
S''
asbasbasbag48
(g64
g50
NtRp3023
(dp3024
g53
(dp3025
sg62
g2959
sg55
(lp3026
g48
(g69
g50
NtRp3027
(dp3028
g53
(dp3029
g73
g74
ssg62
g3023
sg55
(lp3030
g325
asbag48
(g69
g50
NtRp3031
(dp3032
g53
(dp3033
g80
g81
ssg62
g3023
sg55
(lp3034
S':'
asbag48
(g69
g50
NtRp3035
(dp3036
g53
(dp3037
sg62
g3023
sg55
(lp3038
g48
(g49
g50
NtRp3039
(dp3040
g53
(dp3041
g61
I3
ssg62
g3035
sg55
(lp3042
S''
asbasbasbag48
(g64
g50
NtRp3043
(dp3044
g53
(dp3045
sg62
g2959
sg55
(lp3046
g48
(g69
g50
NtRp3047
(dp3048
g53
(dp3049
g73
g74
ssg62
g3043
sg55
(lp3050
g346
asbag48
(g69
g50
NtRp3051
(dp3052
g53
(dp3053
g80
g81
ssg62
g3043
sg55
(lp3054
S':'
asbag48
(g69
g50
NtRp3055
(dp3056
g53
(dp3057
sg62
g3043
sg55
(lp3058
g48
(g49
g50
NtRp3059
(dp3060
g53
(dp3061
g61
I3
ssg62
g3055
sg55
(lp3062
S'/'
asbasbasbag48
(g64
g50
NtRp3063
(dp3064
g53
(dp3065
sg62
g2959
sg55
(lp3066
g48
(g69
g50
NtRp3067
(dp3068
g53
(dp3069
g73
g74
ssg62
g3063
sg55
(lp3070
g367
asbag48
(g69
g50
NtRp3071
(dp3072
g53
(dp3073
g80
g81
ssg62
g3063
sg55
(lp3074
S':'
asbag48
(g69
g50
NtRp3075
(dp3076
g53
(dp3077
sg62
g3063
sg55
(lp3078
g48
(g49
g50
NtRp3079
(dp3080
g53
(dp3081
g61
I3
ssg62
g3075
sg55
(lp3082
S''
asbasbasbag48
(g64
g50
NtRp3083
(dp3084
g53
(dp3085
sg62
g2959
sg55
(lp3086
g48
(g69
g50
NtRp3087
(dp3088
g53
(dp3089
g73
g74
ssg62
g3083
sg55
(lp3090
g388
asbag48
(g69
g50
NtRp3091
(dp3092
g53
(dp3093
g80
g81
ssg62
g3083
sg55
(lp3094
S':'
asbag48
(g69
g50
NtRp3095
(dp3096
g53
(dp3097
sg62
g3083
sg55
(lp3098
g48
(g49
g50
NtRp3099
(dp3100
g53
(dp3101
g61
I3
ssg62
g3095
sg55
(lp3102
S''
asbasbasbasbasbasbasbasbasbasbasbag48
(g64
g50
NtRp3103
(dp3104
g53
(dp3105
sg62
g2889
sg55
(lp3106
g48
(g69
g50
NtRp3107
(dp3108
g53
(dp3109
g73
g74
ssg62
g3103
sg55
(lp3110
S'files'
p3111
asbag48
(g69
g50
NtRp3112
(dp3113
g53
(dp3114
g80
g81
ssg62
g3103
sg55
(lp3115
S':'
asbag48
(g69
g50
NtRp3116
(dp3117
g53
(dp3118
sg62
g3103
sg55
(lp3119
g48
(g49
g50
NtRp3120
(dp3121
g53
(dp3122
g61
I5
ssg62
g3116
sg55
(lp3123
g48
(g57
g50
NtRp3124
(dp3125
g53
(dp3126
g61
I4
ssg62
Nsg55
(lp3127
sbasbasbasbag48
(g64
g50
NtRp3128
(dp3129
g53
(dp3130
sg62
g2889
sg55
(lp3131
g48
(g69
g50
NtRp3132
(dp3133
g53
(dp3134
g73
g74
ssg62
g3128
sg55
(lp3135
S'flash'
p3136
asbag48
(g69
g50
NtRp3137
(dp3138
g53
(dp3139
g80
g81
ssg62
g3128
sg55
(lp3140
S':'
asbag48
(g69
g50
NtRp3141
(dp3142
g53
(dp3143
sg62
g3128
sg55
(lp3144
g48
(g49
g50
NtRp3145
(dp3146
g53
(dp3147
g61
I5
ssg62
g3141
sg55
(lp3148
S''
asbasbasbag48
(g64
g50
NtRp3149
(dp3150
g53
(dp3151
sg62
g2889
sg55
(lp3152
g48
(g69
g50
NtRp3153
(dp3154
g53
(dp3155
g73
g74
ssg62
g3149
sg55
(lp3156
S'generic_patterns'
p3157
asbag48
(g69
g50
NtRp3158
(dp3159
g53
(dp3160
g80
g81
ssg62
g3149
sg55
(lp3161
S':'
asbag48
(g69
g50
NtRp3162
(dp3163
g53
(dp3164
sg62
g3149
sg55
(lp3165
g48
(g49
g50
NtRp3166
(dp3167
g53
(dp3168
g61
I5
ssg62
g3162
sg55
(lp3169
g48
(g57
g50
NtRp3170
(dp3171
g53
(dp3172
g61
I4
ssg62
Nsg55
(lp3173
g48
(g64
g50
NtRp3174
(dp3175
g53
(dp3176
sg62
g3170
sg55
(lp3177
g48
(g69
g50
NtRp3178
(dp3179
g53
(dp3180
sg62
g3174
sg55
(lp3181
g48
(g49
g50
NtRp3182
(dp3183
g53
(dp3184
g61
I4
ssg62
g3178
sg55
(lp3185
S'*'
asbasbasbasbasbasbasbag48
(g64
g50
NtRp3186
(dp3187
g53
(dp3188
sg62
g2889
sg55
(lp3189
g48
(g69
g50
NtRp3190
(dp3191
g53
(dp3192
g73
g74
ssg62
g3186
sg55
(lp3193
S'headers'
p3194
asbag48
(g69
g50
NtRp3195
(dp3196
g53
(dp3197
g80
g81
ssg62
g3186
sg55
(lp3198
S':'
asbag48
(g69
g50
NtRp3199
(dp3200
g53
(dp3201
sg62
g3186
sg55
(lp3202
g48
(g49
g50
NtRp3203
(dp3204
g53
(dp3205
g61
I5
ssg62
g3199
sg55
(lp3206
g48
(g57
g50
NtRp3207
(dp3208
g53
(dp3209
g61
I4
ssg62
Nsg55
(lp3210
g48
(g64
g50
NtRp3211
(dp3212
g53
(dp3213
sg62
g3207
sg55
(lp3214
g48
(g69
g50
NtRp3215
(dp3216
g53
(dp3217
g73
g74
ssg62
g3211
sg55
(lp3218
S'Cache-Control'
p3219
asbag48
(g69
g50
NtRp3220
(dp3221
g53
(dp3222
g80
g81
ssg62
g3211
sg55
(lp3223
S':'
asbag48
(g69
g50
NtRp3224
(dp3225
g53
(dp3226
sg62
g3211
sg55
(lp3227
g48
(g49
g50
NtRp3228
(dp3229
g53
(dp3230
g61
I4
ssg62
g3224
sg55
(lp3231
S'no-store, no-cache, must-revalidate, post-check=0, pre-check=0'
p3232
asbasbasbag48
(g64
g50
NtRp3233
(dp3234
g53
(dp3235
sg62
g3207
sg55
(lp3236
g48
(g69
g50
NtRp3237
(dp3238
g53
(dp3239
g73
g74
ssg62
g3233
sg55
(lp3240
S'Content-Type'
p3241
asbag48
(g69
g50
NtRp3242
(dp3243
g53
(dp3244
g80
g81
ssg62
g3233
sg55
(lp3245
S':'
asbag48
(g69
g50
NtRp3246
(dp3247
g53
(dp3248
sg62
g3233
sg55
(lp3249
g48
(g49
g50
NtRp3250
(dp3251
g53
(dp3252
g61
I4
ssg62
g3246
sg55
(lp3253
S'text/plain; charset=utf-8'
p3254
asbasbasbag48
(g64
g50
NtRp3255
(dp3256
g53
(dp3257
sg62
g3207
sg55
(lp3258
g48
(g69
g50
NtRp3259
(dp3260
g53
(dp3261
g73
g74
ssg62
g3255
sg55
(lp3262
S'Expires'
p3263
asbag48
(g69
g50
NtRp3264
(dp3265
g53
(dp3266
g80
g81
ssg62
g3255
sg55
(lp3267
S':'
asbag48
(g69
g50
NtRp3268
(dp3269
g53
(dp3270
sg62
g3255
sg55
(lp3271
g48
(g49
g50
NtRp3272
(dp3273
g53
(dp3274
g61
I4
ssg62
g3268
sg55
(lp3275
S'Wed, 18 Jan 2012 13:52:22 GMT'
p3276
asbasbasbag48
(g64
g50
NtRp3277
(dp3278
g53
(dp3279
sg62
g3207
sg55
(lp3280
g48
(g69
g50
NtRp3281
(dp3282
g53
(dp3283
g73
g74
ssg62
g3277
sg55
(lp3284
S'NingNang'
p3285
asbag48
(g69
g50
NtRp3286
(dp3287
g53
(dp3288
g80
g81
ssg62
g3277
sg55
(lp3289
S':'
asbag48
(g69
g50
NtRp3290
(dp3291
g53
(dp3292
sg62
g3277
sg55
(lp3293
g48
(g49
g50
NtRp3294
(dp3295
g53
(dp3296
g61
I4
ssg62
g3290
sg55
(lp3297
S'Nong'
p3298
asbasbasbag48
(g64
g50
NtRp3299
(dp3300
g53
(dp3301
sg62
g3207
sg55
(lp3302
g48
(g69
g50
NtRp3303
(dp3304
g53
(dp3305
g73
g74
ssg62
g3299
sg55
(lp3306
S'Pragma'
p3307
asbag48
(g69
g50
NtRp3308
(dp3309
g53
(dp3310
g80
g81
ssg62
g3299
sg55
(lp3311
S':'
asbag48
(g69
g50
NtRp3312
(dp3313
g53
(dp3314
sg62
g3299
sg55
(lp3315
g48
(g49
g50
NtRp3316
(dp3317
g53
(dp3318
g61
I4
ssg62
g3312
sg55
(lp3319
S'no-cache'
p3320
asbasbasbasbasbasbasbag48
(g64
g50
NtRp3321
(dp3322
g53
(dp3323
sg62
g2889
sg55
(lp3324
g48
(g69
g50
NtRp3325
(dp3326
g53
(dp3327
g73
g74
ssg62
g3321
sg55
(lp3328
S'menu'
p3329
asbag48
(g69
g50
NtRp3330
(dp3331
g53
(dp3332
g80
g81
ssg62
g3321
sg55
(lp3333
S':'
asbag48
(g69
g50
NtRp3334
(dp3335
g53
(dp3336
sg62
g3321
sg55
(lp3337
g48
(g49
g50
NtRp3338
(dp3339
g53
(dp3340
g61
I5
ssg62
g3334
sg55
(lp3341
g48
(g57
g50
NtRp3342
(dp3343
g53
(dp3344
g61
I4
ssg62
Nsg55
(lp3345
g48
(g64
g50
NtRp3346
(dp3347
g53
(dp3348
sg62
g3342
sg55
(lp3349
g48
(g69
g50
NtRp3350
(dp3351
g53
(dp3352
sg62
g3346
sg55
(lp3353
g48
(g49
g50
NtRp3354
(dp3355
g53
(dp3356
g61
I4
ssg62
g3350
sg55
(lp3357
g48
(g57
g50
NtRp3358
(dp3359
g53
(dp3360
g61
I3
ssg62
Nsg55
(lp3361
g48
(g64
g50
NtRp3362
(dp3363
g53
(dp3364
sg62
g3358
sg55
(lp3365
g48
(g69
g50
NtRp3366
(dp3367
g53
(dp3368
sg62
g3362
sg55
(lp3369
g48
(g49
g50
NtRp3370
(dp3371
g53
(dp3372
g61
I3
ssg62
g3366
sg55
(lp3373
cgluon.languages
lazyT_unpickle
p3374
(S's\x04\x00\x00\x00Home'
tRp3375
asbasbasbag48
(g64
g50
NtRp3376
(dp3377
g53
(dp3378
sg62
g3358
sg55
(lp3379
g48
(g69
g50
NtRp3380
(dp3381
g53
(dp3382
sg62
g3376
sg55
(lp3383
g48
(g49
g50
NtRp3384
(dp3385
g53
(dp3386
g61
I3
ssg62
g3380
sg55
(lp3387
g91
asbasbasbag48
(g64
g50
NtRp3388
(dp3389
g53
(dp3390
sg62
g3358
sg55
(lp3391
g48
(g69
g50
NtRp3392
(dp3393
g53
(dp3394
sg62
g3388
sg55
(lp3395
g48
(g49
g50
NtRp3396
(dp3397
g53
(dp3398
g61
I3
ssg62
g3392
sg55
(lp3399
S'/Gabb1/default/index.txt'
p3400
asbasbasbag48
(g64
g50
NtRp3401
(dp3402
g53
(dp3403
sg62
g3358
sg55
(lp3404
g48
(g69
g50
NtRp3405
(dp3406
g53
(dp3407
sg62
g3401
sg55
(lp3408
g48
(g49
g50
NtRp3409
(dp3410
g53
(dp3411
g61
I3
ssg62
g3405
sg55
(lp3412
g48
(g57
g50
NtRp3413
(dp3414
g53
(dp3415
g61
I2
ssg62
Nsg55
(lp3416
sbasbasbasbasbasbasbasbag48
(g64
g50
NtRp3417
(dp3418
g53
(dp3419
sg62
g3342
sg55
(lp3420
g48
(g69
g50
NtRp3421
(dp3422
g53
(dp3423
sg62
g3417
sg55
(lp3424
g48
(g49
g50
NtRp3425
(dp3426
g53
(dp3427
g61
I4
ssg62
g3421
sg55
(lp3428
g48
(g57
g50
NtRp3429
(dp3430
g53
(dp3431
g61
I3
ssg62
Nsg55
(lp3432
g48
(g64
g50
NtRp3433
(dp3434
g53
(dp3435
sg62
g3429
sg55
(lp3436
g48
(g69
g50
NtRp3437
(dp3438
g53
(dp3439
sg62
g3433
sg55
(lp3440
g48
(g49
g50
NtRp3441
(dp3442
g53
(dp3443
g61
I3
ssg62
g3437
sg55
(lp3444
g3374
(S's\x08\x00\x00\x00This App'
tRp3445
asbasbasbag48
(g64
g50
NtRp3446
(dp3447
g53
(dp3448
sg62
g3429
sg55
(lp3449
g48
(g69
g50
NtRp3450
(dp3451
g53
(dp3452
sg62
g3446
sg55
(lp3453
g48
(g49
g50
NtRp3454
(dp3455
g53
(dp3456
g61
I3
ssg62
g3450
sg55
(lp3457
g91
asbasbasbag48
(g64
g50
NtRp3458
(dp3459
g53
(dp3460
sg62
g3429
sg55
(lp3461
g48
(g69
g50
NtRp3462
(dp3463
g53
(dp3464
sg62
g3458
sg55
(lp3465
g48
(g49
g50
NtRp3466
(dp3467
g53
(dp3468
g61
I3
ssg62
g3462
sg55
(lp3469
S'/admin/default/design/Gabb1.txt'
p3470
asbasbasbag48
(g64
g50
NtRp3471
(dp3472
g53
(dp3473
sg62
g3429
sg55
(lp3474
g48
(g69
g50
NtRp3475
(dp3476
g53
(dp3477
sg62
g3471
sg55
(lp3478
g48
(g49
g50
NtRp3479
(dp3480
g53
(dp3481
g61
I3
ssg62
g3475
sg55
(lp3482
g48
(g57
g50
NtRp3483
(dp3484
g53
(dp3485
g61
I2
ssg62
Nsg55
(lp3486
g48
(g64
g50
NtRp3487
(dp3488
g53
(dp3489
sg62
g3483
sg55
(lp3490
g48
(g69
g50
NtRp3491
(dp3492
g53
(dp3493
sg62
g3487
sg55
(lp3494
g48
(g49
g50
NtRp3495
(dp3496
g53
(dp3497
g61
I2
ssg62
g3491
sg55
(lp3498
g48
(g57
g50
NtRp3499
(dp3500
g53
(dp3501
g61
I1
ssg62
Nsg55
(lp3502
g48
(g64
g50
NtRp3503
(dp3504
g53
(dp3505
sg62
g3499
sg55
(lp3506
g48
(g69
g50
NtRp3507
(dp3508
g53
(dp3509
sg62
g3503
sg55
(lp3510
g48
(g49
g50
NtRp3511
(dp3512
g53
(dp3513
g61
I1
ssg62
g3507
sg55
(lp3514
g3374
(S's\n\x00\x00\x00Controller'
tRp3515
asbasbasbag48
(g64
g50
NtRp3516
(dp3517
g53
(dp3518
sg62
g3499
sg55
(lp3519
g48
(g69
g50
NtRp3520
(dp3521
g53
(dp3522
sg62
g3516
sg55
(lp3523
g48
(g49
g50
NtRp3524
(dp3525
g53
(dp3526
g61
I1
ssg62
g3520
sg55
(lp3527
I00
asbasbasbag48
(g64
g50
NtRp3528
(dp3529
g53
(dp3530
sg62
g3499
sg55
(lp3531
g48
(g69
g50
NtRp3532
(dp3533
g53
(dp3534
sg62
g3528
sg55
(lp3535
g48
(g49
g50
NtRp3536
(dp3537
g53
(dp3538
g61
I1
ssg62
g3532
sg55
(lp3539
S'/admin/default/edit/Gabb1/controllers/fb_serv.py'
p3540
asbasbasbasbasbasbasbag48
(g64
g50
NtRp3541
(dp3542
g53
(dp3543
sg62
g3483
sg55
(lp3544
g48
(g69
g50
NtRp3545
(dp3546
g53
(dp3547
sg62
g3541
sg55
(lp3548
g48
(g49
g50
NtRp3549
(dp3550
g53
(dp3551
g61
I2
ssg62
g3545
sg55
(lp3552
g48
(g57
g50
NtRp3553
(dp3554
g53
(dp3555
g61
I1
ssg62
Nsg55
(lp3556
g48
(g64
g50
NtRp3557
(dp3558
g53
(dp3559
sg62
g3553
sg55
(lp3560
g48
(g69
g50
NtRp3561
(dp3562
g53
(dp3563
sg62
g3557
sg55
(lp3564
g48
(g49
g50
NtRp3565
(dp3566
g53
(dp3567
g61
I1
ssg62
g3561
sg55
(lp3568
g3374
(S's\x04\x00\x00\x00View'
tRp3569
asbasbasbag48
(g64
g50
NtRp3570
(dp3571
g53
(dp3572
sg62
g3553
sg55
(lp3573
g48
(g69
g50
NtRp3574
(dp3575
g53
(dp3576
sg62
g3570
sg55
(lp3577
g48
(g49
g50
NtRp3578
(dp3579
g53
(dp3580
g61
I1
ssg62
g3574
sg55
(lp3581
I00
asbasbasbag48
(g64
g50
NtRp3582
(dp3583
g53
(dp3584
sg62
g3553
sg55
(lp3585
g48
(g69
g50
NtRp3586
(dp3587
g53
(dp3588
sg62
g3582
sg55
(lp3589
g48
(g49
g50
NtRp3590
(dp3591
g53
(dp3592
g61
I1
ssg62
g3586
sg55
(lp3593
S'/admin/default/edit/Gabb1/views/fb_serv/serve_player_data.txt'
p3594
asbasbasbasbasbasbasbag48
(g64
g50
NtRp3595
(dp3596
g53
(dp3597
sg62
g3483
sg55
(lp3598
g48
(g69
g50
NtRp3599
(dp3600
g53
(dp3601
sg62
g3595
sg55
(lp3602
g48
(g49
g50
NtRp3603
(dp3604
g53
(dp3605
g61
I2
ssg62
g3599
sg55
(lp3606
g48
(g57
g50
NtRp3607
(dp3608
g53
(dp3609
g61
I1
ssg62
Nsg55
(lp3610
g48
(g64
g50
NtRp3611
(dp3612
g53
(dp3613
sg62
g3607
sg55
(lp3614
g48
(g69
g50
NtRp3615
(dp3616
g53
(dp3617
sg62
g3611
sg55
(lp3618
g48
(g49
g50
NtRp3619
(dp3620
g53
(dp3621
g61
I1
ssg62
g3615
sg55
(lp3622
g3374
(S's\x06\x00\x00\x00Layout'
tRp3623
asbasbasbag48
(g64
g50
NtRp3624
(dp3625
g53
(dp3626
sg62
g3607
sg55
(lp3627
g48
(g69
g50
NtRp3628
(dp3629
g53
(dp3630
sg62
g3624
sg55
(lp3631
g48
(g49
g50
NtRp3632
(dp3633
g53
(dp3634
g61
I1
ssg62
g3628
sg55
(lp3635
I00
asbasbasbag48
(g64
g50
NtRp3636
(dp3637
g53
(dp3638
sg62
g3607
sg55
(lp3639
g48
(g69
g50
NtRp3640
(dp3641
g53
(dp3642
sg62
g3636
sg55
(lp3643
g48
(g49
g50
NtRp3644
(dp3645
g53
(dp3646
g61
I1
ssg62
g3640
sg55
(lp3647
S'/admin/default/edit/Gabb1/views/layout.html'
p3648
asbasbasbasbasbasbasbag48
(g64
g50
NtRp3649
(dp3650
g53
(dp3651
sg62
g3483
sg55
(lp3652
g48
(g69
g50
NtRp3653
(dp3654
g53
(dp3655
sg62
g3649
sg55
(lp3656
g48
(g49
g50
NtRp3657
(dp3658
g53
(dp3659
g61
I2
ssg62
g3653
sg55
(lp3660
g48
(g57
g50
NtRp3661
(dp3662
g53
(dp3663
g61
I1
ssg62
Nsg55
(lp3664
g48
(g64
g50
NtRp3665
(dp3666
g53
(dp3667
sg62
g3661
sg55
(lp3668
g48
(g69
g50
NtRp3669
(dp3670
g53
(dp3671
sg62
g3665
sg55
(lp3672
g48
(g49
g50
NtRp3673
(dp3674
g53
(dp3675
g61
I1
ssg62
g3669
sg55
(lp3676
g3374
(S's\n\x00\x00\x00Stylesheet'
tRp3677
asbasbasbag48
(g64
g50
NtRp3678
(dp3679
g53
(dp3680
sg62
g3661
sg55
(lp3681
g48
(g69
g50
NtRp3682
(dp3683
g53
(dp3684
sg62
g3678
sg55
(lp3685
g48
(g49
g50
NtRp3686
(dp3687
g53
(dp3688
g61
I1
ssg62
g3682
sg55
(lp3689
I00
asbasbasbag48
(g64
g50
NtRp3690
(dp3691
g53
(dp3692
sg62
g3661
sg55
(lp3693
g48
(g69
g50
NtRp3694
(dp3695
g53
(dp3696
sg62
g3690
sg55
(lp3697
g48
(g49
g50
NtRp3698
(dp3699
g53
(dp3700
g61
I1
ssg62
g3694
sg55
(lp3701
S'/admin/default/edit/Gabb1/static/base.css'
p3702
asbasbasbasbasbasbasbag48
(g64
g50
NtRp3703
(dp3704
g53
(dp3705
sg62
g3483
sg55
(lp3706
g48
(g69
g50
NtRp3707
(dp3708
g53
(dp3709
sg62
g3703
sg55
(lp3710
g48
(g49
g50
NtRp3711
(dp3712
g53
(dp3713
g61
I2
ssg62
g3707
sg55
(lp3714
g48
(g57
g50
NtRp3715
(dp3716
g53
(dp3717
g61
I1
ssg62
Nsg55
(lp3718
g48
(g64
g50
NtRp3719
(dp3720
g53
(dp3721
sg62
g3715
sg55
(lp3722
g48
(g69
g50
NtRp3723
(dp3724
g53
(dp3725
sg62
g3719
sg55
(lp3726
g48
(g49
g50
NtRp3727
(dp3728
g53
(dp3729
g61
I1
ssg62
g3723
sg55
(lp3730
g3374
(S's\x08\x00\x00\x00DB Model'
tRp3731
asbasbasbag48
(g64
g50
NtRp3732
(dp3733
g53
(dp3734
sg62
g3715
sg55
(lp3735
g48
(g69
g50
NtRp3736
(dp3737
g53
(dp3738
sg62
g3732
sg55
(lp3739
g48
(g49
g50
NtRp3740
(dp3741
g53
(dp3742
g61
I1
ssg62
g3736
sg55
(lp3743
I00
asbasbasbag48
(g64
g50
NtRp3744
(dp3745
g53
(dp3746
sg62
g3715
sg55
(lp3747
g48
(g69
g50
NtRp3748
(dp3749
g53
(dp3750
sg62
g3744
sg55
(lp3751
g48
(g49
g50
NtRp3752
(dp3753
g53
(dp3754
g61
I1
ssg62
g3748
sg55
(lp3755
S'/admin/default/edit/Gabb1/models/db.py'
p3756
asbasbasbasbasbasbasbag48
(g64
g50
NtRp3757
(dp3758
g53
(dp3759
sg62
g3483
sg55
(lp3760
g48
(g69
g50
NtRp3761
(dp3762
g53
(dp3763
sg62
g3757
sg55
(lp3764
g48
(g49
g50
NtRp3765
(dp3766
g53
(dp3767
g61
I2
ssg62
g3761
sg55
(lp3768
g48
(g57
g50
NtRp3769
(dp3770
g53
(dp3771
g61
I1
ssg62
Nsg55
(lp3772
g48
(g64
g50
NtRp3773
(dp3774
g53
(dp3775
sg62
g3769
sg55
(lp3776
g48
(g69
g50
NtRp3777
(dp3778
g53
(dp3779
sg62
g3773
sg55
(lp3780
g48
(g49
g50
NtRp3781
(dp3782
g53
(dp3783
g61
I1
ssg62
g3777
sg55
(lp3784
g3374
(S's\n\x00\x00\x00Menu Model'
tRp3785
asbasbasbag48
(g64
g50
NtRp3786
(dp3787
g53
(dp3788
sg62
g3769
sg55
(lp3789
g48
(g69
g50
NtRp3790
(dp3791
g53
(dp3792
sg62
g3786
sg55
(lp3793
g48
(g49
g50
NtRp3794
(dp3795
g53
(dp3796
g61
I1
ssg62
g3790
sg55
(lp3797
I00
asbasbasbag48
(g64
g50
NtRp3798
(dp3799
g53
(dp3800
sg62
g3769
sg55
(lp3801
g48
(g69
g50
NtRp3802
(dp3803
g53
(dp3804
sg62
g3798
sg55
(lp3805
g48
(g49
g50
NtRp3806
(dp3807
g53
(dp3808
g61
I1
ssg62
g3802
sg55
(lp3809
S'/admin/default/edit/Gabb1/models/menu.py'
p3810
asbasbasbasbasbasbasbag48
(g64
g50
NtRp3811
(dp3812
g53
(dp3813
sg62
g3483
sg55
(lp3814
g48
(g69
g50
NtRp3815
(dp3816
g53
(dp3817
sg62
g3811
sg55
(lp3818
g48
(g49
g50
NtRp3819
(dp3820
g53
(dp3821
g61
I2
ssg62
g3815
sg55
(lp3822
g48
(g57
g50
NtRp3823
(dp3824
g53
(dp3825
g61
I1
ssg62
Nsg55
(lp3826
g48
(g64
g50
NtRp3827
(dp3828
g53
(dp3829
sg62
g3823
sg55
(lp3830
g48
(g69
g50
NtRp3831
(dp3832
g53
(dp3833
sg62
g3827
sg55
(lp3834
g48
(g49
g50
NtRp3835
(dp3836
g53
(dp3837
g61
I1
ssg62
g3831
sg55
(lp3838
g3374
(S's\x08\x00\x00\x00Database'
tRp3839
asbasbasbag48
(g64
g50
NtRp3840
(dp3841
g53
(dp3842
sg62
g3823
sg55
(lp3843
g48
(g69
g50
NtRp3844
(dp3845
g53
(dp3846
sg62
g3840
sg55
(lp3847
g48
(g49
g50
NtRp3848
(dp3849
g53
(dp3850
g61
I1
ssg62
g3844
sg55
(lp3851
I00
asbasbasbag48
(g64
g50
NtRp3852
(dp3853
g53
(dp3854
sg62
g3823
sg55
(lp3855
g48
(g69
g50
NtRp3856
(dp3857
g53
(dp3858
sg62
g3852
sg55
(lp3859
g48
(g49
g50
NtRp3860
(dp3861
g53
(dp3862
g61
I1
ssg62
g3856
sg55
(lp3863
S'/Gabb1/appadmin/index.txt'
p3864
asbasbasbasbasbasbasbag48
(g64
g50
NtRp3865
(dp3866
g53
(dp3867
sg62
g3483
sg55
(lp3868
g48
(g69
g50
NtRp3869
(dp3870
g53
(dp3871
sg62
g3865
sg55
(lp3872
g48
(g49
g50
NtRp3873
(dp3874
g53
(dp3875
g61
I2
ssg62
g3869
sg55
(lp3876
g48
(g57
g50
NtRp3877
(dp3878
g53
(dp3879
g61
I1
ssg62
Nsg55
(lp3880
g48
(g64
g50
NtRp3881
(dp3882
g53
(dp3883
sg62
g3877
sg55
(lp3884
g48
(g69
g50
NtRp3885
(dp3886
g53
(dp3887
sg62
g3881
sg55
(lp3888
g48
(g49
g50
NtRp3889
(dp3890
g53
(dp3891
g61
I1
ssg62
g3885
sg55
(lp3892
g3374
(S's\x06\x00\x00\x00Errors'
tRp3893
asbasbasbag48
(g64
g50
NtRp3894
(dp3895
g53
(dp3896
sg62
g3877
sg55
(lp3897
g48
(g69
g50
NtRp3898
(dp3899
g53
(dp3900
sg62
g3894
sg55
(lp3901
g48
(g49
g50
NtRp3902
(dp3903
g53
(dp3904
g61
I1
ssg62
g3898
sg55
(lp3905
I00
asbasbasbag48
(g64
g50
NtRp3906
(dp3907
g53
(dp3908
sg62
g3877
sg55
(lp3909
g48
(g69
g50
NtRp3910
(dp3911
g53
(dp3912
sg62
g3906
sg55
(lp3913
g48
(g49
g50
NtRp3914
(dp3915
g53
(dp3916
g61
I1
ssg62
g3910
sg55
(lp3917
S'/admin/default/errors/Gabb1.txt'
p3918
asbasbasbasbasbasbasbag48
(g64
g50
NtRp3919
(dp3920
g53
(dp3921
sg62
g3483
sg55
(lp3922
g48
(g69
g50
NtRp3923
(dp3924
g53
(dp3925
sg62
g3919
sg55
(lp3926
g48
(g49
g50
NtRp3927
(dp3928
g53
(dp3929
g61
I2
ssg62
g3923
sg55
(lp3930
g48
(g57
g50
NtRp3931
(dp3932
g53
(dp3933
g61
I1
ssg62
Nsg55
(lp3934
g48
(g64
g50
NtRp3935
(dp3936
g53
(dp3937
sg62
g3931
sg55
(lp3938
g48
(g69
g50
NtRp3939
(dp3940
g53
(dp3941
sg62
g3935
sg55
(lp3942
g48
(g49
g50
NtRp3943
(dp3944
g53
(dp3945
g61
I1
ssg62
g3939
sg55
(lp3946
g3374
(S's\x05\x00\x00\x00About'
tRp3947
asbasbasbag48
(g64
g50
NtRp3948
(dp3949
g53
(dp3950
sg62
g3931
sg55
(lp3951
g48
(g69
g50
NtRp3952
(dp3953
g53
(dp3954
sg62
g3948
sg55
(lp3955
g48
(g49
g50
NtRp3956
(dp3957
g53
(dp3958
g61
I1
ssg62
g3952
sg55
(lp3959
I00
asbasbasbag48
(g64
g50
NtRp3960
(dp3961
g53
(dp3962
sg62
g3931
sg55
(lp3963
g48
(g69
g50
NtRp3964
(dp3965
g53
(dp3966
sg62
g3960
sg55
(lp3967
g48
(g49
g50
NtRp3968
(dp3969
g53
(dp3970
g61
I1
ssg62
g3964
sg55
(lp3971
S'/admin/default/about/Gabb1.txt'
p3972
asbasbasbasbasbasbasbasbasbasbasbasbasbasbasbag48
(g64
g50
NtRp3973
(dp3974
g53
(dp3975
sg62
g3342
sg55
(lp3976
g48
(g69
g50
NtRp3977
(dp3978
g53
(dp3979
sg62
g3973
sg55
(lp3980
g48
(g49
g50
NtRp3981
(dp3982
g53
(dp3983
g61
I4
ssg62
g3977
sg55
(lp3984
g48
(g57
g50
NtRp3985
(dp3986
g53
(dp3987
g61
I3
ssg62
Nsg55
(lp3988
g48
(g64
g50
NtRp3989
(dp3990
g53
(dp3991
sg62
g3985
sg55
(lp3992
g48
(g69
g50
NtRp3993
(dp3994
g53
(dp3995
sg62
g3989
sg55
(lp3996
g48
(g49
g50
NtRp3997
(dp3998
g53
(dp3999
g61
I3
ssg62
g3993
sg55
(lp4000
g3374
(S's\t\x00\x00\x00Resources'
tRp4001
asbasbasbag48
(g64
g50
NtRp4002
(dp4003
g53
(dp4004
sg62
g3985
sg55
(lp4005
g48
(g69
g50
NtRp4006
(dp4007
g53
(dp4008
sg62
g4002
sg55
(lp4009
g48
(g49
g50
NtRp4010
(dp4011
g53
(dp4012
g61
I3
ssg62
g4006
sg55
(lp4013
g91
asbasbasbag48
(g64
g50
NtRp4014
(dp4015
g53
(dp4016
sg62
g3985
sg55
(lp4017
g48
(g69
g50
NtRp4018
(dp4019
g53
(dp4020
sg62
g4014
sg55
(lp4021
g48
(g49
g50
NtRp4022
(dp4023
g53
(dp4024
g61
I3
ssg62
g4018
sg55
(lp4025
S'None'
p4026
asbasbasbag48
(g64
g50
NtRp4027
(dp4028
g53
(dp4029
sg62
g3985
sg55
(lp4030
g48
(g69
g50
NtRp4031
(dp4032
g53
(dp4033
sg62
g4027
sg55
(lp4034
g48
(g49
g50
NtRp4035
(dp4036
g53
(dp4037
g61
I3
ssg62
g4031
sg55
(lp4038
g48
(g57
g50
NtRp4039
(dp4040
g53
(dp4041
g61
I2
ssg62
Nsg55
(lp4042
g48
(g64
g50
NtRp4043
(dp4044
g53
(dp4045
sg62
g4039
sg55
(lp4046
g48
(g69
g50
NtRp4047
(dp4048
g53
(dp4049
sg62
g4043
sg55
(lp4050
g48
(g49
g50
NtRp4051
(dp4052
g53
(dp4053
g61
I2
ssg62
g4047
sg55
(lp4054
g48
(g57
g50
NtRp4055
(dp4056
g53
(dp4057
g61
I1
ssg62
Nsg55
(lp4058
g48
(g64
g50
NtRp4059
(dp4060
g53
(dp4061
sg62
g4055
sg55
(lp4062
g48
(g69
g50
NtRp4063
(dp4064
g53
(dp4065
sg62
g4059
sg55
(lp4066
g48
(g49
g50
NtRp4067
(dp4068
g53
(dp4069
g61
I1
ssg62
g4063
sg55
(lp4070
g3374
(S's\r\x00\x00\x00Documentation'
tRp4071
asbasbasbag48
(g64
g50
NtRp4072
(dp4073
g53
(dp4074
sg62
g4055
sg55
(lp4075
g48
(g69
g50
NtRp4076
(dp4077
g53
(dp4078
sg62
g4072
sg55
(lp4079
g48
(g49
g50
NtRp4080
(dp4081
g53
(dp4082
g61
I1
ssg62
g4076
sg55
(lp4083
I00
asbasbasbag48
(g64
g50
NtRp4084
(dp4085
g53
(dp4086
sg62
g4055
sg55
(lp4087
g48
(g69
g50
NtRp4088
(dp4089
g53
(dp4090
sg62
g4084
sg55
(lp4091
g48
(g49
g50
NtRp4092
(dp4093
g53
(dp4094
g61
I1
ssg62
g4088
sg55
(lp4095
S'http://www.web2py.com/book'
p4096
asbasbasbag48
(g64
g50
NtRp4097
(dp4098
g53
(dp4099
sg62
g4055
sg55
(lp4100
g48
(g69
g50
NtRp4101
(dp4102
g53
(dp4103
sg62
g4097
sg55
(lp4104
g48
(g49
g50
NtRp4105
(dp4106
g53
(dp4107
g61
I1
ssg62
g4101
sg55
(lp4108
(lp4109
(g3374
(S's\x07\x00\x00\x00Preface'
tRp4110
I00
S'http://www.web2py.com/book/default/chapter/00'
p4111
tp4112
a(g3374
(S's\x0c\x00\x00\x00Introduction'
tRp4113
I00
S'http://www.web2py.com/book/default/chapter/01'
p4114
tp4115
a(g3374
(S's\x06\x00\x00\x00Python'
tRp4116
I00
S'http://www.web2py.com/book/default/chapter/02'
p4117
tp4118
a(g3374
(S's\x08\x00\x00\x00Overview'
tRp4119
I00
S'http://www.web2py.com/book/default/chapter/03'
p4120
tp4121
a(g3374
(S's\x08\x00\x00\x00The Core'
tRp4122
I00
S'http://www.web2py.com/book/default/chapter/04'
p4123
tp4124
a(g3374
(S's\t\x00\x00\x00The Views'
tRp4125
I00
S'http://www.web2py.com/book/default/chapter/05'
p4126
tp4127
a(g3374
(S's\x08\x00\x00\x00Database'
tRp4128
I00
S'http://www.web2py.com/book/default/chapter/06'
p4129
tp4130
a(g3374
(S's\x14\x00\x00\x00Forms and Validators'
tRp4131
I00
S'http://www.web2py.com/book/default/chapter/07'
p4132
tp4133
a(g3374
(S's\x0e\x00\x00\x00Access Control'
tRp4134
I00
S'http://www.web2py.com/book/default/chapter/08'
p4135
tp4136
a(g3374
(S's\x08\x00\x00\x00Services'
tRp4137
I00
S'http://www.web2py.com/book/default/chapter/09'
p4138
tp4139
a(g3374
(S's\x0c\x00\x00\x00Ajax Recipes'
tRp4140
I00
S'http://www.web2py.com/book/default/chapter/10'
p4141
tp4142
a(g3374
(S's\x12\x00\x00\x00Deployment Recipes'
tRp4143
I00
S'http://www.web2py.com/book/default/chapter/11'
p4144
tp4145
a(g3374
(S's\r\x00\x00\x00Other Recipes'
tRp4146
I00
S'http://www.web2py.com/book/default/chapter/12'
p4147
tp4148
a(g3374
(S's\r\x00\x00\x00Buy this book'
tRp4149
I00
S'http://stores.lulu.com/web2py'
p4150
tp4151
aasbasbasbasbasbasbasbag48
(g64
g50
NtRp4152
(dp4153
g53
(dp4154
sg62
g4039
sg55
(lp4155
g48
(g69
g50
NtRp4156
(dp4157
g53
(dp4158
sg62
g4152
sg55
(lp4159
g48
(g49
g50
NtRp4160
(dp4161
g53
(dp4162
g61
I2
ssg62
g4156
sg55
(lp4163
g48
(g57
g50
NtRp4164
(dp4165
g53
(dp4166
g61
I1
ssg62
Nsg55
(lp4167
g48
(g64
g50
NtRp4168
(dp4169
g53
(dp4170
sg62
g4164
sg55
(lp4171
g48
(g69
g50
NtRp4172
(dp4173
g53
(dp4174
sg62
g4168
sg55
(lp4175
g48
(g49
g50
NtRp4176
(dp4177
g53
(dp4178
g61
I1
ssg62
g4172
sg55
(lp4179
g3374
(S's\t\x00\x00\x00Community'
tRp4180
asbasbasbag48
(g64
g50
NtRp4181
(dp4182
g53
(dp4183
sg62
g4164
sg55
(lp4184
g48
(g69
g50
NtRp4185
(dp4186
g53
(dp4187
sg62
g4181
sg55
(lp4188
g48
(g49
g50
NtRp4189
(dp4190
g53
(dp4191
g61
I1
ssg62
g4185
sg55
(lp4192
I00
asbasbasbag48
(g64
g50
NtRp4193
(dp4194
g53
(dp4195
sg62
g4164
sg55
(lp4196
g48
(g69
g50
NtRp4197
(dp4198
g53
(dp4199
sg62
g4193
sg55
(lp4200
g48
(g49
g50
NtRp4201
(dp4202
g53
(dp4203
g61
I1
ssg62
g4197
sg55
(lp4204
Nasbasbasbag48
(g64
g50
NtRp4205
(dp4206
g53
(dp4207
sg62
g4164
sg55
(lp4208
g48
(g69
g50
NtRp4209
(dp4210
g53
(dp4211
sg62
g4205
sg55
(lp4212
g48
(g49
g50
NtRp4213
(dp4214
g53
(dp4215
g61
I1
ssg62
g4209
sg55
(lp4216
(lp4217
(g3374
(S's\x06\x00\x00\x00Groups'
tRp4218
I00
S'http://www.web2py.com/examples/default/usergroups'
p4219
tp4220
a(g3374
(S's\x07\x00\x00\x00Twitter'
tRp4221
I00
S'http://twitter.com/web2py'
p4222
tp4223
a(g3374
(S's\t\x00\x00\x00Live chat'
tRp4224
I00
S'http://mibbit.com/?channel=%23web2py&server=irc.mibbit.net'
p4225
tp4226
a(g3374
(S's\n\x00\x00\x00User Voice'
tRp4227
I00
S'http://web2py.uservoice.com/'
p4228
tp4229
aasbasbasbasbasbasbasbag48
(g64
g50
NtRp4230
(dp4231
g53
(dp4232
sg62
g4039
sg55
(lp4233
g48
(g69
g50
NtRp4234
(dp4235
g53
(dp4236
sg62
g4230
sg55
(lp4237
g48
(g49
g50
NtRp4238
(dp4239
g53
(dp4240
g61
I2
ssg62
g4234
sg55
(lp4241
g48
(g57
g50
NtRp4242
(dp4243
g53
(dp4244
g61
I1
ssg62
Nsg55
(lp4245
g48
(g64
g50
NtRp4246
(dp4247
g53
(dp4248
sg62
g4242
sg55
(lp4249
g48
(g69
g50
NtRp4250
(dp4251
g53
(dp4252
sg62
g4246
sg55
(lp4253
g48
(g49
g50
NtRp4254
(dp4255
g53
(dp4256
g61
I1
ssg62
g4250
sg55
(lp4257
g3374
(S's\x06\x00\x00\x00Web2py'
tRp4258
asbasbasbag48
(g64
g50
NtRp4259
(dp4260
g53
(dp4261
sg62
g4242
sg55
(lp4262
g48
(g69
g50
NtRp4263
(dp4264
g53
(dp4265
sg62
g4259
sg55
(lp4266
g48
(g49
g50
NtRp4267
(dp4268
g53
(dp4269
g61
I1
ssg62
g4263
sg55
(lp4270
I00
asbasbasbag48
(g64
g50
NtRp4271
(dp4272
g53
(dp4273
sg62
g4242
sg55
(lp4274
g48
(g69
g50
NtRp4275
(dp4276
g53
(dp4277
sg62
g4271
sg55
(lp4278
g48
(g49
g50
NtRp4279
(dp4280
g53
(dp4281
g61
I1
ssg62
g4275
sg55
(lp4282
S'http://www.web2py.com'
p4283
asbasbasbag48
(g64
g50
NtRp4284
(dp4285
g53
(dp4286
sg62
g4242
sg55
(lp4287
g48
(g69
g50
NtRp4288
(dp4289
g53
(dp4290
sg62
g4284
sg55
(lp4291
g48
(g49
g50
NtRp4292
(dp4293
g53
(dp4294
g61
I1
ssg62
g4288
sg55
(lp4295
(lp4296
(g3374
(S's\x08\x00\x00\x00Download'
tRp4297
I00
S'http://www.web2py.com/examples/default/download'
p4298
tp4299
a(g3374
(S's\x07\x00\x00\x00Support'
tRp4300
I00
S'http://www.web2py.com/examples/default/support'
p4301
tp4302
a(g3374
(S's\x0e\x00\x00\x00Quick Examples'
tRp4303
I00
S'http://web2py.com/examples/default/examples'
p4304
tp4305
a(g3374
(S's\x03\x00\x00\x00FAQ'
tRp4306
I00
S'http://web2py.com/AlterEgo'
p4307
tp4308
a(g3374
(S's\x11\x00\x00\x00Free Applications'
tRp4309
I00
S'http://web2py.com/appliances'
p4310
tp4311
a(g3374
(S's\x07\x00\x00\x00Plugins'
tRp4312
I00
S'http://web2py.com/plugins'
p4313
tp4314
a(g3374
(S's\x07\x00\x00\x00Recipes'
tRp4315
I00
S'http://web2pyslices.com/'
p4316
tp4317
a(g3374
(S's\x04\x00\x00\x00Demo'
tRp4318
I00
S'http://web2py.com/demo_admin'
p4319
tp4320
a(g3374
(S's\x08\x00\x00\x00Semantic'
tRp4321
I00
S'http://web2py.com/semantic'
p4322
tp4323
a(g3374
(S's\x07\x00\x00\x00Layouts'
tRp4324
I00
S'http://web2py.com/layouts'
p4325
tp4326
a(g3374
(S's\x06\x00\x00\x00Videos'
tRp4327
I00
S'http://www.web2py.com/examples/default/videos/'
p4328
tp4329
aasbasbasbasbasbasbasbasbasbasbasbasbasbasbasbasbasbasbasbag48
(g64
g50
NtRp4330
(dp4331
g53
(dp4332
sg62
g2889
sg55
(lp4333
g48
(g69
g50
NtRp4334
(dp4335
g53
(dp4336
g73
g74
ssg62
g4330
sg55
(lp4337
S'meta'
p4338
asbag48
(g69
g50
NtRp4339
(dp4340
g53
(dp4341
g80
g81
ssg62
g4330
sg55
(lp4342
S':'
asbag48
(g69
g50
NtRp4343
(dp4344
g53
(dp4345
sg62
g4330
sg55
(lp4346
g48
(g49
g50
NtRp4347
(dp4348
g53
(dp4349
g61
I5
ssg62
g4343
sg55
(lp4350
g48
(g57
g50
NtRp4351
(dp4352
g53
(dp4353
g61
I4
ssg62
Nsg55
(lp4354
g48
(g64
g50
NtRp4355
(dp4356
g53
(dp4357
sg62
g4351
sg55
(lp4358
g48
(g69
g50
NtRp4359
(dp4360
g53
(dp4361
g73
g74
ssg62
g4355
sg55
(lp4362
S'author'
p4363
asbag48
(g69
g50
NtRp4364
(dp4365
g53
(dp4366
g80
g81
ssg62
g4355
sg55
(lp4367
S':'
asbag48
(g69
g50
NtRp4368
(dp4369
g53
(dp4370
sg62
g4355
sg55
(lp4371
g48
(g49
g50
NtRp4372
(dp4373
g53
(dp4374
g61
I4
ssg62
g4368
sg55
(lp4375
S'Your Name <you@example.com>'
p4376
asbasbasbag48
(g64
g50
NtRp4377
(dp4378
g53
(dp4379
sg62
g4351
sg55
(lp4380
g48
(g69
g50
NtRp4381
(dp4382
g53
(dp4383
g73
g74
ssg62
g4377
sg55
(lp4384
S'copyright'
p4385
asbag48
(g69
g50
NtRp4386
(dp4387
g53
(dp4388
g80
g81
ssg62
g4377
sg55
(lp4389
S':'
asbag48
(g69
g50
NtRp4390
(dp4391
g53
(dp4392
sg62
g4377
sg55
(lp4393
g48
(g49
g50
NtRp4394
(dp4395
g53
(dp4396
g61
I4
ssg62
g4390
sg55
(lp4397
S'Copyright 2011'
p4398
asbasbasbag48
(g64
g50
NtRp4399
(dp4400
g53
(dp4401
sg62
g4351
sg55
(lp4402
g48
(g69
g50
NtRp4403
(dp4404
g53
(dp4405
g73
g74
ssg62
g4399
sg55
(lp4406
S'description'
p4407
asbag48
(g69
g50
NtRp4408
(dp4409
g53
(dp4410
g80
g81
ssg62
g4399
sg55
(lp4411
S':'
asbag48
(g69
g50
NtRp4412
(dp4413
g53
(dp4414
sg62
g4399
sg55
(lp4415
g48
(g49
g50
NtRp4416
(dp4417
g53
(dp4418
g61
I4
ssg62
g4412
sg55
(lp4419
S'a cool new app'
p4420
asbasbasbag48
(g64
g50
NtRp4421
(dp4422
g53
(dp4423
sg62
g4351
sg55
(lp4424
g48
(g69
g50
NtRp4425
(dp4426
g53
(dp4427
g73
g74
ssg62
g4421
sg55
(lp4428
S'generator'
p4429
asbag48
(g69
g50
NtRp4430
(dp4431
g53
(dp4432
g80
g81
ssg62
g4421
sg55
(lp4433
S':'
asbag48
(g69
g50
NtRp4434
(dp4435
g53
(dp4436
sg62
g4421
sg55
(lp4437
g48
(g49
g50
NtRp4438
(dp4439
g53
(dp4440
g61
I4
ssg62
g4434
sg55
(lp4441
S'Web2py Web Framework'
p4442
asbasbasbag48
(g64
g50
NtRp4443
(dp4444
g53
(dp4445
sg62
g4351
sg55
(lp4446
g48
(g69
g50
NtRp4447
(dp4448
g53
(dp4449
g73
g74
ssg62
g4443
sg55
(lp4450
S'keywords'
p4451
asbag48
(g69
g50
NtRp4452
(dp4453
g53
(dp4454
g80
g81
ssg62
g4443
sg55
(lp4455
S':'
asbag48
(g69
g50
NtRp4456
(dp4457
g53
(dp4458
sg62
g4443
sg55
(lp4459
g48
(g49
g50
NtRp4460
(dp4461
g53
(dp4462
g61
I4
ssg62
g4456
sg55
(lp4463
S'web2py, python, framework'
p4464
asbasbasbasbasbasbasbag48
(g64
g50
NtRp4465
(dp4466
g53
(dp4467
sg62
g2889
sg55
(lp4468
g48
(g69
g50
NtRp4469
(dp4470
g53
(dp4471
g73
g74
ssg62
g4465
sg55
(lp4472
S'postprocessing'
p4473
asbag48
(g69
g50
NtRp4474
(dp4475
g53
(dp4476
g80
g81
ssg62
g4465
sg55
(lp4477
S':'
asbag48
(g69
g50
NtRp4478
(dp4479
g53
(dp4480
sg62
g4465
sg55
(lp4481
g48
(g49
g50
NtRp4482
(dp4483
g53
(dp4484
g61
I5
ssg62
g4478
sg55
(lp4485
g48
(g57
g50
NtRp4486
(dp4487
g53
(dp4488
g61
I4
ssg62
Nsg55
(lp4489
sbasbasbasbag48
(g64
g50
NtRp4490
(dp4491
g53
(dp4492
sg62
g2889
sg55
(lp4493
g48
(g69
g50
NtRp4494
(dp4495
g53
(dp4496
g73
g74
ssg62
g4490
sg55
(lp4497
S'session_filename'
p4498
asbag48
(g69
g50
NtRp4499
(dp4500
g53
(dp4501
g80
g81
ssg62
g4490
sg55
(lp4502
S':'
asbag48
(g69
g50
NtRp4503
(dp4504
g53
(dp4505
sg62
g4490
sg55
(lp4506
g48
(g49
g50
NtRp4507
(dp4508
g53
(dp4509
g61
I5
ssg62
g4503
sg55
(lp4510
S'D:\\git_projs\\Gabblista\\web2py\\web2py\\applications\\Gabb1\\sessions\\127.0.0.1-506c532c-513e-40a4-8014-19fef8c88c82'
p4511
asbasbasbag48
(g64
g50
NtRp4512
(dp4513
g53
(dp4514
sg62
g2889
sg55
(lp4515
g48
(g69
g50
NtRp4516
(dp4517
g53
(dp4518
g73
g74
ssg62
g4512
sg55
(lp4519
S'session_id'
p4520
asbag48
(g69
g50
NtRp4521
(dp4522
g53
(dp4523
g80
g81
ssg62
g4512
sg55
(lp4524
S':'
asbag48
(g69
g50
NtRp4525
(dp4526
g53
(dp4527
sg62
g4512
sg55
(lp4528
g48
(g49
g50
NtRp4529
(dp4530
g53
(dp4531
g61
I5
ssg62
g4525
sg55
(lp4532
S'127.0.0.1-506c532c-513e-40a4-8014-19fef8c88c82'
p4533
asbasbasbag48
(g64
g50
NtRp4534
(dp4535
g53
(dp4536
sg62
g2889
sg55
(lp4537
g48
(g69
g50
NtRp4538
(dp4539
g53
(dp4540
g73
g74
ssg62
g4534
sg55
(lp4541
S'session_id_name'
p4542
asbag48
(g69
g50
NtRp4543
(dp4544
g53
(dp4545
g80
g81
ssg62
g4534
sg55
(lp4546
S':'
asbag48
(g69
g50
NtRp4547
(dp4548
g53
(dp4549
sg62
g4534
sg55
(lp4550
g48
(g49
g50
NtRp4551
(dp4552
g53
(dp4553
g61
I5
ssg62
g4547
sg55
(lp4554
g2946
asbasbasbag48
(g64
g50
NtRp4555
(dp4556
g53
(dp4557
sg62
g2889
sg55
(lp4558
g48
(g69
g50
NtRp4559
(dp4560
g53
(dp4561
g73
g74
ssg62
g4555
sg55
(lp4562
S'session_new'
p4563
asbag48
(g69
g50
NtRp4564
(dp4565
g53
(dp4566
g80
g81
ssg62
g4555
sg55
(lp4567
S':'
asbag48
(g69
g50
NtRp4568
(dp4569
g53
(dp4570
sg62
g4555
sg55
(lp4571
g48
(g49
g50
NtRp4572
(dp4573
g53
(dp4574
g61
I5
ssg62
g4568
sg55
(lp4575
g1465
asbasbasbag48
(g64
g50
NtRp4576
(dp4577
g53
(dp4578
sg62
g2889
sg55
(lp4579
g48
(g69
g50
NtRp4580
(dp4581
g53
(dp4582
g73
g74
ssg62
g4576
sg55
(lp4583
S'status'
p4584
asbag48
(g69
g50
NtRp4585
(dp4586
g53
(dp4587
g80
g81
ssg62
g4576
sg55
(lp4588
S':'
asbag48
(g69
g50
NtRp4589
(dp4590
g53
(dp4591
sg62
g4576
sg55
(lp4592
g48
(g49
g50
NtRp4593
(dp4594
g53
(dp4595
g61
I5
ssg62
g4589
sg55
(lp4596
S'200'
p4597
asbasbasbag48
(g64
g50
NtRp4598
(dp4599
g53
(dp4600
sg62
g2889
sg55
(lp4601
g48
(g69
g50
NtRp4602
(dp4603
g53
(dp4604
g73
g74
ssg62
g4598
sg55
(lp4605
S'subtitle'
p4606
asbag48
(g69
g50
NtRp4607
(dp4608
g53
(dp4609
g80
g81
ssg62
g4598
sg55
(lp4610
S':'
asbag48
(g69
g50
NtRp4611
(dp4612
g53
(dp4613
sg62
g4598
sg55
(lp4614
g48
(g49
g50
NtRp4615
(dp4616
g53
(dp4617
g61
I5
ssg62
g4611
sg55
(lp4618
g3374
(S's\r\x00\x00\x00customize me!'
tRp4619
asbasbasbag48
(g64
g50
NtRp4620
(dp4621
g53
(dp4622
sg62
g2889
sg55
(lp4623
g48
(g69
g50
NtRp4624
(dp4625
g53
(dp4626
g73
g74
ssg62
g4620
sg55
(lp4627
S'title'
p4628
asbag48
(g69
g50
NtRp4629
(dp4630
g53
(dp4631
g80
g81
ssg62
g4620
sg55
(lp4632
S':'
asbag48
(g69
g50
NtRp4633
(dp4634
g53
(dp4635
sg62
g4620
sg55
(lp4636
g48
(g49
g50
NtRp4637
(dp4638
g53
(dp4639
g61
I5
ssg62
g4633
sg55
(lp4640
g113
asbasbasbag48
(g64
g50
NtRp4641
(dp4642
g53
(dp4643
sg62
g2889
sg55
(lp4644
g48
(g69
g50
NtRp4645
(dp4646
g53
(dp4647
g73
g74
ssg62
g4641
sg55
(lp4648
g2130
asbag48
(g69
g50
NtRp4649
(dp4650
g53
(dp4651
g80
g81
ssg62
g4641
sg55
(lp4652
S':'
asbag48
(g69
g50
NtRp4653
(dp4654
g53
(dp4655
sg62
g4641
sg55
(lp4656
g48
(g49
g50
NtRp4657
(dp4658
g53
(dp4659
g61
I5
ssg62
g4653
sg55
(lp4660
g2143
asbasbasbag48
(g64
g50
NtRp4661
(dp4662
g53
(dp4663
sg62
g2889
sg55
(lp4664
g48
(g69
g50
NtRp4665
(dp4666
g53
(dp4667
g73
g74
ssg62
g4661
sg55
(lp4668
S'view'
p4669
asbag48
(g69
g50
NtRp4670
(dp4671
g53
(dp4672
g80
g81
ssg62
g4661
sg55
(lp4673
S':'
asbag48
(g69
g50
NtRp4674
(dp4675
g53
(dp4676
sg62
g4661
sg55
(lp4677
g48
(g49
g50
NtRp4678
(dp4679
g53
(dp4680
g61
I5
ssg62
g4674
sg55
(lp4681
S'fb_serv/serve_player_data.txt'
p4682
asbasbasbasbasbsS'locals'
p4683
(dp4684
S'Service'
p4685
S"<class 'gluon.tools.Service'>"
p4686
sS'OBJECT'
p4687
S"<class 'gluon.html.OBJECT'>"
p4688
sS'SQLDB'
p4689
S"<class 'gluon.dal.DAL'>"
p4690
sg2871
S"<Storage {'_Session__hash': '\\xc8[\\xd5\\xc1#\\xd8e\\x10\\xe3\\x06\\x0ba\\xddT\\x92m'}>"
p4691
sS'LINK'
p4692
S"<class 'gluon.html.LINK'>"
p4693
sS'BR'
p4694
S"<class 'gluon.html.BR'>"
p4695
sS'local_import'
p4696
S'<function <lambda> at 0x03320F70>'
p4697
sS'OPTGROUP'
p4698
S"<class 'gluon.html.OPTGROUP'>"
p4699
sS'PRE'
p4700
S"<class 'gluon.html.PRE'>"
p4701
sS'IS_INT_IN_RANGE'
p4702
S"<class 'gluon.validators.IS_INT_IN_RANGE'>"
p4703
sS'IS_LOWER'
p4704
S"<class 'gluon.validators.IS_LOWER'>"
p4705
sS'IS_STRONG'
p4706
S"<class 'gluon.validators.IS_STRONG'>"
p4707
sS'cache'
p4708
S'<gluon.cache.Cache object at 0x03348C50>'
p4709
sS'IS_IN_DB'
p4710
S"<class 'gluon.validators.IS_IN_DB'>"
p4711
sS'TAG'
p4712
S'<gluon.html.__TAG__ object at 0x02F27610>'
p4713
sS'SQLField'
p4714
S"<class 'gluon.dal.Field'>"
p4715
sS'mail'
p4716
S'<gluon.tools.Mail object at 0x03348D90>'
p4717
sS'BODY'
p4718
S"<class 'gluon.html.BODY'>"
p4719
sS'IS_DATE_IN_RANGE'
p4720
S"<class 'gluon.validators.IS_DATE_IN_RANGE'>"
p4721
sS'TH'
p4722
S"<class 'gluon.html.TH'>"
p4723
sS'URL'
p4724
S'<function URL at 0x02F056B0>'
p4725
sS'__file__'
p4726
S"r'D:\\git_projs\\Gabblista\\web2py\\web2py\\applications\\Gabb1\\views\\fb_serv/serve_player_data.txt'"
p4727
sS'db'
p4728
S"<DAL {'auth_event': <Table {'origin': <gluon.dal...'_id': <gluon.dal.Field object at 0x0333D410>}>}>"
p4729
sS'auth'
p4730
S'<gluon.tools.Auth object at 0x03348D10>'
p4731
sS'P'
S"<class 'gluon.html.P'>"
p4732
sS'TFOOT'
p4733
S"<class 'gluon.html.TFOOT'>"
p4734
sS'XHTML'
p4735
S"<class 'gluon.html.XHTML'>"
p4736
sS'ON'
p4737
g1465
sS'OL'
p4738
S"<class 'gluon.html.OL'>"
p4739
sS'TEXTAREA'
p4740
S"<class 'gluon.html.TEXTAREA'>"
p4741
sS'settings'
p4742
S"<Storage {'layout_theme': 'Default', 'subtitle':...l_server': 'localhost', 'login_method': 'local'}>"
p4743
sS'MENU'
p4744
S"<class 'gluon.html.MENU'>"
p4745
sS'LOAD'
p4746
S'<gluon.compileapp.LoadFactory object at 0x03348C10>'
p4747
sS'CODE'
p4748
S"<class 'gluon.html.CODE'>"
p4749
sS'HTTP'
p4750
S"<class 'gluon.http.HTTP'>"
p4751
sS'HR'
p4752
S"<class 'gluon.html.HR'>"
p4753
sS'IS_DATETIME'
p4754
S"<class 'gluon.validators.IS_DATETIME'>"
p4755
sS'Storage'
p4756
S"<class 'gluon.storage.Storage'>"
p4757
sS'HEAD'
p4758
S"<class 'gluon.html.HEAD'>"
p4759
sS'LABEL'
p4760
S"<class 'gluon.html.LABEL'>"
p4761
sS'CLEANUP'
p4762
S"<class 'gluon.validators.CLEANUP'>"
p4763
sS'plugins'
p4764
S'<gluon.tools.PluginManager object at 0x03348FD0>'
p4765
sS'SELECT'
p4766
S"<class 'gluon.html.SELECT'>"
p4767
sS'use_janrain'
p4768
S'<function use_janrain at 0x03A869F0>'
p4769
sS'CENTER'
p4770
S"<class 'gluon.html.CENTER'>"
p4771
sS'prettydate'
p4772
S'<function prettydate at 0x03A862B0>'
p4773
sS'Crud'
p4774
S"<class 'gluon.tools.Crud'>"
p4775
sS'Auth'
p4776
S"<class 'gluon.tools.Auth'>"
p4777
sS'__builtins__'
p4778
S"{'ArithmeticError': <type 'exceptions.ArithmeticError'>, 'AssertionError': <type 'exceptions.AssertionError'>, 'AttributeError': <type 'exceptions.AttributeError'>, 'BaseException': <type 'exceptions.BaseException'>, 'DeprecationWarning': <type 'exceptions.DeprecationWarning'>, 'EOFError': <type 'exceptions.EOFError'>, 'Ellipsis': Ellipsis, 'EnvironmentError': <type 'exceptions.EnvironmentError'>, 'Exception': <type 'exceptions.Exception'>, 'False': False, ...}"
p4779
sS'HTML'
p4780
S"<class 'gluon.html.HTML'>"
p4781
sS'SQLFORM'
p4782
S"<class 'gluon.sqlhtml.SQLFORM'>"
p4783
sS'EM'
p4784
S"<class 'gluon.html.EM'>"
p4785
sS'redirect'
p4786
S'<function redirect at 0x026A4BF0>'
p4787
sS'FIELDSET'
p4788
S"<class 'gluon.html.FIELDSET'>"
p4789
sS'IS_EQUAL_TO'
p4790
S"<class 'gluon.validators.IS_EQUAL_TO'>"
p4791
sS'embed64'
p4792
S'<function embed64 at 0x02F161B0>'
p4793
sS'IS_LIST_OF'
p4794
S"<class 'gluon.validators.IS_LIST_OF'>"
p4795
sS'INPUT'
p4796
S"<class 'gluon.html.INPUT'>"
p4797
sS'EMBED'
p4798
S"<class 'gluon.html.EMBED'>"
p4799
sS'_'
S'<function _ at 0x033444B0>'
p4800
sS'FORM'
p4801
S"<class 'gluon.html.FORM'>"
p4802
sS'H2'
p4803
S"<class 'gluon.html.H2'>"
p4804
sS'H3'
p4805
S"<class 'gluon.html.H3'>"
p4806
sS'BUTTON'
p4807
S"<class 'gluon.html.BUTTON'>"
p4808
sS'H1'
p4809
S"<class 'gluon.html.H1'>"
p4810
sS'H6'
p4811
S"<class 'gluon.html.H6'>"
p4812
sS'H4'
p4813
S"<class 'gluon.html.H4'>"
p4814
sS'H5'
p4815
S"<class 'gluon.html.H5'>"
p4816
sS'UL'
p4817
S"<class 'gluon.html.UL'>"
p4818
sS'IS_UPPER'
p4819
S"<class 'gluon.validators.IS_UPPER'>"
p4820
sS'xmlescape'
p4821
S'<function xmlescape at 0x02F05630>'
p4822
sS'IS_TIME'
p4823
S"<class 'gluon.validators.IS_TIME'>"
p4824
sS'OPTION'
p4825
S"<class 'gluon.html.OPTION'>"
p4826
sS'TITLE'
p4827
S"<class 'gluon.html.TITLE'>"
p4828
sS'CRYPT'
p4829
S"<class 'gluon.validators.CRYPT'>"
p4830
sS'IS_EMPTY_OR'
p4831
S"<class 'gluon.validators.IS_EMPTY_OR'>"
p4832
sS'MARKMIN'
p4833
S"<class 'gluon.html.MARKMIN'>"
p4834
sS'message'
p4835
S"'Test'"
p4836
sS'COL'
p4837
S"<class 'gluon.html.COL'>"
p4838
sS'service'
p4839
S'<gluon.tools.Service object at 0x03348FB0>'
p4840
sS'SCRIPT'
p4841
S"<class 'gluon.html.SCRIPT'>"
p4842
sS'TABLE'
p4843
S"<class 'gluon.html.TABLE'>"
p4844
sS'IS_IPV4'
p4845
S"<class 'gluon.validators.IS_IPV4'>"
p4846
sS'IS_LENGTH'
p4847
S"<class 'gluon.validators.IS_LENGTH'>"
p4848
sS'XML'
p4849
S"<class 'gluon.html.XML'>"
p4850
sS'B'
S"<class 'gluon.html.B'>"
p4851
sS'IMG'
p4852
S"<class 'gluon.html.IMG'>"
p4853
sS'SQLTABLE'
p4854
S"<class 'gluon.sqlhtml.SQLTABLE'>"
p4855
sS'IS_MATCH'
p4856
S"<class 'gluon.validators.IS_MATCH'>"
p4857
sS'IS_ALPHANUMERIC'
p4858
S"<class 'gluon.validators.IS_ALPHANUMERIC'>"
p4859
sS'SPAN'
p4860
S"<class 'gluon.html.SPAN'>"
p4861
sS'IS_SLUG'
p4862
S"<class 'gluon.validators.IS_SLUG'>"
p4863
sS'BEAUTIFY'
p4864
S"<class 'gluon.html.BEAUTIFY'>"
p4865
sS'META'
p4866
S"<class 'gluon.html.META'>"
p4867
sS'IS_DATE'
p4868
S"<class 'gluon.validators.IS_DATE'>"
p4869
sS'IS_EMAIL'
p4870
S"<class 'gluon.validators.IS_EMAIL'>"
p4871
sS'IS_NOT_EMPTY'
p4872
S"<class 'gluon.validators.IS_NOT_EMPTY'>"
p4873
sS'IS_FLOAT_IN_RANGE'
p4874
S"<class 'gluon.validators.IS_FLOAT_IN_RANGE'>"
p4875
sS'TBODY'
p4876
S"<class 'gluon.html.TBODY'>"
p4877
sS'CAT'
p4878
S"<class 'gluon.html.CAT'>"
p4879
sS'Field'
p4880
S"<class 'gluon.dal.Field'>"
p4881
sS'DIV'
p4882
S"<class 'gluon.html.DIV'>"
p4883
sS'LEGEND'
p4884
S"<class 'gluon.html.LEGEND'>"
p4885
sS'COLGROUP'
p4886
S"<class 'gluon.html.COLGROUP'>"
p4887
sS'DAL'
p4888
S"<class 'gluon.dal.DAL'>"
p4889
sS'TT'
p4890
S"<class 'gluon.html.TT'>"
p4891
sS'TR'
p4892
S"<class 'gluon.html.TR'>"
p4893
sS'LI'
p4894
S"<class 'gluon.html.LI'>"
p4895
sS'IFRAME'
p4896
S"<class 'gluon.html.IFRAME'>"
p4897
sS'TD'
p4898
S"<class 'gluon.html.TD'>"
p4899
sS'PluginManager'
p4900
S"<class 'gluon.tools.PluginManager'>"
p4901
sS'IS_URL'
p4902
S"<class 'gluon.validators.IS_URL'>"
p4903
sS'A'
S"<class 'gluon.html.A'>"
p4904
sS'STYLE'
p4905
S"<class 'gluon.html.STYLE'>"
p4906
sS'IS_DATETIME_IN_RANGE'
p4907
S"<class 'gluon.validators.IS_DATETIME_IN_RANGE'>"
p4908
sS'IS_IMAGE'
p4909
S"<class 'gluon.validators.IS_IMAGE'>"
p4910
sS'I'
S"<class 'gluon.html.I'>"
p4911
sS'crud'
p4912
S'<gluon.tools.Crud object at 0x03348CB0>'
p4913
sS'IS_NOT_IN_DB'
p4914
S"<class 'gluon.validators.IS_NOT_IN_DB'>"
p4915
sg2884
S"<Storage {'status': 200, 'body': <cStringIO.Stri...s': [], 'view': 'fb_serv/serve_player_data.txt'}>"
p4916
sS'THEAD'
p4917
S"<class 'gluon.html.THEAD'>"
p4918
sS'IS_NULL_OR'
p4919
S"<class 'gluon.validators.IS_EMPTY_OR'>"
p4920
sg47
S"<Storage {'body': <cStringIO.StringO object at 0..._vars': <Storage {}>, 'post_vars': <Storage {}>}>"
p4921
sS'IS_EXPR'
p4922
S"<class 'gluon.validators.IS_EXPR'>"
p4923
sS'T'
S'<gluon.languages.translator object at 0x03348BF0>'
p4924
sS'IS_IN_SET'
p4925
S"<class 'gluon.validators.IS_IN_SET'>"
p4926
sS'IS_UPLOAD_FILENAME'
p4927
S"<class 'gluon.validators.IS_UPLOAD_FILENAME'>"
p4928
sS'IS_DECIMAL_IN_RANGE'
p4929
S"<class 'gluon.validators.IS_DECIMAL_IN_RANGE'>"
p4930
sssS'traceback'
p4931
S'Traceback (most recent call last):\n  File "D:\\git_projs\\Gabblista\\web2py\\web2py\\gluon\\restricted.py", line 194, in restricted\n    exec ccode in environment\n  File "D:\\git_projs\\Gabblista\\web2py\\web2py\\applications\\Gabb1\\views\\fb_serv/serve_player_data.txt", line 3, in <module>\n    {{=test_var}}\nNameError: name \'test_var\' is not defined\n'
p4932
s.