(dp1
S'output'
p2
S''
sS'layer'
p3
S'D:\\git_projs\\Gabblista\\web2py\\web2py\\applications\\Gabb1\\views\\fb_serv/serve_player_data.txt'
p4
sS'code'
p5
S"response.write(message)\nresponse.write('\\r\\n\\r\\n', escape=False)\nresponse.write(test_var)\nresponse.write('\\r\\n', escape=False)"
p6
sS'snapshot'
p7
(dp8
S'exception'
p9
(dp10
S'__hash__'
p11
S"<method-wrapper '__hash__' of exceptions.NameError object at 0x033AD288>"
p12
sS'__setattr__'
p13
S"<method-wrapper '__setattr__' of exceptions.NameError object at 0x033AD288>"
p14
sS'__reduce_ex__'
p15
S'<built-in method __reduce_ex__ of exceptions.NameError object at 0x033AD288>'
p16
sS'__getslice__'
p17
S"<method-wrapper '__getslice__' of exceptions.NameError object at 0x033AD288>"
p18
sS'__getitem__'
p19
S"<method-wrapper '__getitem__' of exceptions.NameError object at 0x033AD288>"
p20
sS'__setstate__'
p21
S'<built-in method __setstate__ of exceptions.NameError object at 0x033AD288>'
p22
sS'__reduce__'
p23
S'<built-in method __reduce__ of exceptions.NameError object at 0x033AD288>'
p24
sS'__str__'
p25
S"<method-wrapper '__str__' of exceptions.NameError object at 0x033AD288>"
p26
sS'args'
p27
S'("name \'test_var\' is not defined",)'
p28
sS'__getattribute__'
p29
S"<method-wrapper '__getattribute__' of exceptions.NameError object at 0x033AD288>"
p30
sS'__class__'
p31
S"<type 'exceptions.NameError'>"
p32
sS'__delattr__'
p33
S"<method-wrapper '__delattr__' of exceptions.NameError object at 0x033AD288>"
p34
sS'__repr__'
p35
S"<method-wrapper '__repr__' of exceptions.NameError object at 0x033AD288>"
p36
sS'__dict__'
p37
S'{}'
p38
sS'__doc__'
p39
S"'Name not found globally.'"
p40
sS'__init__'
p41
S"<method-wrapper '__init__' of exceptions.NameError object at 0x033AD288>"
p42
sS'__new__'
p43
S'<built-in method __new__ of type object at 0x1E1CD8D8>'
p44
ssS'evalue'
p45
S"name 'test_var' is not defined"
p46
sS'request'
p47
ccopy_reg
_reconstructor
p48
(cgluon.html
BEAUTIFY
p49
c__builtin__
object
p50
NtRp51
(dp52
S'attributes'
p53
(dp54
sS'components'
p55
(lp56
g48
(cgluon.html
TABLE
p57
g50
NtRp58
(dp59
g53
(dp60
S'level'
p61
I5
ssS'parent'
p62
Nsg55
(lp63
g48
(cgluon.html
TR
p64
g50
NtRp65
(dp66
g53
(dp67
sg62
g58
sg55
(lp68
g48
(cgluon.html
TD
p69
g50
NtRp70
(dp71
g53
(dp72
S'_style'
p73
S'font-weight:bold;'
p74
ssg62
g65
sg55
(lp75
S'ajax'
p76
asbag48
(g69
g50
NtRp77
(dp78
g53
(dp79
S'_valign'
p80
S'top'
p81
ssg62
g65
sg55
(lp82
S':'
asbag48
(g69
g50
NtRp83
(dp84
g53
(dp85
sg62
g65
sg55
(lp86
g48
(g49
g50
NtRp87
(dp88
g53
(dp89
g61
I5
ssg62
g83
sg55
(lp90
S'False'
p91
asbasbasbag48
(g64
g50
NtRp92
(dp93
g53
(dp94
sg62
g58
sg55
(lp95
g48
(g69
g50
NtRp96
(dp97
g53
(dp98
g73
g74
ssg62
g92
sg55
(lp99
S'application'
p100
asbag48
(g69
g50
NtRp101
(dp102
g53
(dp103
g80
g81
ssg62
g92
sg55
(lp104
S':'
asbag48
(g69
g50
NtRp105
(dp106
g53
(dp107
sg62
g92
sg55
(lp108
g48
(g49
g50
NtRp109
(dp110
g53
(dp111
g61
I5
ssg62
g105
sg55
(lp112
S'Gabb1'
p113
asbasbasbag48
(g64
g50
NtRp114
(dp115
g53
(dp116
sg62
g58
sg55
(lp117
g48
(g69
g50
NtRp118
(dp119
g53
(dp120
g73
g74
ssg62
g114
sg55
(lp121
g27
asbag48
(g69
g50
NtRp122
(dp123
g53
(dp124
g80
g81
ssg62
g114
sg55
(lp125
S':'
asbag48
(g69
g50
NtRp126
(dp127
g53
(dp128
sg62
g114
sg55
(lp129
g48
(g49
g50
NtRp130
(dp131
g53
(dp132
g61
I5
ssg62
g126
sg55
(lp133
g48
(g57
g50
NtRp134
(dp135
g53
(dp136
g61
I4
ssg62
Nsg55
(lp137
sbasbasbasbag48
(g64
g50
NtRp138
(dp139
g53
(dp140
sg62
g58
sg55
(lp141
g48
(g69
g50
NtRp142
(dp143
g53
(dp144
g73
g74
ssg62
g138
sg55
(lp145
S'body'
p146
asbag48
(g69
g50
NtRp147
(dp148
g53
(dp149
g80
g81
ssg62
g138
sg55
(lp150
S':'
asbag48
(g69
g50
NtRp151
(dp152
g53
(dp153
sg62
g138
sg55
(lp154
g48
(g49
g50
NtRp155
(dp156
g53
(dp157
g61
I5
ssg62
g151
sg55
(lp158
S'<cStringIO.StringO object at 0x03B3B5A0>'
p159
asbasbasbag48
(g64
g50
NtRp160
(dp161
g53
(dp162
sg62
g58
sg55
(lp163
g48
(g69
g50
NtRp164
(dp165
g53
(dp166
g73
g74
ssg62
g160
sg55
(lp167
S'client'
p168
asbag48
(g69
g50
NtRp169
(dp170
g53
(dp171
g80
g81
ssg62
g160
sg55
(lp172
S':'
asbag48
(g69
g50
NtRp173
(dp174
g53
(dp175
sg62
g160
sg55
(lp176
g48
(g49
g50
NtRp177
(dp178
g53
(dp179
g61
I5
ssg62
g173
sg55
(lp180
S'127.0.0.1'
p181
asbasbasbag48
(g64
g50
NtRp182
(dp183
g53
(dp184
sg62
g58
sg55
(lp185
g48
(g69
g50
NtRp186
(dp187
g53
(dp188
g73
g74
ssg62
g182
sg55
(lp189
S'controller'
p190
asbag48
(g69
g50
NtRp191
(dp192
g53
(dp193
g80
g81
ssg62
g182
sg55
(lp194
S':'
asbag48
(g69
g50
NtRp195
(dp196
g53
(dp197
sg62
g182
sg55
(lp198
g48
(g49
g50
NtRp199
(dp200
g53
(dp201
g61
I5
ssg62
g195
sg55
(lp202
S'fb_serv'
p203
asbasbasbag48
(g64
g50
NtRp204
(dp205
g53
(dp206
sg62
g58
sg55
(lp207
g48
(g69
g50
NtRp208
(dp209
g53
(dp210
g73
g74
ssg62
g204
sg55
(lp211
S'cookies'
p212
asbag48
(g69
g50
NtRp213
(dp214
g53
(dp215
g80
g81
ssg62
g204
sg55
(lp216
S':'
asbag48
(g69
g50
NtRp217
(dp218
g53
(dp219
sg62
g204
sg55
(lp220
g48
(g49
g50
NtRp221
(dp222
g53
(dp223
g61
I5
ssg62
g217
sg55
(lp224
g48
(g57
g50
NtRp225
(dp226
g53
(dp227
g61
I4
ssg62
Nsg55
(lp228
g48
(g64
g50
NtRp229
(dp230
g53
(dp231
sg62
g225
sg55
(lp232
g48
(g69
g50
NtRp233
(dp234
g53
(dp235
g73
g74
ssg62
g229
sg55
(lp236
S'session_id_admin'
p237
asbag48
(g69
g50
NtRp238
(dp239
g53
(dp240
g80
g81
ssg62
g229
sg55
(lp241
S':'
asbag48
(g69
g50
NtRp242
(dp243
g53
(dp244
sg62
g229
sg55
(lp245
g48
(g49
g50
NtRp246
(dp247
g53
(dp248
g61
I4
ssg62
g242
sg55
(lp249
g48
(g57
g50
NtRp250
(dp251
g53
(dp252
g61
I3
ssg62
Nsg55
(lp253
g48
(g64
g50
NtRp254
(dp255
g53
(dp256
sg62
g250
sg55
(lp257
g48
(g69
g50
NtRp258
(dp259
g53
(dp260
g73
g74
ssg62
g254
sg55
(lp261
S'comment'
p262
asbag48
(g69
g50
NtRp263
(dp264
g53
(dp265
g80
g81
ssg62
g254
sg55
(lp266
S':'
asbag48
(g69
g50
NtRp267
(dp268
g53
(dp269
sg62
g254
sg55
(lp270
g48
(g49
g50
NtRp271
(dp272
g53
(dp273
g61
I3
ssg62
g267
sg55
(lp274
S''
asbasbasbag48
(g64
g50
NtRp275
(dp276
g53
(dp277
sg62
g250
sg55
(lp278
g48
(g69
g50
NtRp279
(dp280
g53
(dp281
g73
g74
ssg62
g275
sg55
(lp282
S'domain'
p283
asbag48
(g69
g50
NtRp284
(dp285
g53
(dp286
g80
g81
ssg62
g275
sg55
(lp287
S':'
asbag48
(g69
g50
NtRp288
(dp289
g53
(dp290
sg62
g275
sg55
(lp291
g48
(g49
g50
NtRp292
(dp293
g53
(dp294
g61
I3
ssg62
g288
sg55
(lp295
S''
asbasbasbag48
(g64
g50
NtRp296
(dp297
g53
(dp298
sg62
g250
sg55
(lp299
g48
(g69
g50
NtRp300
(dp301
g53
(dp302
g73
g74
ssg62
g296
sg55
(lp303
S'expires'
p304
asbag48
(g69
g50
NtRp305
(dp306
g53
(dp307
g80
g81
ssg62
g296
sg55
(lp308
S':'
asbag48
(g69
g50
NtRp309
(dp310
g53
(dp311
sg62
g296
sg55
(lp312
g48
(g49
g50
NtRp313
(dp314
g53
(dp315
g61
I3
ssg62
g309
sg55
(lp316
S''
asbasbasbag48
(g64
g50
NtRp317
(dp318
g53
(dp319
sg62
g250
sg55
(lp320
g48
(g69
g50
NtRp321
(dp322
g53
(dp323
g73
g74
ssg62
g317
sg55
(lp324
S'max-age'
p325
asbag48
(g69
g50
NtRp326
(dp327
g53
(dp328
g80
g81
ssg62
g317
sg55
(lp329
S':'
asbag48
(g69
g50
NtRp330
(dp331
g53
(dp332
sg62
g317
sg55
(lp333
g48
(g49
g50
NtRp334
(dp335
g53
(dp336
g61
I3
ssg62
g330
sg55
(lp337
S''
asbasbasbag48
(g64
g50
NtRp338
(dp339
g53
(dp340
sg62
g250
sg55
(lp341
g48
(g69
g50
NtRp342
(dp343
g53
(dp344
g73
g74
ssg62
g338
sg55
(lp345
S'path'
p346
asbag48
(g69
g50
NtRp347
(dp348
g53
(dp349
g80
g81
ssg62
g338
sg55
(lp350
S':'
asbag48
(g69
g50
NtRp351
(dp352
g53
(dp353
sg62
g338
sg55
(lp354
g48
(g49
g50
NtRp355
(dp356
g53
(dp357
g61
I3
ssg62
g351
sg55
(lp358
S''
asbasbasbag48
(g64
g50
NtRp359
(dp360
g53
(dp361
sg62
g250
sg55
(lp362
g48
(g69
g50
NtRp363
(dp364
g53
(dp365
g73
g74
ssg62
g359
sg55
(lp366
S'secure'
p367
asbag48
(g69
g50
NtRp368
(dp369
g53
(dp370
g80
g81
ssg62
g359
sg55
(lp371
S':'
asbag48
(g69
g50
NtRp372
(dp373
g53
(dp374
sg62
g359
sg55
(lp375
g48
(g49
g50
NtRp376
(dp377
g53
(dp378
g61
I3
ssg62
g372
sg55
(lp379
S''
asbasbasbag48
(g64
g50
NtRp380
(dp381
g53
(dp382
sg62
g250
sg55
(lp383
g48
(g69
g50
NtRp384
(dp385
g53
(dp386
g73
g74
ssg62
g380
sg55
(lp387
S'version'
p388
asbag48
(g69
g50
NtRp389
(dp390
g53
(dp391
g80
g81
ssg62
g380
sg55
(lp392
S':'
asbag48
(g69
g50
NtRp393
(dp394
g53
(dp395
sg62
g380
sg55
(lp396
g48
(g49
g50
NtRp397
(dp398
g53
(dp399
g61
I3
ssg62
g393
sg55
(lp400
S''
asbasbasbasbasbasbasbag48
(g64
g50
NtRp401
(dp402
g53
(dp403
sg62
g225
sg55
(lp404
g48
(g69
g50
NtRp405
(dp406
g53
(dp407
g73
g74
ssg62
g401
sg55
(lp408
S'session_id_gabb1'
p409
asbag48
(g69
g50
NtRp410
(dp411
g53
(dp412
g80
g81
ssg62
g401
sg55
(lp413
S':'
asbag48
(g69
g50
NtRp414
(dp415
g53
(dp416
sg62
g401
sg55
(lp417
g48
(g49
g50
NtRp418
(dp419
g53
(dp420
g61
I4
ssg62
g414
sg55
(lp421
g48
(g57
g50
NtRp422
(dp423
g53
(dp424
g61
I3
ssg62
Nsg55
(lp425
g48
(g64
g50
NtRp426
(dp427
g53
(dp428
sg62
g422
sg55
(lp429
g48
(g69
g50
NtRp430
(dp431
g53
(dp432
g73
g74
ssg62
g426
sg55
(lp433
g262
asbag48
(g69
g50
NtRp434
(dp435
g53
(dp436
g80
g81
ssg62
g426
sg55
(lp437
S':'
asbag48
(g69
g50
NtRp438
(dp439
g53
(dp440
sg62
g426
sg55
(lp441
g48
(g49
g50
NtRp442
(dp443
g53
(dp444
g61
I3
ssg62
g438
sg55
(lp445
S''
asbasbasbag48
(g64
g50
NtRp446
(dp447
g53
(dp448
sg62
g422
sg55
(lp449
g48
(g69
g50
NtRp450
(dp451
g53
(dp452
g73
g74
ssg62
g446
sg55
(lp453
g283
asbag48
(g69
g50
NtRp454
(dp455
g53
(dp456
g80
g81
ssg62
g446
sg55
(lp457
S':'
asbag48
(g69
g50
NtRp458
(dp459
g53
(dp460
sg62
g446
sg55
(lp461
g48
(g49
g50
NtRp462
(dp463
g53
(dp464
g61
I3
ssg62
g458
sg55
(lp465
S''
asbasbasbag48
(g64
g50
NtRp466
(dp467
g53
(dp468
sg62
g422
sg55
(lp469
g48
(g69
g50
NtRp470
(dp471
g53
(dp472
g73
g74
ssg62
g466
sg55
(lp473
g304
asbag48
(g69
g50
NtRp474
(dp475
g53
(dp476
g80
g81
ssg62
g466
sg55
(lp477
S':'
asbag48
(g69
g50
NtRp478
(dp479
g53
(dp480
sg62
g466
sg55
(lp481
g48
(g49
g50
NtRp482
(dp483
g53
(dp484
g61
I3
ssg62
g478
sg55
(lp485
S''
asbasbasbag48
(g64
g50
NtRp486
(dp487
g53
(dp488
sg62
g422
sg55
(lp489
g48
(g69
g50
NtRp490
(dp491
g53
(dp492
g73
g74
ssg62
g486
sg55
(lp493
g325
asbag48
(g69
g50
NtRp494
(dp495
g53
(dp496
g80
g81
ssg62
g486
sg55
(lp497
S':'
asbag48
(g69
g50
NtRp498
(dp499
g53
(dp500
sg62
g486
sg55
(lp501
g48
(g49
g50
NtRp502
(dp503
g53
(dp504
g61
I3
ssg62
g498
sg55
(lp505
S''
asbasbasbag48
(g64
g50
NtRp506
(dp507
g53
(dp508
sg62
g422
sg55
(lp509
g48
(g69
g50
NtRp510
(dp511
g53
(dp512
g73
g74
ssg62
g506
sg55
(lp513
g346
asbag48
(g69
g50
NtRp514
(dp515
g53
(dp516
g80
g81
ssg62
g506
sg55
(lp517
S':'
asbag48
(g69
g50
NtRp518
(dp519
g53
(dp520
sg62
g506
sg55
(lp521
g48
(g49
g50
NtRp522
(dp523
g53
(dp524
g61
I3
ssg62
g518
sg55
(lp525
S''
asbasbasbag48
(g64
g50
NtRp526
(dp527
g53
(dp528
sg62
g422
sg55
(lp529
g48
(g69
g50
NtRp530
(dp531
g53
(dp532
g73
g74
ssg62
g526
sg55
(lp533
g367
asbag48
(g69
g50
NtRp534
(dp535
g53
(dp536
g80
g81
ssg62
g526
sg55
(lp537
S':'
asbag48
(g69
g50
NtRp538
(dp539
g53
(dp540
sg62
g526
sg55
(lp541
g48
(g49
g50
NtRp542
(dp543
g53
(dp544
g61
I3
ssg62
g538
sg55
(lp545
S''
asbasbasbag48
(g64
g50
NtRp546
(dp547
g53
(dp548
sg62
g422
sg55
(lp549
g48
(g69
g50
NtRp550
(dp551
g53
(dp552
g73
g74
ssg62
g546
sg55
(lp553
g388
asbag48
(g69
g50
NtRp554
(dp555
g53
(dp556
g80
g81
ssg62
g546
sg55
(lp557
S':'
asbag48
(g69
g50
NtRp558
(dp559
g53
(dp560
sg62
g546
sg55
(lp561
g48
(g49
g50
NtRp562
(dp563
g53
(dp564
g61
I3
ssg62
g558
sg55
(lp565
S''
asbasbasbasbasbasbasbag48
(g64
g50
NtRp566
(dp567
g53
(dp568
sg62
g225
sg55
(lp569
g48
(g69
g50
NtRp570
(dp571
g53
(dp572
g73
g74
ssg62
g566
sg55
(lp573
S'session_id_welcome'
p574
asbag48
(g69
g50
NtRp575
(dp576
g53
(dp577
g80
g81
ssg62
g566
sg55
(lp578
S':'
asbag48
(g69
g50
NtRp579
(dp580
g53
(dp581
sg62
g566
sg55
(lp582
g48
(g49
g50
NtRp583
(dp584
g53
(dp585
g61
I4
ssg62
g579
sg55
(lp586
g48
(g57
g50
NtRp587
(dp588
g53
(dp589
g61
I3
ssg62
Nsg55
(lp590
g48
(g64
g50
NtRp591
(dp592
g53
(dp593
sg62
g587
sg55
(lp594
g48
(g69
g50
NtRp595
(dp596
g53
(dp597
g73
g74
ssg62
g591
sg55
(lp598
g262
asbag48
(g69
g50
NtRp599
(dp600
g53
(dp601
g80
g81
ssg62
g591
sg55
(lp602
S':'
asbag48
(g69
g50
NtRp603
(dp604
g53
(dp605
sg62
g591
sg55
(lp606
g48
(g49
g50
NtRp607
(dp608
g53
(dp609
g61
I3
ssg62
g603
sg55
(lp610
S''
asbasbasbag48
(g64
g50
NtRp611
(dp612
g53
(dp613
sg62
g587
sg55
(lp614
g48
(g69
g50
NtRp615
(dp616
g53
(dp617
g73
g74
ssg62
g611
sg55
(lp618
g283
asbag48
(g69
g50
NtRp619
(dp620
g53
(dp621
g80
g81
ssg62
g611
sg55
(lp622
S':'
asbag48
(g69
g50
NtRp623
(dp624
g53
(dp625
sg62
g611
sg55
(lp626
g48
(g49
g50
NtRp627
(dp628
g53
(dp629
g61
I3
ssg62
g623
sg55
(lp630
S''
asbasbasbag48
(g64
g50
NtRp631
(dp632
g53
(dp633
sg62
g587
sg55
(lp634
g48
(g69
g50
NtRp635
(dp636
g53
(dp637
g73
g74
ssg62
g631
sg55
(lp638
g304
asbag48
(g69
g50
NtRp639
(dp640
g53
(dp641
g80
g81
ssg62
g631
sg55
(lp642
S':'
asbag48
(g69
g50
NtRp643
(dp644
g53
(dp645
sg62
g631
sg55
(lp646
g48
(g49
g50
NtRp647
(dp648
g53
(dp649
g61
I3
ssg62
g643
sg55
(lp650
S''
asbasbasbag48
(g64
g50
NtRp651
(dp652
g53
(dp653
sg62
g587
sg55
(lp654
g48
(g69
g50
NtRp655
(dp656
g53
(dp657
g73
g74
ssg62
g651
sg55
(lp658
g325
asbag48
(g69
g50
NtRp659
(dp660
g53
(dp661
g80
g81
ssg62
g651
sg55
(lp662
S':'
asbag48
(g69
g50
NtRp663
(dp664
g53
(dp665
sg62
g651
sg55
(lp666
g48
(g49
g50
NtRp667
(dp668
g53
(dp669
g61
I3
ssg62
g663
sg55
(lp670
S''
asbasbasbag48
(g64
g50
NtRp671
(dp672
g53
(dp673
sg62
g587
sg55
(lp674
g48
(g69
g50
NtRp675
(dp676
g53
(dp677
g73
g74
ssg62
g671
sg55
(lp678
g346
asbag48
(g69
g50
NtRp679
(dp680
g53
(dp681
g80
g81
ssg62
g671
sg55
(lp682
S':'
asbag48
(g69
g50
NtRp683
(dp684
g53
(dp685
sg62
g671
sg55
(lp686
g48
(g49
g50
NtRp687
(dp688
g53
(dp689
g61
I3
ssg62
g683
sg55
(lp690
S''
asbasbasbag48
(g64
g50
NtRp691
(dp692
g53
(dp693
sg62
g587
sg55
(lp694
g48
(g69
g50
NtRp695
(dp696
g53
(dp697
g73
g74
ssg62
g691
sg55
(lp698
g367
asbag48
(g69
g50
NtRp699
(dp700
g53
(dp701
g80
g81
ssg62
g691
sg55
(lp702
S':'
asbag48
(g69
g50
NtRp703
(dp704
g53
(dp705
sg62
g691
sg55
(lp706
g48
(g49
g50
NtRp707
(dp708
g53
(dp709
g61
I3
ssg62
g703
sg55
(lp710
S''
asbasbasbag48
(g64
g50
NtRp711
(dp712
g53
(dp713
sg62
g587
sg55
(lp714
g48
(g69
g50
NtRp715
(dp716
g53
(dp717
g73
g74
ssg62
g711
sg55
(lp718
g388
asbag48
(g69
g50
NtRp719
(dp720
g53
(dp721
g80
g81
ssg62
g711
sg55
(lp722
S':'
asbag48
(g69
g50
NtRp723
(dp724
g53
(dp725
sg62
g711
sg55
(lp726
g48
(g49
g50
NtRp727
(dp728
g53
(dp729
g61
I3
ssg62
g723
sg55
(lp730
S''
asbasbasbasbasbasbasbasbasbasbasbag48
(g64
g50
NtRp731
(dp732
g53
(dp733
sg62
g58
sg55
(lp734
g48
(g69
g50
NtRp735
(dp736
g53
(dp737
g73
g74
ssg62
g731
sg55
(lp738
S'env'
p739
asbag48
(g69
g50
NtRp740
(dp741
g53
(dp742
g80
g81
ssg62
g731
sg55
(lp743
S':'
asbag48
(g69
g50
NtRp744
(dp745
g53
(dp746
sg62
g731
sg55
(lp747
g48
(g49
g50
NtRp748
(dp749
g53
(dp750
g61
I5
ssg62
g744
sg55
(lp751
g48
(g57
g50
NtRp752
(dp753
g53
(dp754
g61
I4
ssg62
Nsg55
(lp755
g48
(g64
g50
NtRp756
(dp757
g53
(dp758
sg62
g752
sg55
(lp759
g48
(g69
g50
NtRp760
(dp761
g53
(dp762
g73
g74
ssg62
g756
sg55
(lp763
S'app_folders'
p764
asbag48
(g69
g50
NtRp765
(dp766
g53
(dp767
g80
g81
ssg62
g756
sg55
(lp768
S':'
asbag48
(g69
g50
NtRp769
(dp770
g53
(dp771
sg62
g756
sg55
(lp772
g48
(g49
g50
NtRp773
(dp774
g53
(dp775
g61
I4
ssg62
g769
sg55
(lp776
S"set(['D:\\\\git_projs\\\\Gabblista\\\\web2py\\\\web2py\\\\applications\\\\Gabb1\\\\', 'D:\\\\git_projs\\\\Gabblista\\\\web2py\\\\web2py\\\\applications\\\\admin\\\\', 'D:\\\\git_projs\\\\Gabblista\\\\web2py\\\\web2py\\\\applications\\\\welcome\\\\'])"
p777
asbasbasbag48
(g64
g50
NtRp778
(dp779
g53
(dp780
sg62
g752
sg55
(lp781
g48
(g69
g50
NtRp782
(dp783
g53
(dp784
g73
g74
ssg62
g778
sg55
(lp785
S'applications_parent'
p786
asbag48
(g69
g50
NtRp787
(dp788
g53
(dp789
g80
g81
ssg62
g778
sg55
(lp790
S':'
asbag48
(g69
g50
NtRp791
(dp792
g53
(dp793
sg62
g778
sg55
(lp794
g48
(g49
g50
NtRp795
(dp796
g53
(dp797
g61
I4
ssg62
g791
sg55
(lp798
S'D:\\git_projs\\Gabblista\\web2py\\web2py'
p799
asbasbasbag48
(g64
g50
NtRp800
(dp801
g53
(dp802
sg62
g752
sg55
(lp803
g48
(g69
g50
NtRp804
(dp805
g53
(dp806
g73
g74
ssg62
g800
sg55
(lp807
S'cmd_args'
p808
asbag48
(g69
g50
NtRp809
(dp810
g53
(dp811
g80
g81
ssg62
g800
sg55
(lp812
S':'
asbag48
(g69
g50
NtRp813
(dp814
g53
(dp815
sg62
g800
sg55
(lp816
g48
(g49
g50
NtRp817
(dp818
g53
(dp819
g61
I4
ssg62
g813
sg55
(lp820
g48
(g57
g50
NtRp821
(dp822
g53
(dp823
g61
I3
ssg62
Nsg55
(lp824
sbasbasbasbag48
(g64
g50
NtRp825
(dp826
g53
(dp827
sg62
g752
sg55
(lp828
g48
(g69
g50
NtRp829
(dp830
g53
(dp831
g73
g74
ssg62
g825
sg55
(lp832
S'cmd_options'
p833
asbag48
(g69
g50
NtRp834
(dp835
g53
(dp836
g80
g81
ssg62
g825
sg55
(lp837
S':'
asbag48
(g69
g50
NtRp838
(dp839
g53
(dp840
sg62
g825
sg55
(lp841
g48
(g49
g50
NtRp842
(dp843
g53
(dp844
g61
I4
ssg62
g838
sg55
(lp845
S"<Values at 0x36fc3c8: {'verbose': False, 'ip': '127.0.0.1', 'shutdown_timeout': 5, 'taskbar': False, 'nocron': False, 'pid_filename': 'httpserver.pid', 'maxthreads': None, 'softcron': False, 'server_name': 'John-PC', 'bpython': False, 'nogui': False, 'port': 8000, 'extcron': False, 'debuglevel': 30, 'test': None, 'folder': 'D:\\\\git_projs\\\\Gabblista\\\\web2py\\\\web2py', 'config': '', 'import_models': False, 'winservice': '', 'shell': None, 'run': '', 'log_filename': 'httpserver.log', 'args': [''], 'ssl_ca_certificate': None, 'scheduler': None, 'profiler_filename': None, 'ssl_private_key': '', 'password': '<ask>', 'request_queue_size': 5, 'ssl_certificate': '', 'cronjob': False, 'plain': False, 'quiet': False, 'interfaces': None, 'minthreads': None, 'timeout': 10, 'numthreads': None, 'nobanner': False}>"
p846
asbasbasbag48
(g64
g50
NtRp847
(dp848
g53
(dp849
sg62
g752
sg55
(lp850
g48
(g69
g50
NtRp851
(dp852
g53
(dp853
g73
g74
ssg62
g847
sg55
(lp854
S'db_sessions'
p855
asbag48
(g69
g50
NtRp856
(dp857
g53
(dp858
g80
g81
ssg62
g847
sg55
(lp859
S':'
asbag48
(g69
g50
NtRp860
(dp861
g53
(dp862
sg62
g847
sg55
(lp863
g48
(g49
g50
NtRp864
(dp865
g53
(dp866
g61
I4
ssg62
g860
sg55
(lp867
S'set([])'
p868
asbasbasbag48
(g64
g50
NtRp869
(dp870
g53
(dp871
sg62
g752
sg55
(lp872
g48
(g69
g50
NtRp873
(dp874
g53
(dp875
g73
g74
ssg62
g869
sg55
(lp876
S'debugging'
p877
asbag48
(g69
g50
NtRp878
(dp879
g53
(dp880
g80
g81
ssg62
g869
sg55
(lp881
S':'
asbag48
(g69
g50
NtRp882
(dp883
g53
(dp884
sg62
g869
sg55
(lp885
g48
(g49
g50
NtRp886
(dp887
g53
(dp888
g61
I4
ssg62
g882
sg55
(lp889
g91
asbasbasbag48
(g64
g50
NtRp890
(dp891
g53
(dp892
sg62
g752
sg55
(lp893
g48
(g69
g50
NtRp894
(dp895
g53
(dp896
g73
g74
ssg62
g890
sg55
(lp897
S'gluon_parent'
p898
asbag48
(g69
g50
NtRp899
(dp900
g53
(dp901
g80
g81
ssg62
g890
sg55
(lp902
S':'
asbag48
(g69
g50
NtRp903
(dp904
g53
(dp905
sg62
g890
sg55
(lp906
g48
(g49
g50
NtRp907
(dp908
g53
(dp909
g61
I4
ssg62
g903
sg55
(lp910
S'D:\\git_projs\\Gabblista\\web2py\\web2py'
p911
asbasbasbag48
(g64
g50
NtRp912
(dp913
g53
(dp914
sg62
g752
sg55
(lp915
g48
(g69
g50
NtRp916
(dp917
g53
(dp918
g73
g74
ssg62
g912
sg55
(lp919
S'http_accept'
p920
asbag48
(g69
g50
NtRp921
(dp922
g53
(dp923
g80
g81
ssg62
g912
sg55
(lp924
S':'
asbag48
(g69
g50
NtRp925
(dp926
g53
(dp927
sg62
g912
sg55
(lp928
g48
(g49
g50
NtRp929
(dp930
g53
(dp931
g61
I4
ssg62
g925
sg55
(lp932
S'text/html,application/xhtml+xml,application/xml;q=0.9,*/*;q=0.8'
p933
asbasbasbag48
(g64
g50
NtRp934
(dp935
g53
(dp936
sg62
g752
sg55
(lp937
g48
(g69
g50
NtRp938
(dp939
g53
(dp940
g73
g74
ssg62
g934
sg55
(lp941
S'http_accept_charset'
p942
asbag48
(g69
g50
NtRp943
(dp944
g53
(dp945
g80
g81
ssg62
g934
sg55
(lp946
S':'
asbag48
(g69
g50
NtRp947
(dp948
g53
(dp949
sg62
g934
sg55
(lp950
g48
(g49
g50
NtRp951
(dp952
g53
(dp953
g61
I4
ssg62
g947
sg55
(lp954
S'ISO-8859-1,utf-8;q=0.7,*;q=0.3'
p955
asbasbasbag48
(g64
g50
NtRp956
(dp957
g53
(dp958
sg62
g752
sg55
(lp959
g48
(g69
g50
NtRp960
(dp961
g53
(dp962
g73
g74
ssg62
g956
sg55
(lp963
S'http_accept_encoding'
p964
asbag48
(g69
g50
NtRp965
(dp966
g53
(dp967
g80
g81
ssg62
g956
sg55
(lp968
S':'
asbag48
(g69
g50
NtRp969
(dp970
g53
(dp971
sg62
g956
sg55
(lp972
g48
(g49
g50
NtRp973
(dp974
g53
(dp975
g61
I4
ssg62
g969
sg55
(lp976
S'gzip,deflate,sdch'
p977
asbasbasbag48
(g64
g50
NtRp978
(dp979
g53
(dp980
sg62
g752
sg55
(lp981
g48
(g69
g50
NtRp982
(dp983
g53
(dp984
g73
g74
ssg62
g978
sg55
(lp985
S'http_accept_language'
p986
asbag48
(g69
g50
NtRp987
(dp988
g53
(dp989
g80
g81
ssg62
g978
sg55
(lp990
S':'
asbag48
(g69
g50
NtRp991
(dp992
g53
(dp993
sg62
g978
sg55
(lp994
g48
(g49
g50
NtRp995
(dp996
g53
(dp997
g61
I4
ssg62
g991
sg55
(lp998
S'en-US,en;q=0.8'
p999
asbasbasbag48
(g64
g50
NtRp1000
(dp1001
g53
(dp1002
sg62
g752
sg55
(lp1003
g48
(g69
g50
NtRp1004
(dp1005
g53
(dp1006
g73
g74
ssg62
g1000
sg55
(lp1007
S'http_cache_control'
p1008
asbag48
(g69
g50
NtRp1009
(dp1010
g53
(dp1011
g80
g81
ssg62
g1000
sg55
(lp1012
S':'
asbag48
(g69
g50
NtRp1013
(dp1014
g53
(dp1015
sg62
g1000
sg55
(lp1016
g48
(g49
g50
NtRp1017
(dp1018
g53
(dp1019
g61
I4
ssg62
g1013
sg55
(lp1020
S'max-age=0'
p1021
asbasbasbag48
(g64
g50
NtRp1022
(dp1023
g53
(dp1024
sg62
g752
sg55
(lp1025
g48
(g69
g50
NtRp1026
(dp1027
g53
(dp1028
g73
g74
ssg62
g1022
sg55
(lp1029
S'http_connection'
p1030
asbag48
(g69
g50
NtRp1031
(dp1032
g53
(dp1033
g80
g81
ssg62
g1022
sg55
(lp1034
S':'
asbag48
(g69
g50
NtRp1035
(dp1036
g53
(dp1037
sg62
g1022
sg55
(lp1038
g48
(g49
g50
NtRp1039
(dp1040
g53
(dp1041
g61
I4
ssg62
g1035
sg55
(lp1042
S'keep-alive'
p1043
asbasbasbag48
(g64
g50
NtRp1044
(dp1045
g53
(dp1046
sg62
g752
sg55
(lp1047
g48
(g69
g50
NtRp1048
(dp1049
g53
(dp1050
g73
g74
ssg62
g1044
sg55
(lp1051
S'http_cookie'
p1052
asbag48
(g69
g50
NtRp1053
(dp1054
g53
(dp1055
g80
g81
ssg62
g1044
sg55
(lp1056
S':'
asbag48
(g69
g50
NtRp1057
(dp1058
g53
(dp1059
sg62
g1044
sg55
(lp1060
g48
(g49
g50
NtRp1061
(dp1062
g53
(dp1063
g61
I4
ssg62
g1057
sg55
(lp1064
S'session_id_welcome=127.0.0.1-a4f32c6f-d04a-428c-9fe4-3d0041e1119e; session_id_gabb1=127.0.0.1-e8ee158a-b502-4c37-bb34-17d2e93f96f3; session_id_admin=127.0.0.1-62b76528-6a42-41fc-9d79-2ae2ffed28c0'
p1065
asbasbasbag48
(g64
g50
NtRp1066
(dp1067
g53
(dp1068
sg62
g752
sg55
(lp1069
g48
(g69
g50
NtRp1070
(dp1071
g53
(dp1072
g73
g74
ssg62
g1066
sg55
(lp1073
S'http_host'
p1074
asbag48
(g69
g50
NtRp1075
(dp1076
g53
(dp1077
g80
g81
ssg62
g1066
sg55
(lp1078
S':'
asbag48
(g69
g50
NtRp1079
(dp1080
g53
(dp1081
sg62
g1066
sg55
(lp1082
g48
(g49
g50
NtRp1083
(dp1084
g53
(dp1085
g61
I4
ssg62
g1079
sg55
(lp1086
S'127.0.0.1:8000'
p1087
asbasbasbag48
(g64
g50
NtRp1088
(dp1089
g53
(dp1090
sg62
g752
sg55
(lp1091
g48
(g69
g50
NtRp1092
(dp1093
g53
(dp1094
g73
g74
ssg62
g1088
sg55
(lp1095
S'http_user_agent'
p1096
asbag48
(g69
g50
NtRp1097
(dp1098
g53
(dp1099
g80
g81
ssg62
g1088
sg55
(lp1100
S':'
asbag48
(g69
g50
NtRp1101
(dp1102
g53
(dp1103
sg62
g1088
sg55
(lp1104
g48
(g49
g50
NtRp1105
(dp1106
g53
(dp1107
g61
I4
ssg62
g1101
sg55
(lp1108
S'Mozilla/5.0 (Windows NT 6.1; WOW64) AppleWebKit/535.7 (KHTML, like Gecko) Chrome/16.0.912.75 Safari/535.7'
p1109
asbasbasbag48
(g64
g50
NtRp1110
(dp1111
g53
(dp1112
sg62
g752
sg55
(lp1113
g48
(g69
g50
NtRp1114
(dp1115
g53
(dp1116
g73
g74
ssg62
g1110
sg55
(lp1117
S'is_jython'
p1118
asbag48
(g69
g50
NtRp1119
(dp1120
g53
(dp1121
g80
g81
ssg62
g1110
sg55
(lp1122
S':'
asbag48
(g69
g50
NtRp1123
(dp1124
g53
(dp1125
sg62
g1110
sg55
(lp1126
g48
(g49
g50
NtRp1127
(dp1128
g53
(dp1129
g61
I4
ssg62
g1123
sg55
(lp1130
g91
asbasbasbag48
(g64
g50
NtRp1131
(dp1132
g53
(dp1133
sg62
g752
sg55
(lp1134
g48
(g69
g50
NtRp1135
(dp1136
g53
(dp1137
g73
g74
ssg62
g1131
sg55
(lp1138
S'path_info'
p1139
asbag48
(g69
g50
NtRp1140
(dp1141
g53
(dp1142
g80
g81
ssg62
g1131
sg55
(lp1143
S':'
asbag48
(g69
g50
NtRp1144
(dp1145
g53
(dp1146
sg62
g1131
sg55
(lp1147
g48
(g49
g50
NtRp1148
(dp1149
g53
(dp1150
g61
I4
ssg62
g1144
sg55
(lp1151
S'/Gabb1/fb_serv/serve_player_data.txt'
p1152
asbasbasbag48
(g64
g50
NtRp1153
(dp1154
g53
(dp1155
sg62
g752
sg55
(lp1156
g48
(g69
g50
NtRp1157
(dp1158
g53
(dp1159
g73
g74
ssg62
g1153
sg55
(lp1160
S'query_string'
p1161
asbag48
(g69
g50
NtRp1162
(dp1163
g53
(dp1164
g80
g81
ssg62
g1153
sg55
(lp1165
S':'
asbag48
(g69
g50
NtRp1166
(dp1167
g53
(dp1168
sg62
g1153
sg55
(lp1169
g48
(g49
g50
NtRp1170
(dp1171
g53
(dp1172
g61
I4
ssg62
g1166
sg55
(lp1173
S'test_var=blargh'
p1174
asbasbasbag48
(g64
g50
NtRp1175
(dp1176
g53
(dp1177
sg62
g752
sg55
(lp1178
g48
(g69
g50
NtRp1179
(dp1180
g53
(dp1181
g73
g74
ssg62
g1175
sg55
(lp1182
S'remote_addr'
p1183
asbag48
(g69
g50
NtRp1184
(dp1185
g53
(dp1186
g80
g81
ssg62
g1175
sg55
(lp1187
S':'
asbag48
(g69
g50
NtRp1188
(dp1189
g53
(dp1190
sg62
g1175
sg55
(lp1191
g48
(g49
g50
NtRp1192
(dp1193
g53
(dp1194
g61
I4
ssg62
g1188
sg55
(lp1195
g181
asbasbasbag48
(g64
g50
NtRp1196
(dp1197
g53
(dp1198
sg62
g752
sg55
(lp1199
g48
(g69
g50
NtRp1200
(dp1201
g53
(dp1202
g73
g74
ssg62
g1196
sg55
(lp1203
S'remote_port'
p1204
asbag48
(g69
g50
NtRp1205
(dp1206
g53
(dp1207
g80
g81
ssg62
g1196
sg55
(lp1208
S':'
asbag48
(g69
g50
NtRp1209
(dp1210
g53
(dp1211
sg62
g1196
sg55
(lp1212
g48
(g49
g50
NtRp1213
(dp1214
g53
(dp1215
g61
I4
ssg62
g1209
sg55
(lp1216
S'53480'
p1217
asbasbasbag48
(g64
g50
NtRp1218
(dp1219
g53
(dp1220
sg62
g752
sg55
(lp1221
g48
(g69
g50
NtRp1222
(dp1223
g53
(dp1224
g73
g74
ssg62
g1218
sg55
(lp1225
S'request_method'
p1226
asbag48
(g69
g50
NtRp1227
(dp1228
g53
(dp1229
g80
g81
ssg62
g1218
sg55
(lp1230
S':'
asbag48
(g69
g50
NtRp1231
(dp1232
g53
(dp1233
sg62
g1218
sg55
(lp1234
g48
(g49
g50
NtRp1235
(dp1236
g53
(dp1237
g61
I4
ssg62
g1231
sg55
(lp1238
S'GET'
p1239
asbasbasbag48
(g64
g50
NtRp1240
(dp1241
g53
(dp1242
sg62
g752
sg55
(lp1243
g48
(g69
g50
NtRp1244
(dp1245
g53
(dp1246
g73
g74
ssg62
g1240
sg55
(lp1247
S'request_uri'
p1248
asbag48
(g69
g50
NtRp1249
(dp1250
g53
(dp1251
g80
g81
ssg62
g1240
sg55
(lp1252
S':'
asbag48
(g69
g50
NtRp1253
(dp1254
g53
(dp1255
sg62
g1240
sg55
(lp1256
g48
(g49
g50
NtRp1257
(dp1258
g53
(dp1259
g61
I4
ssg62
g1253
sg55
(lp1260
S'/Gabb1/fb_serv/serve_player_data.txt?test_var=blargh'
p1261
asbasbasbag48
(g64
g50
NtRp1262
(dp1263
g53
(dp1264
sg62
g752
sg55
(lp1265
g48
(g69
g50
NtRp1266
(dp1267
g53
(dp1268
g73
g74
ssg62
g1262
sg55
(lp1269
S'script_name'
p1270
asbag48
(g69
g50
NtRp1271
(dp1272
g53
(dp1273
g80
g81
ssg62
g1262
sg55
(lp1274
S':'
asbag48
(g69
g50
NtRp1275
(dp1276
g53
(dp1277
sg62
g1262
sg55
(lp1278
g48
(g49
g50
NtRp1279
(dp1280
g53
(dp1281
g61
I4
ssg62
g1275
sg55
(lp1282
S''
asbasbasbag48
(g64
g50
NtRp1283
(dp1284
g53
(dp1285
sg62
g752
sg55
(lp1286
g48
(g69
g50
NtRp1287
(dp1288
g53
(dp1289
g73
g74
ssg62
g1283
sg55
(lp1290
S'server_name'
p1291
asbag48
(g69
g50
NtRp1292
(dp1293
g53
(dp1294
g80
g81
ssg62
g1283
sg55
(lp1295
S':'
asbag48
(g69
g50
NtRp1296
(dp1297
g53
(dp1298
sg62
g1283
sg55
(lp1299
g48
(g49
g50
NtRp1300
(dp1301
g53
(dp1302
g61
I4
ssg62
g1296
sg55
(lp1303
S'John-PC'
p1304
asbasbasbag48
(g64
g50
NtRp1305
(dp1306
g53
(dp1307
sg62
g752
sg55
(lp1308
g48
(g69
g50
NtRp1309
(dp1310
g53
(dp1311
g73
g74
ssg62
g1305
sg55
(lp1312
S'server_port'
p1313
asbag48
(g69
g50
NtRp1314
(dp1315
g53
(dp1316
g80
g81
ssg62
g1305
sg55
(lp1317
S':'
asbag48
(g69
g50
NtRp1318
(dp1319
g53
(dp1320
sg62
g1305
sg55
(lp1321
g48
(g49
g50
NtRp1322
(dp1323
g53
(dp1324
g61
I4
ssg62
g1318
sg55
(lp1325
S'8000'
p1326
asbasbasbag48
(g64
g50
NtRp1327
(dp1328
g53
(dp1329
sg62
g752
sg55
(lp1330
g48
(g69
g50
NtRp1331
(dp1332
g53
(dp1333
g73
g74
ssg62
g1327
sg55
(lp1334
S'server_protocol'
p1335
asbag48
(g69
g50
NtRp1336
(dp1337
g53
(dp1338
g80
g81
ssg62
g1327
sg55
(lp1339
S':'
asbag48
(g69
g50
NtRp1340
(dp1341
g53
(dp1342
sg62
g1327
sg55
(lp1343
g48
(g49
g50
NtRp1344
(dp1345
g53
(dp1346
g61
I4
ssg62
g1340
sg55
(lp1347
S'HTTP/1.1'
p1348
asbasbasbag48
(g64
g50
NtRp1349
(dp1350
g53
(dp1351
sg62
g752
sg55
(lp1352
g48
(g69
g50
NtRp1353
(dp1354
g53
(dp1355
g73
g74
ssg62
g1349
sg55
(lp1356
S'server_software'
p1357
asbag48
(g69
g50
NtRp1358
(dp1359
g53
(dp1360
g80
g81
ssg62
g1349
sg55
(lp1361
S':'
asbag48
(g69
g50
NtRp1362
(dp1363
g53
(dp1364
sg62
g1349
sg55
(lp1365
g48
(g49
g50
NtRp1366
(dp1367
g53
(dp1368
g61
I4
ssg62
g1362
sg55
(lp1369
S'Rocket 1.2.4'
p1370
asbasbasbag48
(g64
g50
NtRp1371
(dp1372
g53
(dp1373
sg62
g752
sg55
(lp1374
g48
(g69
g50
NtRp1375
(dp1376
g53
(dp1377
g73
g74
ssg62
g1371
sg55
(lp1378
S'web2py_crontype'
p1379
asbag48
(g69
g50
NtRp1380
(dp1381
g53
(dp1382
g80
g81
ssg62
g1371
sg55
(lp1383
S':'
asbag48
(g69
g50
NtRp1384
(dp1385
g53
(dp1386
sg62
g1371
sg55
(lp1387
g48
(g49
g50
NtRp1388
(dp1389
g53
(dp1390
g61
I4
ssg62
g1384
sg55
(lp1391
S'hard'
p1392
asbasbasbag48
(g64
g50
NtRp1393
(dp1394
g53
(dp1395
sg62
g752
sg55
(lp1396
g48
(g69
g50
NtRp1397
(dp1398
g53
(dp1399
g73
g74
ssg62
g1393
sg55
(lp1400
S'web2py_original_uri'
p1401
asbag48
(g69
g50
NtRp1402
(dp1403
g53
(dp1404
g80
g81
ssg62
g1393
sg55
(lp1405
S':'
asbag48
(g69
g50
NtRp1406
(dp1407
g53
(dp1408
sg62
g1393
sg55
(lp1409
g48
(g49
g50
NtRp1410
(dp1411
g53
(dp1412
g61
I4
ssg62
g1406
sg55
(lp1413
S'/Gabb1/fb_serv/serve_player_data.txt?test_var=blargh'
p1414
asbasbasbag48
(g64
g50
NtRp1415
(dp1416
g53
(dp1417
sg62
g752
sg55
(lp1418
g48
(g69
g50
NtRp1419
(dp1420
g53
(dp1421
g73
g74
ssg62
g1415
sg55
(lp1422
S'web2py_path'
p1423
asbag48
(g69
g50
NtRp1424
(dp1425
g53
(dp1426
g80
g81
ssg62
g1415
sg55
(lp1427
S':'
asbag48
(g69
g50
NtRp1428
(dp1429
g53
(dp1430
sg62
g1415
sg55
(lp1431
g48
(g49
g50
NtRp1432
(dp1433
g53
(dp1434
g61
I4
ssg62
g1428
sg55
(lp1435
g799
asbasbasbag48
(g64
g50
NtRp1436
(dp1437
g53
(dp1438
sg62
g752
sg55
(lp1439
g48
(g69
g50
NtRp1440
(dp1441
g53
(dp1442
g73
g74
ssg62
g1436
sg55
(lp1443
S'web2py_version'
p1444
asbag48
(g69
g50
NtRp1445
(dp1446
g53
(dp1447
g80
g81
ssg62
g1436
sg55
(lp1448
S':'
asbag48
(g69
g50
NtRp1449
(dp1450
g53
(dp1451
sg62
g1436
sg55
(lp1452
g48
(g49
g50
NtRp1453
(dp1454
g53
(dp1455
g61
I4
ssg62
g1449
sg55
(lp1456
g48
(g57
g50
NtRp1457
(dp1458
g53
(dp1459
g61
I3
ssg62
Nsg55
(lp1460
g48
(g64
g50
NtRp1461
(dp1462
g53
(dp1463
sg62
g1457
sg55
(lp1464
g48
(g69
g50
NtRp1465
(dp1466
g53
(dp1467
sg62
g1461
sg55
(lp1468
g48
(g49
g50
NtRp1469
(dp1470
g53
(dp1471
g61
I3
ssg62
g1465
sg55
(lp1472
S'1'
asbasbasbag48
(g64
g50
NtRp1473
(dp1474
g53
(dp1475
sg62
g1457
sg55
(lp1476
g48
(g69
g50
NtRp1477
(dp1478
g53
(dp1479
sg62
g1473
sg55
(lp1480
g48
(g49
g50
NtRp1481
(dp1482
g53
(dp1483
g61
I3
ssg62
g1477
sg55
(lp1484
S'99'
p1485
asbasbasbag48
(g64
g50
NtRp1486
(dp1487
g53
(dp1488
sg62
g1457
sg55
(lp1489
g48
(g69
g50
NtRp1490
(dp1491
g53
(dp1492
sg62
g1486
sg55
(lp1493
g48
(g49
g50
NtRp1494
(dp1495
g53
(dp1496
g61
I3
ssg62
g1490
sg55
(lp1497
S'2'
asbasbasbag48
(g64
g50
NtRp1498
(dp1499
g53
(dp1500
sg62
g1457
sg55
(lp1501
g48
(g69
g50
NtRp1502
(dp1503
g53
(dp1504
sg62
g1498
sg55
(lp1505
g48
(g49
g50
NtRp1506
(dp1507
g53
(dp1508
g61
I3
ssg62
g1502
sg55
(lp1509
S'datetime.datetime(2011, 9, 26, 6, 55, 33)'
p1510
asbasbasbag48
(g64
g50
NtRp1511
(dp1512
g53
(dp1513
sg62
g1457
sg55
(lp1514
g48
(g69
g50
NtRp1515
(dp1516
g53
(dp1517
sg62
g1511
sg55
(lp1518
g48
(g49
g50
NtRp1519
(dp1520
g53
(dp1521
g61
I3
ssg62
g1515
sg55
(lp1522
S'stable'
p1523
asbasbasbasbasbasbasbag48
(g64
g50
NtRp1524
(dp1525
g53
(dp1526
sg62
g752
sg55
(lp1527
g48
(g69
g50
NtRp1528
(dp1529
g53
(dp1530
g73
g74
ssg62
g1524
sg55
(lp1531
S'wsgi_errors'
p1532
asbag48
(g69
g50
NtRp1533
(dp1534
g53
(dp1535
g80
g81
ssg62
g1524
sg55
(lp1536
S':'
asbag48
(g69
g50
NtRp1537
(dp1538
g53
(dp1539
sg62
g1524
sg55
(lp1540
g48
(g49
g50
NtRp1541
(dp1542
g53
(dp1543
g61
I4
ssg62
g1537
sg55
(lp1544
S"<open file '<stderr>', mode 'w' at 0x01E400B0>"
p1545
asbasbasbag48
(g64
g50
NtRp1546
(dp1547
g53
(dp1548
sg62
g752
sg55
(lp1549
g48
(g69
g50
NtRp1550
(dp1551
g53
(dp1552
g73
g74
ssg62
g1546
sg55
(lp1553
S'wsgi_file_wrapper'
p1554
asbag48
(g69
g50
NtRp1555
(dp1556
g53
(dp1557
g80
g81
ssg62
g1546
sg55
(lp1558
S':'
asbag48
(g69
g50
NtRp1559
(dp1560
g53
(dp1561
sg62
g1546
sg55
(lp1562
g48
(g49
g50
NtRp1563
(dp1564
g53
(dp1565
g61
I4
ssg62
g1559
sg55
(lp1566
S'<class wsgiref.util.FileWrapper at 0x0373C720>'
p1567
asbasbasbag48
(g64
g50
NtRp1568
(dp1569
g53
(dp1570
sg62
g752
sg55
(lp1571
g48
(g69
g50
NtRp1572
(dp1573
g53
(dp1574
g73
g74
ssg62
g1568
sg55
(lp1575
S'wsgi_input'
p1576
asbag48
(g69
g50
NtRp1577
(dp1578
g53
(dp1579
g80
g81
ssg62
g1568
sg55
(lp1580
S':'
asbag48
(g69
g50
NtRp1581
(dp1582
g53
(dp1583
sg62
g1568
sg55
(lp1584
g48
(g49
g50
NtRp1585
(dp1586
g53
(dp1587
g61
I4
ssg62
g1581
sg55
(lp1588
S'<socket._fileobject object at 0x0337E430>'
p1589
asbasbasbag48
(g64
g50
NtRp1590
(dp1591
g53
(dp1592
sg62
g752
sg55
(lp1593
g48
(g69
g50
NtRp1594
(dp1595
g53
(dp1596
g73
g74
ssg62
g1590
sg55
(lp1597
S'wsgi_multiprocess'
p1598
asbag48
(g69
g50
NtRp1599
(dp1600
g53
(dp1601
g80
g81
ssg62
g1590
sg55
(lp1602
S':'
asbag48
(g69
g50
NtRp1603
(dp1604
g53
(dp1605
sg62
g1590
sg55
(lp1606
g48
(g49
g50
NtRp1607
(dp1608
g53
(dp1609
g61
I4
ssg62
g1603
sg55
(lp1610
g91
asbasbasbag48
(g64
g50
NtRp1611
(dp1612
g53
(dp1613
sg62
g752
sg55
(lp1614
g48
(g69
g50
NtRp1615
(dp1616
g53
(dp1617
g73
g74
ssg62
g1611
sg55
(lp1618
S'wsgi_multithread'
p1619
asbag48
(g69
g50
NtRp1620
(dp1621
g53
(dp1622
g80
g81
ssg62
g1611
sg55
(lp1623
S':'
asbag48
(g69
g50
NtRp1624
(dp1625
g53
(dp1626
sg62
g1611
sg55
(lp1627
g48
(g49
g50
NtRp1628
(dp1629
g53
(dp1630
g61
I4
ssg62
g1624
sg55
(lp1631
S'True'
p1632
asbasbasbag48
(g64
g50
NtRp1633
(dp1634
g53
(dp1635
sg62
g752
sg55
(lp1636
g48
(g69
g50
NtRp1637
(dp1638
g53
(dp1639
g73
g74
ssg62
g1633
sg55
(lp1640
S'wsgi_run_once'
p1641
asbag48
(g69
g50
NtRp1642
(dp1643
g53
(dp1644
g80
g81
ssg62
g1633
sg55
(lp1645
S':'
asbag48
(g69
g50
NtRp1646
(dp1647
g53
(dp1648
sg62
g1633
sg55
(lp1649
g48
(g49
g50
NtRp1650
(dp1651
g53
(dp1652
g61
I4
ssg62
g1646
sg55
(lp1653
g91
asbasbasbag48
(g64
g50
NtRp1654
(dp1655
g53
(dp1656
sg62
g752
sg55
(lp1657
g48
(g69
g50
NtRp1658
(dp1659
g53
(dp1660
g73
g74
ssg62
g1654
sg55
(lp1661
S'wsgi_url_scheme'
p1662
asbag48
(g69
g50
NtRp1663
(dp1664
g53
(dp1665
g80
g81
ssg62
g1654
sg55
(lp1666
S':'
asbag48
(g69
g50
NtRp1667
(dp1668
g53
(dp1669
sg62
g1654
sg55
(lp1670
g48
(g49
g50
NtRp1671
(dp1672
g53
(dp1673
g61
I4
ssg62
g1667
sg55
(lp1674
S'http'
p1675
asbasbasbag48
(g64
g50
NtRp1676
(dp1677
g53
(dp1678
sg62
g752
sg55
(lp1679
g48
(g69
g50
NtRp1680
(dp1681
g53
(dp1682
g73
g74
ssg62
g1676
sg55
(lp1683
S'wsgi_version'
p1684
asbag48
(g69
g50
NtRp1685
(dp1686
g53
(dp1687
g80
g81
ssg62
g1676
sg55
(lp1688
S':'
asbag48
(g69
g50
NtRp1689
(dp1690
g53
(dp1691
sg62
g1676
sg55
(lp1692
g48
(g49
g50
NtRp1693
(dp1694
g53
(dp1695
g61
I4
ssg62
g1689
sg55
(lp1696
g48
(g57
g50
NtRp1697
(dp1698
g53
(dp1699
g61
I3
ssg62
Nsg55
(lp1700
g48
(g64
g50
NtRp1701
(dp1702
g53
(dp1703
sg62
g1697
sg55
(lp1704
g48
(g69
g50
NtRp1705
(dp1706
g53
(dp1707
sg62
g1701
sg55
(lp1708
g48
(g49
g50
NtRp1709
(dp1710
g53
(dp1711
g61
I3
ssg62
g1705
sg55
(lp1712
S'1'
asbasbasbag48
(g64
g50
NtRp1713
(dp1714
g53
(dp1715
sg62
g1697
sg55
(lp1716
g48
(g69
g50
NtRp1717
(dp1718
g53
(dp1719
sg62
g1713
sg55
(lp1720
g48
(g49
g50
NtRp1721
(dp1722
g53
(dp1723
g61
I3
ssg62
g1717
sg55
(lp1724
S'0'
asbasbasbasbasbasbasbasbasbasbasbag48
(g64
g50
NtRp1725
(dp1726
g53
(dp1727
sg62
g58
sg55
(lp1728
g48
(g69
g50
NtRp1729
(dp1730
g53
(dp1731
g73
g74
ssg62
g1725
sg55
(lp1732
S'extension'
p1733
asbag48
(g69
g50
NtRp1734
(dp1735
g53
(dp1736
g80
g81
ssg62
g1725
sg55
(lp1737
S':'
asbag48
(g69
g50
NtRp1738
(dp1739
g53
(dp1740
sg62
g1725
sg55
(lp1741
g48
(g49
g50
NtRp1742
(dp1743
g53
(dp1744
g61
I5
ssg62
g1738
sg55
(lp1745
S'txt'
p1746
asbasbasbag48
(g64
g50
NtRp1747
(dp1748
g53
(dp1749
sg62
g58
sg55
(lp1750
g48
(g69
g50
NtRp1751
(dp1752
g53
(dp1753
g73
g74
ssg62
g1747
sg55
(lp1754
S'folder'
p1755
asbag48
(g69
g50
NtRp1756
(dp1757
g53
(dp1758
g80
g81
ssg62
g1747
sg55
(lp1759
S':'
asbag48
(g69
g50
NtRp1760
(dp1761
g53
(dp1762
sg62
g1747
sg55
(lp1763
g48
(g49
g50
NtRp1764
(dp1765
g53
(dp1766
g61
I5
ssg62
g1760
sg55
(lp1767
S'D:\\git_projs\\Gabblista\\web2py\\web2py\\applications\\Gabb1\\'
p1768
asbasbasbag48
(g64
g50
NtRp1769
(dp1770
g53
(dp1771
sg62
g58
sg55
(lp1772
g48
(g69
g50
NtRp1773
(dp1774
g53
(dp1775
g73
g74
ssg62
g1769
sg55
(lp1776
S'function'
p1777
asbag48
(g69
g50
NtRp1778
(dp1779
g53
(dp1780
g80
g81
ssg62
g1769
sg55
(lp1781
S':'
asbag48
(g69
g50
NtRp1782
(dp1783
g53
(dp1784
sg62
g1769
sg55
(lp1785
g48
(g49
g50
NtRp1786
(dp1787
g53
(dp1788
g61
I5
ssg62
g1782
sg55
(lp1789
S'serve_player_data'
p1790
asbasbasbag48
(g64
g50
NtRp1791
(dp1792
g53
(dp1793
sg62
g58
sg55
(lp1794
g48
(g69
g50
NtRp1795
(dp1796
g53
(dp1797
g73
g74
ssg62
g1791
sg55
(lp1798
S'get_vars'
p1799
asbag48
(g69
g50
NtRp1800
(dp1801
g53
(dp1802
g80
g81
ssg62
g1791
sg55
(lp1803
S':'
asbag48
(g69
g50
NtRp1804
(dp1805
g53
(dp1806
sg62
g1791
sg55
(lp1807
g48
(g49
g50
NtRp1808
(dp1809
g53
(dp1810
g61
I5
ssg62
g1804
sg55
(lp1811
g48
(g57
g50
NtRp1812
(dp1813
g53
(dp1814
g61
I4
ssg62
Nsg55
(lp1815
g48
(g64
g50
NtRp1816
(dp1817
g53
(dp1818
sg62
g1812
sg55
(lp1819
g48
(g69
g50
NtRp1820
(dp1821
g53
(dp1822
g73
g74
ssg62
g1816
sg55
(lp1823
S'test_var'
p1824
asbag48
(g69
g50
NtRp1825
(dp1826
g53
(dp1827
g80
g81
ssg62
g1816
sg55
(lp1828
S':'
asbag48
(g69
g50
NtRp1829
(dp1830
g53
(dp1831
sg62
g1816
sg55
(lp1832
g48
(g49
g50
NtRp1833
(dp1834
g53
(dp1835
g61
I4
ssg62
g1829
sg55
(lp1836
S'blargh'
p1837
asbasbasbasbasbasbasbag48
(g64
g50
NtRp1838
(dp1839
g53
(dp1840
sg62
g58
sg55
(lp1841
g48
(g69
g50
NtRp1842
(dp1843
g53
(dp1844
g73
g74
ssg62
g1838
sg55
(lp1845
S'global_settings'
p1846
asbag48
(g69
g50
NtRp1847
(dp1848
g53
(dp1849
g80
g81
ssg62
g1838
sg55
(lp1850
S':'
asbag48
(g69
g50
NtRp1851
(dp1852
g53
(dp1853
sg62
g1838
sg55
(lp1854
g48
(g49
g50
NtRp1855
(dp1856
g53
(dp1857
g61
I5
ssg62
g1851
sg55
(lp1858
g48
(g57
g50
NtRp1859
(dp1860
g53
(dp1861
g61
I4
ssg62
Nsg55
(lp1862
g48
(g64
g50
NtRp1863
(dp1864
g53
(dp1865
sg62
g1859
sg55
(lp1866
g48
(g69
g50
NtRp1867
(dp1868
g53
(dp1869
g73
g74
ssg62
g1863
sg55
(lp1870
g764
asbag48
(g69
g50
NtRp1871
(dp1872
g53
(dp1873
g80
g81
ssg62
g1863
sg55
(lp1874
S':'
asbag48
(g69
g50
NtRp1875
(dp1876
g53
(dp1877
sg62
g1863
sg55
(lp1878
g48
(g49
g50
NtRp1879
(dp1880
g53
(dp1881
g61
I4
ssg62
g1875
sg55
(lp1882
S"set(['D:\\\\git_projs\\\\Gabblista\\\\web2py\\\\web2py\\\\applications\\\\Gabb1\\\\', 'D:\\\\git_projs\\\\Gabblista\\\\web2py\\\\web2py\\\\applications\\\\admin\\\\', 'D:\\\\git_projs\\\\Gabblista\\\\web2py\\\\web2py\\\\applications\\\\welcome\\\\'])"
p1883
asbasbasbag48
(g64
g50
NtRp1884
(dp1885
g53
(dp1886
sg62
g1859
sg55
(lp1887
g48
(g69
g50
NtRp1888
(dp1889
g53
(dp1890
g73
g74
ssg62
g1884
sg55
(lp1891
g786
asbag48
(g69
g50
NtRp1892
(dp1893
g53
(dp1894
g80
g81
ssg62
g1884
sg55
(lp1895
S':'
asbag48
(g69
g50
NtRp1896
(dp1897
g53
(dp1898
sg62
g1884
sg55
(lp1899
g48
(g49
g50
NtRp1900
(dp1901
g53
(dp1902
g61
I4
ssg62
g1896
sg55
(lp1903
g799
asbasbasbag48
(g64
g50
NtRp1904
(dp1905
g53
(dp1906
sg62
g1859
sg55
(lp1907
g48
(g69
g50
NtRp1908
(dp1909
g53
(dp1910
g73
g74
ssg62
g1904
sg55
(lp1911
g808
asbag48
(g69
g50
NtRp1912
(dp1913
g53
(dp1914
g80
g81
ssg62
g1904
sg55
(lp1915
S':'
asbag48
(g69
g50
NtRp1916
(dp1917
g53
(dp1918
sg62
g1904
sg55
(lp1919
g48
(g49
g50
NtRp1920
(dp1921
g53
(dp1922
g61
I4
ssg62
g1916
sg55
(lp1923
g48
(g57
g50
NtRp1924
(dp1925
g53
(dp1926
g61
I3
ssg62
Nsg55
(lp1927
sbasbasbasbag48
(g64
g50
NtRp1928
(dp1929
g53
(dp1930
sg62
g1859
sg55
(lp1931
g48
(g69
g50
NtRp1932
(dp1933
g53
(dp1934
g73
g74
ssg62
g1928
sg55
(lp1935
g833
asbag48
(g69
g50
NtRp1936
(dp1937
g53
(dp1938
g80
g81
ssg62
g1928
sg55
(lp1939
S':'
asbag48
(g69
g50
NtRp1940
(dp1941
g53
(dp1942
sg62
g1928
sg55
(lp1943
g48
(g49
g50
NtRp1944
(dp1945
g53
(dp1946
g61
I4
ssg62
g1940
sg55
(lp1947
S"<Values at 0x36fc3c8: {'verbose': False, 'ip': '127.0.0.1', 'shutdown_timeout': 5, 'taskbar': False, 'nocron': False, 'pid_filename': 'httpserver.pid', 'maxthreads': None, 'softcron': False, 'server_name': 'John-PC', 'bpython': False, 'nogui': False, 'port': 8000, 'extcron': False, 'debuglevel': 30, 'test': None, 'folder': 'D:\\\\git_projs\\\\Gabblista\\\\web2py\\\\web2py', 'config': '', 'import_models': False, 'winservice': '', 'shell': None, 'run': '', 'log_filename': 'httpserver.log', 'args': [''], 'ssl_ca_certificate': None, 'scheduler': None, 'profiler_filename': None, 'ssl_private_key': '', 'password': '<ask>', 'request_queue_size': 5, 'ssl_certificate': '', 'cronjob': False, 'plain': False, 'quiet': False, 'interfaces': None, 'minthreads': None, 'timeout': 10, 'numthreads': None, 'nobanner': False}>"
p1948
asbasbasbag48
(g64
g50
NtRp1949
(dp1950
g53
(dp1951
sg62
g1859
sg55
(lp1952
g48
(g69
g50
NtRp1953
(dp1954
g53
(dp1955
g73
g74
ssg62
g1949
sg55
(lp1956
g855
asbag48
(g69
g50
NtRp1957
(dp1958
g53
(dp1959
g80
g81
ssg62
g1949
sg55
(lp1960
S':'
asbag48
(g69
g50
NtRp1961
(dp1962
g53
(dp1963
sg62
g1949
sg55
(lp1964
g48
(g49
g50
NtRp1965
(dp1966
g53
(dp1967
g61
I4
ssg62
g1961
sg55
(lp1968
S'set([])'
p1969
asbasbasbag48
(g64
g50
NtRp1970
(dp1971
g53
(dp1972
sg62
g1859
sg55
(lp1973
g48
(g69
g50
NtRp1974
(dp1975
g53
(dp1976
g73
g74
ssg62
g1970
sg55
(lp1977
g877
asbag48
(g69
g50
NtRp1978
(dp1979
g53
(dp1980
g80
g81
ssg62
g1970
sg55
(lp1981
S':'
asbag48
(g69
g50
NtRp1982
(dp1983
g53
(dp1984
sg62
g1970
sg55
(lp1985
g48
(g49
g50
NtRp1986
(dp1987
g53
(dp1988
g61
I4
ssg62
g1982
sg55
(lp1989
g91
asbasbasbag48
(g64
g50
NtRp1990
(dp1991
g53
(dp1992
sg62
g1859
sg55
(lp1993
g48
(g69
g50
NtRp1994
(dp1995
g53
(dp1996
g73
g74
ssg62
g1990
sg55
(lp1997
g898
asbag48
(g69
g50
NtRp1998
(dp1999
g53
(dp2000
g80
g81
ssg62
g1990
sg55
(lp2001
S':'
asbag48
(g69
g50
NtRp2002
(dp2003
g53
(dp2004
sg62
g1990
sg55
(lp2005
g48
(g49
g50
NtRp2006
(dp2007
g53
(dp2008
g61
I4
ssg62
g2002
sg55
(lp2009
g911
asbasbasbag48
(g64
g50
NtRp2010
(dp2011
g53
(dp2012
sg62
g1859
sg55
(lp2013
g48
(g69
g50
NtRp2014
(dp2015
g53
(dp2016
g73
g74
ssg62
g2010
sg55
(lp2017
g1118
asbag48
(g69
g50
NtRp2018
(dp2019
g53
(dp2020
g80
g81
ssg62
g2010
sg55
(lp2021
S':'
asbag48
(g69
g50
NtRp2022
(dp2023
g53
(dp2024
sg62
g2010
sg55
(lp2025
g48
(g49
g50
NtRp2026
(dp2027
g53
(dp2028
g61
I4
ssg62
g2022
sg55
(lp2029
g91
asbasbasbag48
(g64
g50
NtRp2030
(dp2031
g53
(dp2032
sg62
g1859
sg55
(lp2033
g48
(g69
g50
NtRp2034
(dp2035
g53
(dp2036
g73
g74
ssg62
g2030
sg55
(lp2037
g1379
asbag48
(g69
g50
NtRp2038
(dp2039
g53
(dp2040
g80
g81
ssg62
g2030
sg55
(lp2041
S':'
asbag48
(g69
g50
NtRp2042
(dp2043
g53
(dp2044
sg62
g2030
sg55
(lp2045
g48
(g49
g50
NtRp2046
(dp2047
g53
(dp2048
g61
I4
ssg62
g2042
sg55
(lp2049
g1392
asbasbasbag48
(g64
g50
NtRp2050
(dp2051
g53
(dp2052
sg62
g1859
sg55
(lp2053
g48
(g69
g50
NtRp2054
(dp2055
g53
(dp2056
g73
g74
ssg62
g2050
sg55
(lp2057
g1444
asbag48
(g69
g50
NtRp2058
(dp2059
g53
(dp2060
g80
g81
ssg62
g2050
sg55
(lp2061
S':'
asbag48
(g69
g50
NtRp2062
(dp2063
g53
(dp2064
sg62
g2050
sg55
(lp2065
g48
(g49
g50
NtRp2066
(dp2067
g53
(dp2068
g61
I4
ssg62
g2062
sg55
(lp2069
g48
(g57
g50
NtRp2070
(dp2071
g53
(dp2072
g61
I3
ssg62
Nsg55
(lp2073
g48
(g64
g50
NtRp2074
(dp2075
g53
(dp2076
sg62
g2070
sg55
(lp2077
g48
(g69
g50
NtRp2078
(dp2079
g53
(dp2080
sg62
g2074
sg55
(lp2081
g48
(g49
g50
NtRp2082
(dp2083
g53
(dp2084
g61
I3
ssg62
g2078
sg55
(lp2085
S'1'
asbasbasbag48
(g64
g50
NtRp2086
(dp2087
g53
(dp2088
sg62
g2070
sg55
(lp2089
g48
(g69
g50
NtRp2090
(dp2091
g53
(dp2092
sg62
g2086
sg55
(lp2093
g48
(g49
g50
NtRp2094
(dp2095
g53
(dp2096
g61
I3
ssg62
g2090
sg55
(lp2097
S'99'
p2098
asbasbasbag48
(g64
g50
NtRp2099
(dp2100
g53
(dp2101
sg62
g2070
sg55
(lp2102
g48
(g69
g50
NtRp2103
(dp2104
g53
(dp2105
sg62
g2099
sg55
(lp2106
g48
(g49
g50
NtRp2107
(dp2108
g53
(dp2109
g61
I3
ssg62
g2103
sg55
(lp2110
S'2'
asbasbasbag48
(g64
g50
NtRp2111
(dp2112
g53
(dp2113
sg62
g2070
sg55
(lp2114
g48
(g69
g50
NtRp2115
(dp2116
g53
(dp2117
sg62
g2111
sg55
(lp2118
g48
(g49
g50
NtRp2119
(dp2120
g53
(dp2121
g61
I3
ssg62
g2115
sg55
(lp2122
S'datetime.datetime(2011, 9, 26, 6, 55, 33)'
p2123
asbasbasbag48
(g64
g50
NtRp2124
(dp2125
g53
(dp2126
sg62
g2070
sg55
(lp2127
g48
(g69
g50
NtRp2128
(dp2129
g53
(dp2130
sg62
g2124
sg55
(lp2131
g48
(g49
g50
NtRp2132
(dp2133
g53
(dp2134
g61
I3
ssg62
g2128
sg55
(lp2135
g1523
asbasbasbasbasbasbasbasbasbasbasbag48
(g64
g50
NtRp2136
(dp2137
g53
(dp2138
sg62
g58
sg55
(lp2139
g48
(g69
g50
NtRp2140
(dp2141
g53
(dp2142
g73
g74
ssg62
g2136
sg55
(lp2143
S'is_https'
p2144
asbag48
(g69
g50
NtRp2145
(dp2146
g53
(dp2147
g80
g81
ssg62
g2136
sg55
(lp2148
S':'
asbag48
(g69
g50
NtRp2149
(dp2150
g53
(dp2151
sg62
g2136
sg55
(lp2152
g48
(g49
g50
NtRp2153
(dp2154
g53
(dp2155
g61
I5
ssg62
g2149
sg55
(lp2156
g91
asbasbasbag48
(g64
g50
NtRp2157
(dp2158
g53
(dp2159
sg62
g58
sg55
(lp2160
g48
(g69
g50
NtRp2161
(dp2162
g53
(dp2163
g73
g74
ssg62
g2157
sg55
(lp2164
S'is_local'
p2165
asbag48
(g69
g50
NtRp2166
(dp2167
g53
(dp2168
g80
g81
ssg62
g2157
sg55
(lp2169
S':'
asbag48
(g69
g50
NtRp2170
(dp2171
g53
(dp2172
sg62
g2157
sg55
(lp2173
g48
(g49
g50
NtRp2174
(dp2175
g53
(dp2176
g61
I5
ssg62
g2170
sg55
(lp2177
g1632
asbasbasbag48
(g64
g50
NtRp2178
(dp2179
g53
(dp2180
sg62
g58
sg55
(lp2181
g48
(g69
g50
NtRp2182
(dp2183
g53
(dp2184
g73
g74
ssg62
g2178
sg55
(lp2185
S'is_restful'
p2186
asbag48
(g69
g50
NtRp2187
(dp2188
g53
(dp2189
g80
g81
ssg62
g2178
sg55
(lp2190
S':'
asbag48
(g69
g50
NtRp2191
(dp2192
g53
(dp2193
sg62
g2178
sg55
(lp2194
g48
(g49
g50
NtRp2195
(dp2196
g53
(dp2197
g61
I5
ssg62
g2191
sg55
(lp2198
g91
asbasbasbag48
(g64
g50
NtRp2199
(dp2200
g53
(dp2201
sg62
g58
sg55
(lp2202
g48
(g69
g50
NtRp2203
(dp2204
g53
(dp2205
g73
g74
ssg62
g2199
sg55
(lp2206
S'now'
p2207
asbag48
(g69
g50
NtRp2208
(dp2209
g53
(dp2210
g80
g81
ssg62
g2199
sg55
(lp2211
S':'
asbag48
(g69
g50
NtRp2212
(dp2213
g53
(dp2214
sg62
g2199
sg55
(lp2215
g48
(g49
g50
NtRp2216
(dp2217
g53
(dp2218
g61
I5
ssg62
g2212
sg55
(lp2219
S'datetime.datetime(2012, 1, 18, 8, 55, 24, 707000)'
p2220
asbasbasbag48
(g64
g50
NtRp2221
(dp2222
g53
(dp2223
sg62
g58
sg55
(lp2224
g48
(g69
g50
NtRp2225
(dp2226
g53
(dp2227
g73
g74
ssg62
g2221
sg55
(lp2228
S'post_vars'
p2229
asbag48
(g69
g50
NtRp2230
(dp2231
g53
(dp2232
g80
g81
ssg62
g2221
sg55
(lp2233
S':'
asbag48
(g69
g50
NtRp2234
(dp2235
g53
(dp2236
sg62
g2221
sg55
(lp2237
g48
(g49
g50
NtRp2238
(dp2239
g53
(dp2240
g61
I5
ssg62
g2234
sg55
(lp2241
g48
(g57
g50
NtRp2242
(dp2243
g53
(dp2244
g61
I4
ssg62
Nsg55
(lp2245
sbasbasbasbag48
(g64
g50
NtRp2246
(dp2247
g53
(dp2248
sg62
g58
sg55
(lp2249
g48
(g69
g50
NtRp2250
(dp2251
g53
(dp2252
g73
g74
ssg62
g2246
sg55
(lp2253
S'raw_extension'
p2254
asbag48
(g69
g50
NtRp2255
(dp2256
g53
(dp2257
g80
g81
ssg62
g2246
sg55
(lp2258
S':'
asbag48
(g69
g50
NtRp2259
(dp2260
g53
(dp2261
sg62
g2246
sg55
(lp2262
g48
(g49
g50
NtRp2263
(dp2264
g53
(dp2265
g61
I5
ssg62
g2259
sg55
(lp2266
g1746
asbasbasbag48
(g64
g50
NtRp2267
(dp2268
g53
(dp2269
sg62
g58
sg55
(lp2270
g48
(g69
g50
NtRp2271
(dp2272
g53
(dp2273
g73
g74
ssg62
g2267
sg55
(lp2274
S'url'
p2275
asbag48
(g69
g50
NtRp2276
(dp2277
g53
(dp2278
g80
g81
ssg62
g2267
sg55
(lp2279
S':'
asbag48
(g69
g50
NtRp2280
(dp2281
g53
(dp2282
sg62
g2267
sg55
(lp2283
g48
(g49
g50
NtRp2284
(dp2285
g53
(dp2286
g61
I5
ssg62
g2280
sg55
(lp2287
S'/Gabb1/fb_serv/serve_player_data.txt'
p2288
asbasbasbag48
(g64
g50
NtRp2289
(dp2290
g53
(dp2291
sg62
g58
sg55
(lp2292
g48
(g69
g50
NtRp2293
(dp2294
g53
(dp2295
g73
g74
ssg62
g2289
sg55
(lp2296
S'utcnow'
p2297
asbag48
(g69
g50
NtRp2298
(dp2299
g53
(dp2300
g80
g81
ssg62
g2289
sg55
(lp2301
S':'
asbag48
(g69
g50
NtRp2302
(dp2303
g53
(dp2304
sg62
g2289
sg55
(lp2305
g48
(g49
g50
NtRp2306
(dp2307
g53
(dp2308
g61
I5
ssg62
g2302
sg55
(lp2309
S'datetime.datetime(2012, 1, 18, 13, 55, 24, 707000)'
p2310
asbasbasbag48
(g64
g50
NtRp2311
(dp2312
g53
(dp2313
sg62
g58
sg55
(lp2314
g48
(g69
g50
NtRp2315
(dp2316
g53
(dp2317
g73
g74
ssg62
g2311
sg55
(lp2318
S'uuid'
p2319
asbag48
(g69
g50
NtRp2320
(dp2321
g53
(dp2322
g80
g81
ssg62
g2311
sg55
(lp2323
S':'
asbag48
(g69
g50
NtRp2324
(dp2325
g53
(dp2326
sg62
g2311
sg55
(lp2327
g48
(g49
g50
NtRp2328
(dp2329
g53
(dp2330
g61
I5
ssg62
g2324
sg55
(lp2331
S'Gabb1/127.0.0.1.2012-01-18.08-55-24.779152db-7980-4457-98d2-9a645143ee77'
p2332
asbasbasbag48
(g64
g50
NtRp2333
(dp2334
g53
(dp2335
sg62
g58
sg55
(lp2336
g48
(g69
g50
NtRp2337
(dp2338
g53
(dp2339
g73
g74
ssg62
g2333
sg55
(lp2340
S'vars'
p2341
asbag48
(g69
g50
NtRp2342
(dp2343
g53
(dp2344
g80
g81
ssg62
g2333
sg55
(lp2345
S':'
asbag48
(g69
g50
NtRp2346
(dp2347
g53
(dp2348
sg62
g2333
sg55
(lp2349
g48
(g49
g50
NtRp2350
(dp2351
g53
(dp2352
g61
I5
ssg62
g2346
sg55
(lp2353
g48
(g57
g50
NtRp2354
(dp2355
g53
(dp2356
g61
I4
ssg62
Nsg55
(lp2357
g48
(g64
g50
NtRp2358
(dp2359
g53
(dp2360
sg62
g2354
sg55
(lp2361
g48
(g69
g50
NtRp2362
(dp2363
g53
(dp2364
g73
g74
ssg62
g2358
sg55
(lp2365
g1824
asbag48
(g69
g50
NtRp2366
(dp2367
g53
(dp2368
g80
g81
ssg62
g2358
sg55
(lp2369
S':'
asbag48
(g69
g50
NtRp2370
(dp2371
g53
(dp2372
sg62
g2358
sg55
(lp2373
g48
(g49
g50
NtRp2374
(dp2375
g53
(dp2376
g61
I4
ssg62
g2370
sg55
(lp2377
g1837
asbasbasbasbasbasbasbag48
(g64
g50
NtRp2378
(dp2379
g53
(dp2380
sg62
g58
sg55
(lp2381
g48
(g69
g50
NtRp2382
(dp2383
g53
(dp2384
g73
g74
ssg62
g2378
sg55
(lp2385
S'wsgi'
p2386
asbag48
(g69
g50
NtRp2387
(dp2388
g53
(dp2389
g80
g81
ssg62
g2378
sg55
(lp2390
S':'
asbag48
(g69
g50
NtRp2391
(dp2392
g53
(dp2393
sg62
g2378
sg55
(lp2394
g48
(g49
g50
NtRp2395
(dp2396
g53
(dp2397
g61
I5
ssg62
g2391
sg55
(lp2398
g48
(g57
g50
NtRp2399
(dp2400
g53
(dp2401
g61
I4
ssg62
Nsg55
(lp2402
g48
(g64
g50
NtRp2403
(dp2404
g53
(dp2405
sg62
g2399
sg55
(lp2406
g48
(g69
g50
NtRp2407
(dp2408
g53
(dp2409
g73
g74
ssg62
g2403
sg55
(lp2410
S'environ'
p2411
asbag48
(g69
g50
NtRp2412
(dp2413
g53
(dp2414
g80
g81
ssg62
g2403
sg55
(lp2415
S':'
asbag48
(g69
g50
NtRp2416
(dp2417
g53
(dp2418
sg62
g2403
sg55
(lp2419
g48
(g49
g50
NtRp2420
(dp2421
g53
(dp2422
g61
I4
ssg62
g2416
sg55
(lp2423
g48
(g57
g50
NtRp2424
(dp2425
g53
(dp2426
g61
I3
ssg62
Nsg55
(lp2427
g48
(g64
g50
NtRp2428
(dp2429
g53
(dp2430
sg62
g2424
sg55
(lp2431
g48
(g69
g50
NtRp2432
(dp2433
g53
(dp2434
g73
g74
ssg62
g2428
sg55
(lp2435
S'HTTP_ACCEPT'
p2436
asbag48
(g69
g50
NtRp2437
(dp2438
g53
(dp2439
g80
g81
ssg62
g2428
sg55
(lp2440
S':'
asbag48
(g69
g50
NtRp2441
(dp2442
g53
(dp2443
sg62
g2428
sg55
(lp2444
g48
(g49
g50
NtRp2445
(dp2446
g53
(dp2447
g61
I3
ssg62
g2441
sg55
(lp2448
g933
asbasbasbag48
(g64
g50
NtRp2449
(dp2450
g53
(dp2451
sg62
g2424
sg55
(lp2452
g48
(g69
g50
NtRp2453
(dp2454
g53
(dp2455
g73
g74
ssg62
g2449
sg55
(lp2456
S'HTTP_ACCEPT_CHARSET'
p2457
asbag48
(g69
g50
NtRp2458
(dp2459
g53
(dp2460
g80
g81
ssg62
g2449
sg55
(lp2461
S':'
asbag48
(g69
g50
NtRp2462
(dp2463
g53
(dp2464
sg62
g2449
sg55
(lp2465
g48
(g49
g50
NtRp2466
(dp2467
g53
(dp2468
g61
I3
ssg62
g2462
sg55
(lp2469
g955
asbasbasbag48
(g64
g50
NtRp2470
(dp2471
g53
(dp2472
sg62
g2424
sg55
(lp2473
g48
(g69
g50
NtRp2474
(dp2475
g53
(dp2476
g73
g74
ssg62
g2470
sg55
(lp2477
S'HTTP_ACCEPT_ENCODING'
p2478
asbag48
(g69
g50
NtRp2479
(dp2480
g53
(dp2481
g80
g81
ssg62
g2470
sg55
(lp2482
S':'
asbag48
(g69
g50
NtRp2483
(dp2484
g53
(dp2485
sg62
g2470
sg55
(lp2486
g48
(g49
g50
NtRp2487
(dp2488
g53
(dp2489
g61
I3
ssg62
g2483
sg55
(lp2490
g977
asbasbasbag48
(g64
g50
NtRp2491
(dp2492
g53
(dp2493
sg62
g2424
sg55
(lp2494
g48
(g69
g50
NtRp2495
(dp2496
g53
(dp2497
g73
g74
ssg62
g2491
sg55
(lp2498
S'HTTP_ACCEPT_LANGUAGE'
p2499
asbag48
(g69
g50
NtRp2500
(dp2501
g53
(dp2502
g80
g81
ssg62
g2491
sg55
(lp2503
S':'
asbag48
(g69
g50
NtRp2504
(dp2505
g53
(dp2506
sg62
g2491
sg55
(lp2507
g48
(g49
g50
NtRp2508
(dp2509
g53
(dp2510
g61
I3
ssg62
g2504
sg55
(lp2511
g999
asbasbasbag48
(g64
g50
NtRp2512
(dp2513
g53
(dp2514
sg62
g2424
sg55
(lp2515
g48
(g69
g50
NtRp2516
(dp2517
g53
(dp2518
g73
g74
ssg62
g2512
sg55
(lp2519
S'HTTP_CACHE_CONTROL'
p2520
asbag48
(g69
g50
NtRp2521
(dp2522
g53
(dp2523
g80
g81
ssg62
g2512
sg55
(lp2524
S':'
asbag48
(g69
g50
NtRp2525
(dp2526
g53
(dp2527
sg62
g2512
sg55
(lp2528
g48
(g49
g50
NtRp2529
(dp2530
g53
(dp2531
g61
I3
ssg62
g2525
sg55
(lp2532
g1021
asbasbasbag48
(g64
g50
NtRp2533
(dp2534
g53
(dp2535
sg62
g2424
sg55
(lp2536
g48
(g69
g50
NtRp2537
(dp2538
g53
(dp2539
g73
g74
ssg62
g2533
sg55
(lp2540
S'HTTP_CONNECTION'
p2541
asbag48
(g69
g50
NtRp2542
(dp2543
g53
(dp2544
g80
g81
ssg62
g2533
sg55
(lp2545
S':'
asbag48
(g69
g50
NtRp2546
(dp2547
g53
(dp2548
sg62
g2533
sg55
(lp2549
g48
(g49
g50
NtRp2550
(dp2551
g53
(dp2552
g61
I3
ssg62
g2546
sg55
(lp2553
g1043
asbasbasbag48
(g64
g50
NtRp2554
(dp2555
g53
(dp2556
sg62
g2424
sg55
(lp2557
g48
(g69
g50
NtRp2558
(dp2559
g53
(dp2560
g73
g74
ssg62
g2554
sg55
(lp2561
S'HTTP_COOKIE'
p2562
asbag48
(g69
g50
NtRp2563
(dp2564
g53
(dp2565
g80
g81
ssg62
g2554
sg55
(lp2566
S':'
asbag48
(g69
g50
NtRp2567
(dp2568
g53
(dp2569
sg62
g2554
sg55
(lp2570
g48
(g49
g50
NtRp2571
(dp2572
g53
(dp2573
g61
I3
ssg62
g2567
sg55
(lp2574
g1065
asbasbasbag48
(g64
g50
NtRp2575
(dp2576
g53
(dp2577
sg62
g2424
sg55
(lp2578
g48
(g69
g50
NtRp2579
(dp2580
g53
(dp2581
g73
g74
ssg62
g2575
sg55
(lp2582
S'HTTP_HOST'
p2583
asbag48
(g69
g50
NtRp2584
(dp2585
g53
(dp2586
g80
g81
ssg62
g2575
sg55
(lp2587
S':'
asbag48
(g69
g50
NtRp2588
(dp2589
g53
(dp2590
sg62
g2575
sg55
(lp2591
g48
(g49
g50
NtRp2592
(dp2593
g53
(dp2594
g61
I3
ssg62
g2588
sg55
(lp2595
g1087
asbasbasbag48
(g64
g50
NtRp2596
(dp2597
g53
(dp2598
sg62
g2424
sg55
(lp2599
g48
(g69
g50
NtRp2600
(dp2601
g53
(dp2602
g73
g74
ssg62
g2596
sg55
(lp2603
S'HTTP_USER_AGENT'
p2604
asbag48
(g69
g50
NtRp2605
(dp2606
g53
(dp2607
g80
g81
ssg62
g2596
sg55
(lp2608
S':'
asbag48
(g69
g50
NtRp2609
(dp2610
g53
(dp2611
sg62
g2596
sg55
(lp2612
g48
(g49
g50
NtRp2613
(dp2614
g53
(dp2615
g61
I3
ssg62
g2609
sg55
(lp2616
g1109
asbasbasbag48
(g64
g50
NtRp2617
(dp2618
g53
(dp2619
sg62
g2424
sg55
(lp2620
g48
(g69
g50
NtRp2621
(dp2622
g53
(dp2623
g73
g74
ssg62
g2617
sg55
(lp2624
S'PATH_INFO'
p2625
asbag48
(g69
g50
NtRp2626
(dp2627
g53
(dp2628
g80
g81
ssg62
g2617
sg55
(lp2629
S':'
asbag48
(g69
g50
NtRp2630
(dp2631
g53
(dp2632
sg62
g2617
sg55
(lp2633
g48
(g49
g50
NtRp2634
(dp2635
g53
(dp2636
g61
I3
ssg62
g2630
sg55
(lp2637
g1152
asbasbasbag48
(g64
g50
NtRp2638
(dp2639
g53
(dp2640
sg62
g2424
sg55
(lp2641
g48
(g69
g50
NtRp2642
(dp2643
g53
(dp2644
g73
g74
ssg62
g2638
sg55
(lp2645
S'QUERY_STRING'
p2646
asbag48
(g69
g50
NtRp2647
(dp2648
g53
(dp2649
g80
g81
ssg62
g2638
sg55
(lp2650
S':'
asbag48
(g69
g50
NtRp2651
(dp2652
g53
(dp2653
sg62
g2638
sg55
(lp2654
g48
(g49
g50
NtRp2655
(dp2656
g53
(dp2657
g61
I3
ssg62
g2651
sg55
(lp2658
g1174
asbasbasbag48
(g64
g50
NtRp2659
(dp2660
g53
(dp2661
sg62
g2424
sg55
(lp2662
g48
(g69
g50
NtRp2663
(dp2664
g53
(dp2665
g73
g74
ssg62
g2659
sg55
(lp2666
S'REMOTE_ADDR'
p2667
asbag48
(g69
g50
NtRp2668
(dp2669
g53
(dp2670
g80
g81
ssg62
g2659
sg55
(lp2671
S':'
asbag48
(g69
g50
NtRp2672
(dp2673
g53
(dp2674
sg62
g2659
sg55
(lp2675
g48
(g49
g50
NtRp2676
(dp2677
g53
(dp2678
g61
I3
ssg62
g2672
sg55
(lp2679
g181
asbasbasbag48
(g64
g50
NtRp2680
(dp2681
g53
(dp2682
sg62
g2424
sg55
(lp2683
g48
(g69
g50
NtRp2684
(dp2685
g53
(dp2686
g73
g74
ssg62
g2680
sg55
(lp2687
S'REMOTE_PORT'
p2688
asbag48
(g69
g50
NtRp2689
(dp2690
g53
(dp2691
g80
g81
ssg62
g2680
sg55
(lp2692
S':'
asbag48
(g69
g50
NtRp2693
(dp2694
g53
(dp2695
sg62
g2680
sg55
(lp2696
g48
(g49
g50
NtRp2697
(dp2698
g53
(dp2699
g61
I3
ssg62
g2693
sg55
(lp2700
g1217
asbasbasbag48
(g64
g50
NtRp2701
(dp2702
g53
(dp2703
sg62
g2424
sg55
(lp2704
g48
(g69
g50
NtRp2705
(dp2706
g53
(dp2707
g73
g74
ssg62
g2701
sg55
(lp2708
S'REQUEST_METHOD'
p2709
asbag48
(g69
g50
NtRp2710
(dp2711
g53
(dp2712
g80
g81
ssg62
g2701
sg55
(lp2713
S':'
asbag48
(g69
g50
NtRp2714
(dp2715
g53
(dp2716
sg62
g2701
sg55
(lp2717
g48
(g49
g50
NtRp2718
(dp2719
g53
(dp2720
g61
I3
ssg62
g2714
sg55
(lp2721
g1239
asbasbasbag48
(g64
g50
NtRp2722
(dp2723
g53
(dp2724
sg62
g2424
sg55
(lp2725
g48
(g69
g50
NtRp2726
(dp2727
g53
(dp2728
g73
g74
ssg62
g2722
sg55
(lp2729
S'REQUEST_URI'
p2730
asbag48
(g69
g50
NtRp2731
(dp2732
g53
(dp2733
g80
g81
ssg62
g2722
sg55
(lp2734
S':'
asbag48
(g69
g50
NtRp2735
(dp2736
g53
(dp2737
sg62
g2722
sg55
(lp2738
g48
(g49
g50
NtRp2739
(dp2740
g53
(dp2741
g61
I3
ssg62
g2735
sg55
(lp2742
g1261
asbasbasbag48
(g64
g50
NtRp2743
(dp2744
g53
(dp2745
sg62
g2424
sg55
(lp2746
g48
(g69
g50
NtRp2747
(dp2748
g53
(dp2749
g73
g74
ssg62
g2743
sg55
(lp2750
S'SCRIPT_NAME'
p2751
asbag48
(g69
g50
NtRp2752
(dp2753
g53
(dp2754
g80
g81
ssg62
g2743
sg55
(lp2755
S':'
asbag48
(g69
g50
NtRp2756
(dp2757
g53
(dp2758
sg62
g2743
sg55
(lp2759
g48
(g49
g50
NtRp2760
(dp2761
g53
(dp2762
g61
I3
ssg62
g2756
sg55
(lp2763
S''
asbasbasbag48
(g64
g50
NtRp2764
(dp2765
g53
(dp2766
sg62
g2424
sg55
(lp2767
g48
(g69
g50
NtRp2768
(dp2769
g53
(dp2770
g73
g74
ssg62
g2764
sg55
(lp2771
S'SERVER_NAME'
p2772
asbag48
(g69
g50
NtRp2773
(dp2774
g53
(dp2775
g80
g81
ssg62
g2764
sg55
(lp2776
S':'
asbag48
(g69
g50
NtRp2777
(dp2778
g53
(dp2779
sg62
g2764
sg55
(lp2780
g48
(g49
g50
NtRp2781
(dp2782
g53
(dp2783
g61
I3
ssg62
g2777
sg55
(lp2784
g1304
asbasbasbag48
(g64
g50
NtRp2785
(dp2786
g53
(dp2787
sg62
g2424
sg55
(lp2788
g48
(g69
g50
NtRp2789
(dp2790
g53
(dp2791
g73
g74
ssg62
g2785
sg55
(lp2792
S'SERVER_PORT'
p2793
asbag48
(g69
g50
NtRp2794
(dp2795
g53
(dp2796
g80
g81
ssg62
g2785
sg55
(lp2797
S':'
asbag48
(g69
g50
NtRp2798
(dp2799
g53
(dp2800
sg62
g2785
sg55
(lp2801
g48
(g49
g50
NtRp2802
(dp2803
g53
(dp2804
g61
I3
ssg62
g2798
sg55
(lp2805
g1326
asbasbasbag48
(g64
g50
NtRp2806
(dp2807
g53
(dp2808
sg62
g2424
sg55
(lp2809
g48
(g69
g50
NtRp2810
(dp2811
g53
(dp2812
g73
g74
ssg62
g2806
sg55
(lp2813
S'SERVER_PROTOCOL'
p2814
asbag48
(g69
g50
NtRp2815
(dp2816
g53
(dp2817
g80
g81
ssg62
g2806
sg55
(lp2818
S':'
asbag48
(g69
g50
NtRp2819
(dp2820
g53
(dp2821
sg62
g2806
sg55
(lp2822
g48
(g49
g50
NtRp2823
(dp2824
g53
(dp2825
g61
I3
ssg62
g2819
sg55
(lp2826
g1348
asbasbasbag48
(g64
g50
NtRp2827
(dp2828
g53
(dp2829
sg62
g2424
sg55
(lp2830
g48
(g69
g50
NtRp2831
(dp2832
g53
(dp2833
g73
g74
ssg62
g2827
sg55
(lp2834
S'SERVER_SOFTWARE'
p2835
asbag48
(g69
g50
NtRp2836
(dp2837
g53
(dp2838
g80
g81
ssg62
g2827
sg55
(lp2839
S':'
asbag48
(g69
g50
NtRp2840
(dp2841
g53
(dp2842
sg62
g2827
sg55
(lp2843
g48
(g49
g50
NtRp2844
(dp2845
g53
(dp2846
g61
I3
ssg62
g2840
sg55
(lp2847
g1370
asbasbasbag48
(g64
g50
NtRp2848
(dp2849
g53
(dp2850
sg62
g2424
sg55
(lp2851
g48
(g69
g50
NtRp2852
(dp2853
g53
(dp2854
g73
g74
ssg62
g2848
sg55
(lp2855
S'WEB2PY_ORIGINAL_URI'
p2856
asbag48
(g69
g50
NtRp2857
(dp2858
g53
(dp2859
g80
g81
ssg62
g2848
sg55
(lp2860
S':'
asbag48
(g69
g50
NtRp2861
(dp2862
g53
(dp2863
sg62
g2848
sg55
(lp2864
g48
(g49
g50
NtRp2865
(dp2866
g53
(dp2867
g61
I3
ssg62
g2861
sg55
(lp2868
g1414
asbasbasbag48
(g64
g50
NtRp2869
(dp2870
g53
(dp2871
sg62
g2424
sg55
(lp2872
g48
(g69
g50
NtRp2873
(dp2874
g53
(dp2875
g73
g74
ssg62
g2869
sg55
(lp2876
S'wsgi.errors'
p2877
asbag48
(g69
g50
NtRp2878
(dp2879
g53
(dp2880
g80
g81
ssg62
g2869
sg55
(lp2881
S':'
asbag48
(g69
g50
NtRp2882
(dp2883
g53
(dp2884
sg62
g2869
sg55
(lp2885
g48
(g49
g50
NtRp2886
(dp2887
g53
(dp2888
g61
I3
ssg62
g2882
sg55
(lp2889
S"<open file '<stderr>', mode 'w' at 0x01E400B0>"
p2890
asbasbasbag48
(g64
g50
NtRp2891
(dp2892
g53
(dp2893
sg62
g2424
sg55
(lp2894
g48
(g69
g50
NtRp2895
(dp2896
g53
(dp2897
g73
g74
ssg62
g2891
sg55
(lp2898
S'wsgi.file_wrapper'
p2899
asbag48
(g69
g50
NtRp2900
(dp2901
g53
(dp2902
g80
g81
ssg62
g2891
sg55
(lp2903
S':'
asbag48
(g69
g50
NtRp2904
(dp2905
g53
(dp2906
sg62
g2891
sg55
(lp2907
g48
(g49
g50
NtRp2908
(dp2909
g53
(dp2910
g61
I3
ssg62
g2904
sg55
(lp2911
S'<class wsgiref.util.FileWrapper at 0x0373C720>'
p2912
asbasbasbag48
(g64
g50
NtRp2913
(dp2914
g53
(dp2915
sg62
g2424
sg55
(lp2916
g48
(g69
g50
NtRp2917
(dp2918
g53
(dp2919
g73
g74
ssg62
g2913
sg55
(lp2920
S'wsgi.input'
p2921
asbag48
(g69
g50
NtRp2922
(dp2923
g53
(dp2924
g80
g81
ssg62
g2913
sg55
(lp2925
S':'
asbag48
(g69
g50
NtRp2926
(dp2927
g53
(dp2928
sg62
g2913
sg55
(lp2929
g48
(g49
g50
NtRp2930
(dp2931
g53
(dp2932
g61
I3
ssg62
g2926
sg55
(lp2933
S'<cStringIO.StringO object at 0x03B3B5A0>'
p2934
asbasbasbag48
(g64
g50
NtRp2935
(dp2936
g53
(dp2937
sg62
g2424
sg55
(lp2938
g48
(g69
g50
NtRp2939
(dp2940
g53
(dp2941
g73
g74
ssg62
g2935
sg55
(lp2942
S'wsgi.multiprocess'
p2943
asbag48
(g69
g50
NtRp2944
(dp2945
g53
(dp2946
g80
g81
ssg62
g2935
sg55
(lp2947
S':'
asbag48
(g69
g50
NtRp2948
(dp2949
g53
(dp2950
sg62
g2935
sg55
(lp2951
g48
(g49
g50
NtRp2952
(dp2953
g53
(dp2954
g61
I3
ssg62
g2948
sg55
(lp2955
g91
asbasbasbag48
(g64
g50
NtRp2956
(dp2957
g53
(dp2958
sg62
g2424
sg55
(lp2959
g48
(g69
g50
NtRp2960
(dp2961
g53
(dp2962
g73
g74
ssg62
g2956
sg55
(lp2963
S'wsgi.multithread'
p2964
asbag48
(g69
g50
NtRp2965
(dp2966
g53
(dp2967
g80
g81
ssg62
g2956
sg55
(lp2968
S':'
asbag48
(g69
g50
NtRp2969
(dp2970
g53
(dp2971
sg62
g2956
sg55
(lp2972
g48
(g49
g50
NtRp2973
(dp2974
g53
(dp2975
g61
I3
ssg62
g2969
sg55
(lp2976
g1632
asbasbasbag48
(g64
g50
NtRp2977
(dp2978
g53
(dp2979
sg62
g2424
sg55
(lp2980
g48
(g69
g50
NtRp2981
(dp2982
g53
(dp2983
g73
g74
ssg62
g2977
sg55
(lp2984
S'wsgi.run_once'
p2985
asbag48
(g69
g50
NtRp2986
(dp2987
g53
(dp2988
g80
g81
ssg62
g2977
sg55
(lp2989
S':'
asbag48
(g69
g50
NtRp2990
(dp2991
g53
(dp2992
sg62
g2977
sg55
(lp2993
g48
(g49
g50
NtRp2994
(dp2995
g53
(dp2996
g61
I3
ssg62
g2990
sg55
(lp2997
g91
asbasbasbag48
(g64
g50
NtRp2998
(dp2999
g53
(dp3000
sg62
g2424
sg55
(lp3001
g48
(g69
g50
NtRp3002
(dp3003
g53
(dp3004
g73
g74
ssg62
g2998
sg55
(lp3005
S'wsgi.url_scheme'
p3006
asbag48
(g69
g50
NtRp3007
(dp3008
g53
(dp3009
g80
g81
ssg62
g2998
sg55
(lp3010
S':'
asbag48
(g69
g50
NtRp3011
(dp3012
g53
(dp3013
sg62
g2998
sg55
(lp3014
g48
(g49
g50
NtRp3015
(dp3016
g53
(dp3017
g61
I3
ssg62
g3011
sg55
(lp3018
g1675
asbasbasbag48
(g64
g50
NtRp3019
(dp3020
g53
(dp3021
sg62
g2424
sg55
(lp3022
g48
(g69
g50
NtRp3023
(dp3024
g53
(dp3025
g73
g74
ssg62
g3019
sg55
(lp3026
S'wsgi.version'
p3027
asbag48
(g69
g50
NtRp3028
(dp3029
g53
(dp3030
g80
g81
ssg62
g3019
sg55
(lp3031
S':'
asbag48
(g69
g50
NtRp3032
(dp3033
g53
(dp3034
sg62
g3019
sg55
(lp3035
g48
(g49
g50
NtRp3036
(dp3037
g53
(dp3038
g61
I3
ssg62
g3032
sg55
(lp3039
S'1'
asbasbasbasbasbasbasbasbasbasbasbasbasbsS'frames'
p3040
(lp3041
(dp3042
S'file'
p3043
S'D:\\git_projs\\Gabblista\\web2py\\web2py\\gluon\\restricted.py'
p3044
sS'dump'
p3045
(dp3046
S'environment'
p3047
S"{'A': <class 'gluon.html.A'>, 'Auth': <class 'gluon.tools.Auth'>, 'B': <class 'gluon.html.B'>, 'BEAUTIFY': <class 'gluon.html.BEAUTIFY'>, 'BODY': <class 'gluon.html.BODY'>, 'BR': <class 'gluon.html.BR'>, 'BUTTON': <class 'gluon.html.BUTTON'>, 'CAT': <class 'gluon.html.CAT'>, 'CENTER': <class 'gluon.html.CENTER'>, 'CLEANUP': <class 'gluon.validators.CLEANUP'>, ...}"
p3048
sS'ccode'
p3049
S'<code object <module> at 034DFAD0, file "D:\\git_...bb1\\views\\fb_serv/serve_player_data.txt", line 1>'
p3050
ssS'lnum'
p3051
I194
sS'lines'
p3052
(dp3053
I192
S'        else:'
p3054
sI193
S'            ccode = compile2(code,layer)'
p3055
sI194
S'        exec ccode in environment'
p3056
sI195
S'    except HTTP:'
p3057
sI196
S'        raise'
p3058
sI197
S'    except Exception, error:'
p3059
sI198
S'        # XXX Show exception in Wing IDE if running in debugger'
p3060
sI189
S'    try:'
p3061
sI190
S'        if type(code) == types.CodeType:'
p3062
sI191
S'            ccode = code'
p3063
ssS'call'
p3064
S'(code="response.write(message)\\nresponse.write(\'\\\\r\\\\n\\\\r\\\\n...te(test_var)\\nresponse.write(\'\\\\r\\\\n\', escape=False)", environment={\'A\': <class \'gluon.html.A\'>, \'Auth\': <class \'gluon.tools.Auth\'>, \'B\': <class \'gluon.html.B\'>, \'BEAUTIFY\': <class \'gluon.html.BEAUTIFY\'>, \'BODY\': <class \'gluon.html.BODY\'>, \'BR\': <class \'gluon.html.BR\'>, \'BUTTON\': <class \'gluon.html.BUTTON\'>, \'CAT\': <class \'gluon.html.CAT\'>, \'CENTER\': <class \'gluon.html.CENTER\'>, \'CLEANUP\': <class \'gluon.validators.CLEANUP\'>, ...}, layer=r\'D:\\git_projs\\Gabblista\\web2py\\web2py\\applications\\Gabb1\\views\\fb_serv/serve_player_data.txt\')'
p3065
sS'func'
p3066
S'restricted'
p3067
sa(dp3068
g3043
S'D:\\git_projs\\Gabblista\\web2py\\web2py\\applications\\Gabb1\\views\\fb_serv\\serve_player_data.txt'
p3069
sg3045
(dp3070
S'test_var'
p3071
S'undefined'
p3072
ssg3051
I3
sg3052
(dp3073
I1
S'{{=message}}'
p3074
sI2
S''
sI3
S'{{=test_var}}'
p3075
ssg3064
S'()'
p3076
sg3066
S'<module>'
p3077
sasS'pyver'
p3078
S'Python 2.5.4: C:\\python25\\python.exe'
p3079
sS'session'
p3080
g48
(g49
g50
NtRp3081
(dp3082
g53
(dp3083
sg55
(lp3084
g48
(g57
g50
NtRp3085
(dp3086
g53
(dp3087
g61
I5
ssg62
Nsg55
(lp3088
sbasbsS'etype'
p3089
S"<type 'exceptions.NameError'>"
p3090
sS'date'
p3091
S'Wed Jan 18 08:55:24 2012'
p3092
sS'response'
p3093
g48
(g49
g50
NtRp3094
(dp3095
g53
(dp3096
sg55
(lp3097
g48
(g57
g50
NtRp3098
(dp3099
g53
(dp3100
g61
I5
ssg62
Nsg55
(lp3101
g48
(g64
g50
NtRp3102
(dp3103
g53
(dp3104
sg62
g3098
sg55
(lp3105
g48
(g69
g50
NtRp3106
(dp3107
g53
(dp3108
g73
g74
ssg62
g3102
sg55
(lp3109
g146
asbag48
(g69
g50
NtRp3110
(dp3111
g53
(dp3112
g80
g81
ssg62
g3102
sg55
(lp3113
S':'
asbag48
(g69
g50
NtRp3114
(dp3115
g53
(dp3116
sg62
g3102
sg55
(lp3117
g48
(g49
g50
NtRp3118
(dp3119
g53
(dp3120
g61
I5
ssg62
g3114
sg55
(lp3121
S'<cStringIO.StringO object at 0x03B32960>'
p3122
asbasbasbag48
(g64
g50
NtRp3123
(dp3124
g53
(dp3125
sg62
g3098
sg55
(lp3126
g48
(g69
g50
NtRp3127
(dp3128
g53
(dp3129
g73
g74
ssg62
g3123
sg55
(lp3130
g212
asbag48
(g69
g50
NtRp3131
(dp3132
g53
(dp3133
g80
g81
ssg62
g3123
sg55
(lp3134
S':'
asbag48
(g69
g50
NtRp3135
(dp3136
g53
(dp3137
sg62
g3123
sg55
(lp3138
g48
(g49
g50
NtRp3139
(dp3140
g53
(dp3141
g61
I5
ssg62
g3135
sg55
(lp3142
g48
(g57
g50
NtRp3143
(dp3144
g53
(dp3145
g61
I4
ssg62
Nsg55
(lp3146
g48
(g64
g50
NtRp3147
(dp3148
g53
(dp3149
sg62
g3143
sg55
(lp3150
g48
(g69
g50
NtRp3151
(dp3152
g53
(dp3153
g73
g74
ssg62
g3147
sg55
(lp3154
S'session_id_gabb1'
p3155
asbag48
(g69
g50
NtRp3156
(dp3157
g53
(dp3158
g80
g81
ssg62
g3147
sg55
(lp3159
S':'
asbag48
(g69
g50
NtRp3160
(dp3161
g53
(dp3162
sg62
g3147
sg55
(lp3163
g48
(g49
g50
NtRp3164
(dp3165
g53
(dp3166
g61
I4
ssg62
g3160
sg55
(lp3167
g48
(g57
g50
NtRp3168
(dp3169
g53
(dp3170
g61
I3
ssg62
Nsg55
(lp3171
g48
(g64
g50
NtRp3172
(dp3173
g53
(dp3174
sg62
g3168
sg55
(lp3175
g48
(g69
g50
NtRp3176
(dp3177
g53
(dp3178
g73
g74
ssg62
g3172
sg55
(lp3179
g262
asbag48
(g69
g50
NtRp3180
(dp3181
g53
(dp3182
g80
g81
ssg62
g3172
sg55
(lp3183
S':'
asbag48
(g69
g50
NtRp3184
(dp3185
g53
(dp3186
sg62
g3172
sg55
(lp3187
g48
(g49
g50
NtRp3188
(dp3189
g53
(dp3190
g61
I3
ssg62
g3184
sg55
(lp3191
S''
asbasbasbag48
(g64
g50
NtRp3192
(dp3193
g53
(dp3194
sg62
g3168
sg55
(lp3195
g48
(g69
g50
NtRp3196
(dp3197
g53
(dp3198
g73
g74
ssg62
g3192
sg55
(lp3199
g283
asbag48
(g69
g50
NtRp3200
(dp3201
g53
(dp3202
g80
g81
ssg62
g3192
sg55
(lp3203
S':'
asbag48
(g69
g50
NtRp3204
(dp3205
g53
(dp3206
sg62
g3192
sg55
(lp3207
g48
(g49
g50
NtRp3208
(dp3209
g53
(dp3210
g61
I3
ssg62
g3204
sg55
(lp3211
S''
asbasbasbag48
(g64
g50
NtRp3212
(dp3213
g53
(dp3214
sg62
g3168
sg55
(lp3215
g48
(g69
g50
NtRp3216
(dp3217
g53
(dp3218
g73
g74
ssg62
g3212
sg55
(lp3219
g304
asbag48
(g69
g50
NtRp3220
(dp3221
g53
(dp3222
g80
g81
ssg62
g3212
sg55
(lp3223
S':'
asbag48
(g69
g50
NtRp3224
(dp3225
g53
(dp3226
sg62
g3212
sg55
(lp3227
g48
(g49
g50
NtRp3228
(dp3229
g53
(dp3230
g61
I3
ssg62
g3224
sg55
(lp3231
S''
asbasbasbag48
(g64
g50
NtRp3232
(dp3233
g53
(dp3234
sg62
g3168
sg55
(lp3235
g48
(g69
g50
NtRp3236
(dp3237
g53
(dp3238
g73
g74
ssg62
g3232
sg55
(lp3239
g325
asbag48
(g69
g50
NtRp3240
(dp3241
g53
(dp3242
g80
g81
ssg62
g3232
sg55
(lp3243
S':'
asbag48
(g69
g50
NtRp3244
(dp3245
g53
(dp3246
sg62
g3232
sg55
(lp3247
g48
(g49
g50
NtRp3248
(dp3249
g53
(dp3250
g61
I3
ssg62
g3244
sg55
(lp3251
S''
asbasbasbag48
(g64
g50
NtRp3252
(dp3253
g53
(dp3254
sg62
g3168
sg55
(lp3255
g48
(g69
g50
NtRp3256
(dp3257
g53
(dp3258
g73
g74
ssg62
g3252
sg55
(lp3259
g346
asbag48
(g69
g50
NtRp3260
(dp3261
g53
(dp3262
g80
g81
ssg62
g3252
sg55
(lp3263
S':'
asbag48
(g69
g50
NtRp3264
(dp3265
g53
(dp3266
sg62
g3252
sg55
(lp3267
g48
(g49
g50
NtRp3268
(dp3269
g53
(dp3270
g61
I3
ssg62
g3264
sg55
(lp3271
S'/'
asbasbasbag48
(g64
g50
NtRp3272
(dp3273
g53
(dp3274
sg62
g3168
sg55
(lp3275
g48
(g69
g50
NtRp3276
(dp3277
g53
(dp3278
g73
g74
ssg62
g3272
sg55
(lp3279
g367
asbag48
(g69
g50
NtRp3280
(dp3281
g53
(dp3282
g80
g81
ssg62
g3272
sg55
(lp3283
S':'
asbag48
(g69
g50
NtRp3284
(dp3285
g53
(dp3286
sg62
g3272
sg55
(lp3287
g48
(g49
g50
NtRp3288
(dp3289
g53
(dp3290
g61
I3
ssg62
g3284
sg55
(lp3291
S''
asbasbasbag48
(g64
g50
NtRp3292
(dp3293
g53
(dp3294
sg62
g3168
sg55
(lp3295
g48
(g69
g50
NtRp3296
(dp3297
g53
(dp3298
g73
g74
ssg62
g3292
sg55
(lp3299
g388
asbag48
(g69
g50
NtRp3300
(dp3301
g53
(dp3302
g80
g81
ssg62
g3292
sg55
(lp3303
S':'
asbag48
(g69
g50
NtRp3304
(dp3305
g53
(dp3306
sg62
g3292
sg55
(lp3307
g48
(g49
g50
NtRp3308
(dp3309
g53
(dp3310
g61
I3
ssg62
g3304
sg55
(lp3311
S''
asbasbasbasbasbasbasbasbasbasbasbag48
(g64
g50
NtRp3312
(dp3313
g53
(dp3314
sg62
g3098
sg55
(lp3315
g48
(g69
g50
NtRp3316
(dp3317
g53
(dp3318
g73
g74
ssg62
g3312
sg55
(lp3319
S'files'
p3320
asbag48
(g69
g50
NtRp3321
(dp3322
g53
(dp3323
g80
g81
ssg62
g3312
sg55
(lp3324
S':'
asbag48
(g69
g50
NtRp3325
(dp3326
g53
(dp3327
sg62
g3312
sg55
(lp3328
g48
(g49
g50
NtRp3329
(dp3330
g53
(dp3331
g61
I5
ssg62
g3325
sg55
(lp3332
g48
(g57
g50
NtRp3333
(dp3334
g53
(dp3335
g61
I4
ssg62
Nsg55
(lp3336
sbasbasbasbag48
(g64
g50
NtRp3337
(dp3338
g53
(dp3339
sg62
g3098
sg55
(lp3340
g48
(g69
g50
NtRp3341
(dp3342
g53
(dp3343
g73
g74
ssg62
g3337
sg55
(lp3344
S'flash'
p3345
asbag48
(g69
g50
NtRp3346
(dp3347
g53
(dp3348
g80
g81
ssg62
g3337
sg55
(lp3349
S':'
asbag48
(g69
g50
NtRp3350
(dp3351
g53
(dp3352
sg62
g3337
sg55
(lp3353
g48
(g49
g50
NtRp3354
(dp3355
g53
(dp3356
g61
I5
ssg62
g3350
sg55
(lp3357
S''
asbasbasbag48
(g64
g50
NtRp3358
(dp3359
g53
(dp3360
sg62
g3098
sg55
(lp3361
g48
(g69
g50
NtRp3362
(dp3363
g53
(dp3364
g73
g74
ssg62
g3358
sg55
(lp3365
S'generic_patterns'
p3366
asbag48
(g69
g50
NtRp3367
(dp3368
g53
(dp3369
g80
g81
ssg62
g3358
sg55
(lp3370
S':'
asbag48
(g69
g50
NtRp3371
(dp3372
g53
(dp3373
sg62
g3358
sg55
(lp3374
g48
(g49
g50
NtRp3375
(dp3376
g53
(dp3377
g61
I5
ssg62
g3371
sg55
(lp3378
g48
(g57
g50
NtRp3379
(dp3380
g53
(dp3381
g61
I4
ssg62
Nsg55
(lp3382
g48
(g64
g50
NtRp3383
(dp3384
g53
(dp3385
sg62
g3379
sg55
(lp3386
g48
(g69
g50
NtRp3387
(dp3388
g53
(dp3389
sg62
g3383
sg55
(lp3390
g48
(g49
g50
NtRp3391
(dp3392
g53
(dp3393
g61
I4
ssg62
g3387
sg55
(lp3394
S'*'
asbasbasbasbasbasbasbag48
(g64
g50
NtRp3395
(dp3396
g53
(dp3397
sg62
g3098
sg55
(lp3398
g48
(g69
g50
NtRp3399
(dp3400
g53
(dp3401
g73
g74
ssg62
g3395
sg55
(lp3402
S'headers'
p3403
asbag48
(g69
g50
NtRp3404
(dp3405
g53
(dp3406
g80
g81
ssg62
g3395
sg55
(lp3407
S':'
asbag48
(g69
g50
NtRp3408
(dp3409
g53
(dp3410
sg62
g3395
sg55
(lp3411
g48
(g49
g50
NtRp3412
(dp3413
g53
(dp3414
g61
I5
ssg62
g3408
sg55
(lp3415
g48
(g57
g50
NtRp3416
(dp3417
g53
(dp3418
g61
I4
ssg62
Nsg55
(lp3419
g48
(g64
g50
NtRp3420
(dp3421
g53
(dp3422
sg62
g3416
sg55
(lp3423
g48
(g69
g50
NtRp3424
(dp3425
g53
(dp3426
g73
g74
ssg62
g3420
sg55
(lp3427
S'Cache-Control'
p3428
asbag48
(g69
g50
NtRp3429
(dp3430
g53
(dp3431
g80
g81
ssg62
g3420
sg55
(lp3432
S':'
asbag48
(g69
g50
NtRp3433
(dp3434
g53
(dp3435
sg62
g3420
sg55
(lp3436
g48
(g49
g50
NtRp3437
(dp3438
g53
(dp3439
g61
I4
ssg62
g3433
sg55
(lp3440
S'no-store, no-cache, must-revalidate, post-check=0, pre-check=0'
p3441
asbasbasbag48
(g64
g50
NtRp3442
(dp3443
g53
(dp3444
sg62
g3416
sg55
(lp3445
g48
(g69
g50
NtRp3446
(dp3447
g53
(dp3448
g73
g74
ssg62
g3442
sg55
(lp3449
S'Content-Type'
p3450
asbag48
(g69
g50
NtRp3451
(dp3452
g53
(dp3453
g80
g81
ssg62
g3442
sg55
(lp3454
S':'
asbag48
(g69
g50
NtRp3455
(dp3456
g53
(dp3457
sg62
g3442
sg55
(lp3458
g48
(g49
g50
NtRp3459
(dp3460
g53
(dp3461
g61
I4
ssg62
g3455
sg55
(lp3462
S'text/plain; charset=utf-8'
p3463
asbasbasbag48
(g64
g50
NtRp3464
(dp3465
g53
(dp3466
sg62
g3416
sg55
(lp3467
g48
(g69
g50
NtRp3468
(dp3469
g53
(dp3470
g73
g74
ssg62
g3464
sg55
(lp3471
S'Expires'
p3472
asbag48
(g69
g50
NtRp3473
(dp3474
g53
(dp3475
g80
g81
ssg62
g3464
sg55
(lp3476
S':'
asbag48
(g69
g50
NtRp3477
(dp3478
g53
(dp3479
sg62
g3464
sg55
(lp3480
g48
(g49
g50
NtRp3481
(dp3482
g53
(dp3483
g61
I4
ssg62
g3477
sg55
(lp3484
S'Wed, 18 Jan 2012 13:55:24 GMT'
p3485
asbasbasbag48
(g64
g50
NtRp3486
(dp3487
g53
(dp3488
sg62
g3416
sg55
(lp3489
g48
(g69
g50
NtRp3490
(dp3491
g53
(dp3492
g73
g74
ssg62
g3486
sg55
(lp3493
S'NingNang'
p3494
asbag48
(g69
g50
NtRp3495
(dp3496
g53
(dp3497
g80
g81
ssg62
g3486
sg55
(lp3498
S':'
asbag48
(g69
g50
NtRp3499
(dp3500
g53
(dp3501
sg62
g3486
sg55
(lp3502
g48
(g49
g50
NtRp3503
(dp3504
g53
(dp3505
g61
I4
ssg62
g3499
sg55
(lp3506
S'Nong'
p3507
asbasbasbag48
(g64
g50
NtRp3508
(dp3509
g53
(dp3510
sg62
g3416
sg55
(lp3511
g48
(g69
g50
NtRp3512
(dp3513
g53
(dp3514
g73
g74
ssg62
g3508
sg55
(lp3515
S'Pragma'
p3516
asbag48
(g69
g50
NtRp3517
(dp3518
g53
(dp3519
g80
g81
ssg62
g3508
sg55
(lp3520
S':'
asbag48
(g69
g50
NtRp3521
(dp3522
g53
(dp3523
sg62
g3508
sg55
(lp3524
g48
(g49
g50
NtRp3525
(dp3526
g53
(dp3527
g61
I4
ssg62
g3521
sg55
(lp3528
S'no-cache'
p3529
asbasbasbasbasbasbasbag48
(g64
g50
NtRp3530
(dp3531
g53
(dp3532
sg62
g3098
sg55
(lp3533
g48
(g69
g50
NtRp3534
(dp3535
g53
(dp3536
g73
g74
ssg62
g3530
sg55
(lp3537
S'menu'
p3538
asbag48
(g69
g50
NtRp3539
(dp3540
g53
(dp3541
g80
g81
ssg62
g3530
sg55
(lp3542
S':'
asbag48
(g69
g50
NtRp3543
(dp3544
g53
(dp3545
sg62
g3530
sg55
(lp3546
g48
(g49
g50
NtRp3547
(dp3548
g53
(dp3549
g61
I5
ssg62
g3543
sg55
(lp3550
g48
(g57
g50
NtRp3551
(dp3552
g53
(dp3553
g61
I4
ssg62
Nsg55
(lp3554
g48
(g64
g50
NtRp3555
(dp3556
g53
(dp3557
sg62
g3551
sg55
(lp3558
g48
(g69
g50
NtRp3559
(dp3560
g53
(dp3561
sg62
g3555
sg55
(lp3562
g48
(g49
g50
NtRp3563
(dp3564
g53
(dp3565
g61
I4
ssg62
g3559
sg55
(lp3566
g48
(g57
g50
NtRp3567
(dp3568
g53
(dp3569
g61
I3
ssg62
Nsg55
(lp3570
g48
(g64
g50
NtRp3571
(dp3572
g53
(dp3573
sg62
g3567
sg55
(lp3574
g48
(g69
g50
NtRp3575
(dp3576
g53
(dp3577
sg62
g3571
sg55
(lp3578
g48
(g49
g50
NtRp3579
(dp3580
g53
(dp3581
g61
I3
ssg62
g3575
sg55
(lp3582
cgluon.languages
lazyT_unpickle
p3583
(S's\x04\x00\x00\x00Home'
tRp3584
asbasbasbag48
(g64
g50
NtRp3585
(dp3586
g53
(dp3587
sg62
g3567
sg55
(lp3588
g48
(g69
g50
NtRp3589
(dp3590
g53
(dp3591
sg62
g3585
sg55
(lp3592
g48
(g49
g50
NtRp3593
(dp3594
g53
(dp3595
g61
I3
ssg62
g3589
sg55
(lp3596
g91
asbasbasbag48
(g64
g50
NtRp3597
(dp3598
g53
(dp3599
sg62
g3567
sg55
(lp3600
g48
(g69
g50
NtRp3601
(dp3602
g53
(dp3603
sg62
g3597
sg55
(lp3604
g48
(g49
g50
NtRp3605
(dp3606
g53
(dp3607
g61
I3
ssg62
g3601
sg55
(lp3608
S'/Gabb1/default/index.txt'
p3609
asbasbasbag48
(g64
g50
NtRp3610
(dp3611
g53
(dp3612
sg62
g3567
sg55
(lp3613
g48
(g69
g50
NtRp3614
(dp3615
g53
(dp3616
sg62
g3610
sg55
(lp3617
g48
(g49
g50
NtRp3618
(dp3619
g53
(dp3620
g61
I3
ssg62
g3614
sg55
(lp3621
g48
(g57
g50
NtRp3622
(dp3623
g53
(dp3624
g61
I2
ssg62
Nsg55
(lp3625
sbasbasbasbasbasbasbasbag48
(g64
g50
NtRp3626
(dp3627
g53
(dp3628
sg62
g3551
sg55
(lp3629
g48
(g69
g50
NtRp3630
(dp3631
g53
(dp3632
sg62
g3626
sg55
(lp3633
g48
(g49
g50
NtRp3634
(dp3635
g53
(dp3636
g61
I4
ssg62
g3630
sg55
(lp3637
g48
(g57
g50
NtRp3638
(dp3639
g53
(dp3640
g61
I3
ssg62
Nsg55
(lp3641
g48
(g64
g50
NtRp3642
(dp3643
g53
(dp3644
sg62
g3638
sg55
(lp3645
g48
(g69
g50
NtRp3646
(dp3647
g53
(dp3648
sg62
g3642
sg55
(lp3649
g48
(g49
g50
NtRp3650
(dp3651
g53
(dp3652
g61
I3
ssg62
g3646
sg55
(lp3653
g3583
(S's\x08\x00\x00\x00This App'
tRp3654
asbasbasbag48
(g64
g50
NtRp3655
(dp3656
g53
(dp3657
sg62
g3638
sg55
(lp3658
g48
(g69
g50
NtRp3659
(dp3660
g53
(dp3661
sg62
g3655
sg55
(lp3662
g48
(g49
g50
NtRp3663
(dp3664
g53
(dp3665
g61
I3
ssg62
g3659
sg55
(lp3666
g91
asbasbasbag48
(g64
g50
NtRp3667
(dp3668
g53
(dp3669
sg62
g3638
sg55
(lp3670
g48
(g69
g50
NtRp3671
(dp3672
g53
(dp3673
sg62
g3667
sg55
(lp3674
g48
(g49
g50
NtRp3675
(dp3676
g53
(dp3677
g61
I3
ssg62
g3671
sg55
(lp3678
S'/admin/default/design/Gabb1.txt'
p3679
asbasbasbag48
(g64
g50
NtRp3680
(dp3681
g53
(dp3682
sg62
g3638
sg55
(lp3683
g48
(g69
g50
NtRp3684
(dp3685
g53
(dp3686
sg62
g3680
sg55
(lp3687
g48
(g49
g50
NtRp3688
(dp3689
g53
(dp3690
g61
I3
ssg62
g3684
sg55
(lp3691
g48
(g57
g50
NtRp3692
(dp3693
g53
(dp3694
g61
I2
ssg62
Nsg55
(lp3695
g48
(g64
g50
NtRp3696
(dp3697
g53
(dp3698
sg62
g3692
sg55
(lp3699
g48
(g69
g50
NtRp3700
(dp3701
g53
(dp3702
sg62
g3696
sg55
(lp3703
g48
(g49
g50
NtRp3704
(dp3705
g53
(dp3706
g61
I2
ssg62
g3700
sg55
(lp3707
g48
(g57
g50
NtRp3708
(dp3709
g53
(dp3710
g61
I1
ssg62
Nsg55
(lp3711
g48
(g64
g50
NtRp3712
(dp3713
g53
(dp3714
sg62
g3708
sg55
(lp3715
g48
(g69
g50
NtRp3716
(dp3717
g53
(dp3718
sg62
g3712
sg55
(lp3719
g48
(g49
g50
NtRp3720
(dp3721
g53
(dp3722
g61
I1
ssg62
g3716
sg55
(lp3723
g3583
(S's\n\x00\x00\x00Controller'
tRp3724
asbasbasbag48
(g64
g50
NtRp3725
(dp3726
g53
(dp3727
sg62
g3708
sg55
(lp3728
g48
(g69
g50
NtRp3729
(dp3730
g53
(dp3731
sg62
g3725
sg55
(lp3732
g48
(g49
g50
NtRp3733
(dp3734
g53
(dp3735
g61
I1
ssg62
g3729
sg55
(lp3736
I00
asbasbasbag48
(g64
g50
NtRp3737
(dp3738
g53
(dp3739
sg62
g3708
sg55
(lp3740
g48
(g69
g50
NtRp3741
(dp3742
g53
(dp3743
sg62
g3737
sg55
(lp3744
g48
(g49
g50
NtRp3745
(dp3746
g53
(dp3747
g61
I1
ssg62
g3741
sg55
(lp3748
S'/admin/default/edit/Gabb1/controllers/fb_serv.py'
p3749
asbasbasbasbasbasbasbag48
(g64
g50
NtRp3750
(dp3751
g53
(dp3752
sg62
g3692
sg55
(lp3753
g48
(g69
g50
NtRp3754
(dp3755
g53
(dp3756
sg62
g3750
sg55
(lp3757
g48
(g49
g50
NtRp3758
(dp3759
g53
(dp3760
g61
I2
ssg62
g3754
sg55
(lp3761
g48
(g57
g50
NtRp3762
(dp3763
g53
(dp3764
g61
I1
ssg62
Nsg55
(lp3765
g48
(g64
g50
NtRp3766
(dp3767
g53
(dp3768
sg62
g3762
sg55
(lp3769
g48
(g69
g50
NtRp3770
(dp3771
g53
(dp3772
sg62
g3766
sg55
(lp3773
g48
(g49
g50
NtRp3774
(dp3775
g53
(dp3776
g61
I1
ssg62
g3770
sg55
(lp3777
g3583
(S's\x04\x00\x00\x00View'
tRp3778
asbasbasbag48
(g64
g50
NtRp3779
(dp3780
g53
(dp3781
sg62
g3762
sg55
(lp3782
g48
(g69
g50
NtRp3783
(dp3784
g53
(dp3785
sg62
g3779
sg55
(lp3786
g48
(g49
g50
NtRp3787
(dp3788
g53
(dp3789
g61
I1
ssg62
g3783
sg55
(lp3790
I00
asbasbasbag48
(g64
g50
NtRp3791
(dp3792
g53
(dp3793
sg62
g3762
sg55
(lp3794
g48
(g69
g50
NtRp3795
(dp3796
g53
(dp3797
sg62
g3791
sg55
(lp3798
g48
(g49
g50
NtRp3799
(dp3800
g53
(dp3801
g61
I1
ssg62
g3795
sg55
(lp3802
S'/admin/default/edit/Gabb1/views/fb_serv/serve_player_data.txt'
p3803
asbasbasbasbasbasbasbag48
(g64
g50
NtRp3804
(dp3805
g53
(dp3806
sg62
g3692
sg55
(lp3807
g48
(g69
g50
NtRp3808
(dp3809
g53
(dp3810
sg62
g3804
sg55
(lp3811
g48
(g49
g50
NtRp3812
(dp3813
g53
(dp3814
g61
I2
ssg62
g3808
sg55
(lp3815
g48
(g57
g50
NtRp3816
(dp3817
g53
(dp3818
g61
I1
ssg62
Nsg55
(lp3819
g48
(g64
g50
NtRp3820
(dp3821
g53
(dp3822
sg62
g3816
sg55
(lp3823
g48
(g69
g50
NtRp3824
(dp3825
g53
(dp3826
sg62
g3820
sg55
(lp3827
g48
(g49
g50
NtRp3828
(dp3829
g53
(dp3830
g61
I1
ssg62
g3824
sg55
(lp3831
g3583
(S's\x06\x00\x00\x00Layout'
tRp3832
asbasbasbag48
(g64
g50
NtRp3833
(dp3834
g53
(dp3835
sg62
g3816
sg55
(lp3836
g48
(g69
g50
NtRp3837
(dp3838
g53
(dp3839
sg62
g3833
sg55
(lp3840
g48
(g49
g50
NtRp3841
(dp3842
g53
(dp3843
g61
I1
ssg62
g3837
sg55
(lp3844
I00
asbasbasbag48
(g64
g50
NtRp3845
(dp3846
g53
(dp3847
sg62
g3816
sg55
(lp3848
g48
(g69
g50
NtRp3849
(dp3850
g53
(dp3851
sg62
g3845
sg55
(lp3852
g48
(g49
g50
NtRp3853
(dp3854
g53
(dp3855
g61
I1
ssg62
g3849
sg55
(lp3856
S'/admin/default/edit/Gabb1/views/layout.html'
p3857
asbasbasbasbasbasbasbag48
(g64
g50
NtRp3858
(dp3859
g53
(dp3860
sg62
g3692
sg55
(lp3861
g48
(g69
g50
NtRp3862
(dp3863
g53
(dp3864
sg62
g3858
sg55
(lp3865
g48
(g49
g50
NtRp3866
(dp3867
g53
(dp3868
g61
I2
ssg62
g3862
sg55
(lp3869
g48
(g57
g50
NtRp3870
(dp3871
g53
(dp3872
g61
I1
ssg62
Nsg55
(lp3873
g48
(g64
g50
NtRp3874
(dp3875
g53
(dp3876
sg62
g3870
sg55
(lp3877
g48
(g69
g50
NtRp3878
(dp3879
g53
(dp3880
sg62
g3874
sg55
(lp3881
g48
(g49
g50
NtRp3882
(dp3883
g53
(dp3884
g61
I1
ssg62
g3878
sg55
(lp3885
g3583
(S's\n\x00\x00\x00Stylesheet'
tRp3886
asbasbasbag48
(g64
g50
NtRp3887
(dp3888
g53
(dp3889
sg62
g3870
sg55
(lp3890
g48
(g69
g50
NtRp3891
(dp3892
g53
(dp3893
sg62
g3887
sg55
(lp3894
g48
(g49
g50
NtRp3895
(dp3896
g53
(dp3897
g61
I1
ssg62
g3891
sg55
(lp3898
I00
asbasbasbag48
(g64
g50
NtRp3899
(dp3900
g53
(dp3901
sg62
g3870
sg55
(lp3902
g48
(g69
g50
NtRp3903
(dp3904
g53
(dp3905
sg62
g3899
sg55
(lp3906
g48
(g49
g50
NtRp3907
(dp3908
g53
(dp3909
g61
I1
ssg62
g3903
sg55
(lp3910
S'/admin/default/edit/Gabb1/static/base.css'
p3911
asbasbasbasbasbasbasbag48
(g64
g50
NtRp3912
(dp3913
g53
(dp3914
sg62
g3692
sg55
(lp3915
g48
(g69
g50
NtRp3916
(dp3917
g53
(dp3918
sg62
g3912
sg55
(lp3919
g48
(g49
g50
NtRp3920
(dp3921
g53
(dp3922
g61
I2
ssg62
g3916
sg55
(lp3923
g48
(g57
g50
NtRp3924
(dp3925
g53
(dp3926
g61
I1
ssg62
Nsg55
(lp3927
g48
(g64
g50
NtRp3928
(dp3929
g53
(dp3930
sg62
g3924
sg55
(lp3931
g48
(g69
g50
NtRp3932
(dp3933
g53
(dp3934
sg62
g3928
sg55
(lp3935
g48
(g49
g50
NtRp3936
(dp3937
g53
(dp3938
g61
I1
ssg62
g3932
sg55
(lp3939
g3583
(S's\x08\x00\x00\x00DB Model'
tRp3940
asbasbasbag48
(g64
g50
NtRp3941
(dp3942
g53
(dp3943
sg62
g3924
sg55
(lp3944
g48
(g69
g50
NtRp3945
(dp3946
g53
(dp3947
sg62
g3941
sg55
(lp3948
g48
(g49
g50
NtRp3949
(dp3950
g53
(dp3951
g61
I1
ssg62
g3945
sg55
(lp3952
I00
asbasbasbag48
(g64
g50
NtRp3953
(dp3954
g53
(dp3955
sg62
g3924
sg55
(lp3956
g48
(g69
g50
NtRp3957
(dp3958
g53
(dp3959
sg62
g3953
sg55
(lp3960
g48
(g49
g50
NtRp3961
(dp3962
g53
(dp3963
g61
I1
ssg62
g3957
sg55
(lp3964
S'/admin/default/edit/Gabb1/models/db.py'
p3965
asbasbasbasbasbasbasbag48
(g64
g50
NtRp3966
(dp3967
g53
(dp3968
sg62
g3692
sg55
(lp3969
g48
(g69
g50
NtRp3970
(dp3971
g53
(dp3972
sg62
g3966
sg55
(lp3973
g48
(g49
g50
NtRp3974
(dp3975
g53
(dp3976
g61
I2
ssg62
g3970
sg55
(lp3977
g48
(g57
g50
NtRp3978
(dp3979
g53
(dp3980
g61
I1
ssg62
Nsg55
(lp3981
g48
(g64
g50
NtRp3982
(dp3983
g53
(dp3984
sg62
g3978
sg55
(lp3985
g48
(g69
g50
NtRp3986
(dp3987
g53
(dp3988
sg62
g3982
sg55
(lp3989
g48
(g49
g50
NtRp3990
(dp3991
g53
(dp3992
g61
I1
ssg62
g3986
sg55
(lp3993
g3583
(S's\n\x00\x00\x00Menu Model'
tRp3994
asbasbasbag48
(g64
g50
NtRp3995
(dp3996
g53
(dp3997
sg62
g3978
sg55
(lp3998
g48
(g69
g50
NtRp3999
(dp4000
g53
(dp4001
sg62
g3995
sg55
(lp4002
g48
(g49
g50
NtRp4003
(dp4004
g53
(dp4005
g61
I1
ssg62
g3999
sg55
(lp4006
I00
asbasbasbag48
(g64
g50
NtRp4007
(dp4008
g53
(dp4009
sg62
g3978
sg55
(lp4010
g48
(g69
g50
NtRp4011
(dp4012
g53
(dp4013
sg62
g4007
sg55
(lp4014
g48
(g49
g50
NtRp4015
(dp4016
g53
(dp4017
g61
I1
ssg62
g4011
sg55
(lp4018
S'/admin/default/edit/Gabb1/models/menu.py'
p4019
asbasbasbasbasbasbasbag48
(g64
g50
NtRp4020
(dp4021
g53
(dp4022
sg62
g3692
sg55
(lp4023
g48
(g69
g50
NtRp4024
(dp4025
g53
(dp4026
sg62
g4020
sg55
(lp4027
g48
(g49
g50
NtRp4028
(dp4029
g53
(dp4030
g61
I2
ssg62
g4024
sg55
(lp4031
g48
(g57
g50
NtRp4032
(dp4033
g53
(dp4034
g61
I1
ssg62
Nsg55
(lp4035
g48
(g64
g50
NtRp4036
(dp4037
g53
(dp4038
sg62
g4032
sg55
(lp4039
g48
(g69
g50
NtRp4040
(dp4041
g53
(dp4042
sg62
g4036
sg55
(lp4043
g48
(g49
g50
NtRp4044
(dp4045
g53
(dp4046
g61
I1
ssg62
g4040
sg55
(lp4047
g3583
(S's\x08\x00\x00\x00Database'
tRp4048
asbasbasbag48
(g64
g50
NtRp4049
(dp4050
g53
(dp4051
sg62
g4032
sg55
(lp4052
g48
(g69
g50
NtRp4053
(dp4054
g53
(dp4055
sg62
g4049
sg55
(lp4056
g48
(g49
g50
NtRp4057
(dp4058
g53
(dp4059
g61
I1
ssg62
g4053
sg55
(lp4060
I00
asbasbasbag48
(g64
g50
NtRp4061
(dp4062
g53
(dp4063
sg62
g4032
sg55
(lp4064
g48
(g69
g50
NtRp4065
(dp4066
g53
(dp4067
sg62
g4061
sg55
(lp4068
g48
(g49
g50
NtRp4069
(dp4070
g53
(dp4071
g61
I1
ssg62
g4065
sg55
(lp4072
S'/Gabb1/appadmin/index.txt'
p4073
asbasbasbasbasbasbasbag48
(g64
g50
NtRp4074
(dp4075
g53
(dp4076
sg62
g3692
sg55
(lp4077
g48
(g69
g50
NtRp4078
(dp4079
g53
(dp4080
sg62
g4074
sg55
(lp4081
g48
(g49
g50
NtRp4082
(dp4083
g53
(dp4084
g61
I2
ssg62
g4078
sg55
(lp4085
g48
(g57
g50
NtRp4086
(dp4087
g53
(dp4088
g61
I1
ssg62
Nsg55
(lp4089
g48
(g64
g50
NtRp4090
(dp4091
g53
(dp4092
sg62
g4086
sg55
(lp4093
g48
(g69
g50
NtRp4094
(dp4095
g53
(dp4096
sg62
g4090
sg55
(lp4097
g48
(g49
g50
NtRp4098
(dp4099
g53
(dp4100
g61
I1
ssg62
g4094
sg55
(lp4101
g3583
(S's\x06\x00\x00\x00Errors'
tRp4102
asbasbasbag48
(g64
g50
NtRp4103
(dp4104
g53
(dp4105
sg62
g4086
sg55
(lp4106
g48
(g69
g50
NtRp4107
(dp4108
g53
(dp4109
sg62
g4103
sg55
(lp4110
g48
(g49
g50
NtRp4111
(dp4112
g53
(dp4113
g61
I1
ssg62
g4107
sg55
(lp4114
I00
asbasbasbag48
(g64
g50
NtRp4115
(dp4116
g53
(dp4117
sg62
g4086
sg55
(lp4118
g48
(g69
g50
NtRp4119
(dp4120
g53
(dp4121
sg62
g4115
sg55
(lp4122
g48
(g49
g50
NtRp4123
(dp4124
g53
(dp4125
g61
I1
ssg62
g4119
sg55
(lp4126
S'/admin/default/errors/Gabb1.txt'
p4127
asbasbasbasbasbasbasbag48
(g64
g50
NtRp4128
(dp4129
g53
(dp4130
sg62
g3692
sg55
(lp4131
g48
(g69
g50
NtRp4132
(dp4133
g53
(dp4134
sg62
g4128
sg55
(lp4135
g48
(g49
g50
NtRp4136
(dp4137
g53
(dp4138
g61
I2
ssg62
g4132
sg55
(lp4139
g48
(g57
g50
NtRp4140
(dp4141
g53
(dp4142
g61
I1
ssg62
Nsg55
(lp4143
g48
(g64
g50
NtRp4144
(dp4145
g53
(dp4146
sg62
g4140
sg55
(lp4147
g48
(g69
g50
NtRp4148
(dp4149
g53
(dp4150
sg62
g4144
sg55
(lp4151
g48
(g49
g50
NtRp4152
(dp4153
g53
(dp4154
g61
I1
ssg62
g4148
sg55
(lp4155
g3583
(S's\x05\x00\x00\x00About'
tRp4156
asbasbasbag48
(g64
g50
NtRp4157
(dp4158
g53
(dp4159
sg62
g4140
sg55
(lp4160
g48
(g69
g50
NtRp4161
(dp4162
g53
(dp4163
sg62
g4157
sg55
(lp4164
g48
(g49
g50
NtRp4165
(dp4166
g53
(dp4167
g61
I1
ssg62
g4161
sg55
(lp4168
I00
asbasbasbag48
(g64
g50
NtRp4169
(dp4170
g53
(dp4171
sg62
g4140
sg55
(lp4172
g48
(g69
g50
NtRp4173
(dp4174
g53
(dp4175
sg62
g4169
sg55
(lp4176
g48
(g49
g50
NtRp4177
(dp4178
g53
(dp4179
g61
I1
ssg62
g4173
sg55
(lp4180
S'/admin/default/about/Gabb1.txt'
p4181
asbasbasbasbasbasbasbasbasbasbasbasbasbasbasbag48
(g64
g50
NtRp4182
(dp4183
g53
(dp4184
sg62
g3551
sg55
(lp4185
g48
(g69
g50
NtRp4186
(dp4187
g53
(dp4188
sg62
g4182
sg55
(lp4189
g48
(g49
g50
NtRp4190
(dp4191
g53
(dp4192
g61
I4
ssg62
g4186
sg55
(lp4193
g48
(g57
g50
NtRp4194
(dp4195
g53
(dp4196
g61
I3
ssg62
Nsg55
(lp4197
g48
(g64
g50
NtRp4198
(dp4199
g53
(dp4200
sg62
g4194
sg55
(lp4201
g48
(g69
g50
NtRp4202
(dp4203
g53
(dp4204
sg62
g4198
sg55
(lp4205
g48
(g49
g50
NtRp4206
(dp4207
g53
(dp4208
g61
I3
ssg62
g4202
sg55
(lp4209
g3583
(S's\t\x00\x00\x00Resources'
tRp4210
asbasbasbag48
(g64
g50
NtRp4211
(dp4212
g53
(dp4213
sg62
g4194
sg55
(lp4214
g48
(g69
g50
NtRp4215
(dp4216
g53
(dp4217
sg62
g4211
sg55
(lp4218
g48
(g49
g50
NtRp4219
(dp4220
g53
(dp4221
g61
I3
ssg62
g4215
sg55
(lp4222
g91
asbasbasbag48
(g64
g50
NtRp4223
(dp4224
g53
(dp4225
sg62
g4194
sg55
(lp4226
g48
(g69
g50
NtRp4227
(dp4228
g53
(dp4229
sg62
g4223
sg55
(lp4230
g48
(g49
g50
NtRp4231
(dp4232
g53
(dp4233
g61
I3
ssg62
g4227
sg55
(lp4234
S'None'
p4235
asbasbasbag48
(g64
g50
NtRp4236
(dp4237
g53
(dp4238
sg62
g4194
sg55
(lp4239
g48
(g69
g50
NtRp4240
(dp4241
g53
(dp4242
sg62
g4236
sg55
(lp4243
g48
(g49
g50
NtRp4244
(dp4245
g53
(dp4246
g61
I3
ssg62
g4240
sg55
(lp4247
g48
(g57
g50
NtRp4248
(dp4249
g53
(dp4250
g61
I2
ssg62
Nsg55
(lp4251
g48
(g64
g50
NtRp4252
(dp4253
g53
(dp4254
sg62
g4248
sg55
(lp4255
g48
(g69
g50
NtRp4256
(dp4257
g53
(dp4258
sg62
g4252
sg55
(lp4259
g48
(g49
g50
NtRp4260
(dp4261
g53
(dp4262
g61
I2
ssg62
g4256
sg55
(lp4263
g48
(g57
g50
NtRp4264
(dp4265
g53
(dp4266
g61
I1
ssg62
Nsg55
(lp4267
g48
(g64
g50
NtRp4268
(dp4269
g53
(dp4270
sg62
g4264
sg55
(lp4271
g48
(g69
g50
NtRp4272
(dp4273
g53
(dp4274
sg62
g4268
sg55
(lp4275
g48
(g49
g50
NtRp4276
(dp4277
g53
(dp4278
g61
I1
ssg62
g4272
sg55
(lp4279
g3583
(S's\r\x00\x00\x00Documentation'
tRp4280
asbasbasbag48
(g64
g50
NtRp4281
(dp4282
g53
(dp4283
sg62
g4264
sg55
(lp4284
g48
(g69
g50
NtRp4285
(dp4286
g53
(dp4287
sg62
g4281
sg55
(lp4288
g48
(g49
g50
NtRp4289
(dp4290
g53
(dp4291
g61
I1
ssg62
g4285
sg55
(lp4292
I00
asbasbasbag48
(g64
g50
NtRp4293
(dp4294
g53
(dp4295
sg62
g4264
sg55
(lp4296
g48
(g69
g50
NtRp4297
(dp4298
g53
(dp4299
sg62
g4293
sg55
(lp4300
g48
(g49
g50
NtRp4301
(dp4302
g53
(dp4303
g61
I1
ssg62
g4297
sg55
(lp4304
S'http://www.web2py.com/book'
p4305
asbasbasbag48
(g64
g50
NtRp4306
(dp4307
g53
(dp4308
sg62
g4264
sg55
(lp4309
g48
(g69
g50
NtRp4310
(dp4311
g53
(dp4312
sg62
g4306
sg55
(lp4313
g48
(g49
g50
NtRp4314
(dp4315
g53
(dp4316
g61
I1
ssg62
g4310
sg55
(lp4317
(lp4318
(g3583
(S's\x07\x00\x00\x00Preface'
tRp4319
I00
S'http://www.web2py.com/book/default/chapter/00'
p4320
tp4321
a(g3583
(S's\x0c\x00\x00\x00Introduction'
tRp4322
I00
S'http://www.web2py.com/book/default/chapter/01'
p4323
tp4324
a(g3583
(S's\x06\x00\x00\x00Python'
tRp4325
I00
S'http://www.web2py.com/book/default/chapter/02'
p4326
tp4327
a(g3583
(S's\x08\x00\x00\x00Overview'
tRp4328
I00
S'http://www.web2py.com/book/default/chapter/03'
p4329
tp4330
a(g3583
(S's\x08\x00\x00\x00The Core'
tRp4331
I00
S'http://www.web2py.com/book/default/chapter/04'
p4332
tp4333
a(g3583
(S's\t\x00\x00\x00The Views'
tRp4334
I00
S'http://www.web2py.com/book/default/chapter/05'
p4335
tp4336
a(g3583
(S's\x08\x00\x00\x00Database'
tRp4337
I00
S'http://www.web2py.com/book/default/chapter/06'
p4338
tp4339
a(g3583
(S's\x14\x00\x00\x00Forms and Validators'
tRp4340
I00
S'http://www.web2py.com/book/default/chapter/07'
p4341
tp4342
a(g3583
(S's\x0e\x00\x00\x00Access Control'
tRp4343
I00
S'http://www.web2py.com/book/default/chapter/08'
p4344
tp4345
a(g3583
(S's\x08\x00\x00\x00Services'
tRp4346
I00
S'http://www.web2py.com/book/default/chapter/09'
p4347
tp4348
a(g3583
(S's\x0c\x00\x00\x00Ajax Recipes'
tRp4349
I00
S'http://www.web2py.com/book/default/chapter/10'
p4350
tp4351
a(g3583
(S's\x12\x00\x00\x00Deployment Recipes'
tRp4352
I00
S'http://www.web2py.com/book/default/chapter/11'
p4353
tp4354
a(g3583
(S's\r\x00\x00\x00Other Recipes'
tRp4355
I00
S'http://www.web2py.com/book/default/chapter/12'
p4356
tp4357
a(g3583
(S's\r\x00\x00\x00Buy this book'
tRp4358
I00
S'http://stores.lulu.com/web2py'
p4359
tp4360
aasbasbasbasbasbasbasbag48
(g64
g50
NtRp4361
(dp4362
g53
(dp4363
sg62
g4248
sg55
(lp4364
g48
(g69
g50
NtRp4365
(dp4366
g53
(dp4367
sg62
g4361
sg55
(lp4368
g48
(g49
g50
NtRp4369
(dp4370
g53
(dp4371
g61
I2
ssg62
g4365
sg55
(lp4372
g48
(g57
g50
NtRp4373
(dp4374
g53
(dp4375
g61
I1
ssg62
Nsg55
(lp4376
g48
(g64
g50
NtRp4377
(dp4378
g53
(dp4379
sg62
g4373
sg55
(lp4380
g48
(g69
g50
NtRp4381
(dp4382
g53
(dp4383
sg62
g4377
sg55
(lp4384
g48
(g49
g50
NtRp4385
(dp4386
g53
(dp4387
g61
I1
ssg62
g4381
sg55
(lp4388
g3583
(S's\t\x00\x00\x00Community'
tRp4389
asbasbasbag48
(g64
g50
NtRp4390
(dp4391
g53
(dp4392
sg62
g4373
sg55
(lp4393
g48
(g69
g50
NtRp4394
(dp4395
g53
(dp4396
sg62
g4390
sg55
(lp4397
g48
(g49
g50
NtRp4398
(dp4399
g53
(dp4400
g61
I1
ssg62
g4394
sg55
(lp4401
I00
asbasbasbag48
(g64
g50
NtRp4402
(dp4403
g53
(dp4404
sg62
g4373
sg55
(lp4405
g48
(g69
g50
NtRp4406
(dp4407
g53
(dp4408
sg62
g4402
sg55
(lp4409
g48
(g49
g50
NtRp4410
(dp4411
g53
(dp4412
g61
I1
ssg62
g4406
sg55
(lp4413
Nasbasbasbag48
(g64
g50
NtRp4414
(dp4415
g53
(dp4416
sg62
g4373
sg55
(lp4417
g48
(g69
g50
NtRp4418
(dp4419
g53
(dp4420
sg62
g4414
sg55
(lp4421
g48
(g49
g50
NtRp4422
(dp4423
g53
(dp4424
g61
I1
ssg62
g4418
sg55
(lp4425
(lp4426
(g3583
(S's\x06\x00\x00\x00Groups'
tRp4427
I00
S'http://www.web2py.com/examples/default/usergroups'
p4428
tp4429
a(g3583
(S's\x07\x00\x00\x00Twitter'
tRp4430
I00
S'http://twitter.com/web2py'
p4431
tp4432
a(g3583
(S's\t\x00\x00\x00Live chat'
tRp4433
I00
S'http://mibbit.com/?channel=%23web2py&server=irc.mibbit.net'
p4434
tp4435
a(g3583
(S's\n\x00\x00\x00User Voice'
tRp4436
I00
S'http://web2py.uservoice.com/'
p4437
tp4438
aasbasbasbasbasbasbasbag48
(g64
g50
NtRp4439
(dp4440
g53
(dp4441
sg62
g4248
sg55
(lp4442
g48
(g69
g50
NtRp4443
(dp4444
g53
(dp4445
sg62
g4439
sg55
(lp4446
g48
(g49
g50
NtRp4447
(dp4448
g53
(dp4449
g61
I2
ssg62
g4443
sg55
(lp4450
g48
(g57
g50
NtRp4451
(dp4452
g53
(dp4453
g61
I1
ssg62
Nsg55
(lp4454
g48
(g64
g50
NtRp4455
(dp4456
g53
(dp4457
sg62
g4451
sg55
(lp4458
g48
(g69
g50
NtRp4459
(dp4460
g53
(dp4461
sg62
g4455
sg55
(lp4462
g48
(g49
g50
NtRp4463
(dp4464
g53
(dp4465
g61
I1
ssg62
g4459
sg55
(lp4466
g3583
(S's\x06\x00\x00\x00Web2py'
tRp4467
asbasbasbag48
(g64
g50
NtRp4468
(dp4469
g53
(dp4470
sg62
g4451
sg55
(lp4471
g48
(g69
g50
NtRp4472
(dp4473
g53
(dp4474
sg62
g4468
sg55
(lp4475
g48
(g49
g50
NtRp4476
(dp4477
g53
(dp4478
g61
I1
ssg62
g4472
sg55
(lp4479
I00
asbasbasbag48
(g64
g50
NtRp4480
(dp4481
g53
(dp4482
sg62
g4451
sg55
(lp4483
g48
(g69
g50
NtRp4484
(dp4485
g53
(dp4486
sg62
g4480
sg55
(lp4487
g48
(g49
g50
NtRp4488
(dp4489
g53
(dp4490
g61
I1
ssg62
g4484
sg55
(lp4491
S'http://www.web2py.com'
p4492
asbasbasbag48
(g64
g50
NtRp4493
(dp4494
g53
(dp4495
sg62
g4451
sg55
(lp4496
g48
(g69
g50
NtRp4497
(dp4498
g53
(dp4499
sg62
g4493
sg55
(lp4500
g48
(g49
g50
NtRp4501
(dp4502
g53
(dp4503
g61
I1
ssg62
g4497
sg55
(lp4504
(lp4505
(g3583
(S's\x08\x00\x00\x00Download'
tRp4506
I00
S'http://www.web2py.com/examples/default/download'
p4507
tp4508
a(g3583
(S's\x07\x00\x00\x00Support'
tRp4509
I00
S'http://www.web2py.com/examples/default/support'
p4510
tp4511
a(g3583
(S's\x0e\x00\x00\x00Quick Examples'
tRp4512
I00
S'http://web2py.com/examples/default/examples'
p4513
tp4514
a(g3583
(S's\x03\x00\x00\x00FAQ'
tRp4515
I00
S'http://web2py.com/AlterEgo'
p4516
tp4517
a(g3583
(S's\x11\x00\x00\x00Free Applications'
tRp4518
I00
S'http://web2py.com/appliances'
p4519
tp4520
a(g3583
(S's\x07\x00\x00\x00Plugins'
tRp4521
I00
S'http://web2py.com/plugins'
p4522
tp4523
a(g3583
(S's\x07\x00\x00\x00Recipes'
tRp4524
I00
S'http://web2pyslices.com/'
p4525
tp4526
a(g3583
(S's\x04\x00\x00\x00Demo'
tRp4527
I00
S'http://web2py.com/demo_admin'
p4528
tp4529
a(g3583
(S's\x08\x00\x00\x00Semantic'
tRp4530
I00
S'http://web2py.com/semantic'
p4531
tp4532
a(g3583
(S's\x07\x00\x00\x00Layouts'
tRp4533
I00
S'http://web2py.com/layouts'
p4534
tp4535
a(g3583
(S's\x06\x00\x00\x00Videos'
tRp4536
I00
S'http://www.web2py.com/examples/default/videos/'
p4537
tp4538
aasbasbasbasbasbasbasbasbasbasbasbasbasbasbasbasbasbasbasbag48
(g64
g50
NtRp4539
(dp4540
g53
(dp4541
sg62
g3098
sg55
(lp4542
g48
(g69
g50
NtRp4543
(dp4544
g53
(dp4545
g73
g74
ssg62
g4539
sg55
(lp4546
S'meta'
p4547
asbag48
(g69
g50
NtRp4548
(dp4549
g53
(dp4550
g80
g81
ssg62
g4539
sg55
(lp4551
S':'
asbag48
(g69
g50
NtRp4552
(dp4553
g53
(dp4554
sg62
g4539
sg55
(lp4555
g48
(g49
g50
NtRp4556
(dp4557
g53
(dp4558
g61
I5
ssg62
g4552
sg55
(lp4559
g48
(g57
g50
NtRp4560
(dp4561
g53
(dp4562
g61
I4
ssg62
Nsg55
(lp4563
g48
(g64
g50
NtRp4564
(dp4565
g53
(dp4566
sg62
g4560
sg55
(lp4567
g48
(g69
g50
NtRp4568
(dp4569
g53
(dp4570
g73
g74
ssg62
g4564
sg55
(lp4571
S'author'
p4572
asbag48
(g69
g50
NtRp4573
(dp4574
g53
(dp4575
g80
g81
ssg62
g4564
sg55
(lp4576
S':'
asbag48
(g69
g50
NtRp4577
(dp4578
g53
(dp4579
sg62
g4564
sg55
(lp4580
g48
(g49
g50
NtRp4581
(dp4582
g53
(dp4583
g61
I4
ssg62
g4577
sg55
(lp4584
S'Your Name <you@example.com>'
p4585
asbasbasbag48
(g64
g50
NtRp4586
(dp4587
g53
(dp4588
sg62
g4560
sg55
(lp4589
g48
(g69
g50
NtRp4590
(dp4591
g53
(dp4592
g73
g74
ssg62
g4586
sg55
(lp4593
S'copyright'
p4594
asbag48
(g69
g50
NtRp4595
(dp4596
g53
(dp4597
g80
g81
ssg62
g4586
sg55
(lp4598
S':'
asbag48
(g69
g50
NtRp4599
(dp4600
g53
(dp4601
sg62
g4586
sg55
(lp4602
g48
(g49
g50
NtRp4603
(dp4604
g53
(dp4605
g61
I4
ssg62
g4599
sg55
(lp4606
S'Copyright 2011'
p4607
asbasbasbag48
(g64
g50
NtRp4608
(dp4609
g53
(dp4610
sg62
g4560
sg55
(lp4611
g48
(g69
g50
NtRp4612
(dp4613
g53
(dp4614
g73
g74
ssg62
g4608
sg55
(lp4615
S'description'
p4616
asbag48
(g69
g50
NtRp4617
(dp4618
g53
(dp4619
g80
g81
ssg62
g4608
sg55
(lp4620
S':'
asbag48
(g69
g50
NtRp4621
(dp4622
g53
(dp4623
sg62
g4608
sg55
(lp4624
g48
(g49
g50
NtRp4625
(dp4626
g53
(dp4627
g61
I4
ssg62
g4621
sg55
(lp4628
S'a cool new app'
p4629
asbasbasbag48
(g64
g50
NtRp4630
(dp4631
g53
(dp4632
sg62
g4560
sg55
(lp4633
g48
(g69
g50
NtRp4634
(dp4635
g53
(dp4636
g73
g74
ssg62
g4630
sg55
(lp4637
S'generator'
p4638
asbag48
(g69
g50
NtRp4639
(dp4640
g53
(dp4641
g80
g81
ssg62
g4630
sg55
(lp4642
S':'
asbag48
(g69
g50
NtRp4643
(dp4644
g53
(dp4645
sg62
g4630
sg55
(lp4646
g48
(g49
g50
NtRp4647
(dp4648
g53
(dp4649
g61
I4
ssg62
g4643
sg55
(lp4650
S'Web2py Web Framework'
p4651
asbasbasbag48
(g64
g50
NtRp4652
(dp4653
g53
(dp4654
sg62
g4560
sg55
(lp4655
g48
(g69
g50
NtRp4656
(dp4657
g53
(dp4658
g73
g74
ssg62
g4652
sg55
(lp4659
S'keywords'
p4660
asbag48
(g69
g50
NtRp4661
(dp4662
g53
(dp4663
g80
g81
ssg62
g4652
sg55
(lp4664
S':'
asbag48
(g69
g50
NtRp4665
(dp4666
g53
(dp4667
sg62
g4652
sg55
(lp4668
g48
(g49
g50
NtRp4669
(dp4670
g53
(dp4671
g61
I4
ssg62
g4665
sg55
(lp4672
S'web2py, python, framework'
p4673
asbasbasbasbasbasbasbag48
(g64
g50
NtRp4674
(dp4675
g53
(dp4676
sg62
g3098
sg55
(lp4677
g48
(g69
g50
NtRp4678
(dp4679
g53
(dp4680
g73
g74
ssg62
g4674
sg55
(lp4681
S'postprocessing'
p4682
asbag48
(g69
g50
NtRp4683
(dp4684
g53
(dp4685
g80
g81
ssg62
g4674
sg55
(lp4686
S':'
asbag48
(g69
g50
NtRp4687
(dp4688
g53
(dp4689
sg62
g4674
sg55
(lp4690
g48
(g49
g50
NtRp4691
(dp4692
g53
(dp4693
g61
I5
ssg62
g4687
sg55
(lp4694
g48
(g57
g50
NtRp4695
(dp4696
g53
(dp4697
g61
I4
ssg62
Nsg55
(lp4698
sbasbasbasbag48
(g64
g50
NtRp4699
(dp4700
g53
(dp4701
sg62
g3098
sg55
(lp4702
g48
(g69
g50
NtRp4703
(dp4704
g53
(dp4705
g73
g74
ssg62
g4699
sg55
(lp4706
S'session_filename'
p4707
asbag48
(g69
g50
NtRp4708
(dp4709
g53
(dp4710
g80
g81
ssg62
g4699
sg55
(lp4711
S':'
asbag48
(g69
g50
NtRp4712
(dp4713
g53
(dp4714
sg62
g4699
sg55
(lp4715
g48
(g49
g50
NtRp4716
(dp4717
g53
(dp4718
g61
I5
ssg62
g4712
sg55
(lp4719
S'D:\\git_projs\\Gabblista\\web2py\\web2py\\applications\\Gabb1\\sessions\\127.0.0.1-5663819c-5505-438e-8cc4-a1a3d85d317a'
p4720
asbasbasbag48
(g64
g50
NtRp4721
(dp4722
g53
(dp4723
sg62
g3098
sg55
(lp4724
g48
(g69
g50
NtRp4725
(dp4726
g53
(dp4727
g73
g74
ssg62
g4721
sg55
(lp4728
S'session_id'
p4729
asbag48
(g69
g50
NtRp4730
(dp4731
g53
(dp4732
g80
g81
ssg62
g4721
sg55
(lp4733
S':'
asbag48
(g69
g50
NtRp4734
(dp4735
g53
(dp4736
sg62
g4721
sg55
(lp4737
g48
(g49
g50
NtRp4738
(dp4739
g53
(dp4740
g61
I5
ssg62
g4734
sg55
(lp4741
S'127.0.0.1-5663819c-5505-438e-8cc4-a1a3d85d317a'
p4742
asbasbasbag48
(g64
g50
NtRp4743
(dp4744
g53
(dp4745
sg62
g3098
sg55
(lp4746
g48
(g69
g50
NtRp4747
(dp4748
g53
(dp4749
g73
g74
ssg62
g4743
sg55
(lp4750
S'session_id_name'
p4751
asbag48
(g69
g50
NtRp4752
(dp4753
g53
(dp4754
g80
g81
ssg62
g4743
sg55
(lp4755
S':'
asbag48
(g69
g50
NtRp4756
(dp4757
g53
(dp4758
sg62
g4743
sg55
(lp4759
g48
(g49
g50
NtRp4760
(dp4761
g53
(dp4762
g61
I5
ssg62
g4756
sg55
(lp4763
g3155
asbasbasbag48
(g64
g50
NtRp4764
(dp4765
g53
(dp4766
sg62
g3098
sg55
(lp4767
g48
(g69
g50
NtRp4768
(dp4769
g53
(dp4770
g73
g74
ssg62
g4764
sg55
(lp4771
S'session_new'
p4772
asbag48
(g69
g50
NtRp4773
(dp4774
g53
(dp4775
g80
g81
ssg62
g4764
sg55
(lp4776
S':'
asbag48
(g69
g50
NtRp4777
(dp4778
g53
(dp4779
sg62
g4764
sg55
(lp4780
g48
(g49
g50
NtRp4781
(dp4782
g53
(dp4783
g61
I5
ssg62
g4777
sg55
(lp4784
g1632
asbasbasbag48
(g64
g50
NtRp4785
(dp4786
g53
(dp4787
sg62
g3098
sg55
(lp4788
g48
(g69
g50
NtRp4789
(dp4790
g53
(dp4791
g73
g74
ssg62
g4785
sg55
(lp4792
S'status'
p4793
asbag48
(g69
g50
NtRp4794
(dp4795
g53
(dp4796
g80
g81
ssg62
g4785
sg55
(lp4797
S':'
asbag48
(g69
g50
NtRp4798
(dp4799
g53
(dp4800
sg62
g4785
sg55
(lp4801
g48
(g49
g50
NtRp4802
(dp4803
g53
(dp4804
g61
I5
ssg62
g4798
sg55
(lp4805
S'200'
p4806
asbasbasbag48
(g64
g50
NtRp4807
(dp4808
g53
(dp4809
sg62
g3098
sg55
(lp4810
g48
(g69
g50
NtRp4811
(dp4812
g53
(dp4813
g73
g74
ssg62
g4807
sg55
(lp4814
S'subtitle'
p4815
asbag48
(g69
g50
NtRp4816
(dp4817
g53
(dp4818
g80
g81
ssg62
g4807
sg55
(lp4819
S':'
asbag48
(g69
g50
NtRp4820
(dp4821
g53
(dp4822
sg62
g4807
sg55
(lp4823
g48
(g49
g50
NtRp4824
(dp4825
g53
(dp4826
g61
I5
ssg62
g4820
sg55
(lp4827
g3583
(S's\r\x00\x00\x00customize me!'
tRp4828
asbasbasbag48
(g64
g50
NtRp4829
(dp4830
g53
(dp4831
sg62
g3098
sg55
(lp4832
g48
(g69
g50
NtRp4833
(dp4834
g53
(dp4835
g73
g74
ssg62
g4829
sg55
(lp4836
S'title'
p4837
asbag48
(g69
g50
NtRp4838
(dp4839
g53
(dp4840
g80
g81
ssg62
g4829
sg55
(lp4841
S':'
asbag48
(g69
g50
NtRp4842
(dp4843
g53
(dp4844
sg62
g4829
sg55
(lp4845
g48
(g49
g50
NtRp4846
(dp4847
g53
(dp4848
g61
I5
ssg62
g4842
sg55
(lp4849
g113
asbasbasbag48
(g64
g50
NtRp4850
(dp4851
g53
(dp4852
sg62
g3098
sg55
(lp4853
g48
(g69
g50
NtRp4854
(dp4855
g53
(dp4856
g73
g74
ssg62
g4850
sg55
(lp4857
g2319
asbag48
(g69
g50
NtRp4858
(dp4859
g53
(dp4860
g80
g81
ssg62
g4850
sg55
(lp4861
S':'
asbag48
(g69
g50
NtRp4862
(dp4863
g53
(dp4864
sg62
g4850
sg55
(lp4865
g48
(g49
g50
NtRp4866
(dp4867
g53
(dp4868
g61
I5
ssg62
g4862
sg55
(lp4869
g2332
asbasbasbag48
(g64
g50
NtRp4870
(dp4871
g53
(dp4872
sg62
g3098
sg55
(lp4873
g48
(g69
g50
NtRp4874
(dp4875
g53
(dp4876
g73
g74
ssg62
g4870
sg55
(lp4877
S'view'
p4878
asbag48
(g69
g50
NtRp4879
(dp4880
g53
(dp4881
g80
g81
ssg62
g4870
sg55
(lp4882
S':'
asbag48
(g69
g50
NtRp4883
(dp4884
g53
(dp4885
sg62
g4870
sg55
(lp4886
g48
(g49
g50
NtRp4887
(dp4888
g53
(dp4889
g61
I5
ssg62
g4883
sg55
(lp4890
S'fb_serv/serve_player_data.txt'
p4891
asbasbasbasbasbsS'locals'
p4892
(dp4893
S'Service'
p4894
S"<class 'gluon.tools.Service'>"
p4895
sS'OBJECT'
p4896
S"<class 'gluon.html.OBJECT'>"
p4897
sS'SQLDB'
p4898
S"<class 'gluon.dal.DAL'>"
p4899
sg3080
S"<Storage {'_Session__hash': '\\xc8[\\xd5\\xc1#\\xd8e\\x10\\xe3\\x06\\x0ba\\xddT\\x92m'}>"
p4900
sS'LINK'
p4901
S"<class 'gluon.html.LINK'>"
p4902
sS'BR'
p4903
S"<class 'gluon.html.BR'>"
p4904
sS'local_import'
p4905
S'<function <lambda> at 0x0349AF30>'
p4906
sS'OPTGROUP'
p4907
S"<class 'gluon.html.OPTGROUP'>"
p4908
sS'PRE'
p4909
S"<class 'gluon.html.PRE'>"
p4910
sS'IS_INT_IN_RANGE'
p4911
S"<class 'gluon.validators.IS_INT_IN_RANGE'>"
p4912
sS'IS_LOWER'
p4913
S"<class 'gluon.validators.IS_LOWER'>"
p4914
sS'IS_STRONG'
p4915
S"<class 'gluon.validators.IS_STRONG'>"
p4916
sS'cache'
p4917
S'<gluon.cache.Cache object at 0x03B3B3D0>'
p4918
sS'IS_IN_DB'
p4919
S"<class 'gluon.validators.IS_IN_DB'>"
p4920
sS'TAG'
p4921
S'<gluon.html.__TAG__ object at 0x02F27610>'
p4922
sS'SQLField'
p4923
S"<class 'gluon.dal.Field'>"
p4924
sS'mail'
p4925
S'<gluon.tools.Mail object at 0x0349F450>'
p4926
sS'BODY'
p4927
S"<class 'gluon.html.BODY'>"
p4928
sS'IS_DATE_IN_RANGE'
p4929
S"<class 'gluon.validators.IS_DATE_IN_RANGE'>"
p4930
sS'TH'
p4931
S"<class 'gluon.html.TH'>"
p4932
sS'URL'
p4933
S'<function URL at 0x02F056B0>'
p4934
sS'__file__'
p4935
S"r'D:\\git_projs\\Gabblista\\web2py\\web2py\\applications\\Gabb1\\views\\fb_serv/serve_player_data.txt'"
p4936
sS'db'
p4937
S"<DAL {'auth_event': <Table {'origin': <gluon.dal...'_id': <gluon.dal.Field object at 0x0349F4D0>}>}>"
p4938
sS'auth'
p4939
S'<gluon.tools.Auth object at 0x0349FED0>'
p4940
sS'P'
S"<class 'gluon.html.P'>"
p4941
sS'TFOOT'
p4942
S"<class 'gluon.html.TFOOT'>"
p4943
sS'XHTML'
p4944
S"<class 'gluon.html.XHTML'>"
p4945
sS'ON'
p4946
g1632
sS'OL'
p4947
S"<class 'gluon.html.OL'>"
p4948
sS'TEXTAREA'
p4949
S"<class 'gluon.html.TEXTAREA'>"
p4950
sS'settings'
p4951
S"<Storage {'layout_theme': 'Default', 'subtitle':...l_server': 'localhost', 'login_method': 'local'}>"
p4952
sS'MENU'
p4953
S"<class 'gluon.html.MENU'>"
p4954
sS'LOAD'
p4955
S'<gluon.compileapp.LoadFactory object at 0x0349F090>'
p4956
sS'CODE'
p4957
S"<class 'gluon.html.CODE'>"
p4958
sS'HTTP'
p4959
S"<class 'gluon.http.HTTP'>"
p4960
sS'HR'
p4961
S"<class 'gluon.html.HR'>"
p4962
sS'IS_DATETIME'
p4963
S"<class 'gluon.validators.IS_DATETIME'>"
p4964
sS'Storage'
p4965
S"<class 'gluon.storage.Storage'>"
p4966
sS'HEAD'
p4967
S"<class 'gluon.html.HEAD'>"
p4968
sS'LABEL'
p4969
S"<class 'gluon.html.LABEL'>"
p4970
sS'CLEANUP'
p4971
S"<class 'gluon.validators.CLEANUP'>"
p4972
sS'plugins'
p4973
S'<gluon.tools.PluginManager object at 0x0349FE10>'
p4974
sS'SELECT'
p4975
S"<class 'gluon.html.SELECT'>"
p4976
sS'use_janrain'
p4977
S'<function use_janrain at 0x03A869F0>'
p4978
sS'CENTER'
p4979
S"<class 'gluon.html.CENTER'>"
p4980
sS'prettydate'
p4981
S'<function prettydate at 0x03A862B0>'
p4982
sS'Crud'
p4983
S"<class 'gluon.tools.Crud'>"
p4984
sS'Auth'
p4985
S"<class 'gluon.tools.Auth'>"
p4986
sS'__builtins__'
p4987
S"{'ArithmeticError': <type 'exceptions.ArithmeticError'>, 'AssertionError': <type 'exceptions.AssertionError'>, 'AttributeError': <type 'exceptions.AttributeError'>, 'BaseException': <type 'exceptions.BaseException'>, 'DeprecationWarning': <type 'exceptions.DeprecationWarning'>, 'EOFError': <type 'exceptions.EOFError'>, 'Ellipsis': Ellipsis, 'EnvironmentError': <type 'exceptions.EnvironmentError'>, 'Exception': <type 'exceptions.Exception'>, 'False': False, ...}"
p4988
sS'HTML'
p4989
S"<class 'gluon.html.HTML'>"
p4990
sS'SQLFORM'
p4991
S"<class 'gluon.sqlhtml.SQLFORM'>"
p4992
sS'EM'
p4993
S"<class 'gluon.html.EM'>"
p4994
sS'redirect'
p4995
S'<function redirect at 0x026A4BF0>'
p4996
sS'FIELDSET'
p4997
S"<class 'gluon.html.FIELDSET'>"
p4998
sS'IS_EQUAL_TO'
p4999
S"<class 'gluon.validators.IS_EQUAL_TO'>"
p5000
sS'embed64'
p5001
S'<function embed64 at 0x02F161B0>'
p5002
sS'IS_LIST_OF'
p5003
S"<class 'gluon.validators.IS_LIST_OF'>"
p5004
sS'INPUT'
p5005
S"<class 'gluon.html.INPUT'>"
p5006
sS'EMBED'
p5007
S"<class 'gluon.html.EMBED'>"
p5008
sS'_'
S'<function _ at 0x034ED170>'
p5009
sS'FORM'
p5010
S"<class 'gluon.html.FORM'>"
p5011
sS'H2'
p5012
S"<class 'gluon.html.H2'>"
p5013
sS'H3'
p5014
S"<class 'gluon.html.H3'>"
p5015
sS'BUTTON'
p5016
S"<class 'gluon.html.BUTTON'>"
p5017
sS'H1'
p5018
S"<class 'gluon.html.H1'>"
p5019
sS'H6'
p5020
S"<class 'gluon.html.H6'>"
p5021
sS'H4'
p5022
S"<class 'gluon.html.H4'>"
p5023
sS'H5'
p5024
S"<class 'gluon.html.H5'>"
p5025
sS'UL'
p5026
S"<class 'gluon.html.UL'>"
p5027
sS'IS_UPPER'
p5028
S"<class 'gluon.validators.IS_UPPER'>"
p5029
sS'xmlescape'
p5030
S'<function xmlescape at 0x02F05630>'
p5031
sS'IS_TIME'
p5032
S"<class 'gluon.validators.IS_TIME'>"
p5033
sS'OPTION'
p5034
S"<class 'gluon.html.OPTION'>"
p5035
sS'TITLE'
p5036
S"<class 'gluon.html.TITLE'>"
p5037
sS'CRYPT'
p5038
S"<class 'gluon.validators.CRYPT'>"
p5039
sS'IS_EMPTY_OR'
p5040
S"<class 'gluon.validators.IS_EMPTY_OR'>"
p5041
sS'MARKMIN'
p5042
S"<class 'gluon.html.MARKMIN'>"
p5043
sS'message'
p5044
S"'Test'"
p5045
sS'COL'
p5046
S"<class 'gluon.html.COL'>"
p5047
sS'service'
p5048
S'<gluon.tools.Service object at 0x0349FDB0>'
p5049
sS'SCRIPT'
p5050
S"<class 'gluon.html.SCRIPT'>"
p5051
sS'TABLE'
p5052
S"<class 'gluon.html.TABLE'>"
p5053
sS'IS_IPV4'
p5054
S"<class 'gluon.validators.IS_IPV4'>"
p5055
sS'IS_LENGTH'
p5056
S"<class 'gluon.validators.IS_LENGTH'>"
p5057
sS'XML'
p5058
S"<class 'gluon.html.XML'>"
p5059
sS'B'
S"<class 'gluon.html.B'>"
p5060
sS'IMG'
p5061
S"<class 'gluon.html.IMG'>"
p5062
sS'SQLTABLE'
p5063
S"<class 'gluon.sqlhtml.SQLTABLE'>"
p5064
sS'IS_MATCH'
p5065
S"<class 'gluon.validators.IS_MATCH'>"
p5066
sS'IS_ALPHANUMERIC'
p5067
S"<class 'gluon.validators.IS_ALPHANUMERIC'>"
p5068
sS'SPAN'
p5069
S"<class 'gluon.html.SPAN'>"
p5070
sS'IS_SLUG'
p5071
S"<class 'gluon.validators.IS_SLUG'>"
p5072
sS'BEAUTIFY'
p5073
S"<class 'gluon.html.BEAUTIFY'>"
p5074
sS'META'
p5075
S"<class 'gluon.html.META'>"
p5076
sS'IS_DATE'
p5077
S"<class 'gluon.validators.IS_DATE'>"
p5078
sS'IS_EMAIL'
p5079
S"<class 'gluon.validators.IS_EMAIL'>"
p5080
sS'IS_NOT_EMPTY'
p5081
S"<class 'gluon.validators.IS_NOT_EMPTY'>"
p5082
sS'IS_FLOAT_IN_RANGE'
p5083
S"<class 'gluon.validators.IS_FLOAT_IN_RANGE'>"
p5084
sS'TBODY'
p5085
S"<class 'gluon.html.TBODY'>"
p5086
sS'CAT'
p5087
S"<class 'gluon.html.CAT'>"
p5088
sS'Field'
p5089
S"<class 'gluon.dal.Field'>"
p5090
sS'DIV'
p5091
S"<class 'gluon.html.DIV'>"
p5092
sS'LEGEND'
p5093
S"<class 'gluon.html.LEGEND'>"
p5094
sS'COLGROUP'
p5095
S"<class 'gluon.html.COLGROUP'>"
p5096
sS'DAL'
p5097
S"<class 'gluon.dal.DAL'>"
p5098
sS'TT'
p5099
S"<class 'gluon.html.TT'>"
p5100
sS'TR'
p5101
S"<class 'gluon.html.TR'>"
p5102
sS'LI'
p5103
S"<class 'gluon.html.LI'>"
p5104
sS'IFRAME'
p5105
S"<class 'gluon.html.IFRAME'>"
p5106
sS'TD'
p5107
S"<class 'gluon.html.TD'>"
p5108
sS'PluginManager'
p5109
S"<class 'gluon.tools.PluginManager'>"
p5110
sS'IS_URL'
p5111
S"<class 'gluon.validators.IS_URL'>"
p5112
sS'A'
S"<class 'gluon.html.A'>"
p5113
sS'STYLE'
p5114
S"<class 'gluon.html.STYLE'>"
p5115
sS'IS_DATETIME_IN_RANGE'
p5116
S"<class 'gluon.validators.IS_DATETIME_IN_RANGE'>"
p5117
sS'IS_IMAGE'
p5118
S"<class 'gluon.validators.IS_IMAGE'>"
p5119
sS'I'
S"<class 'gluon.html.I'>"
p5120
sS'crud'
p5121
S'<gluon.tools.Crud object at 0x0349FEB0>'
p5122
sS'IS_NOT_IN_DB'
p5123
S"<class 'gluon.validators.IS_NOT_IN_DB'>"
p5124
sg3093
S"<Storage {'status': 200, 'body': <cStringIO.Stri...s': [], 'view': 'fb_serv/serve_player_data.txt'}>"
p5125
sS'THEAD'
p5126
S"<class 'gluon.html.THEAD'>"
p5127
sS'IS_NULL_OR'
p5128
S"<class 'gluon.validators.IS_EMPTY_OR'>"
p5129
sg47
S"<Storage {'body': <cStringIO.StringO object at 0...est_var': 'blargh'}>, 'post_vars': <Storage {}>}>"
p5130
sS'IS_EXPR'
p5131
S"<class 'gluon.validators.IS_EXPR'>"
p5132
sS'T'
S'<gluon.languages.translator object at 0x03B3B790>'
p5133
sS'IS_IN_SET'
p5134
S"<class 'gluon.validators.IS_IN_SET'>"
p5135
sS'IS_UPLOAD_FILENAME'
p5136
S"<class 'gluon.validators.IS_UPLOAD_FILENAME'>"
p5137
sS'IS_DECIMAL_IN_RANGE'
p5138
S"<class 'gluon.validators.IS_DECIMAL_IN_RANGE'>"
p5139
sssS'traceback'
p5140
S'Traceback (most recent call last):\n  File "D:\\git_projs\\Gabblista\\web2py\\web2py\\gluon\\restricted.py", line 194, in restricted\n    exec ccode in environment\n  File "D:\\git_projs\\Gabblista\\web2py\\web2py\\applications\\Gabb1\\views\\fb_serv/serve_player_data.txt", line 3, in <module>\n    {{=test_var}}\nNameError: name \'test_var\' is not defined\n'
p5141
s.