(dp1
S'output'
p2
S''
sS'layer'
p3
S'D:\\git_projs\\Gabblista\\web2py\\web2py\\applications\\Gabb1\\controllers/fb_serv.py'
p4
sS'code'
p5
S'# -*- coding: utf-8 -*-\n\ndef game():\n    return dict(message="test")\n\ndef serve_dict():\n    # Serves the generic dictionary \n    return dict(message="Jack the dict in here")\n\ndef serve_player_data():\n    test_var = request.vars.test_var\n    return dict(message="Test",test_var=test_var)\n\ndef js_0():\n    \n    host_domain = "http://127.0.0.1:8000/gabb1/fb_serv"\n    return dict(host_domain=host_domain,test_var=test_var)\n\ndef js_1():\n    return dict()\n\ndef js_2():\n    return dict()\n\ndef js_3():\n    return\n\ndef js_4():\n    return \n\ndef js_5():\n    return\n\ndef js_6():\n    return \n\nresponse._vars=response._caller(js_0)\n'
p6
sS'snapshot'
p7
(dp8
S'exception'
p9
(dp10
S'__hash__'
p11
S"<method-wrapper '__hash__' of exceptions.NameError object at 0x034E26E8>"
p12
sS'__setattr__'
p13
S"<method-wrapper '__setattr__' of exceptions.NameError object at 0x034E26E8>"
p14
sS'__reduce_ex__'
p15
S'<built-in method __reduce_ex__ of exceptions.NameError object at 0x034E26E8>'
p16
sS'__getslice__'
p17
S"<method-wrapper '__getslice__' of exceptions.NameError object at 0x034E26E8>"
p18
sS'__getitem__'
p19
S"<method-wrapper '__getitem__' of exceptions.NameError object at 0x034E26E8>"
p20
sS'__setstate__'
p21
S'<built-in method __setstate__ of exceptions.NameError object at 0x034E26E8>'
p22
sS'__reduce__'
p23
S'<built-in method __reduce__ of exceptions.NameError object at 0x034E26E8>'
p24
sS'__str__'
p25
S"<method-wrapper '__str__' of exceptions.NameError object at 0x034E26E8>"
p26
sS'args'
p27
S'("global name \'test_var\' is not defined",)'
p28
sS'__getattribute__'
p29
S"<method-wrapper '__getattribute__' of exceptions.NameError object at 0x034E26E8>"
p30
sS'__class__'
p31
S"<type 'exceptions.NameError'>"
p32
sS'__delattr__'
p33
S"<method-wrapper '__delattr__' of exceptions.NameError object at 0x034E26E8>"
p34
sS'__repr__'
p35
S"<method-wrapper '__repr__' of exceptions.NameError object at 0x034E26E8>"
p36
sS'__dict__'
p37
S'{}'
p38
sS'__doc__'
p39
S"'Name not found globally.'"
p40
sS'__init__'
p41
S"<method-wrapper '__init__' of exceptions.NameError object at 0x034E26E8>"
p42
sS'__new__'
p43
S'<built-in method __new__ of type object at 0x1E1CD8D8>'
p44
ssS'evalue'
p45
S"global name 'test_var' is not defined"
p46
sS'request'
p47
ccopy_reg
_reconstructor
p48
(cgluon.html
BEAUTIFY
p49
c__builtin__
object
p50
NtRp51
(dp52
S'attributes'
p53
(dp54
sS'components'
p55
(lp56
g48
(cgluon.html
TABLE
p57
g50
NtRp58
(dp59
g53
(dp60
S'level'
p61
I5
ssS'parent'
p62
Nsg55
(lp63
g48
(cgluon.html
TR
p64
g50
NtRp65
(dp66
g53
(dp67
sg62
g58
sg55
(lp68
g48
(cgluon.html
TD
p69
g50
NtRp70
(dp71
g53
(dp72
S'_style'
p73
S'font-weight:bold;'
p74
ssg62
g65
sg55
(lp75
S'ajax'
p76
asbag48
(g69
g50
NtRp77
(dp78
g53
(dp79
S'_valign'
p80
S'top'
p81
ssg62
g65
sg55
(lp82
S':'
asbag48
(g69
g50
NtRp83
(dp84
g53
(dp85
sg62
g65
sg55
(lp86
g48
(g49
g50
NtRp87
(dp88
g53
(dp89
g61
I5
ssg62
g83
sg55
(lp90
S'False'
p91
asbasbasbag48
(g64
g50
NtRp92
(dp93
g53
(dp94
sg62
g58
sg55
(lp95
g48
(g69
g50
NtRp96
(dp97
g53
(dp98
g73
g74
ssg62
g92
sg55
(lp99
S'application'
p100
asbag48
(g69
g50
NtRp101
(dp102
g53
(dp103
g80
g81
ssg62
g92
sg55
(lp104
S':'
asbag48
(g69
g50
NtRp105
(dp106
g53
(dp107
sg62
g92
sg55
(lp108
g48
(g49
g50
NtRp109
(dp110
g53
(dp111
g61
I5
ssg62
g105
sg55
(lp112
S'Gabb1'
p113
asbasbasbag48
(g64
g50
NtRp114
(dp115
g53
(dp116
sg62
g58
sg55
(lp117
g48
(g69
g50
NtRp118
(dp119
g53
(dp120
g73
g74
ssg62
g114
sg55
(lp121
g27
asbag48
(g69
g50
NtRp122
(dp123
g53
(dp124
g80
g81
ssg62
g114
sg55
(lp125
S':'
asbag48
(g69
g50
NtRp126
(dp127
g53
(dp128
sg62
g114
sg55
(lp129
g48
(g49
g50
NtRp130
(dp131
g53
(dp132
g61
I5
ssg62
g126
sg55
(lp133
g48
(g57
g50
NtRp134
(dp135
g53
(dp136
g61
I4
ssg62
Nsg55
(lp137
sbasbasbasbag48
(g64
g50
NtRp138
(dp139
g53
(dp140
sg62
g58
sg55
(lp141
g48
(g69
g50
NtRp142
(dp143
g53
(dp144
g73
g74
ssg62
g138
sg55
(lp145
S'body'
p146
asbag48
(g69
g50
NtRp147
(dp148
g53
(dp149
g80
g81
ssg62
g138
sg55
(lp150
S':'
asbag48
(g69
g50
NtRp151
(dp152
g53
(dp153
sg62
g138
sg55
(lp154
g48
(g49
g50
NtRp155
(dp156
g53
(dp157
g61
I5
ssg62
g151
sg55
(lp158
S'<cStringIO.StringO object at 0x034A4160>'
p159
asbasbasbag48
(g64
g50
NtRp160
(dp161
g53
(dp162
sg62
g58
sg55
(lp163
g48
(g69
g50
NtRp164
(dp165
g53
(dp166
g73
g74
ssg62
g160
sg55
(lp167
S'client'
p168
asbag48
(g69
g50
NtRp169
(dp170
g53
(dp171
g80
g81
ssg62
g160
sg55
(lp172
S':'
asbag48
(g69
g50
NtRp173
(dp174
g53
(dp175
sg62
g160
sg55
(lp176
g48
(g49
g50
NtRp177
(dp178
g53
(dp179
g61
I5
ssg62
g173
sg55
(lp180
S'127.0.0.1'
p181
asbasbasbag48
(g64
g50
NtRp182
(dp183
g53
(dp184
sg62
g58
sg55
(lp185
g48
(g69
g50
NtRp186
(dp187
g53
(dp188
g73
g74
ssg62
g182
sg55
(lp189
S'controller'
p190
asbag48
(g69
g50
NtRp191
(dp192
g53
(dp193
g80
g81
ssg62
g182
sg55
(lp194
S':'
asbag48
(g69
g50
NtRp195
(dp196
g53
(dp197
sg62
g182
sg55
(lp198
g48
(g49
g50
NtRp199
(dp200
g53
(dp201
g61
I5
ssg62
g195
sg55
(lp202
S'fb_serv'
p203
asbasbasbag48
(g64
g50
NtRp204
(dp205
g53
(dp206
sg62
g58
sg55
(lp207
g48
(g69
g50
NtRp208
(dp209
g53
(dp210
g73
g74
ssg62
g204
sg55
(lp211
S'cookies'
p212
asbag48
(g69
g50
NtRp213
(dp214
g53
(dp215
g80
g81
ssg62
g204
sg55
(lp216
S':'
asbag48
(g69
g50
NtRp217
(dp218
g53
(dp219
sg62
g204
sg55
(lp220
g48
(g49
g50
NtRp221
(dp222
g53
(dp223
g61
I5
ssg62
g217
sg55
(lp224
g48
(g57
g50
NtRp225
(dp226
g53
(dp227
g61
I4
ssg62
Nsg55
(lp228
g48
(g64
g50
NtRp229
(dp230
g53
(dp231
sg62
g225
sg55
(lp232
g48
(g69
g50
NtRp233
(dp234
g53
(dp235
g73
g74
ssg62
g229
sg55
(lp236
S'session_id_admin'
p237
asbag48
(g69
g50
NtRp238
(dp239
g53
(dp240
g80
g81
ssg62
g229
sg55
(lp241
S':'
asbag48
(g69
g50
NtRp242
(dp243
g53
(dp244
sg62
g229
sg55
(lp245
g48
(g49
g50
NtRp246
(dp247
g53
(dp248
g61
I4
ssg62
g242
sg55
(lp249
g48
(g57
g50
NtRp250
(dp251
g53
(dp252
g61
I3
ssg62
Nsg55
(lp253
g48
(g64
g50
NtRp254
(dp255
g53
(dp256
sg62
g250
sg55
(lp257
g48
(g69
g50
NtRp258
(dp259
g53
(dp260
g73
g74
ssg62
g254
sg55
(lp261
S'comment'
p262
asbag48
(g69
g50
NtRp263
(dp264
g53
(dp265
g80
g81
ssg62
g254
sg55
(lp266
S':'
asbag48
(g69
g50
NtRp267
(dp268
g53
(dp269
sg62
g254
sg55
(lp270
g48
(g49
g50
NtRp271
(dp272
g53
(dp273
g61
I3
ssg62
g267
sg55
(lp274
S''
asbasbasbag48
(g64
g50
NtRp275
(dp276
g53
(dp277
sg62
g250
sg55
(lp278
g48
(g69
g50
NtRp279
(dp280
g53
(dp281
g73
g74
ssg62
g275
sg55
(lp282
S'domain'
p283
asbag48
(g69
g50
NtRp284
(dp285
g53
(dp286
g80
g81
ssg62
g275
sg55
(lp287
S':'
asbag48
(g69
g50
NtRp288
(dp289
g53
(dp290
sg62
g275
sg55
(lp291
g48
(g49
g50
NtRp292
(dp293
g53
(dp294
g61
I3
ssg62
g288
sg55
(lp295
S''
asbasbasbag48
(g64
g50
NtRp296
(dp297
g53
(dp298
sg62
g250
sg55
(lp299
g48
(g69
g50
NtRp300
(dp301
g53
(dp302
g73
g74
ssg62
g296
sg55
(lp303
S'expires'
p304
asbag48
(g69
g50
NtRp305
(dp306
g53
(dp307
g80
g81
ssg62
g296
sg55
(lp308
S':'
asbag48
(g69
g50
NtRp309
(dp310
g53
(dp311
sg62
g296
sg55
(lp312
g48
(g49
g50
NtRp313
(dp314
g53
(dp315
g61
I3
ssg62
g309
sg55
(lp316
S''
asbasbasbag48
(g64
g50
NtRp317
(dp318
g53
(dp319
sg62
g250
sg55
(lp320
g48
(g69
g50
NtRp321
(dp322
g53
(dp323
g73
g74
ssg62
g317
sg55
(lp324
S'max-age'
p325
asbag48
(g69
g50
NtRp326
(dp327
g53
(dp328
g80
g81
ssg62
g317
sg55
(lp329
S':'
asbag48
(g69
g50
NtRp330
(dp331
g53
(dp332
sg62
g317
sg55
(lp333
g48
(g49
g50
NtRp334
(dp335
g53
(dp336
g61
I3
ssg62
g330
sg55
(lp337
S''
asbasbasbag48
(g64
g50
NtRp338
(dp339
g53
(dp340
sg62
g250
sg55
(lp341
g48
(g69
g50
NtRp342
(dp343
g53
(dp344
g73
g74
ssg62
g338
sg55
(lp345
S'path'
p346
asbag48
(g69
g50
NtRp347
(dp348
g53
(dp349
g80
g81
ssg62
g338
sg55
(lp350
S':'
asbag48
(g69
g50
NtRp351
(dp352
g53
(dp353
sg62
g338
sg55
(lp354
g48
(g49
g50
NtRp355
(dp356
g53
(dp357
g61
I3
ssg62
g351
sg55
(lp358
S''
asbasbasbag48
(g64
g50
NtRp359
(dp360
g53
(dp361
sg62
g250
sg55
(lp362
g48
(g69
g50
NtRp363
(dp364
g53
(dp365
g73
g74
ssg62
g359
sg55
(lp366
S'secure'
p367
asbag48
(g69
g50
NtRp368
(dp369
g53
(dp370
g80
g81
ssg62
g359
sg55
(lp371
S':'
asbag48
(g69
g50
NtRp372
(dp373
g53
(dp374
sg62
g359
sg55
(lp375
g48
(g49
g50
NtRp376
(dp377
g53
(dp378
g61
I3
ssg62
g372
sg55
(lp379
S''
asbasbasbag48
(g64
g50
NtRp380
(dp381
g53
(dp382
sg62
g250
sg55
(lp383
g48
(g69
g50
NtRp384
(dp385
g53
(dp386
g73
g74
ssg62
g380
sg55
(lp387
S'version'
p388
asbag48
(g69
g50
NtRp389
(dp390
g53
(dp391
g80
g81
ssg62
g380
sg55
(lp392
S':'
asbag48
(g69
g50
NtRp393
(dp394
g53
(dp395
sg62
g380
sg55
(lp396
g48
(g49
g50
NtRp397
(dp398
g53
(dp399
g61
I3
ssg62
g393
sg55
(lp400
S''
asbasbasbasbasbasbasbag48
(g64
g50
NtRp401
(dp402
g53
(dp403
sg62
g225
sg55
(lp404
g48
(g69
g50
NtRp405
(dp406
g53
(dp407
g73
g74
ssg62
g401
sg55
(lp408
S'session_id_gabb1'
p409
asbag48
(g69
g50
NtRp410
(dp411
g53
(dp412
g80
g81
ssg62
g401
sg55
(lp413
S':'
asbag48
(g69
g50
NtRp414
(dp415
g53
(dp416
sg62
g401
sg55
(lp417
g48
(g49
g50
NtRp418
(dp419
g53
(dp420
g61
I4
ssg62
g414
sg55
(lp421
g48
(g57
g50
NtRp422
(dp423
g53
(dp424
g61
I3
ssg62
Nsg55
(lp425
g48
(g64
g50
NtRp426
(dp427
g53
(dp428
sg62
g422
sg55
(lp429
g48
(g69
g50
NtRp430
(dp431
g53
(dp432
g73
g74
ssg62
g426
sg55
(lp433
g262
asbag48
(g69
g50
NtRp434
(dp435
g53
(dp436
g80
g81
ssg62
g426
sg55
(lp437
S':'
asbag48
(g69
g50
NtRp438
(dp439
g53
(dp440
sg62
g426
sg55
(lp441
g48
(g49
g50
NtRp442
(dp443
g53
(dp444
g61
I3
ssg62
g438
sg55
(lp445
S''
asbasbasbag48
(g64
g50
NtRp446
(dp447
g53
(dp448
sg62
g422
sg55
(lp449
g48
(g69
g50
NtRp450
(dp451
g53
(dp452
g73
g74
ssg62
g446
sg55
(lp453
g283
asbag48
(g69
g50
NtRp454
(dp455
g53
(dp456
g80
g81
ssg62
g446
sg55
(lp457
S':'
asbag48
(g69
g50
NtRp458
(dp459
g53
(dp460
sg62
g446
sg55
(lp461
g48
(g49
g50
NtRp462
(dp463
g53
(dp464
g61
I3
ssg62
g458
sg55
(lp465
S''
asbasbasbag48
(g64
g50
NtRp466
(dp467
g53
(dp468
sg62
g422
sg55
(lp469
g48
(g69
g50
NtRp470
(dp471
g53
(dp472
g73
g74
ssg62
g466
sg55
(lp473
g304
asbag48
(g69
g50
NtRp474
(dp475
g53
(dp476
g80
g81
ssg62
g466
sg55
(lp477
S':'
asbag48
(g69
g50
NtRp478
(dp479
g53
(dp480
sg62
g466
sg55
(lp481
g48
(g49
g50
NtRp482
(dp483
g53
(dp484
g61
I3
ssg62
g478
sg55
(lp485
S''
asbasbasbag48
(g64
g50
NtRp486
(dp487
g53
(dp488
sg62
g422
sg55
(lp489
g48
(g69
g50
NtRp490
(dp491
g53
(dp492
g73
g74
ssg62
g486
sg55
(lp493
g325
asbag48
(g69
g50
NtRp494
(dp495
g53
(dp496
g80
g81
ssg62
g486
sg55
(lp497
S':'
asbag48
(g69
g50
NtRp498
(dp499
g53
(dp500
sg62
g486
sg55
(lp501
g48
(g49
g50
NtRp502
(dp503
g53
(dp504
g61
I3
ssg62
g498
sg55
(lp505
S''
asbasbasbag48
(g64
g50
NtRp506
(dp507
g53
(dp508
sg62
g422
sg55
(lp509
g48
(g69
g50
NtRp510
(dp511
g53
(dp512
g73
g74
ssg62
g506
sg55
(lp513
g346
asbag48
(g69
g50
NtRp514
(dp515
g53
(dp516
g80
g81
ssg62
g506
sg55
(lp517
S':'
asbag48
(g69
g50
NtRp518
(dp519
g53
(dp520
sg62
g506
sg55
(lp521
g48
(g49
g50
NtRp522
(dp523
g53
(dp524
g61
I3
ssg62
g518
sg55
(lp525
S''
asbasbasbag48
(g64
g50
NtRp526
(dp527
g53
(dp528
sg62
g422
sg55
(lp529
g48
(g69
g50
NtRp530
(dp531
g53
(dp532
g73
g74
ssg62
g526
sg55
(lp533
g367
asbag48
(g69
g50
NtRp534
(dp535
g53
(dp536
g80
g81
ssg62
g526
sg55
(lp537
S':'
asbag48
(g69
g50
NtRp538
(dp539
g53
(dp540
sg62
g526
sg55
(lp541
g48
(g49
g50
NtRp542
(dp543
g53
(dp544
g61
I3
ssg62
g538
sg55
(lp545
S''
asbasbasbag48
(g64
g50
NtRp546
(dp547
g53
(dp548
sg62
g422
sg55
(lp549
g48
(g69
g50
NtRp550
(dp551
g53
(dp552
g73
g74
ssg62
g546
sg55
(lp553
g388
asbag48
(g69
g50
NtRp554
(dp555
g53
(dp556
g80
g81
ssg62
g546
sg55
(lp557
S':'
asbag48
(g69
g50
NtRp558
(dp559
g53
(dp560
sg62
g546
sg55
(lp561
g48
(g49
g50
NtRp562
(dp563
g53
(dp564
g61
I3
ssg62
g558
sg55
(lp565
S''
asbasbasbasbasbasbasbag48
(g64
g50
NtRp566
(dp567
g53
(dp568
sg62
g225
sg55
(lp569
g48
(g69
g50
NtRp570
(dp571
g53
(dp572
g73
g74
ssg62
g566
sg55
(lp573
S'session_id_ojtest'
p574
asbag48
(g69
g50
NtRp575
(dp576
g53
(dp577
g80
g81
ssg62
g566
sg55
(lp578
S':'
asbag48
(g69
g50
NtRp579
(dp580
g53
(dp581
sg62
g566
sg55
(lp582
g48
(g49
g50
NtRp583
(dp584
g53
(dp585
g61
I4
ssg62
g579
sg55
(lp586
g48
(g57
g50
NtRp587
(dp588
g53
(dp589
g61
I3
ssg62
Nsg55
(lp590
g48
(g64
g50
NtRp591
(dp592
g53
(dp593
sg62
g587
sg55
(lp594
g48
(g69
g50
NtRp595
(dp596
g53
(dp597
g73
g74
ssg62
g591
sg55
(lp598
g262
asbag48
(g69
g50
NtRp599
(dp600
g53
(dp601
g80
g81
ssg62
g591
sg55
(lp602
S':'
asbag48
(g69
g50
NtRp603
(dp604
g53
(dp605
sg62
g591
sg55
(lp606
g48
(g49
g50
NtRp607
(dp608
g53
(dp609
g61
I3
ssg62
g603
sg55
(lp610
S''
asbasbasbag48
(g64
g50
NtRp611
(dp612
g53
(dp613
sg62
g587
sg55
(lp614
g48
(g69
g50
NtRp615
(dp616
g53
(dp617
g73
g74
ssg62
g611
sg55
(lp618
g283
asbag48
(g69
g50
NtRp619
(dp620
g53
(dp621
g80
g81
ssg62
g611
sg55
(lp622
S':'
asbag48
(g69
g50
NtRp623
(dp624
g53
(dp625
sg62
g611
sg55
(lp626
g48
(g49
g50
NtRp627
(dp628
g53
(dp629
g61
I3
ssg62
g623
sg55
(lp630
S''
asbasbasbag48
(g64
g50
NtRp631
(dp632
g53
(dp633
sg62
g587
sg55
(lp634
g48
(g69
g50
NtRp635
(dp636
g53
(dp637
g73
g74
ssg62
g631
sg55
(lp638
g304
asbag48
(g69
g50
NtRp639
(dp640
g53
(dp641
g80
g81
ssg62
g631
sg55
(lp642
S':'
asbag48
(g69
g50
NtRp643
(dp644
g53
(dp645
sg62
g631
sg55
(lp646
g48
(g49
g50
NtRp647
(dp648
g53
(dp649
g61
I3
ssg62
g643
sg55
(lp650
S''
asbasbasbag48
(g64
g50
NtRp651
(dp652
g53
(dp653
sg62
g587
sg55
(lp654
g48
(g69
g50
NtRp655
(dp656
g53
(dp657
g73
g74
ssg62
g651
sg55
(lp658
g325
asbag48
(g69
g50
NtRp659
(dp660
g53
(dp661
g80
g81
ssg62
g651
sg55
(lp662
S':'
asbag48
(g69
g50
NtRp663
(dp664
g53
(dp665
sg62
g651
sg55
(lp666
g48
(g49
g50
NtRp667
(dp668
g53
(dp669
g61
I3
ssg62
g663
sg55
(lp670
S''
asbasbasbag48
(g64
g50
NtRp671
(dp672
g53
(dp673
sg62
g587
sg55
(lp674
g48
(g69
g50
NtRp675
(dp676
g53
(dp677
g73
g74
ssg62
g671
sg55
(lp678
g346
asbag48
(g69
g50
NtRp679
(dp680
g53
(dp681
g80
g81
ssg62
g671
sg55
(lp682
S':'
asbag48
(g69
g50
NtRp683
(dp684
g53
(dp685
sg62
g671
sg55
(lp686
g48
(g49
g50
NtRp687
(dp688
g53
(dp689
g61
I3
ssg62
g683
sg55
(lp690
S''
asbasbasbag48
(g64
g50
NtRp691
(dp692
g53
(dp693
sg62
g587
sg55
(lp694
g48
(g69
g50
NtRp695
(dp696
g53
(dp697
g73
g74
ssg62
g691
sg55
(lp698
g367
asbag48
(g69
g50
NtRp699
(dp700
g53
(dp701
g80
g81
ssg62
g691
sg55
(lp702
S':'
asbag48
(g69
g50
NtRp703
(dp704
g53
(dp705
sg62
g691
sg55
(lp706
g48
(g49
g50
NtRp707
(dp708
g53
(dp709
g61
I3
ssg62
g703
sg55
(lp710
S''
asbasbasbag48
(g64
g50
NtRp711
(dp712
g53
(dp713
sg62
g587
sg55
(lp714
g48
(g69
g50
NtRp715
(dp716
g53
(dp717
g73
g74
ssg62
g711
sg55
(lp718
g388
asbag48
(g69
g50
NtRp719
(dp720
g53
(dp721
g80
g81
ssg62
g711
sg55
(lp722
S':'
asbag48
(g69
g50
NtRp723
(dp724
g53
(dp725
sg62
g711
sg55
(lp726
g48
(g49
g50
NtRp727
(dp728
g53
(dp729
g61
I3
ssg62
g723
sg55
(lp730
S''
asbasbasbasbasbasbasbag48
(g64
g50
NtRp731
(dp732
g53
(dp733
sg62
g225
sg55
(lp734
g48
(g69
g50
NtRp735
(dp736
g53
(dp737
g73
g74
ssg62
g731
sg55
(lp738
S'session_id_welcome'
p739
asbag48
(g69
g50
NtRp740
(dp741
g53
(dp742
g80
g81
ssg62
g731
sg55
(lp743
S':'
asbag48
(g69
g50
NtRp744
(dp745
g53
(dp746
sg62
g731
sg55
(lp747
g48
(g49
g50
NtRp748
(dp749
g53
(dp750
g61
I4
ssg62
g744
sg55
(lp751
g48
(g57
g50
NtRp752
(dp753
g53
(dp754
g61
I3
ssg62
Nsg55
(lp755
g48
(g64
g50
NtRp756
(dp757
g53
(dp758
sg62
g752
sg55
(lp759
g48
(g69
g50
NtRp760
(dp761
g53
(dp762
g73
g74
ssg62
g756
sg55
(lp763
g262
asbag48
(g69
g50
NtRp764
(dp765
g53
(dp766
g80
g81
ssg62
g756
sg55
(lp767
S':'
asbag48
(g69
g50
NtRp768
(dp769
g53
(dp770
sg62
g756
sg55
(lp771
g48
(g49
g50
NtRp772
(dp773
g53
(dp774
g61
I3
ssg62
g768
sg55
(lp775
S''
asbasbasbag48
(g64
g50
NtRp776
(dp777
g53
(dp778
sg62
g752
sg55
(lp779
g48
(g69
g50
NtRp780
(dp781
g53
(dp782
g73
g74
ssg62
g776
sg55
(lp783
g283
asbag48
(g69
g50
NtRp784
(dp785
g53
(dp786
g80
g81
ssg62
g776
sg55
(lp787
S':'
asbag48
(g69
g50
NtRp788
(dp789
g53
(dp790
sg62
g776
sg55
(lp791
g48
(g49
g50
NtRp792
(dp793
g53
(dp794
g61
I3
ssg62
g788
sg55
(lp795
S''
asbasbasbag48
(g64
g50
NtRp796
(dp797
g53
(dp798
sg62
g752
sg55
(lp799
g48
(g69
g50
NtRp800
(dp801
g53
(dp802
g73
g74
ssg62
g796
sg55
(lp803
g304
asbag48
(g69
g50
NtRp804
(dp805
g53
(dp806
g80
g81
ssg62
g796
sg55
(lp807
S':'
asbag48
(g69
g50
NtRp808
(dp809
g53
(dp810
sg62
g796
sg55
(lp811
g48
(g49
g50
NtRp812
(dp813
g53
(dp814
g61
I3
ssg62
g808
sg55
(lp815
S''
asbasbasbag48
(g64
g50
NtRp816
(dp817
g53
(dp818
sg62
g752
sg55
(lp819
g48
(g69
g50
NtRp820
(dp821
g53
(dp822
g73
g74
ssg62
g816
sg55
(lp823
g325
asbag48
(g69
g50
NtRp824
(dp825
g53
(dp826
g80
g81
ssg62
g816
sg55
(lp827
S':'
asbag48
(g69
g50
NtRp828
(dp829
g53
(dp830
sg62
g816
sg55
(lp831
g48
(g49
g50
NtRp832
(dp833
g53
(dp834
g61
I3
ssg62
g828
sg55
(lp835
S''
asbasbasbag48
(g64
g50
NtRp836
(dp837
g53
(dp838
sg62
g752
sg55
(lp839
g48
(g69
g50
NtRp840
(dp841
g53
(dp842
g73
g74
ssg62
g836
sg55
(lp843
g346
asbag48
(g69
g50
NtRp844
(dp845
g53
(dp846
g80
g81
ssg62
g836
sg55
(lp847
S':'
asbag48
(g69
g50
NtRp848
(dp849
g53
(dp850
sg62
g836
sg55
(lp851
g48
(g49
g50
NtRp852
(dp853
g53
(dp854
g61
I3
ssg62
g848
sg55
(lp855
S''
asbasbasbag48
(g64
g50
NtRp856
(dp857
g53
(dp858
sg62
g752
sg55
(lp859
g48
(g69
g50
NtRp860
(dp861
g53
(dp862
g73
g74
ssg62
g856
sg55
(lp863
g367
asbag48
(g69
g50
NtRp864
(dp865
g53
(dp866
g80
g81
ssg62
g856
sg55
(lp867
S':'
asbag48
(g69
g50
NtRp868
(dp869
g53
(dp870
sg62
g856
sg55
(lp871
g48
(g49
g50
NtRp872
(dp873
g53
(dp874
g61
I3
ssg62
g868
sg55
(lp875
S''
asbasbasbag48
(g64
g50
NtRp876
(dp877
g53
(dp878
sg62
g752
sg55
(lp879
g48
(g69
g50
NtRp880
(dp881
g53
(dp882
g73
g74
ssg62
g876
sg55
(lp883
g388
asbag48
(g69
g50
NtRp884
(dp885
g53
(dp886
g80
g81
ssg62
g876
sg55
(lp887
S':'
asbag48
(g69
g50
NtRp888
(dp889
g53
(dp890
sg62
g876
sg55
(lp891
g48
(g49
g50
NtRp892
(dp893
g53
(dp894
g61
I3
ssg62
g888
sg55
(lp895
S''
asbasbasbasbasbasbasbasbasbasbasbag48
(g64
g50
NtRp896
(dp897
g53
(dp898
sg62
g58
sg55
(lp899
g48
(g69
g50
NtRp900
(dp901
g53
(dp902
g73
g74
ssg62
g896
sg55
(lp903
S'env'
p904
asbag48
(g69
g50
NtRp905
(dp906
g53
(dp907
g80
g81
ssg62
g896
sg55
(lp908
S':'
asbag48
(g69
g50
NtRp909
(dp910
g53
(dp911
sg62
g896
sg55
(lp912
g48
(g49
g50
NtRp913
(dp914
g53
(dp915
g61
I5
ssg62
g909
sg55
(lp916
g48
(g57
g50
NtRp917
(dp918
g53
(dp919
g61
I4
ssg62
Nsg55
(lp920
g48
(g64
g50
NtRp921
(dp922
g53
(dp923
sg62
g917
sg55
(lp924
g48
(g69
g50
NtRp925
(dp926
g53
(dp927
g73
g74
ssg62
g921
sg55
(lp928
S'app_folders'
p929
asbag48
(g69
g50
NtRp930
(dp931
g53
(dp932
g80
g81
ssg62
g921
sg55
(lp933
S':'
asbag48
(g69
g50
NtRp934
(dp935
g53
(dp936
sg62
g921
sg55
(lp937
g48
(g49
g50
NtRp938
(dp939
g53
(dp940
g61
I4
ssg62
g934
sg55
(lp941
S"set(['D:\\\\git_projs\\\\Gabblista\\\\web2py\\\\web2py\\\\applications\\\\gabb1\\\\', 'D:\\\\git_projs\\\\Gabblista\\\\web2py\\\\web2py\\\\applications\\\\Gabb1\\\\', 'D:\\\\git_projs\\\\Gabblista\\\\web2py\\\\web2py\\\\applications\\\\welcome\\\\'])"
p942
asbasbasbag48
(g64
g50
NtRp943
(dp944
g53
(dp945
sg62
g917
sg55
(lp946
g48
(g69
g50
NtRp947
(dp948
g53
(dp949
g73
g74
ssg62
g943
sg55
(lp950
S'applications_parent'
p951
asbag48
(g69
g50
NtRp952
(dp953
g53
(dp954
g80
g81
ssg62
g943
sg55
(lp955
S':'
asbag48
(g69
g50
NtRp956
(dp957
g53
(dp958
sg62
g943
sg55
(lp959
g48
(g49
g50
NtRp960
(dp961
g53
(dp962
g61
I4
ssg62
g956
sg55
(lp963
S'D:\\git_projs\\Gabblista\\web2py\\web2py'
p964
asbasbasbag48
(g64
g50
NtRp965
(dp966
g53
(dp967
sg62
g917
sg55
(lp968
g48
(g69
g50
NtRp969
(dp970
g53
(dp971
g73
g74
ssg62
g965
sg55
(lp972
S'cmd_args'
p973
asbag48
(g69
g50
NtRp974
(dp975
g53
(dp976
g80
g81
ssg62
g965
sg55
(lp977
S':'
asbag48
(g69
g50
NtRp978
(dp979
g53
(dp980
sg62
g965
sg55
(lp981
g48
(g49
g50
NtRp982
(dp983
g53
(dp984
g61
I4
ssg62
g978
sg55
(lp985
g48
(g57
g50
NtRp986
(dp987
g53
(dp988
g61
I3
ssg62
Nsg55
(lp989
sbasbasbasbag48
(g64
g50
NtRp990
(dp991
g53
(dp992
sg62
g917
sg55
(lp993
g48
(g69
g50
NtRp994
(dp995
g53
(dp996
g73
g74
ssg62
g990
sg55
(lp997
S'cmd_options'
p998
asbag48
(g69
g50
NtRp999
(dp1000
g53
(dp1001
g80
g81
ssg62
g990
sg55
(lp1002
S':'
asbag48
(g69
g50
NtRp1003
(dp1004
g53
(dp1005
sg62
g990
sg55
(lp1006
g48
(g49
g50
NtRp1007
(dp1008
g53
(dp1009
g61
I4
ssg62
g1003
sg55
(lp1010
S"<Values at 0x325b800: {'verbose': False, 'ip': '127.0.0.1', 'shutdown_timeout': 5, 'taskbar': False, 'nocron': False, 'pid_filename': 'httpserver.pid', 'maxthreads': None, 'softcron': False, 'server_name': 'John-PC', 'bpython': False, 'nogui': False, 'port': 8000, 'extcron': False, 'debuglevel': 30, 'test': None, 'folder': 'D:\\\\git_projs\\\\Gabblista\\\\web2py\\\\web2py', 'config': '', 'import_models': False, 'winservice': '', 'shell': None, 'run': '', 'log_filename': 'httpserver.log', 'args': [''], 'ssl_ca_certificate': None, 'scheduler': None, 'profiler_filename': None, 'ssl_private_key': '', 'password': '<ask>', 'request_queue_size': 5, 'ssl_certificate': '', 'cronjob': False, 'plain': False, 'quiet': False, 'interfaces': None, 'minthreads': None, 'timeout': 10, 'numthreads': None, 'nobanner': False}>"
p1011
asbasbasbag48
(g64
g50
NtRp1012
(dp1013
g53
(dp1014
sg62
g917
sg55
(lp1015
g48
(g69
g50
NtRp1016
(dp1017
g53
(dp1018
g73
g74
ssg62
g1012
sg55
(lp1019
S'db_sessions'
p1020
asbag48
(g69
g50
NtRp1021
(dp1022
g53
(dp1023
g80
g81
ssg62
g1012
sg55
(lp1024
S':'
asbag48
(g69
g50
NtRp1025
(dp1026
g53
(dp1027
sg62
g1012
sg55
(lp1028
g48
(g49
g50
NtRp1029
(dp1030
g53
(dp1031
g61
I4
ssg62
g1025
sg55
(lp1032
S'set([])'
p1033
asbasbasbag48
(g64
g50
NtRp1034
(dp1035
g53
(dp1036
sg62
g917
sg55
(lp1037
g48
(g69
g50
NtRp1038
(dp1039
g53
(dp1040
g73
g74
ssg62
g1034
sg55
(lp1041
S'debugging'
p1042
asbag48
(g69
g50
NtRp1043
(dp1044
g53
(dp1045
g80
g81
ssg62
g1034
sg55
(lp1046
S':'
asbag48
(g69
g50
NtRp1047
(dp1048
g53
(dp1049
sg62
g1034
sg55
(lp1050
g48
(g49
g50
NtRp1051
(dp1052
g53
(dp1053
g61
I4
ssg62
g1047
sg55
(lp1054
g91
asbasbasbag48
(g64
g50
NtRp1055
(dp1056
g53
(dp1057
sg62
g917
sg55
(lp1058
g48
(g69
g50
NtRp1059
(dp1060
g53
(dp1061
g73
g74
ssg62
g1055
sg55
(lp1062
S'gluon_parent'
p1063
asbag48
(g69
g50
NtRp1064
(dp1065
g53
(dp1066
g80
g81
ssg62
g1055
sg55
(lp1067
S':'
asbag48
(g69
g50
NtRp1068
(dp1069
g53
(dp1070
sg62
g1055
sg55
(lp1071
g48
(g49
g50
NtRp1072
(dp1073
g53
(dp1074
g61
I4
ssg62
g1068
sg55
(lp1075
S'D:\\git_projs\\Gabblista\\web2py\\web2py'
p1076
asbasbasbag48
(g64
g50
NtRp1077
(dp1078
g53
(dp1079
sg62
g917
sg55
(lp1080
g48
(g69
g50
NtRp1081
(dp1082
g53
(dp1083
g73
g74
ssg62
g1077
sg55
(lp1084
S'http_accept'
p1085
asbag48
(g69
g50
NtRp1086
(dp1087
g53
(dp1088
g80
g81
ssg62
g1077
sg55
(lp1089
S':'
asbag48
(g69
g50
NtRp1090
(dp1091
g53
(dp1092
sg62
g1077
sg55
(lp1093
g48
(g49
g50
NtRp1094
(dp1095
g53
(dp1096
g61
I4
ssg62
g1090
sg55
(lp1097
S'*/*'
p1098
asbasbasbag48
(g64
g50
NtRp1099
(dp1100
g53
(dp1101
sg62
g917
sg55
(lp1102
g48
(g69
g50
NtRp1103
(dp1104
g53
(dp1105
g73
g74
ssg62
g1099
sg55
(lp1106
S'http_accept_charset'
p1107
asbag48
(g69
g50
NtRp1108
(dp1109
g53
(dp1110
g80
g81
ssg62
g1099
sg55
(lp1111
S':'
asbag48
(g69
g50
NtRp1112
(dp1113
g53
(dp1114
sg62
g1099
sg55
(lp1115
g48
(g49
g50
NtRp1116
(dp1117
g53
(dp1118
g61
I4
ssg62
g1112
sg55
(lp1119
S'ISO-8859-1,utf-8;q=0.7,*;q=0.3'
p1120
asbasbasbag48
(g64
g50
NtRp1121
(dp1122
g53
(dp1123
sg62
g917
sg55
(lp1124
g48
(g69
g50
NtRp1125
(dp1126
g53
(dp1127
g73
g74
ssg62
g1121
sg55
(lp1128
S'http_accept_encoding'
p1129
asbag48
(g69
g50
NtRp1130
(dp1131
g53
(dp1132
g80
g81
ssg62
g1121
sg55
(lp1133
S':'
asbag48
(g69
g50
NtRp1134
(dp1135
g53
(dp1136
sg62
g1121
sg55
(lp1137
g48
(g49
g50
NtRp1138
(dp1139
g53
(dp1140
g61
I4
ssg62
g1134
sg55
(lp1141
S'gzip,deflate,sdch'
p1142
asbasbasbag48
(g64
g50
NtRp1143
(dp1144
g53
(dp1145
sg62
g917
sg55
(lp1146
g48
(g69
g50
NtRp1147
(dp1148
g53
(dp1149
g73
g74
ssg62
g1143
sg55
(lp1150
S'http_accept_language'
p1151
asbag48
(g69
g50
NtRp1152
(dp1153
g53
(dp1154
g80
g81
ssg62
g1143
sg55
(lp1155
S':'
asbag48
(g69
g50
NtRp1156
(dp1157
g53
(dp1158
sg62
g1143
sg55
(lp1159
g48
(g49
g50
NtRp1160
(dp1161
g53
(dp1162
g61
I4
ssg62
g1156
sg55
(lp1163
S'en-US,en;q=0.8'
p1164
asbasbasbag48
(g64
g50
NtRp1165
(dp1166
g53
(dp1167
sg62
g917
sg55
(lp1168
g48
(g69
g50
NtRp1169
(dp1170
g53
(dp1171
g73
g74
ssg62
g1165
sg55
(lp1172
S'http_connection'
p1173
asbag48
(g69
g50
NtRp1174
(dp1175
g53
(dp1176
g80
g81
ssg62
g1165
sg55
(lp1177
S':'
asbag48
(g69
g50
NtRp1178
(dp1179
g53
(dp1180
sg62
g1165
sg55
(lp1181
g48
(g49
g50
NtRp1182
(dp1183
g53
(dp1184
g61
I4
ssg62
g1178
sg55
(lp1185
S'keep-alive'
p1186
asbasbasbag48
(g64
g50
NtRp1187
(dp1188
g53
(dp1189
sg62
g917
sg55
(lp1190
g48
(g69
g50
NtRp1191
(dp1192
g53
(dp1193
g73
g74
ssg62
g1187
sg55
(lp1194
S'http_cookie'
p1195
asbag48
(g69
g50
NtRp1196
(dp1197
g53
(dp1198
g80
g81
ssg62
g1187
sg55
(lp1199
S':'
asbag48
(g69
g50
NtRp1200
(dp1201
g53
(dp1202
sg62
g1187
sg55
(lp1203
g48
(g49
g50
NtRp1204
(dp1205
g53
(dp1206
g61
I4
ssg62
g1200
sg55
(lp1207
S'session_id_admin=127.0.0.1-b9895a5f-39cf-4c0f-a274-b3385304c1e5; session_id_ojtest="1673:0b3a82b6-d697-4763-b7ae-5776f137ef68"; session_id_welcome=127.0.0.1-077ce0c0-61e2-4997-a5bf-42adc6ee6470; session_id_gabb1=127.0.0.1-2a449936-44f4-4023-9ffc-03a925553fc0'
p1208
asbasbasbag48
(g64
g50
NtRp1209
(dp1210
g53
(dp1211
sg62
g917
sg55
(lp1212
g48
(g69
g50
NtRp1213
(dp1214
g53
(dp1215
g73
g74
ssg62
g1209
sg55
(lp1216
S'http_host'
p1217
asbag48
(g69
g50
NtRp1218
(dp1219
g53
(dp1220
g80
g81
ssg62
g1209
sg55
(lp1221
S':'
asbag48
(g69
g50
NtRp1222
(dp1223
g53
(dp1224
sg62
g1209
sg55
(lp1225
g48
(g49
g50
NtRp1226
(dp1227
g53
(dp1228
g61
I4
ssg62
g1222
sg55
(lp1229
S'127.0.0.1:8000'
p1230
asbasbasbag48
(g64
g50
NtRp1231
(dp1232
g53
(dp1233
sg62
g917
sg55
(lp1234
g48
(g69
g50
NtRp1235
(dp1236
g53
(dp1237
g73
g74
ssg62
g1231
sg55
(lp1238
S'http_referer'
p1239
asbag48
(g69
g50
NtRp1240
(dp1241
g53
(dp1242
g80
g81
ssg62
g1231
sg55
(lp1243
S':'
asbag48
(g69
g50
NtRp1244
(dp1245
g53
(dp1246
sg62
g1231
sg55
(lp1247
g48
(g49
g50
NtRp1248
(dp1249
g53
(dp1250
g61
I4
ssg62
g1244
sg55
(lp1251
S'http://127.0.0.1:8000/gabb1/fb_serv/game'
p1252
asbasbasbag48
(g64
g50
NtRp1253
(dp1254
g53
(dp1255
sg62
g917
sg55
(lp1256
g48
(g69
g50
NtRp1257
(dp1258
g53
(dp1259
g73
g74
ssg62
g1253
sg55
(lp1260
S'http_user_agent'
p1261
asbag48
(g69
g50
NtRp1262
(dp1263
g53
(dp1264
g80
g81
ssg62
g1253
sg55
(lp1265
S':'
asbag48
(g69
g50
NtRp1266
(dp1267
g53
(dp1268
sg62
g1253
sg55
(lp1269
g48
(g49
g50
NtRp1270
(dp1271
g53
(dp1272
g61
I4
ssg62
g1266
sg55
(lp1273
S'Mozilla/5.0 (Windows NT 6.1; WOW64) AppleWebKit/535.7 (KHTML, like Gecko) Chrome/16.0.912.75 Safari/535.7'
p1274
asbasbasbag48
(g64
g50
NtRp1275
(dp1276
g53
(dp1277
sg62
g917
sg55
(lp1278
g48
(g69
g50
NtRp1279
(dp1280
g53
(dp1281
g73
g74
ssg62
g1275
sg55
(lp1282
S'is_jython'
p1283
asbag48
(g69
g50
NtRp1284
(dp1285
g53
(dp1286
g80
g81
ssg62
g1275
sg55
(lp1287
S':'
asbag48
(g69
g50
NtRp1288
(dp1289
g53
(dp1290
sg62
g1275
sg55
(lp1291
g48
(g49
g50
NtRp1292
(dp1293
g53
(dp1294
g61
I4
ssg62
g1288
sg55
(lp1295
g91
asbasbasbag48
(g64
g50
NtRp1296
(dp1297
g53
(dp1298
sg62
g917
sg55
(lp1299
g48
(g69
g50
NtRp1300
(dp1301
g53
(dp1302
g73
g74
ssg62
g1296
sg55
(lp1303
S'path_info'
p1304
asbag48
(g69
g50
NtRp1305
(dp1306
g53
(dp1307
g80
g81
ssg62
g1296
sg55
(lp1308
S':'
asbag48
(g69
g50
NtRp1309
(dp1310
g53
(dp1311
sg62
g1296
sg55
(lp1312
g48
(g49
g50
NtRp1313
(dp1314
g53
(dp1315
g61
I4
ssg62
g1309
sg55
(lp1316
S'/Gabb1/fb_serv/js_0.js'
p1317
asbasbasbag48
(g64
g50
NtRp1318
(dp1319
g53
(dp1320
sg62
g917
sg55
(lp1321
g48
(g69
g50
NtRp1322
(dp1323
g53
(dp1324
g73
g74
ssg62
g1318
sg55
(lp1325
S'query_string'
p1326
asbag48
(g69
g50
NtRp1327
(dp1328
g53
(dp1329
g80
g81
ssg62
g1318
sg55
(lp1330
S':'
asbag48
(g69
g50
NtRp1331
(dp1332
g53
(dp1333
sg62
g1318
sg55
(lp1334
g48
(g49
g50
NtRp1335
(dp1336
g53
(dp1337
g61
I4
ssg62
g1331
sg55
(lp1338
S''
asbasbasbag48
(g64
g50
NtRp1339
(dp1340
g53
(dp1341
sg62
g917
sg55
(lp1342
g48
(g69
g50
NtRp1343
(dp1344
g53
(dp1345
g73
g74
ssg62
g1339
sg55
(lp1346
S'remote_addr'
p1347
asbag48
(g69
g50
NtRp1348
(dp1349
g53
(dp1350
g80
g81
ssg62
g1339
sg55
(lp1351
S':'
asbag48
(g69
g50
NtRp1352
(dp1353
g53
(dp1354
sg62
g1339
sg55
(lp1355
g48
(g49
g50
NtRp1356
(dp1357
g53
(dp1358
g61
I4
ssg62
g1352
sg55
(lp1359
g181
asbasbasbag48
(g64
g50
NtRp1360
(dp1361
g53
(dp1362
sg62
g917
sg55
(lp1363
g48
(g69
g50
NtRp1364
(dp1365
g53
(dp1366
g73
g74
ssg62
g1360
sg55
(lp1367
S'remote_port'
p1368
asbag48
(g69
g50
NtRp1369
(dp1370
g53
(dp1371
g80
g81
ssg62
g1360
sg55
(lp1372
S':'
asbag48
(g69
g50
NtRp1373
(dp1374
g53
(dp1375
sg62
g1360
sg55
(lp1376
g48
(g49
g50
NtRp1377
(dp1378
g53
(dp1379
g61
I4
ssg62
g1373
sg55
(lp1380
S'55096'
p1381
asbasbasbag48
(g64
g50
NtRp1382
(dp1383
g53
(dp1384
sg62
g917
sg55
(lp1385
g48
(g69
g50
NtRp1386
(dp1387
g53
(dp1388
g73
g74
ssg62
g1382
sg55
(lp1389
S'request_method'
p1390
asbag48
(g69
g50
NtRp1391
(dp1392
g53
(dp1393
g80
g81
ssg62
g1382
sg55
(lp1394
S':'
asbag48
(g69
g50
NtRp1395
(dp1396
g53
(dp1397
sg62
g1382
sg55
(lp1398
g48
(g49
g50
NtRp1399
(dp1400
g53
(dp1401
g61
I4
ssg62
g1395
sg55
(lp1402
S'GET'
p1403
asbasbasbag48
(g64
g50
NtRp1404
(dp1405
g53
(dp1406
sg62
g917
sg55
(lp1407
g48
(g69
g50
NtRp1408
(dp1409
g53
(dp1410
g73
g74
ssg62
g1404
sg55
(lp1411
S'request_uri'
p1412
asbag48
(g69
g50
NtRp1413
(dp1414
g53
(dp1415
g80
g81
ssg62
g1404
sg55
(lp1416
S':'
asbag48
(g69
g50
NtRp1417
(dp1418
g53
(dp1419
sg62
g1404
sg55
(lp1420
g48
(g49
g50
NtRp1421
(dp1422
g53
(dp1423
g61
I4
ssg62
g1417
sg55
(lp1424
g1317
asbasbasbag48
(g64
g50
NtRp1425
(dp1426
g53
(dp1427
sg62
g917
sg55
(lp1428
g48
(g69
g50
NtRp1429
(dp1430
g53
(dp1431
g73
g74
ssg62
g1425
sg55
(lp1432
S'script_name'
p1433
asbag48
(g69
g50
NtRp1434
(dp1435
g53
(dp1436
g80
g81
ssg62
g1425
sg55
(lp1437
S':'
asbag48
(g69
g50
NtRp1438
(dp1439
g53
(dp1440
sg62
g1425
sg55
(lp1441
g48
(g49
g50
NtRp1442
(dp1443
g53
(dp1444
g61
I4
ssg62
g1438
sg55
(lp1445
S''
asbasbasbag48
(g64
g50
NtRp1446
(dp1447
g53
(dp1448
sg62
g917
sg55
(lp1449
g48
(g69
g50
NtRp1450
(dp1451
g53
(dp1452
g73
g74
ssg62
g1446
sg55
(lp1453
S'server_name'
p1454
asbag48
(g69
g50
NtRp1455
(dp1456
g53
(dp1457
g80
g81
ssg62
g1446
sg55
(lp1458
S':'
asbag48
(g69
g50
NtRp1459
(dp1460
g53
(dp1461
sg62
g1446
sg55
(lp1462
g48
(g49
g50
NtRp1463
(dp1464
g53
(dp1465
g61
I4
ssg62
g1459
sg55
(lp1466
S'John-PC'
p1467
asbasbasbag48
(g64
g50
NtRp1468
(dp1469
g53
(dp1470
sg62
g917
sg55
(lp1471
g48
(g69
g50
NtRp1472
(dp1473
g53
(dp1474
g73
g74
ssg62
g1468
sg55
(lp1475
S'server_port'
p1476
asbag48
(g69
g50
NtRp1477
(dp1478
g53
(dp1479
g80
g81
ssg62
g1468
sg55
(lp1480
S':'
asbag48
(g69
g50
NtRp1481
(dp1482
g53
(dp1483
sg62
g1468
sg55
(lp1484
g48
(g49
g50
NtRp1485
(dp1486
g53
(dp1487
g61
I4
ssg62
g1481
sg55
(lp1488
S'8000'
p1489
asbasbasbag48
(g64
g50
NtRp1490
(dp1491
g53
(dp1492
sg62
g917
sg55
(lp1493
g48
(g69
g50
NtRp1494
(dp1495
g53
(dp1496
g73
g74
ssg62
g1490
sg55
(lp1497
S'server_protocol'
p1498
asbag48
(g69
g50
NtRp1499
(dp1500
g53
(dp1501
g80
g81
ssg62
g1490
sg55
(lp1502
S':'
asbag48
(g69
g50
NtRp1503
(dp1504
g53
(dp1505
sg62
g1490
sg55
(lp1506
g48
(g49
g50
NtRp1507
(dp1508
g53
(dp1509
g61
I4
ssg62
g1503
sg55
(lp1510
S'HTTP/1.1'
p1511
asbasbasbag48
(g64
g50
NtRp1512
(dp1513
g53
(dp1514
sg62
g917
sg55
(lp1515
g48
(g69
g50
NtRp1516
(dp1517
g53
(dp1518
g73
g74
ssg62
g1512
sg55
(lp1519
S'server_software'
p1520
asbag48
(g69
g50
NtRp1521
(dp1522
g53
(dp1523
g80
g81
ssg62
g1512
sg55
(lp1524
S':'
asbag48
(g69
g50
NtRp1525
(dp1526
g53
(dp1527
sg62
g1512
sg55
(lp1528
g48
(g49
g50
NtRp1529
(dp1530
g53
(dp1531
g61
I4
ssg62
g1525
sg55
(lp1532
S'Rocket 1.2.4'
p1533
asbasbasbag48
(g64
g50
NtRp1534
(dp1535
g53
(dp1536
sg62
g917
sg55
(lp1537
g48
(g69
g50
NtRp1538
(dp1539
g53
(dp1540
g73
g74
ssg62
g1534
sg55
(lp1541
S'web2py_crontype'
p1542
asbag48
(g69
g50
NtRp1543
(dp1544
g53
(dp1545
g80
g81
ssg62
g1534
sg55
(lp1546
S':'
asbag48
(g69
g50
NtRp1547
(dp1548
g53
(dp1549
sg62
g1534
sg55
(lp1550
g48
(g49
g50
NtRp1551
(dp1552
g53
(dp1553
g61
I4
ssg62
g1547
sg55
(lp1554
S'hard'
p1555
asbasbasbag48
(g64
g50
NtRp1556
(dp1557
g53
(dp1558
sg62
g917
sg55
(lp1559
g48
(g69
g50
NtRp1560
(dp1561
g53
(dp1562
g73
g74
ssg62
g1556
sg55
(lp1563
S'web2py_original_uri'
p1564
asbag48
(g69
g50
NtRp1565
(dp1566
g53
(dp1567
g80
g81
ssg62
g1556
sg55
(lp1568
S':'
asbag48
(g69
g50
NtRp1569
(dp1570
g53
(dp1571
sg62
g1556
sg55
(lp1572
g48
(g49
g50
NtRp1573
(dp1574
g53
(dp1575
g61
I4
ssg62
g1569
sg55
(lp1576
S'/Gabb1/fb_serv/js_0.js'
p1577
asbasbasbag48
(g64
g50
NtRp1578
(dp1579
g53
(dp1580
sg62
g917
sg55
(lp1581
g48
(g69
g50
NtRp1582
(dp1583
g53
(dp1584
g73
g74
ssg62
g1578
sg55
(lp1585
S'web2py_path'
p1586
asbag48
(g69
g50
NtRp1587
(dp1588
g53
(dp1589
g80
g81
ssg62
g1578
sg55
(lp1590
S':'
asbag48
(g69
g50
NtRp1591
(dp1592
g53
(dp1593
sg62
g1578
sg55
(lp1594
g48
(g49
g50
NtRp1595
(dp1596
g53
(dp1597
g61
I4
ssg62
g1591
sg55
(lp1598
g964
asbasbasbag48
(g64
g50
NtRp1599
(dp1600
g53
(dp1601
sg62
g917
sg55
(lp1602
g48
(g69
g50
NtRp1603
(dp1604
g53
(dp1605
g73
g74
ssg62
g1599
sg55
(lp1606
S'web2py_version'
p1607
asbag48
(g69
g50
NtRp1608
(dp1609
g53
(dp1610
g80
g81
ssg62
g1599
sg55
(lp1611
S':'
asbag48
(g69
g50
NtRp1612
(dp1613
g53
(dp1614
sg62
g1599
sg55
(lp1615
g48
(g49
g50
NtRp1616
(dp1617
g53
(dp1618
g61
I4
ssg62
g1612
sg55
(lp1619
g48
(g57
g50
NtRp1620
(dp1621
g53
(dp1622
g61
I3
ssg62
Nsg55
(lp1623
g48
(g64
g50
NtRp1624
(dp1625
g53
(dp1626
sg62
g1620
sg55
(lp1627
g48
(g69
g50
NtRp1628
(dp1629
g53
(dp1630
sg62
g1624
sg55
(lp1631
g48
(g49
g50
NtRp1632
(dp1633
g53
(dp1634
g61
I3
ssg62
g1628
sg55
(lp1635
S'1'
asbasbasbag48
(g64
g50
NtRp1636
(dp1637
g53
(dp1638
sg62
g1620
sg55
(lp1639
g48
(g69
g50
NtRp1640
(dp1641
g53
(dp1642
sg62
g1636
sg55
(lp1643
g48
(g49
g50
NtRp1644
(dp1645
g53
(dp1646
g61
I3
ssg62
g1640
sg55
(lp1647
S'99'
p1648
asbasbasbag48
(g64
g50
NtRp1649
(dp1650
g53
(dp1651
sg62
g1620
sg55
(lp1652
g48
(g69
g50
NtRp1653
(dp1654
g53
(dp1655
sg62
g1649
sg55
(lp1656
g48
(g49
g50
NtRp1657
(dp1658
g53
(dp1659
g61
I3
ssg62
g1653
sg55
(lp1660
S'2'
asbasbasbag48
(g64
g50
NtRp1661
(dp1662
g53
(dp1663
sg62
g1620
sg55
(lp1664
g48
(g69
g50
NtRp1665
(dp1666
g53
(dp1667
sg62
g1661
sg55
(lp1668
g48
(g49
g50
NtRp1669
(dp1670
g53
(dp1671
g61
I3
ssg62
g1665
sg55
(lp1672
S'datetime.datetime(2011, 9, 26, 6, 55, 33)'
p1673
asbasbasbag48
(g64
g50
NtRp1674
(dp1675
g53
(dp1676
sg62
g1620
sg55
(lp1677
g48
(g69
g50
NtRp1678
(dp1679
g53
(dp1680
sg62
g1674
sg55
(lp1681
g48
(g49
g50
NtRp1682
(dp1683
g53
(dp1684
g61
I3
ssg62
g1678
sg55
(lp1685
S'stable'
p1686
asbasbasbasbasbasbasbag48
(g64
g50
NtRp1687
(dp1688
g53
(dp1689
sg62
g917
sg55
(lp1690
g48
(g69
g50
NtRp1691
(dp1692
g53
(dp1693
g73
g74
ssg62
g1687
sg55
(lp1694
S'wsgi_errors'
p1695
asbag48
(g69
g50
NtRp1696
(dp1697
g53
(dp1698
g80
g81
ssg62
g1687
sg55
(lp1699
S':'
asbag48
(g69
g50
NtRp1700
(dp1701
g53
(dp1702
sg62
g1687
sg55
(lp1703
g48
(g49
g50
NtRp1704
(dp1705
g53
(dp1706
g61
I4
ssg62
g1700
sg55
(lp1707
S"<open file '<stderr>', mode 'w' at 0x01D300B0>"
p1708
asbasbasbag48
(g64
g50
NtRp1709
(dp1710
g53
(dp1711
sg62
g917
sg55
(lp1712
g48
(g69
g50
NtRp1713
(dp1714
g53
(dp1715
g73
g74
ssg62
g1709
sg55
(lp1716
S'wsgi_file_wrapper'
p1717
asbag48
(g69
g50
NtRp1718
(dp1719
g53
(dp1720
g80
g81
ssg62
g1709
sg55
(lp1721
S':'
asbag48
(g69
g50
NtRp1722
(dp1723
g53
(dp1724
sg62
g1709
sg55
(lp1725
g48
(g49
g50
NtRp1726
(dp1727
g53
(dp1728
g61
I4
ssg62
g1722
sg55
(lp1729
S'<class wsgiref.util.FileWrapper at 0x0318A600>'
p1730
asbasbasbag48
(g64
g50
NtRp1731
(dp1732
g53
(dp1733
sg62
g917
sg55
(lp1734
g48
(g69
g50
NtRp1735
(dp1736
g53
(dp1737
g73
g74
ssg62
g1731
sg55
(lp1738
S'wsgi_input'
p1739
asbag48
(g69
g50
NtRp1740
(dp1741
g53
(dp1742
g80
g81
ssg62
g1731
sg55
(lp1743
S':'
asbag48
(g69
g50
NtRp1744
(dp1745
g53
(dp1746
sg62
g1731
sg55
(lp1747
g48
(g49
g50
NtRp1748
(dp1749
g53
(dp1750
g61
I4
ssg62
g1744
sg55
(lp1751
S'<socket._fileobject object at 0x03486F30>'
p1752
asbasbasbag48
(g64
g50
NtRp1753
(dp1754
g53
(dp1755
sg62
g917
sg55
(lp1756
g48
(g69
g50
NtRp1757
(dp1758
g53
(dp1759
g73
g74
ssg62
g1753
sg55
(lp1760
S'wsgi_multiprocess'
p1761
asbag48
(g69
g50
NtRp1762
(dp1763
g53
(dp1764
g80
g81
ssg62
g1753
sg55
(lp1765
S':'
asbag48
(g69
g50
NtRp1766
(dp1767
g53
(dp1768
sg62
g1753
sg55
(lp1769
g48
(g49
g50
NtRp1770
(dp1771
g53
(dp1772
g61
I4
ssg62
g1766
sg55
(lp1773
g91
asbasbasbag48
(g64
g50
NtRp1774
(dp1775
g53
(dp1776
sg62
g917
sg55
(lp1777
g48
(g69
g50
NtRp1778
(dp1779
g53
(dp1780
g73
g74
ssg62
g1774
sg55
(lp1781
S'wsgi_multithread'
p1782
asbag48
(g69
g50
NtRp1783
(dp1784
g53
(dp1785
g80
g81
ssg62
g1774
sg55
(lp1786
S':'
asbag48
(g69
g50
NtRp1787
(dp1788
g53
(dp1789
sg62
g1774
sg55
(lp1790
g48
(g49
g50
NtRp1791
(dp1792
g53
(dp1793
g61
I4
ssg62
g1787
sg55
(lp1794
S'True'
p1795
asbasbasbag48
(g64
g50
NtRp1796
(dp1797
g53
(dp1798
sg62
g917
sg55
(lp1799
g48
(g69
g50
NtRp1800
(dp1801
g53
(dp1802
g73
g74
ssg62
g1796
sg55
(lp1803
S'wsgi_run_once'
p1804
asbag48
(g69
g50
NtRp1805
(dp1806
g53
(dp1807
g80
g81
ssg62
g1796
sg55
(lp1808
S':'
asbag48
(g69
g50
NtRp1809
(dp1810
g53
(dp1811
sg62
g1796
sg55
(lp1812
g48
(g49
g50
NtRp1813
(dp1814
g53
(dp1815
g61
I4
ssg62
g1809
sg55
(lp1816
g91
asbasbasbag48
(g64
g50
NtRp1817
(dp1818
g53
(dp1819
sg62
g917
sg55
(lp1820
g48
(g69
g50
NtRp1821
(dp1822
g53
(dp1823
g73
g74
ssg62
g1817
sg55
(lp1824
S'wsgi_url_scheme'
p1825
asbag48
(g69
g50
NtRp1826
(dp1827
g53
(dp1828
g80
g81
ssg62
g1817
sg55
(lp1829
S':'
asbag48
(g69
g50
NtRp1830
(dp1831
g53
(dp1832
sg62
g1817
sg55
(lp1833
g48
(g49
g50
NtRp1834
(dp1835
g53
(dp1836
g61
I4
ssg62
g1830
sg55
(lp1837
S'http'
p1838
asbasbasbag48
(g64
g50
NtRp1839
(dp1840
g53
(dp1841
sg62
g917
sg55
(lp1842
g48
(g69
g50
NtRp1843
(dp1844
g53
(dp1845
g73
g74
ssg62
g1839
sg55
(lp1846
S'wsgi_version'
p1847
asbag48
(g69
g50
NtRp1848
(dp1849
g53
(dp1850
g80
g81
ssg62
g1839
sg55
(lp1851
S':'
asbag48
(g69
g50
NtRp1852
(dp1853
g53
(dp1854
sg62
g1839
sg55
(lp1855
g48
(g49
g50
NtRp1856
(dp1857
g53
(dp1858
g61
I4
ssg62
g1852
sg55
(lp1859
g48
(g57
g50
NtRp1860
(dp1861
g53
(dp1862
g61
I3
ssg62
Nsg55
(lp1863
g48
(g64
g50
NtRp1864
(dp1865
g53
(dp1866
sg62
g1860
sg55
(lp1867
g48
(g69
g50
NtRp1868
(dp1869
g53
(dp1870
sg62
g1864
sg55
(lp1871
g48
(g49
g50
NtRp1872
(dp1873
g53
(dp1874
g61
I3
ssg62
g1868
sg55
(lp1875
S'1'
asbasbasbag48
(g64
g50
NtRp1876
(dp1877
g53
(dp1878
sg62
g1860
sg55
(lp1879
g48
(g69
g50
NtRp1880
(dp1881
g53
(dp1882
sg62
g1876
sg55
(lp1883
g48
(g49
g50
NtRp1884
(dp1885
g53
(dp1886
g61
I3
ssg62
g1880
sg55
(lp1887
S'0'
asbasbasbasbasbasbasbasbasbasbasbag48
(g64
g50
NtRp1888
(dp1889
g53
(dp1890
sg62
g58
sg55
(lp1891
g48
(g69
g50
NtRp1892
(dp1893
g53
(dp1894
g73
g74
ssg62
g1888
sg55
(lp1895
S'extension'
p1896
asbag48
(g69
g50
NtRp1897
(dp1898
g53
(dp1899
g80
g81
ssg62
g1888
sg55
(lp1900
S':'
asbag48
(g69
g50
NtRp1901
(dp1902
g53
(dp1903
sg62
g1888
sg55
(lp1904
g48
(g49
g50
NtRp1905
(dp1906
g53
(dp1907
g61
I5
ssg62
g1901
sg55
(lp1908
S'js'
p1909
asbasbasbag48
(g64
g50
NtRp1910
(dp1911
g53
(dp1912
sg62
g58
sg55
(lp1913
g48
(g69
g50
NtRp1914
(dp1915
g53
(dp1916
g73
g74
ssg62
g1910
sg55
(lp1917
S'folder'
p1918
asbag48
(g69
g50
NtRp1919
(dp1920
g53
(dp1921
g80
g81
ssg62
g1910
sg55
(lp1922
S':'
asbag48
(g69
g50
NtRp1923
(dp1924
g53
(dp1925
sg62
g1910
sg55
(lp1926
g48
(g49
g50
NtRp1927
(dp1928
g53
(dp1929
g61
I5
ssg62
g1923
sg55
(lp1930
S'D:\\git_projs\\Gabblista\\web2py\\web2py\\applications\\Gabb1\\'
p1931
asbasbasbag48
(g64
g50
NtRp1932
(dp1933
g53
(dp1934
sg62
g58
sg55
(lp1935
g48
(g69
g50
NtRp1936
(dp1937
g53
(dp1938
g73
g74
ssg62
g1932
sg55
(lp1939
S'function'
p1940
asbag48
(g69
g50
NtRp1941
(dp1942
g53
(dp1943
g80
g81
ssg62
g1932
sg55
(lp1944
S':'
asbag48
(g69
g50
NtRp1945
(dp1946
g53
(dp1947
sg62
g1932
sg55
(lp1948
g48
(g49
g50
NtRp1949
(dp1950
g53
(dp1951
g61
I5
ssg62
g1945
sg55
(lp1952
S'js_0'
p1953
asbasbasbag48
(g64
g50
NtRp1954
(dp1955
g53
(dp1956
sg62
g58
sg55
(lp1957
g48
(g69
g50
NtRp1958
(dp1959
g53
(dp1960
g73
g74
ssg62
g1954
sg55
(lp1961
S'get_vars'
p1962
asbag48
(g69
g50
NtRp1963
(dp1964
g53
(dp1965
g80
g81
ssg62
g1954
sg55
(lp1966
S':'
asbag48
(g69
g50
NtRp1967
(dp1968
g53
(dp1969
sg62
g1954
sg55
(lp1970
g48
(g49
g50
NtRp1971
(dp1972
g53
(dp1973
g61
I5
ssg62
g1967
sg55
(lp1974
g48
(g57
g50
NtRp1975
(dp1976
g53
(dp1977
g61
I4
ssg62
Nsg55
(lp1978
sbasbasbasbag48
(g64
g50
NtRp1979
(dp1980
g53
(dp1981
sg62
g58
sg55
(lp1982
g48
(g69
g50
NtRp1983
(dp1984
g53
(dp1985
g73
g74
ssg62
g1979
sg55
(lp1986
S'global_settings'
p1987
asbag48
(g69
g50
NtRp1988
(dp1989
g53
(dp1990
g80
g81
ssg62
g1979
sg55
(lp1991
S':'
asbag48
(g69
g50
NtRp1992
(dp1993
g53
(dp1994
sg62
g1979
sg55
(lp1995
g48
(g49
g50
NtRp1996
(dp1997
g53
(dp1998
g61
I5
ssg62
g1992
sg55
(lp1999
g48
(g57
g50
NtRp2000
(dp2001
g53
(dp2002
g61
I4
ssg62
Nsg55
(lp2003
g48
(g64
g50
NtRp2004
(dp2005
g53
(dp2006
sg62
g2000
sg55
(lp2007
g48
(g69
g50
NtRp2008
(dp2009
g53
(dp2010
g73
g74
ssg62
g2004
sg55
(lp2011
g929
asbag48
(g69
g50
NtRp2012
(dp2013
g53
(dp2014
g80
g81
ssg62
g2004
sg55
(lp2015
S':'
asbag48
(g69
g50
NtRp2016
(dp2017
g53
(dp2018
sg62
g2004
sg55
(lp2019
g48
(g49
g50
NtRp2020
(dp2021
g53
(dp2022
g61
I4
ssg62
g2016
sg55
(lp2023
S"set(['D:\\\\git_projs\\\\Gabblista\\\\web2py\\\\web2py\\\\applications\\\\gabb1\\\\', 'D:\\\\git_projs\\\\Gabblista\\\\web2py\\\\web2py\\\\applications\\\\Gabb1\\\\', 'D:\\\\git_projs\\\\Gabblista\\\\web2py\\\\web2py\\\\applications\\\\welcome\\\\'])"
p2024
asbasbasbag48
(g64
g50
NtRp2025
(dp2026
g53
(dp2027
sg62
g2000
sg55
(lp2028
g48
(g69
g50
NtRp2029
(dp2030
g53
(dp2031
g73
g74
ssg62
g2025
sg55
(lp2032
g951
asbag48
(g69
g50
NtRp2033
(dp2034
g53
(dp2035
g80
g81
ssg62
g2025
sg55
(lp2036
S':'
asbag48
(g69
g50
NtRp2037
(dp2038
g53
(dp2039
sg62
g2025
sg55
(lp2040
g48
(g49
g50
NtRp2041
(dp2042
g53
(dp2043
g61
I4
ssg62
g2037
sg55
(lp2044
g964
asbasbasbag48
(g64
g50
NtRp2045
(dp2046
g53
(dp2047
sg62
g2000
sg55
(lp2048
g48
(g69
g50
NtRp2049
(dp2050
g53
(dp2051
g73
g74
ssg62
g2045
sg55
(lp2052
g973
asbag48
(g69
g50
NtRp2053
(dp2054
g53
(dp2055
g80
g81
ssg62
g2045
sg55
(lp2056
S':'
asbag48
(g69
g50
NtRp2057
(dp2058
g53
(dp2059
sg62
g2045
sg55
(lp2060
g48
(g49
g50
NtRp2061
(dp2062
g53
(dp2063
g61
I4
ssg62
g2057
sg55
(lp2064
g48
(g57
g50
NtRp2065
(dp2066
g53
(dp2067
g61
I3
ssg62
Nsg55
(lp2068
sbasbasbasbag48
(g64
g50
NtRp2069
(dp2070
g53
(dp2071
sg62
g2000
sg55
(lp2072
g48
(g69
g50
NtRp2073
(dp2074
g53
(dp2075
g73
g74
ssg62
g2069
sg55
(lp2076
g998
asbag48
(g69
g50
NtRp2077
(dp2078
g53
(dp2079
g80
g81
ssg62
g2069
sg55
(lp2080
S':'
asbag48
(g69
g50
NtRp2081
(dp2082
g53
(dp2083
sg62
g2069
sg55
(lp2084
g48
(g49
g50
NtRp2085
(dp2086
g53
(dp2087
g61
I4
ssg62
g2081
sg55
(lp2088
S"<Values at 0x325b800: {'verbose': False, 'ip': '127.0.0.1', 'shutdown_timeout': 5, 'taskbar': False, 'nocron': False, 'pid_filename': 'httpserver.pid', 'maxthreads': None, 'softcron': False, 'server_name': 'John-PC', 'bpython': False, 'nogui': False, 'port': 8000, 'extcron': False, 'debuglevel': 30, 'test': None, 'folder': 'D:\\\\git_projs\\\\Gabblista\\\\web2py\\\\web2py', 'config': '', 'import_models': False, 'winservice': '', 'shell': None, 'run': '', 'log_filename': 'httpserver.log', 'args': [''], 'ssl_ca_certificate': None, 'scheduler': None, 'profiler_filename': None, 'ssl_private_key': '', 'password': '<ask>', 'request_queue_size': 5, 'ssl_certificate': '', 'cronjob': False, 'plain': False, 'quiet': False, 'interfaces': None, 'minthreads': None, 'timeout': 10, 'numthreads': None, 'nobanner': False}>"
p2089
asbasbasbag48
(g64
g50
NtRp2090
(dp2091
g53
(dp2092
sg62
g2000
sg55
(lp2093
g48
(g69
g50
NtRp2094
(dp2095
g53
(dp2096
g73
g74
ssg62
g2090
sg55
(lp2097
g1020
asbag48
(g69
g50
NtRp2098
(dp2099
g53
(dp2100
g80
g81
ssg62
g2090
sg55
(lp2101
S':'
asbag48
(g69
g50
NtRp2102
(dp2103
g53
(dp2104
sg62
g2090
sg55
(lp2105
g48
(g49
g50
NtRp2106
(dp2107
g53
(dp2108
g61
I4
ssg62
g2102
sg55
(lp2109
S'set([])'
p2110
asbasbasbag48
(g64
g50
NtRp2111
(dp2112
g53
(dp2113
sg62
g2000
sg55
(lp2114
g48
(g69
g50
NtRp2115
(dp2116
g53
(dp2117
g73
g74
ssg62
g2111
sg55
(lp2118
g1042
asbag48
(g69
g50
NtRp2119
(dp2120
g53
(dp2121
g80
g81
ssg62
g2111
sg55
(lp2122
S':'
asbag48
(g69
g50
NtRp2123
(dp2124
g53
(dp2125
sg62
g2111
sg55
(lp2126
g48
(g49
g50
NtRp2127
(dp2128
g53
(dp2129
g61
I4
ssg62
g2123
sg55
(lp2130
g91
asbasbasbag48
(g64
g50
NtRp2131
(dp2132
g53
(dp2133
sg62
g2000
sg55
(lp2134
g48
(g69
g50
NtRp2135
(dp2136
g53
(dp2137
g73
g74
ssg62
g2131
sg55
(lp2138
g1063
asbag48
(g69
g50
NtRp2139
(dp2140
g53
(dp2141
g80
g81
ssg62
g2131
sg55
(lp2142
S':'
asbag48
(g69
g50
NtRp2143
(dp2144
g53
(dp2145
sg62
g2131
sg55
(lp2146
g48
(g49
g50
NtRp2147
(dp2148
g53
(dp2149
g61
I4
ssg62
g2143
sg55
(lp2150
g1076
asbasbasbag48
(g64
g50
NtRp2151
(dp2152
g53
(dp2153
sg62
g2000
sg55
(lp2154
g48
(g69
g50
NtRp2155
(dp2156
g53
(dp2157
g73
g74
ssg62
g2151
sg55
(lp2158
g1283
asbag48
(g69
g50
NtRp2159
(dp2160
g53
(dp2161
g80
g81
ssg62
g2151
sg55
(lp2162
S':'
asbag48
(g69
g50
NtRp2163
(dp2164
g53
(dp2165
sg62
g2151
sg55
(lp2166
g48
(g49
g50
NtRp2167
(dp2168
g53
(dp2169
g61
I4
ssg62
g2163
sg55
(lp2170
g91
asbasbasbag48
(g64
g50
NtRp2171
(dp2172
g53
(dp2173
sg62
g2000
sg55
(lp2174
g48
(g69
g50
NtRp2175
(dp2176
g53
(dp2177
g73
g74
ssg62
g2171
sg55
(lp2178
g1542
asbag48
(g69
g50
NtRp2179
(dp2180
g53
(dp2181
g80
g81
ssg62
g2171
sg55
(lp2182
S':'
asbag48
(g69
g50
NtRp2183
(dp2184
g53
(dp2185
sg62
g2171
sg55
(lp2186
g48
(g49
g50
NtRp2187
(dp2188
g53
(dp2189
g61
I4
ssg62
g2183
sg55
(lp2190
g1555
asbasbasbag48
(g64
g50
NtRp2191
(dp2192
g53
(dp2193
sg62
g2000
sg55
(lp2194
g48
(g69
g50
NtRp2195
(dp2196
g53
(dp2197
g73
g74
ssg62
g2191
sg55
(lp2198
g1607
asbag48
(g69
g50
NtRp2199
(dp2200
g53
(dp2201
g80
g81
ssg62
g2191
sg55
(lp2202
S':'
asbag48
(g69
g50
NtRp2203
(dp2204
g53
(dp2205
sg62
g2191
sg55
(lp2206
g48
(g49
g50
NtRp2207
(dp2208
g53
(dp2209
g61
I4
ssg62
g2203
sg55
(lp2210
g48
(g57
g50
NtRp2211
(dp2212
g53
(dp2213
g61
I3
ssg62
Nsg55
(lp2214
g48
(g64
g50
NtRp2215
(dp2216
g53
(dp2217
sg62
g2211
sg55
(lp2218
g48
(g69
g50
NtRp2219
(dp2220
g53
(dp2221
sg62
g2215
sg55
(lp2222
g48
(g49
g50
NtRp2223
(dp2224
g53
(dp2225
g61
I3
ssg62
g2219
sg55
(lp2226
S'1'
asbasbasbag48
(g64
g50
NtRp2227
(dp2228
g53
(dp2229
sg62
g2211
sg55
(lp2230
g48
(g69
g50
NtRp2231
(dp2232
g53
(dp2233
sg62
g2227
sg55
(lp2234
g48
(g49
g50
NtRp2235
(dp2236
g53
(dp2237
g61
I3
ssg62
g2231
sg55
(lp2238
S'99'
p2239
asbasbasbag48
(g64
g50
NtRp2240
(dp2241
g53
(dp2242
sg62
g2211
sg55
(lp2243
g48
(g69
g50
NtRp2244
(dp2245
g53
(dp2246
sg62
g2240
sg55
(lp2247
g48
(g49
g50
NtRp2248
(dp2249
g53
(dp2250
g61
I3
ssg62
g2244
sg55
(lp2251
S'2'
asbasbasbag48
(g64
g50
NtRp2252
(dp2253
g53
(dp2254
sg62
g2211
sg55
(lp2255
g48
(g69
g50
NtRp2256
(dp2257
g53
(dp2258
sg62
g2252
sg55
(lp2259
g48
(g49
g50
NtRp2260
(dp2261
g53
(dp2262
g61
I3
ssg62
g2256
sg55
(lp2263
S'datetime.datetime(2011, 9, 26, 6, 55, 33)'
p2264
asbasbasbag48
(g64
g50
NtRp2265
(dp2266
g53
(dp2267
sg62
g2211
sg55
(lp2268
g48
(g69
g50
NtRp2269
(dp2270
g53
(dp2271
sg62
g2265
sg55
(lp2272
g48
(g49
g50
NtRp2273
(dp2274
g53
(dp2275
g61
I3
ssg62
g2269
sg55
(lp2276
g1686
asbasbasbasbasbasbasbasbasbasbasbag48
(g64
g50
NtRp2277
(dp2278
g53
(dp2279
sg62
g58
sg55
(lp2280
g48
(g69
g50
NtRp2281
(dp2282
g53
(dp2283
g73
g74
ssg62
g2277
sg55
(lp2284
S'is_https'
p2285
asbag48
(g69
g50
NtRp2286
(dp2287
g53
(dp2288
g80
g81
ssg62
g2277
sg55
(lp2289
S':'
asbag48
(g69
g50
NtRp2290
(dp2291
g53
(dp2292
sg62
g2277
sg55
(lp2293
g48
(g49
g50
NtRp2294
(dp2295
g53
(dp2296
g61
I5
ssg62
g2290
sg55
(lp2297
g91
asbasbasbag48
(g64
g50
NtRp2298
(dp2299
g53
(dp2300
sg62
g58
sg55
(lp2301
g48
(g69
g50
NtRp2302
(dp2303
g53
(dp2304
g73
g74
ssg62
g2298
sg55
(lp2305
S'is_local'
p2306
asbag48
(g69
g50
NtRp2307
(dp2308
g53
(dp2309
g80
g81
ssg62
g2298
sg55
(lp2310
S':'
asbag48
(g69
g50
NtRp2311
(dp2312
g53
(dp2313
sg62
g2298
sg55
(lp2314
g48
(g49
g50
NtRp2315
(dp2316
g53
(dp2317
g61
I5
ssg62
g2311
sg55
(lp2318
g1795
asbasbasbag48
(g64
g50
NtRp2319
(dp2320
g53
(dp2321
sg62
g58
sg55
(lp2322
g48
(g69
g50
NtRp2323
(dp2324
g53
(dp2325
g73
g74
ssg62
g2319
sg55
(lp2326
S'is_restful'
p2327
asbag48
(g69
g50
NtRp2328
(dp2329
g53
(dp2330
g80
g81
ssg62
g2319
sg55
(lp2331
S':'
asbag48
(g69
g50
NtRp2332
(dp2333
g53
(dp2334
sg62
g2319
sg55
(lp2335
g48
(g49
g50
NtRp2336
(dp2337
g53
(dp2338
g61
I5
ssg62
g2332
sg55
(lp2339
g91
asbasbasbag48
(g64
g50
NtRp2340
(dp2341
g53
(dp2342
sg62
g58
sg55
(lp2343
g48
(g69
g50
NtRp2344
(dp2345
g53
(dp2346
g73
g74
ssg62
g2340
sg55
(lp2347
S'now'
p2348
asbag48
(g69
g50
NtRp2349
(dp2350
g53
(dp2351
g80
g81
ssg62
g2340
sg55
(lp2352
S':'
asbag48
(g69
g50
NtRp2353
(dp2354
g53
(dp2355
sg62
g2340
sg55
(lp2356
g48
(g49
g50
NtRp2357
(dp2358
g53
(dp2359
g61
I5
ssg62
g2353
sg55
(lp2360
S'datetime.datetime(2012, 1, 18, 9, 33, 28, 371000)'
p2361
asbasbasbag48
(g64
g50
NtRp2362
(dp2363
g53
(dp2364
sg62
g58
sg55
(lp2365
g48
(g69
g50
NtRp2366
(dp2367
g53
(dp2368
g73
g74
ssg62
g2362
sg55
(lp2369
S'post_vars'
p2370
asbag48
(g69
g50
NtRp2371
(dp2372
g53
(dp2373
g80
g81
ssg62
g2362
sg55
(lp2374
S':'
asbag48
(g69
g50
NtRp2375
(dp2376
g53
(dp2377
sg62
g2362
sg55
(lp2378
g48
(g49
g50
NtRp2379
(dp2380
g53
(dp2381
g61
I5
ssg62
g2375
sg55
(lp2382
g48
(g57
g50
NtRp2383
(dp2384
g53
(dp2385
g61
I4
ssg62
Nsg55
(lp2386
sbasbasbasbag48
(g64
g50
NtRp2387
(dp2388
g53
(dp2389
sg62
g58
sg55
(lp2390
g48
(g69
g50
NtRp2391
(dp2392
g53
(dp2393
g73
g74
ssg62
g2387
sg55
(lp2394
S'raw_extension'
p2395
asbag48
(g69
g50
NtRp2396
(dp2397
g53
(dp2398
g80
g81
ssg62
g2387
sg55
(lp2399
S':'
asbag48
(g69
g50
NtRp2400
(dp2401
g53
(dp2402
sg62
g2387
sg55
(lp2403
g48
(g49
g50
NtRp2404
(dp2405
g53
(dp2406
g61
I5
ssg62
g2400
sg55
(lp2407
g1909
asbasbasbag48
(g64
g50
NtRp2408
(dp2409
g53
(dp2410
sg62
g58
sg55
(lp2411
g48
(g69
g50
NtRp2412
(dp2413
g53
(dp2414
g73
g74
ssg62
g2408
sg55
(lp2415
S'url'
p2416
asbag48
(g69
g50
NtRp2417
(dp2418
g53
(dp2419
g80
g81
ssg62
g2408
sg55
(lp2420
S':'
asbag48
(g69
g50
NtRp2421
(dp2422
g53
(dp2423
sg62
g2408
sg55
(lp2424
g48
(g49
g50
NtRp2425
(dp2426
g53
(dp2427
g61
I5
ssg62
g2421
sg55
(lp2428
S'/Gabb1/fb_serv/js_0.js'
p2429
asbasbasbag48
(g64
g50
NtRp2430
(dp2431
g53
(dp2432
sg62
g58
sg55
(lp2433
g48
(g69
g50
NtRp2434
(dp2435
g53
(dp2436
g73
g74
ssg62
g2430
sg55
(lp2437
S'utcnow'
p2438
asbag48
(g69
g50
NtRp2439
(dp2440
g53
(dp2441
g80
g81
ssg62
g2430
sg55
(lp2442
S':'
asbag48
(g69
g50
NtRp2443
(dp2444
g53
(dp2445
sg62
g2430
sg55
(lp2446
g48
(g49
g50
NtRp2447
(dp2448
g53
(dp2449
g61
I5
ssg62
g2443
sg55
(lp2450
S'datetime.datetime(2012, 1, 18, 14, 33, 28, 371000)'
p2451
asbasbasbag48
(g64
g50
NtRp2452
(dp2453
g53
(dp2454
sg62
g58
sg55
(lp2455
g48
(g69
g50
NtRp2456
(dp2457
g53
(dp2458
g73
g74
ssg62
g2452
sg55
(lp2459
S'uuid'
p2460
asbag48
(g69
g50
NtRp2461
(dp2462
g53
(dp2463
g80
g81
ssg62
g2452
sg55
(lp2464
S':'
asbag48
(g69
g50
NtRp2465
(dp2466
g53
(dp2467
sg62
g2452
sg55
(lp2468
g48
(g49
g50
NtRp2469
(dp2470
g53
(dp2471
g61
I5
ssg62
g2465
sg55
(lp2472
S'Gabb1/127.0.0.1.2012-01-18.09-33-28.9b9a0edf-72cc-4b5a-aae6-3a9d471c52c0'
p2473
asbasbasbag48
(g64
g50
NtRp2474
(dp2475
g53
(dp2476
sg62
g58
sg55
(lp2477
g48
(g69
g50
NtRp2478
(dp2479
g53
(dp2480
g73
g74
ssg62
g2474
sg55
(lp2481
S'vars'
p2482
asbag48
(g69
g50
NtRp2483
(dp2484
g53
(dp2485
g80
g81
ssg62
g2474
sg55
(lp2486
S':'
asbag48
(g69
g50
NtRp2487
(dp2488
g53
(dp2489
sg62
g2474
sg55
(lp2490
g48
(g49
g50
NtRp2491
(dp2492
g53
(dp2493
g61
I5
ssg62
g2487
sg55
(lp2494
g48
(g57
g50
NtRp2495
(dp2496
g53
(dp2497
g61
I4
ssg62
Nsg55
(lp2498
sbasbasbasbag48
(g64
g50
NtRp2499
(dp2500
g53
(dp2501
sg62
g58
sg55
(lp2502
g48
(g69
g50
NtRp2503
(dp2504
g53
(dp2505
g73
g74
ssg62
g2499
sg55
(lp2506
S'wsgi'
p2507
asbag48
(g69
g50
NtRp2508
(dp2509
g53
(dp2510
g80
g81
ssg62
g2499
sg55
(lp2511
S':'
asbag48
(g69
g50
NtRp2512
(dp2513
g53
(dp2514
sg62
g2499
sg55
(lp2515
g48
(g49
g50
NtRp2516
(dp2517
g53
(dp2518
g61
I5
ssg62
g2512
sg55
(lp2519
g48
(g57
g50
NtRp2520
(dp2521
g53
(dp2522
g61
I4
ssg62
Nsg55
(lp2523
g48
(g64
g50
NtRp2524
(dp2525
g53
(dp2526
sg62
g2520
sg55
(lp2527
g48
(g69
g50
NtRp2528
(dp2529
g53
(dp2530
g73
g74
ssg62
g2524
sg55
(lp2531
S'environ'
p2532
asbag48
(g69
g50
NtRp2533
(dp2534
g53
(dp2535
g80
g81
ssg62
g2524
sg55
(lp2536
S':'
asbag48
(g69
g50
NtRp2537
(dp2538
g53
(dp2539
sg62
g2524
sg55
(lp2540
g48
(g49
g50
NtRp2541
(dp2542
g53
(dp2543
g61
I4
ssg62
g2537
sg55
(lp2544
g48
(g57
g50
NtRp2545
(dp2546
g53
(dp2547
g61
I3
ssg62
Nsg55
(lp2548
g48
(g64
g50
NtRp2549
(dp2550
g53
(dp2551
sg62
g2545
sg55
(lp2552
g48
(g69
g50
NtRp2553
(dp2554
g53
(dp2555
g73
g74
ssg62
g2549
sg55
(lp2556
S'HTTP_ACCEPT'
p2557
asbag48
(g69
g50
NtRp2558
(dp2559
g53
(dp2560
g80
g81
ssg62
g2549
sg55
(lp2561
S':'
asbag48
(g69
g50
NtRp2562
(dp2563
g53
(dp2564
sg62
g2549
sg55
(lp2565
g48
(g49
g50
NtRp2566
(dp2567
g53
(dp2568
g61
I3
ssg62
g2562
sg55
(lp2569
g1098
asbasbasbag48
(g64
g50
NtRp2570
(dp2571
g53
(dp2572
sg62
g2545
sg55
(lp2573
g48
(g69
g50
NtRp2574
(dp2575
g53
(dp2576
g73
g74
ssg62
g2570
sg55
(lp2577
S'HTTP_ACCEPT_CHARSET'
p2578
asbag48
(g69
g50
NtRp2579
(dp2580
g53
(dp2581
g80
g81
ssg62
g2570
sg55
(lp2582
S':'
asbag48
(g69
g50
NtRp2583
(dp2584
g53
(dp2585
sg62
g2570
sg55
(lp2586
g48
(g49
g50
NtRp2587
(dp2588
g53
(dp2589
g61
I3
ssg62
g2583
sg55
(lp2590
g1120
asbasbasbag48
(g64
g50
NtRp2591
(dp2592
g53
(dp2593
sg62
g2545
sg55
(lp2594
g48
(g69
g50
NtRp2595
(dp2596
g53
(dp2597
g73
g74
ssg62
g2591
sg55
(lp2598
S'HTTP_ACCEPT_ENCODING'
p2599
asbag48
(g69
g50
NtRp2600
(dp2601
g53
(dp2602
g80
g81
ssg62
g2591
sg55
(lp2603
S':'
asbag48
(g69
g50
NtRp2604
(dp2605
g53
(dp2606
sg62
g2591
sg55
(lp2607
g48
(g49
g50
NtRp2608
(dp2609
g53
(dp2610
g61
I3
ssg62
g2604
sg55
(lp2611
g1142
asbasbasbag48
(g64
g50
NtRp2612
(dp2613
g53
(dp2614
sg62
g2545
sg55
(lp2615
g48
(g69
g50
NtRp2616
(dp2617
g53
(dp2618
g73
g74
ssg62
g2612
sg55
(lp2619
S'HTTP_ACCEPT_LANGUAGE'
p2620
asbag48
(g69
g50
NtRp2621
(dp2622
g53
(dp2623
g80
g81
ssg62
g2612
sg55
(lp2624
S':'
asbag48
(g69
g50
NtRp2625
(dp2626
g53
(dp2627
sg62
g2612
sg55
(lp2628
g48
(g49
g50
NtRp2629
(dp2630
g53
(dp2631
g61
I3
ssg62
g2625
sg55
(lp2632
g1164
asbasbasbag48
(g64
g50
NtRp2633
(dp2634
g53
(dp2635
sg62
g2545
sg55
(lp2636
g48
(g69
g50
NtRp2637
(dp2638
g53
(dp2639
g73
g74
ssg62
g2633
sg55
(lp2640
S'HTTP_CONNECTION'
p2641
asbag48
(g69
g50
NtRp2642
(dp2643
g53
(dp2644
g80
g81
ssg62
g2633
sg55
(lp2645
S':'
asbag48
(g69
g50
NtRp2646
(dp2647
g53
(dp2648
sg62
g2633
sg55
(lp2649
g48
(g49
g50
NtRp2650
(dp2651
g53
(dp2652
g61
I3
ssg62
g2646
sg55
(lp2653
g1186
asbasbasbag48
(g64
g50
NtRp2654
(dp2655
g53
(dp2656
sg62
g2545
sg55
(lp2657
g48
(g69
g50
NtRp2658
(dp2659
g53
(dp2660
g73
g74
ssg62
g2654
sg55
(lp2661
S'HTTP_COOKIE'
p2662
asbag48
(g69
g50
NtRp2663
(dp2664
g53
(dp2665
g80
g81
ssg62
g2654
sg55
(lp2666
S':'
asbag48
(g69
g50
NtRp2667
(dp2668
g53
(dp2669
sg62
g2654
sg55
(lp2670
g48
(g49
g50
NtRp2671
(dp2672
g53
(dp2673
g61
I3
ssg62
g2667
sg55
(lp2674
g1208
asbasbasbag48
(g64
g50
NtRp2675
(dp2676
g53
(dp2677
sg62
g2545
sg55
(lp2678
g48
(g69
g50
NtRp2679
(dp2680
g53
(dp2681
g73
g74
ssg62
g2675
sg55
(lp2682
S'HTTP_HOST'
p2683
asbag48
(g69
g50
NtRp2684
(dp2685
g53
(dp2686
g80
g81
ssg62
g2675
sg55
(lp2687
S':'
asbag48
(g69
g50
NtRp2688
(dp2689
g53
(dp2690
sg62
g2675
sg55
(lp2691
g48
(g49
g50
NtRp2692
(dp2693
g53
(dp2694
g61
I3
ssg62
g2688
sg55
(lp2695
g1230
asbasbasbag48
(g64
g50
NtRp2696
(dp2697
g53
(dp2698
sg62
g2545
sg55
(lp2699
g48
(g69
g50
NtRp2700
(dp2701
g53
(dp2702
g73
g74
ssg62
g2696
sg55
(lp2703
S'HTTP_REFERER'
p2704
asbag48
(g69
g50
NtRp2705
(dp2706
g53
(dp2707
g80
g81
ssg62
g2696
sg55
(lp2708
S':'
asbag48
(g69
g50
NtRp2709
(dp2710
g53
(dp2711
sg62
g2696
sg55
(lp2712
g48
(g49
g50
NtRp2713
(dp2714
g53
(dp2715
g61
I3
ssg62
g2709
sg55
(lp2716
g1252
asbasbasbag48
(g64
g50
NtRp2717
(dp2718
g53
(dp2719
sg62
g2545
sg55
(lp2720
g48
(g69
g50
NtRp2721
(dp2722
g53
(dp2723
g73
g74
ssg62
g2717
sg55
(lp2724
S'HTTP_USER_AGENT'
p2725
asbag48
(g69
g50
NtRp2726
(dp2727
g53
(dp2728
g80
g81
ssg62
g2717
sg55
(lp2729
S':'
asbag48
(g69
g50
NtRp2730
(dp2731
g53
(dp2732
sg62
g2717
sg55
(lp2733
g48
(g49
g50
NtRp2734
(dp2735
g53
(dp2736
g61
I3
ssg62
g2730
sg55
(lp2737
g1274
asbasbasbag48
(g64
g50
NtRp2738
(dp2739
g53
(dp2740
sg62
g2545
sg55
(lp2741
g48
(g69
g50
NtRp2742
(dp2743
g53
(dp2744
g73
g74
ssg62
g2738
sg55
(lp2745
S'PATH_INFO'
p2746
asbag48
(g69
g50
NtRp2747
(dp2748
g53
(dp2749
g80
g81
ssg62
g2738
sg55
(lp2750
S':'
asbag48
(g69
g50
NtRp2751
(dp2752
g53
(dp2753
sg62
g2738
sg55
(lp2754
g48
(g49
g50
NtRp2755
(dp2756
g53
(dp2757
g61
I3
ssg62
g2751
sg55
(lp2758
g1317
asbasbasbag48
(g64
g50
NtRp2759
(dp2760
g53
(dp2761
sg62
g2545
sg55
(lp2762
g48
(g69
g50
NtRp2763
(dp2764
g53
(dp2765
g73
g74
ssg62
g2759
sg55
(lp2766
S'QUERY_STRING'
p2767
asbag48
(g69
g50
NtRp2768
(dp2769
g53
(dp2770
g80
g81
ssg62
g2759
sg55
(lp2771
S':'
asbag48
(g69
g50
NtRp2772
(dp2773
g53
(dp2774
sg62
g2759
sg55
(lp2775
g48
(g49
g50
NtRp2776
(dp2777
g53
(dp2778
g61
I3
ssg62
g2772
sg55
(lp2779
S''
asbasbasbag48
(g64
g50
NtRp2780
(dp2781
g53
(dp2782
sg62
g2545
sg55
(lp2783
g48
(g69
g50
NtRp2784
(dp2785
g53
(dp2786
g73
g74
ssg62
g2780
sg55
(lp2787
S'REMOTE_ADDR'
p2788
asbag48
(g69
g50
NtRp2789
(dp2790
g53
(dp2791
g80
g81
ssg62
g2780
sg55
(lp2792
S':'
asbag48
(g69
g50
NtRp2793
(dp2794
g53
(dp2795
sg62
g2780
sg55
(lp2796
g48
(g49
g50
NtRp2797
(dp2798
g53
(dp2799
g61
I3
ssg62
g2793
sg55
(lp2800
g181
asbasbasbag48
(g64
g50
NtRp2801
(dp2802
g53
(dp2803
sg62
g2545
sg55
(lp2804
g48
(g69
g50
NtRp2805
(dp2806
g53
(dp2807
g73
g74
ssg62
g2801
sg55
(lp2808
S'REMOTE_PORT'
p2809
asbag48
(g69
g50
NtRp2810
(dp2811
g53
(dp2812
g80
g81
ssg62
g2801
sg55
(lp2813
S':'
asbag48
(g69
g50
NtRp2814
(dp2815
g53
(dp2816
sg62
g2801
sg55
(lp2817
g48
(g49
g50
NtRp2818
(dp2819
g53
(dp2820
g61
I3
ssg62
g2814
sg55
(lp2821
g1381
asbasbasbag48
(g64
g50
NtRp2822
(dp2823
g53
(dp2824
sg62
g2545
sg55
(lp2825
g48
(g69
g50
NtRp2826
(dp2827
g53
(dp2828
g73
g74
ssg62
g2822
sg55
(lp2829
S'REQUEST_METHOD'
p2830
asbag48
(g69
g50
NtRp2831
(dp2832
g53
(dp2833
g80
g81
ssg62
g2822
sg55
(lp2834
S':'
asbag48
(g69
g50
NtRp2835
(dp2836
g53
(dp2837
sg62
g2822
sg55
(lp2838
g48
(g49
g50
NtRp2839
(dp2840
g53
(dp2841
g61
I3
ssg62
g2835
sg55
(lp2842
g1403
asbasbasbag48
(g64
g50
NtRp2843
(dp2844
g53
(dp2845
sg62
g2545
sg55
(lp2846
g48
(g69
g50
NtRp2847
(dp2848
g53
(dp2849
g73
g74
ssg62
g2843
sg55
(lp2850
S'REQUEST_URI'
p2851
asbag48
(g69
g50
NtRp2852
(dp2853
g53
(dp2854
g80
g81
ssg62
g2843
sg55
(lp2855
S':'
asbag48
(g69
g50
NtRp2856
(dp2857
g53
(dp2858
sg62
g2843
sg55
(lp2859
g48
(g49
g50
NtRp2860
(dp2861
g53
(dp2862
g61
I3
ssg62
g2856
sg55
(lp2863
g1317
asbasbasbag48
(g64
g50
NtRp2864
(dp2865
g53
(dp2866
sg62
g2545
sg55
(lp2867
g48
(g69
g50
NtRp2868
(dp2869
g53
(dp2870
g73
g74
ssg62
g2864
sg55
(lp2871
S'SCRIPT_NAME'
p2872
asbag48
(g69
g50
NtRp2873
(dp2874
g53
(dp2875
g80
g81
ssg62
g2864
sg55
(lp2876
S':'
asbag48
(g69
g50
NtRp2877
(dp2878
g53
(dp2879
sg62
g2864
sg55
(lp2880
g48
(g49
g50
NtRp2881
(dp2882
g53
(dp2883
g61
I3
ssg62
g2877
sg55
(lp2884
S''
asbasbasbag48
(g64
g50
NtRp2885
(dp2886
g53
(dp2887
sg62
g2545
sg55
(lp2888
g48
(g69
g50
NtRp2889
(dp2890
g53
(dp2891
g73
g74
ssg62
g2885
sg55
(lp2892
S'SERVER_NAME'
p2893
asbag48
(g69
g50
NtRp2894
(dp2895
g53
(dp2896
g80
g81
ssg62
g2885
sg55
(lp2897
S':'
asbag48
(g69
g50
NtRp2898
(dp2899
g53
(dp2900
sg62
g2885
sg55
(lp2901
g48
(g49
g50
NtRp2902
(dp2903
g53
(dp2904
g61
I3
ssg62
g2898
sg55
(lp2905
g1467
asbasbasbag48
(g64
g50
NtRp2906
(dp2907
g53
(dp2908
sg62
g2545
sg55
(lp2909
g48
(g69
g50
NtRp2910
(dp2911
g53
(dp2912
g73
g74
ssg62
g2906
sg55
(lp2913
S'SERVER_PORT'
p2914
asbag48
(g69
g50
NtRp2915
(dp2916
g53
(dp2917
g80
g81
ssg62
g2906
sg55
(lp2918
S':'
asbag48
(g69
g50
NtRp2919
(dp2920
g53
(dp2921
sg62
g2906
sg55
(lp2922
g48
(g49
g50
NtRp2923
(dp2924
g53
(dp2925
g61
I3
ssg62
g2919
sg55
(lp2926
g1489
asbasbasbag48
(g64
g50
NtRp2927
(dp2928
g53
(dp2929
sg62
g2545
sg55
(lp2930
g48
(g69
g50
NtRp2931
(dp2932
g53
(dp2933
g73
g74
ssg62
g2927
sg55
(lp2934
S'SERVER_PROTOCOL'
p2935
asbag48
(g69
g50
NtRp2936
(dp2937
g53
(dp2938
g80
g81
ssg62
g2927
sg55
(lp2939
S':'
asbag48
(g69
g50
NtRp2940
(dp2941
g53
(dp2942
sg62
g2927
sg55
(lp2943
g48
(g49
g50
NtRp2944
(dp2945
g53
(dp2946
g61
I3
ssg62
g2940
sg55
(lp2947
g1511
asbasbasbag48
(g64
g50
NtRp2948
(dp2949
g53
(dp2950
sg62
g2545
sg55
(lp2951
g48
(g69
g50
NtRp2952
(dp2953
g53
(dp2954
g73
g74
ssg62
g2948
sg55
(lp2955
S'SERVER_SOFTWARE'
p2956
asbag48
(g69
g50
NtRp2957
(dp2958
g53
(dp2959
g80
g81
ssg62
g2948
sg55
(lp2960
S':'
asbag48
(g69
g50
NtRp2961
(dp2962
g53
(dp2963
sg62
g2948
sg55
(lp2964
g48
(g49
g50
NtRp2965
(dp2966
g53
(dp2967
g61
I3
ssg62
g2961
sg55
(lp2968
g1533
asbasbasbag48
(g64
g50
NtRp2969
(dp2970
g53
(dp2971
sg62
g2545
sg55
(lp2972
g48
(g69
g50
NtRp2973
(dp2974
g53
(dp2975
g73
g74
ssg62
g2969
sg55
(lp2976
S'WEB2PY_ORIGINAL_URI'
p2977
asbag48
(g69
g50
NtRp2978
(dp2979
g53
(dp2980
g80
g81
ssg62
g2969
sg55
(lp2981
S':'
asbag48
(g69
g50
NtRp2982
(dp2983
g53
(dp2984
sg62
g2969
sg55
(lp2985
g48
(g49
g50
NtRp2986
(dp2987
g53
(dp2988
g61
I3
ssg62
g2982
sg55
(lp2989
g1577
asbasbasbag48
(g64
g50
NtRp2990
(dp2991
g53
(dp2992
sg62
g2545
sg55
(lp2993
g48
(g69
g50
NtRp2994
(dp2995
g53
(dp2996
g73
g74
ssg62
g2990
sg55
(lp2997
S'wsgi.errors'
p2998
asbag48
(g69
g50
NtRp2999
(dp3000
g53
(dp3001
g80
g81
ssg62
g2990
sg55
(lp3002
S':'
asbag48
(g69
g50
NtRp3003
(dp3004
g53
(dp3005
sg62
g2990
sg55
(lp3006
g48
(g49
g50
NtRp3007
(dp3008
g53
(dp3009
g61
I3
ssg62
g3003
sg55
(lp3010
S"<open file '<stderr>', mode 'w' at 0x01D300B0>"
p3011
asbasbasbag48
(g64
g50
NtRp3012
(dp3013
g53
(dp3014
sg62
g2545
sg55
(lp3015
g48
(g69
g50
NtRp3016
(dp3017
g53
(dp3018
g73
g74
ssg62
g3012
sg55
(lp3019
S'wsgi.file_wrapper'
p3020
asbag48
(g69
g50
NtRp3021
(dp3022
g53
(dp3023
g80
g81
ssg62
g3012
sg55
(lp3024
S':'
asbag48
(g69
g50
NtRp3025
(dp3026
g53
(dp3027
sg62
g3012
sg55
(lp3028
g48
(g49
g50
NtRp3029
(dp3030
g53
(dp3031
g61
I3
ssg62
g3025
sg55
(lp3032
S'<class wsgiref.util.FileWrapper at 0x0318A600>'
p3033
asbasbasbag48
(g64
g50
NtRp3034
(dp3035
g53
(dp3036
sg62
g2545
sg55
(lp3037
g48
(g69
g50
NtRp3038
(dp3039
g53
(dp3040
g73
g74
ssg62
g3034
sg55
(lp3041
S'wsgi.input'
p3042
asbag48
(g69
g50
NtRp3043
(dp3044
g53
(dp3045
g80
g81
ssg62
g3034
sg55
(lp3046
S':'
asbag48
(g69
g50
NtRp3047
(dp3048
g53
(dp3049
sg62
g3034
sg55
(lp3050
g48
(g49
g50
NtRp3051
(dp3052
g53
(dp3053
g61
I3
ssg62
g3047
sg55
(lp3054
S'<cStringIO.StringO object at 0x034A4160>'
p3055
asbasbasbag48
(g64
g50
NtRp3056
(dp3057
g53
(dp3058
sg62
g2545
sg55
(lp3059
g48
(g69
g50
NtRp3060
(dp3061
g53
(dp3062
g73
g74
ssg62
g3056
sg55
(lp3063
S'wsgi.multiprocess'
p3064
asbag48
(g69
g50
NtRp3065
(dp3066
g53
(dp3067
g80
g81
ssg62
g3056
sg55
(lp3068
S':'
asbag48
(g69
g50
NtRp3069
(dp3070
g53
(dp3071
sg62
g3056
sg55
(lp3072
g48
(g49
g50
NtRp3073
(dp3074
g53
(dp3075
g61
I3
ssg62
g3069
sg55
(lp3076
g91
asbasbasbag48
(g64
g50
NtRp3077
(dp3078
g53
(dp3079
sg62
g2545
sg55
(lp3080
g48
(g69
g50
NtRp3081
(dp3082
g53
(dp3083
g73
g74
ssg62
g3077
sg55
(lp3084
S'wsgi.multithread'
p3085
asbag48
(g69
g50
NtRp3086
(dp3087
g53
(dp3088
g80
g81
ssg62
g3077
sg55
(lp3089
S':'
asbag48
(g69
g50
NtRp3090
(dp3091
g53
(dp3092
sg62
g3077
sg55
(lp3093
g48
(g49
g50
NtRp3094
(dp3095
g53
(dp3096
g61
I3
ssg62
g3090
sg55
(lp3097
g1795
asbasbasbag48
(g64
g50
NtRp3098
(dp3099
g53
(dp3100
sg62
g2545
sg55
(lp3101
g48
(g69
g50
NtRp3102
(dp3103
g53
(dp3104
g73
g74
ssg62
g3098
sg55
(lp3105
S'wsgi.run_once'
p3106
asbag48
(g69
g50
NtRp3107
(dp3108
g53
(dp3109
g80
g81
ssg62
g3098
sg55
(lp3110
S':'
asbag48
(g69
g50
NtRp3111
(dp3112
g53
(dp3113
sg62
g3098
sg55
(lp3114
g48
(g49
g50
NtRp3115
(dp3116
g53
(dp3117
g61
I3
ssg62
g3111
sg55
(lp3118
g91
asbasbasbag48
(g64
g50
NtRp3119
(dp3120
g53
(dp3121
sg62
g2545
sg55
(lp3122
g48
(g69
g50
NtRp3123
(dp3124
g53
(dp3125
g73
g74
ssg62
g3119
sg55
(lp3126
S'wsgi.url_scheme'
p3127
asbag48
(g69
g50
NtRp3128
(dp3129
g53
(dp3130
g80
g81
ssg62
g3119
sg55
(lp3131
S':'
asbag48
(g69
g50
NtRp3132
(dp3133
g53
(dp3134
sg62
g3119
sg55
(lp3135
g48
(g49
g50
NtRp3136
(dp3137
g53
(dp3138
g61
I3
ssg62
g3132
sg55
(lp3139
g1838
asbasbasbag48
(g64
g50
NtRp3140
(dp3141
g53
(dp3142
sg62
g2545
sg55
(lp3143
g48
(g69
g50
NtRp3144
(dp3145
g53
(dp3146
g73
g74
ssg62
g3140
sg55
(lp3147
S'wsgi.version'
p3148
asbag48
(g69
g50
NtRp3149
(dp3150
g53
(dp3151
g80
g81
ssg62
g3140
sg55
(lp3152
S':'
asbag48
(g69
g50
NtRp3153
(dp3154
g53
(dp3155
sg62
g3140
sg55
(lp3156
g48
(g49
g50
NtRp3157
(dp3158
g53
(dp3159
g61
I3
ssg62
g3153
sg55
(lp3160
S'1'
asbasbasbasbasbasbasbasbasbasbasbasbasbsS'frames'
p3161
(lp3162
(dp3163
S'file'
p3164
S'D:\\git_projs\\Gabblista\\web2py\\web2py\\gluon\\restricted.py'
p3165
sS'dump'
p3166
(dp3167
S'environment'
p3168
S"{'A': <class 'gluon.html.A'>, 'Auth': <class 'gluon.tools.Auth'>, 'B': <class 'gluon.html.B'>, 'BEAUTIFY': <class 'gluon.html.BEAUTIFY'>, 'BODY': <class 'gluon.html.BODY'>, 'BR': <class 'gluon.html.BR'>, 'BUTTON': <class 'gluon.html.BUTTON'>, 'CAT': <class 'gluon.html.CAT'>, 'CENTER': <class 'gluon.html.CENTER'>, 'CLEANUP': <class 'gluon.validators.CLEANUP'>, ...}"
p3169
sS'ccode'
p3170
S'<code object <module> at 034E3530, file "D:\\git_...plications\\Gabb1\\controllers/fb_serv.py", line 3>'
p3171
ssS'lnum'
p3172
I194
sS'lines'
p3173
(dp3174
I192
S'        else:'
p3175
sI193
S'            ccode = compile2(code,layer)'
p3176
sI194
S'        exec ccode in environment'
p3177
sI195
S'    except HTTP:'
p3178
sI196
S'        raise'
p3179
sI197
S'    except Exception, error:'
p3180
sI198
S'        # XXX Show exception in Wing IDE if running in debugger'
p3181
sI189
S'    try:'
p3182
sI190
S'        if type(code) == types.CodeType:'
p3183
sI191
S'            ccode = code'
p3184
ssS'call'
p3185
S"(code='# -*- coding: utf-8 -*-\\n\\ndef game():\\n    return ...  return \\n\\nresponse._vars=response._caller(js_0)\\n', environment={'A': <class 'gluon.html.A'>, 'Auth': <class 'gluon.tools.Auth'>, 'B': <class 'gluon.html.B'>, 'BEAUTIFY': <class 'gluon.html.BEAUTIFY'>, 'BODY': <class 'gluon.html.BODY'>, 'BR': <class 'gluon.html.BR'>, 'BUTTON': <class 'gluon.html.BUTTON'>, 'CAT': <class 'gluon.html.CAT'>, 'CENTER': <class 'gluon.html.CENTER'>, 'CLEANUP': <class 'gluon.validators.CLEANUP'>, ...}, layer=r'D:\\git_projs\\Gabblista\\web2py\\web2py\\applications\\Gabb1\\controllers/fb_serv.py')"
p3186
sS'func'
p3187
S'restricted'
p3188
sa(dp3189
g3164
S'D:\\git_projs\\Gabblista\\web2py\\web2py\\applications\\Gabb1\\controllers\\fb_serv.py'
p3190
sg3166
(dp3191
sg3172
I37
sg3173
(dp3192
I32
S'    return'
p3193
sI33
S''
sI34
S'def js_6():'
p3194
sI35
S'    return'
p3195
sI26
S'    return'
p3196
sI27
S''
sI28
S'def js_4():'
p3197
sI29
S'    return'
p3198
sI30
S''
sI31
S'def js_5():'
p3199
ssg3185
S'()'
p3200
sg3187
S'<module>'
p3201
sa(dp3202
g3164
S'D:\\git_projs\\Gabblista\\web2py\\web2py\\gluon\\globals.py'
p3203
sg3166
(dp3204
S'self'
p3205
S'undefined'
p3206
sS'f'
S'<function js_0 at 0x034C4370>'
p3207
ssg3172
I149
sg3173
(dp3208
I144
S'        self.meta = Storage()      # used by web2py_ajax.html'
p3209
sI145
S'        self.menu = []             # used by the default view layout'
p3210
sI146
S'        self.files = []            # used by web2py_ajax.html'
p3211
sI147
S'        self.generic_patterns = [] # patterns to allow generic views'
p3212
sI148
S'        self._vars = None'
p3213
sI149
S'        self._caller = lambda f: f()'
p3214
sI150
S'        self._view_environment = None'
p3215
sI151
S'        self._custom_commit = None'
p3216
sI152
S'        self._custom_rollback = None'
p3217
sI153
S''
ssg3185
S'(f=<function js_0 at 0x034C4370>)'
p3218
sg3187
S'<lambda>'
p3219
sa(dp3220
g3164
S'D:\\git_projs\\Gabblista\\web2py\\web2py\\applications\\Gabb1\\controllers\\fb_serv.py'
p3221
sg3166
(dp3222
S'host_domain'
p3223
S"'http://127.0.0.1:8000/gabb1/fb_serv'"
p3224
sS'test_var'
p3225
g3206
sS'builtindict'
p3226
S"<type 'dict'>"
p3227
ssg3172
I17
sg3173
(dp3228
I12
S'    return dict(message="Test",test_var=test_var)'
p3229
sI13
S''
sI14
S'def js_0():'
p3230
sI15
S''
sI16
S'    host_domain = "http://127.0.0.1:8000/gabb1/fb_serv"'
p3231
sI17
S'    return dict(host_domain=host_domain,test_var=test_var)'
p3232
sI18
S''
sI19
S'def js_1():'
p3233
sI20
S'    return dict()'
p3234
sI21
S''
ssg3185
S'()'
p3235
sg3187
S'js_0'
p3236
sasS'pyver'
p3237
S'Python 2.5.4: C:\\python25\\python.exe'
p3238
sS'session'
p3239
g48
(g49
g50
NtRp3240
(dp3241
g53
(dp3242
sg55
(lp3243
g48
(g57
g50
NtRp3244
(dp3245
g53
(dp3246
g61
I5
ssg62
Nsg55
(lp3247
sbasbsS'etype'
p3248
S"<type 'exceptions.NameError'>"
p3249
sS'date'
p3250
S'Wed Jan 18 09:33:28 2012'
p3251
sS'response'
p3252
g48
(g49
g50
NtRp3253
(dp3254
g53
(dp3255
sg55
(lp3256
g48
(g57
g50
NtRp3257
(dp3258
g53
(dp3259
g61
I5
ssg62
Nsg55
(lp3260
g48
(g64
g50
NtRp3261
(dp3262
g53
(dp3263
sg62
g3257
sg55
(lp3264
g48
(g69
g50
NtRp3265
(dp3266
g53
(dp3267
g73
g74
ssg62
g3261
sg55
(lp3268
g146
asbag48
(g69
g50
NtRp3269
(dp3270
g53
(dp3271
g80
g81
ssg62
g3261
sg55
(lp3272
S':'
asbag48
(g69
g50
NtRp3273
(dp3274
g53
(dp3275
sg62
g3261
sg55
(lp3276
g48
(g49
g50
NtRp3277
(dp3278
g53
(dp3279
g61
I5
ssg62
g3273
sg55
(lp3280
S'<cStringIO.StringO object at 0x032655C0>'
p3281
asbasbasbag48
(g64
g50
NtRp3282
(dp3283
g53
(dp3284
sg62
g3257
sg55
(lp3285
g48
(g69
g50
NtRp3286
(dp3287
g53
(dp3288
g73
g74
ssg62
g3282
sg55
(lp3289
g212
asbag48
(g69
g50
NtRp3290
(dp3291
g53
(dp3292
g80
g81
ssg62
g3282
sg55
(lp3293
S':'
asbag48
(g69
g50
NtRp3294
(dp3295
g53
(dp3296
sg62
g3282
sg55
(lp3297
g48
(g49
g50
NtRp3298
(dp3299
g53
(dp3300
g61
I5
ssg62
g3294
sg55
(lp3301
g48
(g57
g50
NtRp3302
(dp3303
g53
(dp3304
g61
I4
ssg62
Nsg55
(lp3305
g48
(g64
g50
NtRp3306
(dp3307
g53
(dp3308
sg62
g3302
sg55
(lp3309
g48
(g69
g50
NtRp3310
(dp3311
g53
(dp3312
g73
g74
ssg62
g3306
sg55
(lp3313
S'session_id_gabb1'
p3314
asbag48
(g69
g50
NtRp3315
(dp3316
g53
(dp3317
g80
g81
ssg62
g3306
sg55
(lp3318
S':'
asbag48
(g69
g50
NtRp3319
(dp3320
g53
(dp3321
sg62
g3306
sg55
(lp3322
g48
(g49
g50
NtRp3323
(dp3324
g53
(dp3325
g61
I4
ssg62
g3319
sg55
(lp3326
g48
(g57
g50
NtRp3327
(dp3328
g53
(dp3329
g61
I3
ssg62
Nsg55
(lp3330
g48
(g64
g50
NtRp3331
(dp3332
g53
(dp3333
sg62
g3327
sg55
(lp3334
g48
(g69
g50
NtRp3335
(dp3336
g53
(dp3337
g73
g74
ssg62
g3331
sg55
(lp3338
g262
asbag48
(g69
g50
NtRp3339
(dp3340
g53
(dp3341
g80
g81
ssg62
g3331
sg55
(lp3342
S':'
asbag48
(g69
g50
NtRp3343
(dp3344
g53
(dp3345
sg62
g3331
sg55
(lp3346
g48
(g49
g50
NtRp3347
(dp3348
g53
(dp3349
g61
I3
ssg62
g3343
sg55
(lp3350
S''
asbasbasbag48
(g64
g50
NtRp3351
(dp3352
g53
(dp3353
sg62
g3327
sg55
(lp3354
g48
(g69
g50
NtRp3355
(dp3356
g53
(dp3357
g73
g74
ssg62
g3351
sg55
(lp3358
g283
asbag48
(g69
g50
NtRp3359
(dp3360
g53
(dp3361
g80
g81
ssg62
g3351
sg55
(lp3362
S':'
asbag48
(g69
g50
NtRp3363
(dp3364
g53
(dp3365
sg62
g3351
sg55
(lp3366
g48
(g49
g50
NtRp3367
(dp3368
g53
(dp3369
g61
I3
ssg62
g3363
sg55
(lp3370
S''
asbasbasbag48
(g64
g50
NtRp3371
(dp3372
g53
(dp3373
sg62
g3327
sg55
(lp3374
g48
(g69
g50
NtRp3375
(dp3376
g53
(dp3377
g73
g74
ssg62
g3371
sg55
(lp3378
g304
asbag48
(g69
g50
NtRp3379
(dp3380
g53
(dp3381
g80
g81
ssg62
g3371
sg55
(lp3382
S':'
asbag48
(g69
g50
NtRp3383
(dp3384
g53
(dp3385
sg62
g3371
sg55
(lp3386
g48
(g49
g50
NtRp3387
(dp3388
g53
(dp3389
g61
I3
ssg62
g3383
sg55
(lp3390
S''
asbasbasbag48
(g64
g50
NtRp3391
(dp3392
g53
(dp3393
sg62
g3327
sg55
(lp3394
g48
(g69
g50
NtRp3395
(dp3396
g53
(dp3397
g73
g74
ssg62
g3391
sg55
(lp3398
g325
asbag48
(g69
g50
NtRp3399
(dp3400
g53
(dp3401
g80
g81
ssg62
g3391
sg55
(lp3402
S':'
asbag48
(g69
g50
NtRp3403
(dp3404
g53
(dp3405
sg62
g3391
sg55
(lp3406
g48
(g49
g50
NtRp3407
(dp3408
g53
(dp3409
g61
I3
ssg62
g3403
sg55
(lp3410
S''
asbasbasbag48
(g64
g50
NtRp3411
(dp3412
g53
(dp3413
sg62
g3327
sg55
(lp3414
g48
(g69
g50
NtRp3415
(dp3416
g53
(dp3417
g73
g74
ssg62
g3411
sg55
(lp3418
g346
asbag48
(g69
g50
NtRp3419
(dp3420
g53
(dp3421
g80
g81
ssg62
g3411
sg55
(lp3422
S':'
asbag48
(g69
g50
NtRp3423
(dp3424
g53
(dp3425
sg62
g3411
sg55
(lp3426
g48
(g49
g50
NtRp3427
(dp3428
g53
(dp3429
g61
I3
ssg62
g3423
sg55
(lp3430
S'/'
asbasbasbag48
(g64
g50
NtRp3431
(dp3432
g53
(dp3433
sg62
g3327
sg55
(lp3434
g48
(g69
g50
NtRp3435
(dp3436
g53
(dp3437
g73
g74
ssg62
g3431
sg55
(lp3438
g367
asbag48
(g69
g50
NtRp3439
(dp3440
g53
(dp3441
g80
g81
ssg62
g3431
sg55
(lp3442
S':'
asbag48
(g69
g50
NtRp3443
(dp3444
g53
(dp3445
sg62
g3431
sg55
(lp3446
g48
(g49
g50
NtRp3447
(dp3448
g53
(dp3449
g61
I3
ssg62
g3443
sg55
(lp3450
S''
asbasbasbag48
(g64
g50
NtRp3451
(dp3452
g53
(dp3453
sg62
g3327
sg55
(lp3454
g48
(g69
g50
NtRp3455
(dp3456
g53
(dp3457
g73
g74
ssg62
g3451
sg55
(lp3458
g388
asbag48
(g69
g50
NtRp3459
(dp3460
g53
(dp3461
g80
g81
ssg62
g3451
sg55
(lp3462
S':'
asbag48
(g69
g50
NtRp3463
(dp3464
g53
(dp3465
sg62
g3451
sg55
(lp3466
g48
(g49
g50
NtRp3467
(dp3468
g53
(dp3469
g61
I3
ssg62
g3463
sg55
(lp3470
S''
asbasbasbasbasbasbasbasbasbasbasbag48
(g64
g50
NtRp3471
(dp3472
g53
(dp3473
sg62
g3257
sg55
(lp3474
g48
(g69
g50
NtRp3475
(dp3476
g53
(dp3477
g73
g74
ssg62
g3471
sg55
(lp3478
S'files'
p3479
asbag48
(g69
g50
NtRp3480
(dp3481
g53
(dp3482
g80
g81
ssg62
g3471
sg55
(lp3483
S':'
asbag48
(g69
g50
NtRp3484
(dp3485
g53
(dp3486
sg62
g3471
sg55
(lp3487
g48
(g49
g50
NtRp3488
(dp3489
g53
(dp3490
g61
I5
ssg62
g3484
sg55
(lp3491
g48
(g57
g50
NtRp3492
(dp3493
g53
(dp3494
g61
I4
ssg62
Nsg55
(lp3495
sbasbasbasbag48
(g64
g50
NtRp3496
(dp3497
g53
(dp3498
sg62
g3257
sg55
(lp3499
g48
(g69
g50
NtRp3500
(dp3501
g53
(dp3502
g73
g74
ssg62
g3496
sg55
(lp3503
S'flash'
p3504
asbag48
(g69
g50
NtRp3505
(dp3506
g53
(dp3507
g80
g81
ssg62
g3496
sg55
(lp3508
S':'
asbag48
(g69
g50
NtRp3509
(dp3510
g53
(dp3511
sg62
g3496
sg55
(lp3512
g48
(g49
g50
NtRp3513
(dp3514
g53
(dp3515
g61
I5
ssg62
g3509
sg55
(lp3516
S''
asbasbasbag48
(g64
g50
NtRp3517
(dp3518
g53
(dp3519
sg62
g3257
sg55
(lp3520
g48
(g69
g50
NtRp3521
(dp3522
g53
(dp3523
g73
g74
ssg62
g3517
sg55
(lp3524
S'generic_patterns'
p3525
asbag48
(g69
g50
NtRp3526
(dp3527
g53
(dp3528
g80
g81
ssg62
g3517
sg55
(lp3529
S':'
asbag48
(g69
g50
NtRp3530
(dp3531
g53
(dp3532
sg62
g3517
sg55
(lp3533
g48
(g49
g50
NtRp3534
(dp3535
g53
(dp3536
g61
I5
ssg62
g3530
sg55
(lp3537
g48
(g57
g50
NtRp3538
(dp3539
g53
(dp3540
g61
I4
ssg62
Nsg55
(lp3541
g48
(g64
g50
NtRp3542
(dp3543
g53
(dp3544
sg62
g3538
sg55
(lp3545
g48
(g69
g50
NtRp3546
(dp3547
g53
(dp3548
sg62
g3542
sg55
(lp3549
g48
(g49
g50
NtRp3550
(dp3551
g53
(dp3552
g61
I4
ssg62
g3546
sg55
(lp3553
S'*'
asbasbasbasbasbasbasbag48
(g64
g50
NtRp3554
(dp3555
g53
(dp3556
sg62
g3257
sg55
(lp3557
g48
(g69
g50
NtRp3558
(dp3559
g53
(dp3560
g73
g74
ssg62
g3554
sg55
(lp3561
S'headers'
p3562
asbag48
(g69
g50
NtRp3563
(dp3564
g53
(dp3565
g80
g81
ssg62
g3554
sg55
(lp3566
S':'
asbag48
(g69
g50
NtRp3567
(dp3568
g53
(dp3569
sg62
g3554
sg55
(lp3570
g48
(g49
g50
NtRp3571
(dp3572
g53
(dp3573
g61
I5
ssg62
g3567
sg55
(lp3574
g48
(g57
g50
NtRp3575
(dp3576
g53
(dp3577
g61
I4
ssg62
Nsg55
(lp3578
g48
(g64
g50
NtRp3579
(dp3580
g53
(dp3581
sg62
g3575
sg55
(lp3582
g48
(g69
g50
NtRp3583
(dp3584
g53
(dp3585
g73
g74
ssg62
g3579
sg55
(lp3586
S'Cache-Control'
p3587
asbag48
(g69
g50
NtRp3588
(dp3589
g53
(dp3590
g80
g81
ssg62
g3579
sg55
(lp3591
S':'
asbag48
(g69
g50
NtRp3592
(dp3593
g53
(dp3594
sg62
g3579
sg55
(lp3595
g48
(g49
g50
NtRp3596
(dp3597
g53
(dp3598
g61
I4
ssg62
g3592
sg55
(lp3599
S'no-store, no-cache, must-revalidate, post-check=0, pre-check=0'
p3600
asbasbasbag48
(g64
g50
NtRp3601
(dp3602
g53
(dp3603
sg62
g3575
sg55
(lp3604
g48
(g69
g50
NtRp3605
(dp3606
g53
(dp3607
g73
g74
ssg62
g3601
sg55
(lp3608
S'Content-Type'
p3609
asbag48
(g69
g50
NtRp3610
(dp3611
g53
(dp3612
g80
g81
ssg62
g3601
sg55
(lp3613
S':'
asbag48
(g69
g50
NtRp3614
(dp3615
g53
(dp3616
sg62
g3601
sg55
(lp3617
g48
(g49
g50
NtRp3618
(dp3619
g53
(dp3620
g61
I4
ssg62
g3614
sg55
(lp3621
S'application/javascript'
p3622
asbasbasbag48
(g64
g50
NtRp3623
(dp3624
g53
(dp3625
sg62
g3575
sg55
(lp3626
g48
(g69
g50
NtRp3627
(dp3628
g53
(dp3629
g73
g74
ssg62
g3623
sg55
(lp3630
S'Expires'
p3631
asbag48
(g69
g50
NtRp3632
(dp3633
g53
(dp3634
g80
g81
ssg62
g3623
sg55
(lp3635
S':'
asbag48
(g69
g50
NtRp3636
(dp3637
g53
(dp3638
sg62
g3623
sg55
(lp3639
g48
(g49
g50
NtRp3640
(dp3641
g53
(dp3642
g61
I4
ssg62
g3636
sg55
(lp3643
S'Wed, 18 Jan 2012 14:33:28 GMT'
p3644
asbasbasbag48
(g64
g50
NtRp3645
(dp3646
g53
(dp3647
sg62
g3575
sg55
(lp3648
g48
(g69
g50
NtRp3649
(dp3650
g53
(dp3651
g73
g74
ssg62
g3645
sg55
(lp3652
S'NingNang'
p3653
asbag48
(g69
g50
NtRp3654
(dp3655
g53
(dp3656
g80
g81
ssg62
g3645
sg55
(lp3657
S':'
asbag48
(g69
g50
NtRp3658
(dp3659
g53
(dp3660
sg62
g3645
sg55
(lp3661
g48
(g49
g50
NtRp3662
(dp3663
g53
(dp3664
g61
I4
ssg62
g3658
sg55
(lp3665
S'Nong'
p3666
asbasbasbag48
(g64
g50
NtRp3667
(dp3668
g53
(dp3669
sg62
g3575
sg55
(lp3670
g48
(g69
g50
NtRp3671
(dp3672
g53
(dp3673
g73
g74
ssg62
g3667
sg55
(lp3674
S'Pragma'
p3675
asbag48
(g69
g50
NtRp3676
(dp3677
g53
(dp3678
g80
g81
ssg62
g3667
sg55
(lp3679
S':'
asbag48
(g69
g50
NtRp3680
(dp3681
g53
(dp3682
sg62
g3667
sg55
(lp3683
g48
(g49
g50
NtRp3684
(dp3685
g53
(dp3686
g61
I4
ssg62
g3680
sg55
(lp3687
S'no-cache'
p3688
asbasbasbasbasbasbasbag48
(g64
g50
NtRp3689
(dp3690
g53
(dp3691
sg62
g3257
sg55
(lp3692
g48
(g69
g50
NtRp3693
(dp3694
g53
(dp3695
g73
g74
ssg62
g3689
sg55
(lp3696
S'menu'
p3697
asbag48
(g69
g50
NtRp3698
(dp3699
g53
(dp3700
g80
g81
ssg62
g3689
sg55
(lp3701
S':'
asbag48
(g69
g50
NtRp3702
(dp3703
g53
(dp3704
sg62
g3689
sg55
(lp3705
g48
(g49
g50
NtRp3706
(dp3707
g53
(dp3708
g61
I5
ssg62
g3702
sg55
(lp3709
g48
(g57
g50
NtRp3710
(dp3711
g53
(dp3712
g61
I4
ssg62
Nsg55
(lp3713
g48
(g64
g50
NtRp3714
(dp3715
g53
(dp3716
sg62
g3710
sg55
(lp3717
g48
(g69
g50
NtRp3718
(dp3719
g53
(dp3720
sg62
g3714
sg55
(lp3721
g48
(g49
g50
NtRp3722
(dp3723
g53
(dp3724
g61
I4
ssg62
g3718
sg55
(lp3725
g48
(g57
g50
NtRp3726
(dp3727
g53
(dp3728
g61
I3
ssg62
Nsg55
(lp3729
g48
(g64
g50
NtRp3730
(dp3731
g53
(dp3732
sg62
g3726
sg55
(lp3733
g48
(g69
g50
NtRp3734
(dp3735
g53
(dp3736
sg62
g3730
sg55
(lp3737
g48
(g49
g50
NtRp3738
(dp3739
g53
(dp3740
g61
I3
ssg62
g3734
sg55
(lp3741
cgluon.languages
lazyT_unpickle
p3742
(S's\x04\x00\x00\x00Home'
tRp3743
asbasbasbag48
(g64
g50
NtRp3744
(dp3745
g53
(dp3746
sg62
g3726
sg55
(lp3747
g48
(g69
g50
NtRp3748
(dp3749
g53
(dp3750
sg62
g3744
sg55
(lp3751
g48
(g49
g50
NtRp3752
(dp3753
g53
(dp3754
g61
I3
ssg62
g3748
sg55
(lp3755
g91
asbasbasbag48
(g64
g50
NtRp3756
(dp3757
g53
(dp3758
sg62
g3726
sg55
(lp3759
g48
(g69
g50
NtRp3760
(dp3761
g53
(dp3762
sg62
g3756
sg55
(lp3763
g48
(g49
g50
NtRp3764
(dp3765
g53
(dp3766
g61
I3
ssg62
g3760
sg55
(lp3767
S'/Gabb1/default/index.js'
p3768
asbasbasbag48
(g64
g50
NtRp3769
(dp3770
g53
(dp3771
sg62
g3726
sg55
(lp3772
g48
(g69
g50
NtRp3773
(dp3774
g53
(dp3775
sg62
g3769
sg55
(lp3776
g48
(g49
g50
NtRp3777
(dp3778
g53
(dp3779
g61
I3
ssg62
g3773
sg55
(lp3780
g48
(g57
g50
NtRp3781
(dp3782
g53
(dp3783
g61
I2
ssg62
Nsg55
(lp3784
sbasbasbasbasbasbasbasbag48
(g64
g50
NtRp3785
(dp3786
g53
(dp3787
sg62
g3710
sg55
(lp3788
g48
(g69
g50
NtRp3789
(dp3790
g53
(dp3791
sg62
g3785
sg55
(lp3792
g48
(g49
g50
NtRp3793
(dp3794
g53
(dp3795
g61
I4
ssg62
g3789
sg55
(lp3796
g48
(g57
g50
NtRp3797
(dp3798
g53
(dp3799
g61
I3
ssg62
Nsg55
(lp3800
g48
(g64
g50
NtRp3801
(dp3802
g53
(dp3803
sg62
g3797
sg55
(lp3804
g48
(g69
g50
NtRp3805
(dp3806
g53
(dp3807
sg62
g3801
sg55
(lp3808
g48
(g49
g50
NtRp3809
(dp3810
g53
(dp3811
g61
I3
ssg62
g3805
sg55
(lp3812
g3742
(S's\x08\x00\x00\x00This App'
tRp3813
asbasbasbag48
(g64
g50
NtRp3814
(dp3815
g53
(dp3816
sg62
g3797
sg55
(lp3817
g48
(g69
g50
NtRp3818
(dp3819
g53
(dp3820
sg62
g3814
sg55
(lp3821
g48
(g49
g50
NtRp3822
(dp3823
g53
(dp3824
g61
I3
ssg62
g3818
sg55
(lp3825
g91
asbasbasbag48
(g64
g50
NtRp3826
(dp3827
g53
(dp3828
sg62
g3797
sg55
(lp3829
g48
(g69
g50
NtRp3830
(dp3831
g53
(dp3832
sg62
g3826
sg55
(lp3833
g48
(g49
g50
NtRp3834
(dp3835
g53
(dp3836
g61
I3
ssg62
g3830
sg55
(lp3837
S'/admin/default/design/Gabb1.js'
p3838
asbasbasbag48
(g64
g50
NtRp3839
(dp3840
g53
(dp3841
sg62
g3797
sg55
(lp3842
g48
(g69
g50
NtRp3843
(dp3844
g53
(dp3845
sg62
g3839
sg55
(lp3846
g48
(g49
g50
NtRp3847
(dp3848
g53
(dp3849
g61
I3
ssg62
g3843
sg55
(lp3850
g48
(g57
g50
NtRp3851
(dp3852
g53
(dp3853
g61
I2
ssg62
Nsg55
(lp3854
g48
(g64
g50
NtRp3855
(dp3856
g53
(dp3857
sg62
g3851
sg55
(lp3858
g48
(g69
g50
NtRp3859
(dp3860
g53
(dp3861
sg62
g3855
sg55
(lp3862
g48
(g49
g50
NtRp3863
(dp3864
g53
(dp3865
g61
I2
ssg62
g3859
sg55
(lp3866
g48
(g57
g50
NtRp3867
(dp3868
g53
(dp3869
g61
I1
ssg62
Nsg55
(lp3870
g48
(g64
g50
NtRp3871
(dp3872
g53
(dp3873
sg62
g3867
sg55
(lp3874
g48
(g69
g50
NtRp3875
(dp3876
g53
(dp3877
sg62
g3871
sg55
(lp3878
g48
(g49
g50
NtRp3879
(dp3880
g53
(dp3881
g61
I1
ssg62
g3875
sg55
(lp3882
g3742
(S's\n\x00\x00\x00Controller'
tRp3883
asbasbasbag48
(g64
g50
NtRp3884
(dp3885
g53
(dp3886
sg62
g3867
sg55
(lp3887
g48
(g69
g50
NtRp3888
(dp3889
g53
(dp3890
sg62
g3884
sg55
(lp3891
g48
(g49
g50
NtRp3892
(dp3893
g53
(dp3894
g61
I1
ssg62
g3888
sg55
(lp3895
I00
asbasbasbag48
(g64
g50
NtRp3896
(dp3897
g53
(dp3898
sg62
g3867
sg55
(lp3899
g48
(g69
g50
NtRp3900
(dp3901
g53
(dp3902
sg62
g3896
sg55
(lp3903
g48
(g49
g50
NtRp3904
(dp3905
g53
(dp3906
g61
I1
ssg62
g3900
sg55
(lp3907
S'/admin/default/edit/Gabb1/controllers/fb_serv.py'
p3908
asbasbasbasbasbasbasbag48
(g64
g50
NtRp3909
(dp3910
g53
(dp3911
sg62
g3851
sg55
(lp3912
g48
(g69
g50
NtRp3913
(dp3914
g53
(dp3915
sg62
g3909
sg55
(lp3916
g48
(g49
g50
NtRp3917
(dp3918
g53
(dp3919
g61
I2
ssg62
g3913
sg55
(lp3920
g48
(g57
g50
NtRp3921
(dp3922
g53
(dp3923
g61
I1
ssg62
Nsg55
(lp3924
g48
(g64
g50
NtRp3925
(dp3926
g53
(dp3927
sg62
g3921
sg55
(lp3928
g48
(g69
g50
NtRp3929
(dp3930
g53
(dp3931
sg62
g3925
sg55
(lp3932
g48
(g49
g50
NtRp3933
(dp3934
g53
(dp3935
g61
I1
ssg62
g3929
sg55
(lp3936
g3742
(S's\x04\x00\x00\x00View'
tRp3937
asbasbasbag48
(g64
g50
NtRp3938
(dp3939
g53
(dp3940
sg62
g3921
sg55
(lp3941
g48
(g69
g50
NtRp3942
(dp3943
g53
(dp3944
sg62
g3938
sg55
(lp3945
g48
(g49
g50
NtRp3946
(dp3947
g53
(dp3948
g61
I1
ssg62
g3942
sg55
(lp3949
I00
asbasbasbag48
(g64
g50
NtRp3950
(dp3951
g53
(dp3952
sg62
g3921
sg55
(lp3953
g48
(g69
g50
NtRp3954
(dp3955
g53
(dp3956
sg62
g3950
sg55
(lp3957
g48
(g49
g50
NtRp3958
(dp3959
g53
(dp3960
g61
I1
ssg62
g3954
sg55
(lp3961
S'/admin/default/edit/Gabb1/views/fb_serv/js_0.js'
p3962
asbasbasbasbasbasbasbag48
(g64
g50
NtRp3963
(dp3964
g53
(dp3965
sg62
g3851
sg55
(lp3966
g48
(g69
g50
NtRp3967
(dp3968
g53
(dp3969
sg62
g3963
sg55
(lp3970
g48
(g49
g50
NtRp3971
(dp3972
g53
(dp3973
g61
I2
ssg62
g3967
sg55
(lp3974
g48
(g57
g50
NtRp3975
(dp3976
g53
(dp3977
g61
I1
ssg62
Nsg55
(lp3978
g48
(g64
g50
NtRp3979
(dp3980
g53
(dp3981
sg62
g3975
sg55
(lp3982
g48
(g69
g50
NtRp3983
(dp3984
g53
(dp3985
sg62
g3979
sg55
(lp3986
g48
(g49
g50
NtRp3987
(dp3988
g53
(dp3989
g61
I1
ssg62
g3983
sg55
(lp3990
g3742
(S's\x06\x00\x00\x00Layout'
tRp3991
asbasbasbag48
(g64
g50
NtRp3992
(dp3993
g53
(dp3994
sg62
g3975
sg55
(lp3995
g48
(g69
g50
NtRp3996
(dp3997
g53
(dp3998
sg62
g3992
sg55
(lp3999
g48
(g49
g50
NtRp4000
(dp4001
g53
(dp4002
g61
I1
ssg62
g3996
sg55
(lp4003
I00
asbasbasbag48
(g64
g50
NtRp4004
(dp4005
g53
(dp4006
sg62
g3975
sg55
(lp4007
g48
(g69
g50
NtRp4008
(dp4009
g53
(dp4010
sg62
g4004
sg55
(lp4011
g48
(g49
g50
NtRp4012
(dp4013
g53
(dp4014
g61
I1
ssg62
g4008
sg55
(lp4015
S'/admin/default/edit/Gabb1/views/layout.html'
p4016
asbasbasbasbasbasbasbag48
(g64
g50
NtRp4017
(dp4018
g53
(dp4019
sg62
g3851
sg55
(lp4020
g48
(g69
g50
NtRp4021
(dp4022
g53
(dp4023
sg62
g4017
sg55
(lp4024
g48
(g49
g50
NtRp4025
(dp4026
g53
(dp4027
g61
I2
ssg62
g4021
sg55
(lp4028
g48
(g57
g50
NtRp4029
(dp4030
g53
(dp4031
g61
I1
ssg62
Nsg55
(lp4032
g48
(g64
g50
NtRp4033
(dp4034
g53
(dp4035
sg62
g4029
sg55
(lp4036
g48
(g69
g50
NtRp4037
(dp4038
g53
(dp4039
sg62
g4033
sg55
(lp4040
g48
(g49
g50
NtRp4041
(dp4042
g53
(dp4043
g61
I1
ssg62
g4037
sg55
(lp4044
g3742
(S's\n\x00\x00\x00Stylesheet'
tRp4045
asbasbasbag48
(g64
g50
NtRp4046
(dp4047
g53
(dp4048
sg62
g4029
sg55
(lp4049
g48
(g69
g50
NtRp4050
(dp4051
g53
(dp4052
sg62
g4046
sg55
(lp4053
g48
(g49
g50
NtRp4054
(dp4055
g53
(dp4056
g61
I1
ssg62
g4050
sg55
(lp4057
I00
asbasbasbag48
(g64
g50
NtRp4058
(dp4059
g53
(dp4060
sg62
g4029
sg55
(lp4061
g48
(g69
g50
NtRp4062
(dp4063
g53
(dp4064
sg62
g4058
sg55
(lp4065
g48
(g49
g50
NtRp4066
(dp4067
g53
(dp4068
g61
I1
ssg62
g4062
sg55
(lp4069
S'/admin/default/edit/Gabb1/static/base.css'
p4070
asbasbasbasbasbasbasbag48
(g64
g50
NtRp4071
(dp4072
g53
(dp4073
sg62
g3851
sg55
(lp4074
g48
(g69
g50
NtRp4075
(dp4076
g53
(dp4077
sg62
g4071
sg55
(lp4078
g48
(g49
g50
NtRp4079
(dp4080
g53
(dp4081
g61
I2
ssg62
g4075
sg55
(lp4082
g48
(g57
g50
NtRp4083
(dp4084
g53
(dp4085
g61
I1
ssg62
Nsg55
(lp4086
g48
(g64
g50
NtRp4087
(dp4088
g53
(dp4089
sg62
g4083
sg55
(lp4090
g48
(g69
g50
NtRp4091
(dp4092
g53
(dp4093
sg62
g4087
sg55
(lp4094
g48
(g49
g50
NtRp4095
(dp4096
g53
(dp4097
g61
I1
ssg62
g4091
sg55
(lp4098
g3742
(S's\x08\x00\x00\x00DB Model'
tRp4099
asbasbasbag48
(g64
g50
NtRp4100
(dp4101
g53
(dp4102
sg62
g4083
sg55
(lp4103
g48
(g69
g50
NtRp4104
(dp4105
g53
(dp4106
sg62
g4100
sg55
(lp4107
g48
(g49
g50
NtRp4108
(dp4109
g53
(dp4110
g61
I1
ssg62
g4104
sg55
(lp4111
I00
asbasbasbag48
(g64
g50
NtRp4112
(dp4113
g53
(dp4114
sg62
g4083
sg55
(lp4115
g48
(g69
g50
NtRp4116
(dp4117
g53
(dp4118
sg62
g4112
sg55
(lp4119
g48
(g49
g50
NtRp4120
(dp4121
g53
(dp4122
g61
I1
ssg62
g4116
sg55
(lp4123
S'/admin/default/edit/Gabb1/models/db.py'
p4124
asbasbasbasbasbasbasbag48
(g64
g50
NtRp4125
(dp4126
g53
(dp4127
sg62
g3851
sg55
(lp4128
g48
(g69
g50
NtRp4129
(dp4130
g53
(dp4131
sg62
g4125
sg55
(lp4132
g48
(g49
g50
NtRp4133
(dp4134
g53
(dp4135
g61
I2
ssg62
g4129
sg55
(lp4136
g48
(g57
g50
NtRp4137
(dp4138
g53
(dp4139
g61
I1
ssg62
Nsg55
(lp4140
g48
(g64
g50
NtRp4141
(dp4142
g53
(dp4143
sg62
g4137
sg55
(lp4144
g48
(g69
g50
NtRp4145
(dp4146
g53
(dp4147
sg62
g4141
sg55
(lp4148
g48
(g49
g50
NtRp4149
(dp4150
g53
(dp4151
g61
I1
ssg62
g4145
sg55
(lp4152
g3742
(S's\n\x00\x00\x00Menu Model'
tRp4153
asbasbasbag48
(g64
g50
NtRp4154
(dp4155
g53
(dp4156
sg62
g4137
sg55
(lp4157
g48
(g69
g50
NtRp4158
(dp4159
g53
(dp4160
sg62
g4154
sg55
(lp4161
g48
(g49
g50
NtRp4162
(dp4163
g53
(dp4164
g61
I1
ssg62
g4158
sg55
(lp4165
I00
asbasbasbag48
(g64
g50
NtRp4166
(dp4167
g53
(dp4168
sg62
g4137
sg55
(lp4169
g48
(g69
g50
NtRp4170
(dp4171
g53
(dp4172
sg62
g4166
sg55
(lp4173
g48
(g49
g50
NtRp4174
(dp4175
g53
(dp4176
g61
I1
ssg62
g4170
sg55
(lp4177
S'/admin/default/edit/Gabb1/models/menu.py'
p4178
asbasbasbasbasbasbasbag48
(g64
g50
NtRp4179
(dp4180
g53
(dp4181
sg62
g3851
sg55
(lp4182
g48
(g69
g50
NtRp4183
(dp4184
g53
(dp4185
sg62
g4179
sg55
(lp4186
g48
(g49
g50
NtRp4187
(dp4188
g53
(dp4189
g61
I2
ssg62
g4183
sg55
(lp4190
g48
(g57
g50
NtRp4191
(dp4192
g53
(dp4193
g61
I1
ssg62
Nsg55
(lp4194
g48
(g64
g50
NtRp4195
(dp4196
g53
(dp4197
sg62
g4191
sg55
(lp4198
g48
(g69
g50
NtRp4199
(dp4200
g53
(dp4201
sg62
g4195
sg55
(lp4202
g48
(g49
g50
NtRp4203
(dp4204
g53
(dp4205
g61
I1
ssg62
g4199
sg55
(lp4206
g3742
(S's\x08\x00\x00\x00Database'
tRp4207
asbasbasbag48
(g64
g50
NtRp4208
(dp4209
g53
(dp4210
sg62
g4191
sg55
(lp4211
g48
(g69
g50
NtRp4212
(dp4213
g53
(dp4214
sg62
g4208
sg55
(lp4215
g48
(g49
g50
NtRp4216
(dp4217
g53
(dp4218
g61
I1
ssg62
g4212
sg55
(lp4219
I00
asbasbasbag48
(g64
g50
NtRp4220
(dp4221
g53
(dp4222
sg62
g4191
sg55
(lp4223
g48
(g69
g50
NtRp4224
(dp4225
g53
(dp4226
sg62
g4220
sg55
(lp4227
g48
(g49
g50
NtRp4228
(dp4229
g53
(dp4230
g61
I1
ssg62
g4224
sg55
(lp4231
S'/Gabb1/appadmin/index.js'
p4232
asbasbasbasbasbasbasbag48
(g64
g50
NtRp4233
(dp4234
g53
(dp4235
sg62
g3851
sg55
(lp4236
g48
(g69
g50
NtRp4237
(dp4238
g53
(dp4239
sg62
g4233
sg55
(lp4240
g48
(g49
g50
NtRp4241
(dp4242
g53
(dp4243
g61
I2
ssg62
g4237
sg55
(lp4244
g48
(g57
g50
NtRp4245
(dp4246
g53
(dp4247
g61
I1
ssg62
Nsg55
(lp4248
g48
(g64
g50
NtRp4249
(dp4250
g53
(dp4251
sg62
g4245
sg55
(lp4252
g48
(g69
g50
NtRp4253
(dp4254
g53
(dp4255
sg62
g4249
sg55
(lp4256
g48
(g49
g50
NtRp4257
(dp4258
g53
(dp4259
g61
I1
ssg62
g4253
sg55
(lp4260
g3742
(S's\x06\x00\x00\x00Errors'
tRp4261
asbasbasbag48
(g64
g50
NtRp4262
(dp4263
g53
(dp4264
sg62
g4245
sg55
(lp4265
g48
(g69
g50
NtRp4266
(dp4267
g53
(dp4268
sg62
g4262
sg55
(lp4269
g48
(g49
g50
NtRp4270
(dp4271
g53
(dp4272
g61
I1
ssg62
g4266
sg55
(lp4273
I00
asbasbasbag48
(g64
g50
NtRp4274
(dp4275
g53
(dp4276
sg62
g4245
sg55
(lp4277
g48
(g69
g50
NtRp4278
(dp4279
g53
(dp4280
sg62
g4274
sg55
(lp4281
g48
(g49
g50
NtRp4282
(dp4283
g53
(dp4284
g61
I1
ssg62
g4278
sg55
(lp4285
S'/admin/default/errors/Gabb1.js'
p4286
asbasbasbasbasbasbasbag48
(g64
g50
NtRp4287
(dp4288
g53
(dp4289
sg62
g3851
sg55
(lp4290
g48
(g69
g50
NtRp4291
(dp4292
g53
(dp4293
sg62
g4287
sg55
(lp4294
g48
(g49
g50
NtRp4295
(dp4296
g53
(dp4297
g61
I2
ssg62
g4291
sg55
(lp4298
g48
(g57
g50
NtRp4299
(dp4300
g53
(dp4301
g61
I1
ssg62
Nsg55
(lp4302
g48
(g64
g50
NtRp4303
(dp4304
g53
(dp4305
sg62
g4299
sg55
(lp4306
g48
(g69
g50
NtRp4307
(dp4308
g53
(dp4309
sg62
g4303
sg55
(lp4310
g48
(g49
g50
NtRp4311
(dp4312
g53
(dp4313
g61
I1
ssg62
g4307
sg55
(lp4314
g3742
(S's\x05\x00\x00\x00About'
tRp4315
asbasbasbag48
(g64
g50
NtRp4316
(dp4317
g53
(dp4318
sg62
g4299
sg55
(lp4319
g48
(g69
g50
NtRp4320
(dp4321
g53
(dp4322
sg62
g4316
sg55
(lp4323
g48
(g49
g50
NtRp4324
(dp4325
g53
(dp4326
g61
I1
ssg62
g4320
sg55
(lp4327
I00
asbasbasbag48
(g64
g50
NtRp4328
(dp4329
g53
(dp4330
sg62
g4299
sg55
(lp4331
g48
(g69
g50
NtRp4332
(dp4333
g53
(dp4334
sg62
g4328
sg55
(lp4335
g48
(g49
g50
NtRp4336
(dp4337
g53
(dp4338
g61
I1
ssg62
g4332
sg55
(lp4339
S'/admin/default/about/Gabb1.js'
p4340
asbasbasbasbasbasbasbasbasbasbasbasbasbasbasbag48
(g64
g50
NtRp4341
(dp4342
g53
(dp4343
sg62
g3710
sg55
(lp4344
g48
(g69
g50
NtRp4345
(dp4346
g53
(dp4347
sg62
g4341
sg55
(lp4348
g48
(g49
g50
NtRp4349
(dp4350
g53
(dp4351
g61
I4
ssg62
g4345
sg55
(lp4352
g48
(g57
g50
NtRp4353
(dp4354
g53
(dp4355
g61
I3
ssg62
Nsg55
(lp4356
g48
(g64
g50
NtRp4357
(dp4358
g53
(dp4359
sg62
g4353
sg55
(lp4360
g48
(g69
g50
NtRp4361
(dp4362
g53
(dp4363
sg62
g4357
sg55
(lp4364
g48
(g49
g50
NtRp4365
(dp4366
g53
(dp4367
g61
I3
ssg62
g4361
sg55
(lp4368
g3742
(S's\t\x00\x00\x00Resources'
tRp4369
asbasbasbag48
(g64
g50
NtRp4370
(dp4371
g53
(dp4372
sg62
g4353
sg55
(lp4373
g48
(g69
g50
NtRp4374
(dp4375
g53
(dp4376
sg62
g4370
sg55
(lp4377
g48
(g49
g50
NtRp4378
(dp4379
g53
(dp4380
g61
I3
ssg62
g4374
sg55
(lp4381
g91
asbasbasbag48
(g64
g50
NtRp4382
(dp4383
g53
(dp4384
sg62
g4353
sg55
(lp4385
g48
(g69
g50
NtRp4386
(dp4387
g53
(dp4388
sg62
g4382
sg55
(lp4389
g48
(g49
g50
NtRp4390
(dp4391
g53
(dp4392
g61
I3
ssg62
g4386
sg55
(lp4393
S'None'
p4394
asbasbasbag48
(g64
g50
NtRp4395
(dp4396
g53
(dp4397
sg62
g4353
sg55
(lp4398
g48
(g69
g50
NtRp4399
(dp4400
g53
(dp4401
sg62
g4395
sg55
(lp4402
g48
(g49
g50
NtRp4403
(dp4404
g53
(dp4405
g61
I3
ssg62
g4399
sg55
(lp4406
g48
(g57
g50
NtRp4407
(dp4408
g53
(dp4409
g61
I2
ssg62
Nsg55
(lp4410
g48
(g64
g50
NtRp4411
(dp4412
g53
(dp4413
sg62
g4407
sg55
(lp4414
g48
(g69
g50
NtRp4415
(dp4416
g53
(dp4417
sg62
g4411
sg55
(lp4418
g48
(g49
g50
NtRp4419
(dp4420
g53
(dp4421
g61
I2
ssg62
g4415
sg55
(lp4422
g48
(g57
g50
NtRp4423
(dp4424
g53
(dp4425
g61
I1
ssg62
Nsg55
(lp4426
g48
(g64
g50
NtRp4427
(dp4428
g53
(dp4429
sg62
g4423
sg55
(lp4430
g48
(g69
g50
NtRp4431
(dp4432
g53
(dp4433
sg62
g4427
sg55
(lp4434
g48
(g49
g50
NtRp4435
(dp4436
g53
(dp4437
g61
I1
ssg62
g4431
sg55
(lp4438
g3742
(S's\r\x00\x00\x00Documentation'
tRp4439
asbasbasbag48
(g64
g50
NtRp4440
(dp4441
g53
(dp4442
sg62
g4423
sg55
(lp4443
g48
(g69
g50
NtRp4444
(dp4445
g53
(dp4446
sg62
g4440
sg55
(lp4447
g48
(g49
g50
NtRp4448
(dp4449
g53
(dp4450
g61
I1
ssg62
g4444
sg55
(lp4451
I00
asbasbasbag48
(g64
g50
NtRp4452
(dp4453
g53
(dp4454
sg62
g4423
sg55
(lp4455
g48
(g69
g50
NtRp4456
(dp4457
g53
(dp4458
sg62
g4452
sg55
(lp4459
g48
(g49
g50
NtRp4460
(dp4461
g53
(dp4462
g61
I1
ssg62
g4456
sg55
(lp4463
S'http://www.web2py.com/book'
p4464
asbasbasbag48
(g64
g50
NtRp4465
(dp4466
g53
(dp4467
sg62
g4423
sg55
(lp4468
g48
(g69
g50
NtRp4469
(dp4470
g53
(dp4471
sg62
g4465
sg55
(lp4472
g48
(g49
g50
NtRp4473
(dp4474
g53
(dp4475
g61
I1
ssg62
g4469
sg55
(lp4476
(lp4477
(g3742
(S's\x07\x00\x00\x00Preface'
tRp4478
I00
S'http://www.web2py.com/book/default/chapter/00'
p4479
tp4480
a(g3742
(S's\x0c\x00\x00\x00Introduction'
tRp4481
I00
S'http://www.web2py.com/book/default/chapter/01'
p4482
tp4483
a(g3742
(S's\x06\x00\x00\x00Python'
tRp4484
I00
S'http://www.web2py.com/book/default/chapter/02'
p4485
tp4486
a(g3742
(S's\x08\x00\x00\x00Overview'
tRp4487
I00
S'http://www.web2py.com/book/default/chapter/03'
p4488
tp4489
a(g3742
(S's\x08\x00\x00\x00The Core'
tRp4490
I00
S'http://www.web2py.com/book/default/chapter/04'
p4491
tp4492
a(g3742
(S's\t\x00\x00\x00The Views'
tRp4493
I00
S'http://www.web2py.com/book/default/chapter/05'
p4494
tp4495
a(g3742
(S's\x08\x00\x00\x00Database'
tRp4496
I00
S'http://www.web2py.com/book/default/chapter/06'
p4497
tp4498
a(g3742
(S's\x14\x00\x00\x00Forms and Validators'
tRp4499
I00
S'http://www.web2py.com/book/default/chapter/07'
p4500
tp4501
a(g3742
(S's\x0e\x00\x00\x00Access Control'
tRp4502
I00
S'http://www.web2py.com/book/default/chapter/08'
p4503
tp4504
a(g3742
(S's\x08\x00\x00\x00Services'
tRp4505
I00
S'http://www.web2py.com/book/default/chapter/09'
p4506
tp4507
a(g3742
(S's\x0c\x00\x00\x00Ajax Recipes'
tRp4508
I00
S'http://www.web2py.com/book/default/chapter/10'
p4509
tp4510
a(g3742
(S's\x12\x00\x00\x00Deployment Recipes'
tRp4511
I00
S'http://www.web2py.com/book/default/chapter/11'
p4512
tp4513
a(g3742
(S's\r\x00\x00\x00Other Recipes'
tRp4514
I00
S'http://www.web2py.com/book/default/chapter/12'
p4515
tp4516
a(g3742
(S's\r\x00\x00\x00Buy this book'
tRp4517
I00
S'http://stores.lulu.com/web2py'
p4518
tp4519
aasbasbasbasbasbasbasbag48
(g64
g50
NtRp4520
(dp4521
g53
(dp4522
sg62
g4407
sg55
(lp4523
g48
(g69
g50
NtRp4524
(dp4525
g53
(dp4526
sg62
g4520
sg55
(lp4527
g48
(g49
g50
NtRp4528
(dp4529
g53
(dp4530
g61
I2
ssg62
g4524
sg55
(lp4531
g48
(g57
g50
NtRp4532
(dp4533
g53
(dp4534
g61
I1
ssg62
Nsg55
(lp4535
g48
(g64
g50
NtRp4536
(dp4537
g53
(dp4538
sg62
g4532
sg55
(lp4539
g48
(g69
g50
NtRp4540
(dp4541
g53
(dp4542
sg62
g4536
sg55
(lp4543
g48
(g49
g50
NtRp4544
(dp4545
g53
(dp4546
g61
I1
ssg62
g4540
sg55
(lp4547
g3742
(S's\t\x00\x00\x00Community'
tRp4548
asbasbasbag48
(g64
g50
NtRp4549
(dp4550
g53
(dp4551
sg62
g4532
sg55
(lp4552
g48
(g69
g50
NtRp4553
(dp4554
g53
(dp4555
sg62
g4549
sg55
(lp4556
g48
(g49
g50
NtRp4557
(dp4558
g53
(dp4559
g61
I1
ssg62
g4553
sg55
(lp4560
I00
asbasbasbag48
(g64
g50
NtRp4561
(dp4562
g53
(dp4563
sg62
g4532
sg55
(lp4564
g48
(g69
g50
NtRp4565
(dp4566
g53
(dp4567
sg62
g4561
sg55
(lp4568
g48
(g49
g50
NtRp4569
(dp4570
g53
(dp4571
g61
I1
ssg62
g4565
sg55
(lp4572
Nasbasbasbag48
(g64
g50
NtRp4573
(dp4574
g53
(dp4575
sg62
g4532
sg55
(lp4576
g48
(g69
g50
NtRp4577
(dp4578
g53
(dp4579
sg62
g4573
sg55
(lp4580
g48
(g49
g50
NtRp4581
(dp4582
g53
(dp4583
g61
I1
ssg62
g4577
sg55
(lp4584
(lp4585
(g3742
(S's\x06\x00\x00\x00Groups'
tRp4586
I00
S'http://www.web2py.com/examples/default/usergroups'
p4587
tp4588
a(g3742
(S's\x07\x00\x00\x00Twitter'
tRp4589
I00
S'http://twitter.com/web2py'
p4590
tp4591
a(g3742
(S's\t\x00\x00\x00Live chat'
tRp4592
I00
S'http://mibbit.com/?channel=%23web2py&server=irc.mibbit.net'
p4593
tp4594
a(g3742
(S's\n\x00\x00\x00User Voice'
tRp4595
I00
S'http://web2py.uservoice.com/'
p4596
tp4597
aasbasbasbasbasbasbasbag48
(g64
g50
NtRp4598
(dp4599
g53
(dp4600
sg62
g4407
sg55
(lp4601
g48
(g69
g50
NtRp4602
(dp4603
g53
(dp4604
sg62
g4598
sg55
(lp4605
g48
(g49
g50
NtRp4606
(dp4607
g53
(dp4608
g61
I2
ssg62
g4602
sg55
(lp4609
g48
(g57
g50
NtRp4610
(dp4611
g53
(dp4612
g61
I1
ssg62
Nsg55
(lp4613
g48
(g64
g50
NtRp4614
(dp4615
g53
(dp4616
sg62
g4610
sg55
(lp4617
g48
(g69
g50
NtRp4618
(dp4619
g53
(dp4620
sg62
g4614
sg55
(lp4621
g48
(g49
g50
NtRp4622
(dp4623
g53
(dp4624
g61
I1
ssg62
g4618
sg55
(lp4625
g3742
(S's\x06\x00\x00\x00Web2py'
tRp4626
asbasbasbag48
(g64
g50
NtRp4627
(dp4628
g53
(dp4629
sg62
g4610
sg55
(lp4630
g48
(g69
g50
NtRp4631
(dp4632
g53
(dp4633
sg62
g4627
sg55
(lp4634
g48
(g49
g50
NtRp4635
(dp4636
g53
(dp4637
g61
I1
ssg62
g4631
sg55
(lp4638
I00
asbasbasbag48
(g64
g50
NtRp4639
(dp4640
g53
(dp4641
sg62
g4610
sg55
(lp4642
g48
(g69
g50
NtRp4643
(dp4644
g53
(dp4645
sg62
g4639
sg55
(lp4646
g48
(g49
g50
NtRp4647
(dp4648
g53
(dp4649
g61
I1
ssg62
g4643
sg55
(lp4650
S'http://www.web2py.com'
p4651
asbasbasbag48
(g64
g50
NtRp4652
(dp4653
g53
(dp4654
sg62
g4610
sg55
(lp4655
g48
(g69
g50
NtRp4656
(dp4657
g53
(dp4658
sg62
g4652
sg55
(lp4659
g48
(g49
g50
NtRp4660
(dp4661
g53
(dp4662
g61
I1
ssg62
g4656
sg55
(lp4663
(lp4664
(g3742
(S's\x08\x00\x00\x00Download'
tRp4665
I00
S'http://www.web2py.com/examples/default/download'
p4666
tp4667
a(g3742
(S's\x07\x00\x00\x00Support'
tRp4668
I00
S'http://www.web2py.com/examples/default/support'
p4669
tp4670
a(g3742
(S's\x0e\x00\x00\x00Quick Examples'
tRp4671
I00
S'http://web2py.com/examples/default/examples'
p4672
tp4673
a(g3742
(S's\x03\x00\x00\x00FAQ'
tRp4674
I00
S'http://web2py.com/AlterEgo'
p4675
tp4676
a(g3742
(S's\x11\x00\x00\x00Free Applications'
tRp4677
I00
S'http://web2py.com/appliances'
p4678
tp4679
a(g3742
(S's\x07\x00\x00\x00Plugins'
tRp4680
I00
S'http://web2py.com/plugins'
p4681
tp4682
a(g3742
(S's\x07\x00\x00\x00Recipes'
tRp4683
I00
S'http://web2pyslices.com/'
p4684
tp4685
a(g3742
(S's\x04\x00\x00\x00Demo'
tRp4686
I00
S'http://web2py.com/demo_admin'
p4687
tp4688
a(g3742
(S's\x08\x00\x00\x00Semantic'
tRp4689
I00
S'http://web2py.com/semantic'
p4690
tp4691
a(g3742
(S's\x07\x00\x00\x00Layouts'
tRp4692
I00
S'http://web2py.com/layouts'
p4693
tp4694
a(g3742
(S's\x06\x00\x00\x00Videos'
tRp4695
I00
S'http://www.web2py.com/examples/default/videos/'
p4696
tp4697
aasbasbasbasbasbasbasbasbasbasbasbasbasbasbasbasbasbasbasbag48
(g64
g50
NtRp4698
(dp4699
g53
(dp4700
sg62
g3257
sg55
(lp4701
g48
(g69
g50
NtRp4702
(dp4703
g53
(dp4704
g73
g74
ssg62
g4698
sg55
(lp4705
S'meta'
p4706
asbag48
(g69
g50
NtRp4707
(dp4708
g53
(dp4709
g80
g81
ssg62
g4698
sg55
(lp4710
S':'
asbag48
(g69
g50
NtRp4711
(dp4712
g53
(dp4713
sg62
g4698
sg55
(lp4714
g48
(g49
g50
NtRp4715
(dp4716
g53
(dp4717
g61
I5
ssg62
g4711
sg55
(lp4718
g48
(g57
g50
NtRp4719
(dp4720
g53
(dp4721
g61
I4
ssg62
Nsg55
(lp4722
g48
(g64
g50
NtRp4723
(dp4724
g53
(dp4725
sg62
g4719
sg55
(lp4726
g48
(g69
g50
NtRp4727
(dp4728
g53
(dp4729
g73
g74
ssg62
g4723
sg55
(lp4730
S'author'
p4731
asbag48
(g69
g50
NtRp4732
(dp4733
g53
(dp4734
g80
g81
ssg62
g4723
sg55
(lp4735
S':'
asbag48
(g69
g50
NtRp4736
(dp4737
g53
(dp4738
sg62
g4723
sg55
(lp4739
g48
(g49
g50
NtRp4740
(dp4741
g53
(dp4742
g61
I4
ssg62
g4736
sg55
(lp4743
S'Your Name <you@example.com>'
p4744
asbasbasbag48
(g64
g50
NtRp4745
(dp4746
g53
(dp4747
sg62
g4719
sg55
(lp4748
g48
(g69
g50
NtRp4749
(dp4750
g53
(dp4751
g73
g74
ssg62
g4745
sg55
(lp4752
S'copyright'
p4753
asbag48
(g69
g50
NtRp4754
(dp4755
g53
(dp4756
g80
g81
ssg62
g4745
sg55
(lp4757
S':'
asbag48
(g69
g50
NtRp4758
(dp4759
g53
(dp4760
sg62
g4745
sg55
(lp4761
g48
(g49
g50
NtRp4762
(dp4763
g53
(dp4764
g61
I4
ssg62
g4758
sg55
(lp4765
S'Copyright 2011'
p4766
asbasbasbag48
(g64
g50
NtRp4767
(dp4768
g53
(dp4769
sg62
g4719
sg55
(lp4770
g48
(g69
g50
NtRp4771
(dp4772
g53
(dp4773
g73
g74
ssg62
g4767
sg55
(lp4774
S'description'
p4775
asbag48
(g69
g50
NtRp4776
(dp4777
g53
(dp4778
g80
g81
ssg62
g4767
sg55
(lp4779
S':'
asbag48
(g69
g50
NtRp4780
(dp4781
g53
(dp4782
sg62
g4767
sg55
(lp4783
g48
(g49
g50
NtRp4784
(dp4785
g53
(dp4786
g61
I4
ssg62
g4780
sg55
(lp4787
S'a cool new app'
p4788
asbasbasbag48
(g64
g50
NtRp4789
(dp4790
g53
(dp4791
sg62
g4719
sg55
(lp4792
g48
(g69
g50
NtRp4793
(dp4794
g53
(dp4795
g73
g74
ssg62
g4789
sg55
(lp4796
S'generator'
p4797
asbag48
(g69
g50
NtRp4798
(dp4799
g53
(dp4800
g80
g81
ssg62
g4789
sg55
(lp4801
S':'
asbag48
(g69
g50
NtRp4802
(dp4803
g53
(dp4804
sg62
g4789
sg55
(lp4805
g48
(g49
g50
NtRp4806
(dp4807
g53
(dp4808
g61
I4
ssg62
g4802
sg55
(lp4809
S'Web2py Web Framework'
p4810
asbasbasbag48
(g64
g50
NtRp4811
(dp4812
g53
(dp4813
sg62
g4719
sg55
(lp4814
g48
(g69
g50
NtRp4815
(dp4816
g53
(dp4817
g73
g74
ssg62
g4811
sg55
(lp4818
S'keywords'
p4819
asbag48
(g69
g50
NtRp4820
(dp4821
g53
(dp4822
g80
g81
ssg62
g4811
sg55
(lp4823
S':'
asbag48
(g69
g50
NtRp4824
(dp4825
g53
(dp4826
sg62
g4811
sg55
(lp4827
g48
(g49
g50
NtRp4828
(dp4829
g53
(dp4830
g61
I4
ssg62
g4824
sg55
(lp4831
S'web2py, python, framework'
p4832
asbasbasbasbasbasbasbag48
(g64
g50
NtRp4833
(dp4834
g53
(dp4835
sg62
g3257
sg55
(lp4836
g48
(g69
g50
NtRp4837
(dp4838
g53
(dp4839
g73
g74
ssg62
g4833
sg55
(lp4840
S'postprocessing'
p4841
asbag48
(g69
g50
NtRp4842
(dp4843
g53
(dp4844
g80
g81
ssg62
g4833
sg55
(lp4845
S':'
asbag48
(g69
g50
NtRp4846
(dp4847
g53
(dp4848
sg62
g4833
sg55
(lp4849
g48
(g49
g50
NtRp4850
(dp4851
g53
(dp4852
g61
I5
ssg62
g4846
sg55
(lp4853
g48
(g57
g50
NtRp4854
(dp4855
g53
(dp4856
g61
I4
ssg62
Nsg55
(lp4857
sbasbasbasbag48
(g64
g50
NtRp4858
(dp4859
g53
(dp4860
sg62
g3257
sg55
(lp4861
g48
(g69
g50
NtRp4862
(dp4863
g53
(dp4864
g73
g74
ssg62
g4858
sg55
(lp4865
S'session_filename'
p4866
asbag48
(g69
g50
NtRp4867
(dp4868
g53
(dp4869
g80
g81
ssg62
g4858
sg55
(lp4870
S':'
asbag48
(g69
g50
NtRp4871
(dp4872
g53
(dp4873
sg62
g4858
sg55
(lp4874
g48
(g49
g50
NtRp4875
(dp4876
g53
(dp4877
g61
I5
ssg62
g4871
sg55
(lp4878
S'D:\\git_projs\\Gabblista\\web2py\\web2py\\applications\\Gabb1\\sessions\\127.0.0.1-5829b01c-2a08-47ec-8131-2fc4b48ad42d'
p4879
asbasbasbag48
(g64
g50
NtRp4880
(dp4881
g53
(dp4882
sg62
g3257
sg55
(lp4883
g48
(g69
g50
NtRp4884
(dp4885
g53
(dp4886
g73
g74
ssg62
g4880
sg55
(lp4887
S'session_id'
p4888
asbag48
(g69
g50
NtRp4889
(dp4890
g53
(dp4891
g80
g81
ssg62
g4880
sg55
(lp4892
S':'
asbag48
(g69
g50
NtRp4893
(dp4894
g53
(dp4895
sg62
g4880
sg55
(lp4896
g48
(g49
g50
NtRp4897
(dp4898
g53
(dp4899
g61
I5
ssg62
g4893
sg55
(lp4900
S'127.0.0.1-5829b01c-2a08-47ec-8131-2fc4b48ad42d'
p4901
asbasbasbag48
(g64
g50
NtRp4902
(dp4903
g53
(dp4904
sg62
g3257
sg55
(lp4905
g48
(g69
g50
NtRp4906
(dp4907
g53
(dp4908
g73
g74
ssg62
g4902
sg55
(lp4909
S'session_id_name'
p4910
asbag48
(g69
g50
NtRp4911
(dp4912
g53
(dp4913
g80
g81
ssg62
g4902
sg55
(lp4914
S':'
asbag48
(g69
g50
NtRp4915
(dp4916
g53
(dp4917
sg62
g4902
sg55
(lp4918
g48
(g49
g50
NtRp4919
(dp4920
g53
(dp4921
g61
I5
ssg62
g4915
sg55
(lp4922
g3314
asbasbasbag48
(g64
g50
NtRp4923
(dp4924
g53
(dp4925
sg62
g3257
sg55
(lp4926
g48
(g69
g50
NtRp4927
(dp4928
g53
(dp4929
g73
g74
ssg62
g4923
sg55
(lp4930
S'session_new'
p4931
asbag48
(g69
g50
NtRp4932
(dp4933
g53
(dp4934
g80
g81
ssg62
g4923
sg55
(lp4935
S':'
asbag48
(g69
g50
NtRp4936
(dp4937
g53
(dp4938
sg62
g4923
sg55
(lp4939
g48
(g49
g50
NtRp4940
(dp4941
g53
(dp4942
g61
I5
ssg62
g4936
sg55
(lp4943
g1795
asbasbasbag48
(g64
g50
NtRp4944
(dp4945
g53
(dp4946
sg62
g3257
sg55
(lp4947
g48
(g69
g50
NtRp4948
(dp4949
g53
(dp4950
g73
g74
ssg62
g4944
sg55
(lp4951
S'status'
p4952
asbag48
(g69
g50
NtRp4953
(dp4954
g53
(dp4955
g80
g81
ssg62
g4944
sg55
(lp4956
S':'
asbag48
(g69
g50
NtRp4957
(dp4958
g53
(dp4959
sg62
g4944
sg55
(lp4960
g48
(g49
g50
NtRp4961
(dp4962
g53
(dp4963
g61
I5
ssg62
g4957
sg55
(lp4964
S'200'
p4965
asbasbasbag48
(g64
g50
NtRp4966
(dp4967
g53
(dp4968
sg62
g3257
sg55
(lp4969
g48
(g69
g50
NtRp4970
(dp4971
g53
(dp4972
g73
g74
ssg62
g4966
sg55
(lp4973
S'subtitle'
p4974
asbag48
(g69
g50
NtRp4975
(dp4976
g53
(dp4977
g80
g81
ssg62
g4966
sg55
(lp4978
S':'
asbag48
(g69
g50
NtRp4979
(dp4980
g53
(dp4981
sg62
g4966
sg55
(lp4982
g48
(g49
g50
NtRp4983
(dp4984
g53
(dp4985
g61
I5
ssg62
g4979
sg55
(lp4986
g3742
(S's\r\x00\x00\x00customize me!'
tRp4987
asbasbasbag48
(g64
g50
NtRp4988
(dp4989
g53
(dp4990
sg62
g3257
sg55
(lp4991
g48
(g69
g50
NtRp4992
(dp4993
g53
(dp4994
g73
g74
ssg62
g4988
sg55
(lp4995
S'title'
p4996
asbag48
(g69
g50
NtRp4997
(dp4998
g53
(dp4999
g80
g81
ssg62
g4988
sg55
(lp5000
S':'
asbag48
(g69
g50
NtRp5001
(dp5002
g53
(dp5003
sg62
g4988
sg55
(lp5004
g48
(g49
g50
NtRp5005
(dp5006
g53
(dp5007
g61
I5
ssg62
g5001
sg55
(lp5008
g113
asbasbasbag48
(g64
g50
NtRp5009
(dp5010
g53
(dp5011
sg62
g3257
sg55
(lp5012
g48
(g69
g50
NtRp5013
(dp5014
g53
(dp5015
g73
g74
ssg62
g5009
sg55
(lp5016
g2460
asbag48
(g69
g50
NtRp5017
(dp5018
g53
(dp5019
g80
g81
ssg62
g5009
sg55
(lp5020
S':'
asbag48
(g69
g50
NtRp5021
(dp5022
g53
(dp5023
sg62
g5009
sg55
(lp5024
g48
(g49
g50
NtRp5025
(dp5026
g53
(dp5027
g61
I5
ssg62
g5021
sg55
(lp5028
g2473
asbasbasbag48
(g64
g50
NtRp5029
(dp5030
g53
(dp5031
sg62
g3257
sg55
(lp5032
g48
(g69
g50
NtRp5033
(dp5034
g53
(dp5035
g73
g74
ssg62
g5029
sg55
(lp5036
S'view'
p5037
asbag48
(g69
g50
NtRp5038
(dp5039
g53
(dp5040
g80
g81
ssg62
g5029
sg55
(lp5041
S':'
asbag48
(g69
g50
NtRp5042
(dp5043
g53
(dp5044
sg62
g5029
sg55
(lp5045
g48
(g49
g50
NtRp5046
(dp5047
g53
(dp5048
g61
I5
ssg62
g5042
sg55
(lp5049
S'fb_serv/js_0.js'
p5050
asbasbasbasbasbsS'locals'
p5051
(dp5052
S'host_domain'
p5053
S"'http://127.0.0.1:8000/gabb1/fb_serv'"
p5054
sssS'traceback'
p5055
S'Traceback (most recent call last):\n  File "D:\\git_projs\\Gabblista\\web2py\\web2py\\gluon\\restricted.py", line 194, in restricted\n    exec ccode in environment\n  File "D:\\git_projs\\Gabblista\\web2py\\web2py\\applications\\Gabb1\\controllers/fb_serv.py", line 37, in <module>\n  File "D:\\git_projs\\Gabblista\\web2py\\web2py\\gluon\\globals.py", line 149, in <lambda>\n    self._caller = lambda f: f()\n  File "D:\\git_projs\\Gabblista\\web2py\\web2py\\applications\\Gabb1\\controllers/fb_serv.py", line 17, in js_0\n    return dict(host_domain=host_domain,test_var=test_var)\nNameError: global name \'test_var\' is not defined\n'
p5056
s.