(dp1
S'output'
p2
S''
sS'layer'
p3
S'D:\\git_projs\\Gabblista\\web2py\\web2py\\applications\\Gabb1\\controllers/fb_serv.py'
p4
sS'code'
p5
S'# -*- coding: utf-8 -*-\nfrom random import Random\n\ndef game():\n    return dict(message="test")\n\ndef serve_dict():\n    # Serves the generic dictionary \n    return dict(message="Jack the dict in here")\n\n# Stored as string, parsed into XML\ndef serve_player_data():\n    \n    player_ID = request.vars.player_ID\n    opponent_ID = request.vars.opponent_ID\n    game_ID = request.vars.game_ID\n    \n    game_data_row = get_player_data(player_ID,opponent_ID,game_ID);\n    return dict(game_data_row=game_data_row)\n\ndef get_player_data(player_ID,opponent_ID,game_ID):\n    \n    # Generate the player data\n    if(int(game_ID)==0):\n        letter_data = generate_new_letter_data()\n        event_data = generate_new_event_data()\n#        db.game_data_table.insert(player_1_ID = int(player_ID),\n#                                  player_2_ID = int(opponent_ID),\n#                                  event_string = str(event_data),\n#                                  letter_string = str(letter_data)\n#                                  )\n        game_data = {}\n        game_data[\'letter_data\'] = letter_data\n        game_data[\'event_data\'] = event_data\n    else:\n        game_row = db(db.game_data_table.id==int(game_ID)).select().first()\n        game_data = str(game_row.game_events_string)\n        \n    return game_data\n\ndef generate_new_letter_data():\n\n    NUM_LETTERS = 12\n    letter_string = get_random_letters(NUM_LETTERS)\n    return letter_string\n\ndef generate_new_event_data():\n    # Go through and generate game data\n    NUM_EVENTS = 24 # 2 MINUTES. 1 EVENT EVERY 5 SECS\n    random_letter_events_string = get_random_letter_events_string(NUM_EVENTS/2)\n    random_mult_events_string = get_random_mult_events_string(NUM_EVENTS/2)\n    return random_letter_events_string + random_mult_events_string\n\ndef get_random_letter_events_string(len_req):\n    random_letter_events_string = ""\n    letter_event = "0"\n    num_events = 0\n    \n    while num_events < len_req:\n        random_letter_events += letter_event # Generate a new type\n        random_letter_events += get_random_letters(1) # Generate a new letter\n        random_letter_events += get_random_location() # Generate a new location\n        num_events += 1\n    \n    return random_letter_events_string\n\ndef get_random_mult_events_string(len_req):\n    random_mult_events_string = ""\n    mult_event = "1"\n    num_events = 0\n\n    while num_events < len_req:\n        random_mult_events_string += mult_event # Generate a new type\n        random_mult_events_string += get_new_mult_type() # Generate new mult tpye\n        random_mult_events_string += get_random_location() # Generate a new location\n    \n    return random_mult_events_string\n\n\ndef get_random_letters(len_req):\n    import random\n    # ord - letter to ASCII\n    # chr - ASCII to letter\n    #A - 65\n    # Z- 90\n    \n    A = 65\n    Z = 90\n    rand_letter_string =""\n    while len(rand_letter_string) < len_req:\n        rand_int = random.randint(A,Z)\n        rand_letter_string+= chr(rand_int)\n        \n    return rand_letter_string\n\ndef get_random_location():\n    import random\n    # 0-based 12-tile index\n    # 0 <= X <= 11\n    return str(random.randint(0,11))\n\n\ndef get_new_mult_type():\n    import random\n    # 0 - 2x - 60%\n    # 1 - 3x - 30%\n    # 2 - 4x - 10%\n    rand_int = random.randint(0,10)\n    \n    if rand_int < 6:\n        return "0"\n    elif rand_int <9:\n        return "1"\n    else:\n        return "2"\nresponse._vars=response._caller(serve_player_data)\n'
p6
sS'snapshot'
p7
(dp8
S'exception'
p9
(dp10
S'__hash__'
p11
S"<method-wrapper '__hash__' of exceptions.UnboundLocalError object at 0x035B8D00>"
p12
sS'__setattr__'
p13
S"<method-wrapper '__setattr__' of exceptions.UnboundLocalError object at 0x035B8D00>"
p14
sS'__reduce_ex__'
p15
S'<built-in method __reduce_ex__ of exceptions.UnboundLocalError object at 0x035B8D00>'
p16
sS'__getslice__'
p17
S"<method-wrapper '__getslice__' of exceptions.UnboundLocalError object at 0x035B8D00>"
p18
sS'__getitem__'
p19
S"<method-wrapper '__getitem__' of exceptions.UnboundLocalError object at 0x035B8D00>"
p20
sS'__setstate__'
p21
S'<built-in method __setstate__ of exceptions.UnboundLocalError object at 0x035B8D00>'
p22
sS'__reduce__'
p23
S'<built-in method __reduce__ of exceptions.UnboundLocalError object at 0x035B8D00>'
p24
sS'__str__'
p25
S"<method-wrapper '__str__' of exceptions.UnboundLocalError object at 0x035B8D00>"
p26
sS'args'
p27
S'("local variable \'random_letter_events\' referenced before assignment",)'
p28
sS'__getattribute__'
p29
S"<method-wrapper '__getattribute__' of exceptions.UnboundLocalError object at 0x035B8D00>"
p30
sS'__class__'
p31
S"<type 'exceptions.UnboundLocalError'>"
p32
sS'__delattr__'
p33
S"<method-wrapper '__delattr__' of exceptions.UnboundLocalError object at 0x035B8D00>"
p34
sS'__repr__'
p35
S"<method-wrapper '__repr__' of exceptions.UnboundLocalError object at 0x035B8D00>"
p36
sS'__dict__'
p37
S'{}'
p38
sS'__doc__'
p39
S"'Local name referenced but not bound to a value.'"
p40
sS'__init__'
p41
S"<method-wrapper '__init__' of exceptions.UnboundLocalError object at 0x035B8D00>"
p42
sS'__new__'
p43
S'<built-in method __new__ of type object at 0x1E1CD9A0>'
p44
ssS'evalue'
p45
S"local variable 'random_letter_events' referenced before assignment"
p46
sS'request'
p47
ccopy_reg
_reconstructor
p48
(cgluon.html
BEAUTIFY
p49
c__builtin__
object
p50
NtRp51
(dp52
S'attributes'
p53
(dp54
sS'components'
p55
(lp56
g48
(cgluon.html
TABLE
p57
g50
NtRp58
(dp59
g53
(dp60
S'level'
p61
I5
ssS'parent'
p62
Nsg55
(lp63
g48
(cgluon.html
TR
p64
g50
NtRp65
(dp66
g53
(dp67
sg62
g58
sg55
(lp68
g48
(cgluon.html
TD
p69
g50
NtRp70
(dp71
g53
(dp72
S'_style'
p73
S'font-weight:bold;'
p74
ssg62
g65
sg55
(lp75
S'ajax'
p76
asbag48
(g69
g50
NtRp77
(dp78
g53
(dp79
S'_valign'
p80
S'top'
p81
ssg62
g65
sg55
(lp82
S':'
asbag48
(g69
g50
NtRp83
(dp84
g53
(dp85
sg62
g65
sg55
(lp86
g48
(g49
g50
NtRp87
(dp88
g53
(dp89
g61
I5
ssg62
g83
sg55
(lp90
S'False'
p91
asbasbasbag48
(g64
g50
NtRp92
(dp93
g53
(dp94
sg62
g58
sg55
(lp95
g48
(g69
g50
NtRp96
(dp97
g53
(dp98
g73
g74
ssg62
g92
sg55
(lp99
S'application'
p100
asbag48
(g69
g50
NtRp101
(dp102
g53
(dp103
g80
g81
ssg62
g92
sg55
(lp104
S':'
asbag48
(g69
g50
NtRp105
(dp106
g53
(dp107
sg62
g92
sg55
(lp108
g48
(g49
g50
NtRp109
(dp110
g53
(dp111
g61
I5
ssg62
g105
sg55
(lp112
S'Gabb1'
p113
asbasbasbag48
(g64
g50
NtRp114
(dp115
g53
(dp116
sg62
g58
sg55
(lp117
g48
(g69
g50
NtRp118
(dp119
g53
(dp120
g73
g74
ssg62
g114
sg55
(lp121
g27
asbag48
(g69
g50
NtRp122
(dp123
g53
(dp124
g80
g81
ssg62
g114
sg55
(lp125
S':'
asbag48
(g69
g50
NtRp126
(dp127
g53
(dp128
sg62
g114
sg55
(lp129
g48
(g49
g50
NtRp130
(dp131
g53
(dp132
g61
I5
ssg62
g126
sg55
(lp133
g48
(g57
g50
NtRp134
(dp135
g53
(dp136
g61
I4
ssg62
Nsg55
(lp137
sbasbasbasbag48
(g64
g50
NtRp138
(dp139
g53
(dp140
sg62
g58
sg55
(lp141
g48
(g69
g50
NtRp142
(dp143
g53
(dp144
g73
g74
ssg62
g138
sg55
(lp145
S'body'
p146
asbag48
(g69
g50
NtRp147
(dp148
g53
(dp149
g80
g81
ssg62
g138
sg55
(lp150
S':'
asbag48
(g69
g50
NtRp151
(dp152
g53
(dp153
sg62
g138
sg55
(lp154
g48
(g49
g50
NtRp155
(dp156
g53
(dp157
g61
I5
ssg62
g151
sg55
(lp158
S'<cStringIO.StringO object at 0x07D89800>'
p159
asbasbasbag48
(g64
g50
NtRp160
(dp161
g53
(dp162
sg62
g58
sg55
(lp163
g48
(g69
g50
NtRp164
(dp165
g53
(dp166
g73
g74
ssg62
g160
sg55
(lp167
S'client'
p168
asbag48
(g69
g50
NtRp169
(dp170
g53
(dp171
g80
g81
ssg62
g160
sg55
(lp172
S':'
asbag48
(g69
g50
NtRp173
(dp174
g53
(dp175
sg62
g160
sg55
(lp176
g48
(g49
g50
NtRp177
(dp178
g53
(dp179
g61
I5
ssg62
g173
sg55
(lp180
S'127.0.0.1'
p181
asbasbasbag48
(g64
g50
NtRp182
(dp183
g53
(dp184
sg62
g58
sg55
(lp185
g48
(g69
g50
NtRp186
(dp187
g53
(dp188
g73
g74
ssg62
g182
sg55
(lp189
S'controller'
p190
asbag48
(g69
g50
NtRp191
(dp192
g53
(dp193
g80
g81
ssg62
g182
sg55
(lp194
S':'
asbag48
(g69
g50
NtRp195
(dp196
g53
(dp197
sg62
g182
sg55
(lp198
g48
(g49
g50
NtRp199
(dp200
g53
(dp201
g61
I5
ssg62
g195
sg55
(lp202
S'fb_serv'
p203
asbasbasbag48
(g64
g50
NtRp204
(dp205
g53
(dp206
sg62
g58
sg55
(lp207
g48
(g69
g50
NtRp208
(dp209
g53
(dp210
g73
g74
ssg62
g204
sg55
(lp211
S'cookies'
p212
asbag48
(g69
g50
NtRp213
(dp214
g53
(dp215
g80
g81
ssg62
g204
sg55
(lp216
S':'
asbag48
(g69
g50
NtRp217
(dp218
g53
(dp219
sg62
g204
sg55
(lp220
g48
(g49
g50
NtRp221
(dp222
g53
(dp223
g61
I5
ssg62
g217
sg55
(lp224
g48
(g57
g50
NtRp225
(dp226
g53
(dp227
g61
I4
ssg62
Nsg55
(lp228
g48
(g64
g50
NtRp229
(dp230
g53
(dp231
sg62
g225
sg55
(lp232
g48
(g69
g50
NtRp233
(dp234
g53
(dp235
g73
g74
ssg62
g229
sg55
(lp236
S'session_id_admin'
p237
asbag48
(g69
g50
NtRp238
(dp239
g53
(dp240
g80
g81
ssg62
g229
sg55
(lp241
S':'
asbag48
(g69
g50
NtRp242
(dp243
g53
(dp244
sg62
g229
sg55
(lp245
g48
(g49
g50
NtRp246
(dp247
g53
(dp248
g61
I4
ssg62
g242
sg55
(lp249
g48
(g57
g50
NtRp250
(dp251
g53
(dp252
g61
I3
ssg62
Nsg55
(lp253
g48
(g64
g50
NtRp254
(dp255
g53
(dp256
sg62
g250
sg55
(lp257
g48
(g69
g50
NtRp258
(dp259
g53
(dp260
g73
g74
ssg62
g254
sg55
(lp261
S'comment'
p262
asbag48
(g69
g50
NtRp263
(dp264
g53
(dp265
g80
g81
ssg62
g254
sg55
(lp266
S':'
asbag48
(g69
g50
NtRp267
(dp268
g53
(dp269
sg62
g254
sg55
(lp270
g48
(g49
g50
NtRp271
(dp272
g53
(dp273
g61
I3
ssg62
g267
sg55
(lp274
S''
asbasbasbag48
(g64
g50
NtRp275
(dp276
g53
(dp277
sg62
g250
sg55
(lp278
g48
(g69
g50
NtRp279
(dp280
g53
(dp281
g73
g74
ssg62
g275
sg55
(lp282
S'domain'
p283
asbag48
(g69
g50
NtRp284
(dp285
g53
(dp286
g80
g81
ssg62
g275
sg55
(lp287
S':'
asbag48
(g69
g50
NtRp288
(dp289
g53
(dp290
sg62
g275
sg55
(lp291
g48
(g49
g50
NtRp292
(dp293
g53
(dp294
g61
I3
ssg62
g288
sg55
(lp295
S''
asbasbasbag48
(g64
g50
NtRp296
(dp297
g53
(dp298
sg62
g250
sg55
(lp299
g48
(g69
g50
NtRp300
(dp301
g53
(dp302
g73
g74
ssg62
g296
sg55
(lp303
S'expires'
p304
asbag48
(g69
g50
NtRp305
(dp306
g53
(dp307
g80
g81
ssg62
g296
sg55
(lp308
S':'
asbag48
(g69
g50
NtRp309
(dp310
g53
(dp311
sg62
g296
sg55
(lp312
g48
(g49
g50
NtRp313
(dp314
g53
(dp315
g61
I3
ssg62
g309
sg55
(lp316
S''
asbasbasbag48
(g64
g50
NtRp317
(dp318
g53
(dp319
sg62
g250
sg55
(lp320
g48
(g69
g50
NtRp321
(dp322
g53
(dp323
g73
g74
ssg62
g317
sg55
(lp324
S'max-age'
p325
asbag48
(g69
g50
NtRp326
(dp327
g53
(dp328
g80
g81
ssg62
g317
sg55
(lp329
S':'
asbag48
(g69
g50
NtRp330
(dp331
g53
(dp332
sg62
g317
sg55
(lp333
g48
(g49
g50
NtRp334
(dp335
g53
(dp336
g61
I3
ssg62
g330
sg55
(lp337
S''
asbasbasbag48
(g64
g50
NtRp338
(dp339
g53
(dp340
sg62
g250
sg55
(lp341
g48
(g69
g50
NtRp342
(dp343
g53
(dp344
g73
g74
ssg62
g338
sg55
(lp345
S'path'
p346
asbag48
(g69
g50
NtRp347
(dp348
g53
(dp349
g80
g81
ssg62
g338
sg55
(lp350
S':'
asbag48
(g69
g50
NtRp351
(dp352
g53
(dp353
sg62
g338
sg55
(lp354
g48
(g49
g50
NtRp355
(dp356
g53
(dp357
g61
I3
ssg62
g351
sg55
(lp358
S''
asbasbasbag48
(g64
g50
NtRp359
(dp360
g53
(dp361
sg62
g250
sg55
(lp362
g48
(g69
g50
NtRp363
(dp364
g53
(dp365
g73
g74
ssg62
g359
sg55
(lp366
S'secure'
p367
asbag48
(g69
g50
NtRp368
(dp369
g53
(dp370
g80
g81
ssg62
g359
sg55
(lp371
S':'
asbag48
(g69
g50
NtRp372
(dp373
g53
(dp374
sg62
g359
sg55
(lp375
g48
(g49
g50
NtRp376
(dp377
g53
(dp378
g61
I3
ssg62
g372
sg55
(lp379
S''
asbasbasbag48
(g64
g50
NtRp380
(dp381
g53
(dp382
sg62
g250
sg55
(lp383
g48
(g69
g50
NtRp384
(dp385
g53
(dp386
g73
g74
ssg62
g380
sg55
(lp387
S'version'
p388
asbag48
(g69
g50
NtRp389
(dp390
g53
(dp391
g80
g81
ssg62
g380
sg55
(lp392
S':'
asbag48
(g69
g50
NtRp393
(dp394
g53
(dp395
sg62
g380
sg55
(lp396
g48
(g49
g50
NtRp397
(dp398
g53
(dp399
g61
I3
ssg62
g393
sg55
(lp400
S''
asbasbasbasbasbasbasbag48
(g64
g50
NtRp401
(dp402
g53
(dp403
sg62
g225
sg55
(lp404
g48
(g69
g50
NtRp405
(dp406
g53
(dp407
g73
g74
ssg62
g401
sg55
(lp408
S'session_id_gabb1'
p409
asbag48
(g69
g50
NtRp410
(dp411
g53
(dp412
g80
g81
ssg62
g401
sg55
(lp413
S':'
asbag48
(g69
g50
NtRp414
(dp415
g53
(dp416
sg62
g401
sg55
(lp417
g48
(g49
g50
NtRp418
(dp419
g53
(dp420
g61
I4
ssg62
g414
sg55
(lp421
g48
(g57
g50
NtRp422
(dp423
g53
(dp424
g61
I3
ssg62
Nsg55
(lp425
g48
(g64
g50
NtRp426
(dp427
g53
(dp428
sg62
g422
sg55
(lp429
g48
(g69
g50
NtRp430
(dp431
g53
(dp432
g73
g74
ssg62
g426
sg55
(lp433
g262
asbag48
(g69
g50
NtRp434
(dp435
g53
(dp436
g80
g81
ssg62
g426
sg55
(lp437
S':'
asbag48
(g69
g50
NtRp438
(dp439
g53
(dp440
sg62
g426
sg55
(lp441
g48
(g49
g50
NtRp442
(dp443
g53
(dp444
g61
I3
ssg62
g438
sg55
(lp445
S''
asbasbasbag48
(g64
g50
NtRp446
(dp447
g53
(dp448
sg62
g422
sg55
(lp449
g48
(g69
g50
NtRp450
(dp451
g53
(dp452
g73
g74
ssg62
g446
sg55
(lp453
g283
asbag48
(g69
g50
NtRp454
(dp455
g53
(dp456
g80
g81
ssg62
g446
sg55
(lp457
S':'
asbag48
(g69
g50
NtRp458
(dp459
g53
(dp460
sg62
g446
sg55
(lp461
g48
(g49
g50
NtRp462
(dp463
g53
(dp464
g61
I3
ssg62
g458
sg55
(lp465
S''
asbasbasbag48
(g64
g50
NtRp466
(dp467
g53
(dp468
sg62
g422
sg55
(lp469
g48
(g69
g50
NtRp470
(dp471
g53
(dp472
g73
g74
ssg62
g466
sg55
(lp473
g304
asbag48
(g69
g50
NtRp474
(dp475
g53
(dp476
g80
g81
ssg62
g466
sg55
(lp477
S':'
asbag48
(g69
g50
NtRp478
(dp479
g53
(dp480
sg62
g466
sg55
(lp481
g48
(g49
g50
NtRp482
(dp483
g53
(dp484
g61
I3
ssg62
g478
sg55
(lp485
S''
asbasbasbag48
(g64
g50
NtRp486
(dp487
g53
(dp488
sg62
g422
sg55
(lp489
g48
(g69
g50
NtRp490
(dp491
g53
(dp492
g73
g74
ssg62
g486
sg55
(lp493
g325
asbag48
(g69
g50
NtRp494
(dp495
g53
(dp496
g80
g81
ssg62
g486
sg55
(lp497
S':'
asbag48
(g69
g50
NtRp498
(dp499
g53
(dp500
sg62
g486
sg55
(lp501
g48
(g49
g50
NtRp502
(dp503
g53
(dp504
g61
I3
ssg62
g498
sg55
(lp505
S''
asbasbasbag48
(g64
g50
NtRp506
(dp507
g53
(dp508
sg62
g422
sg55
(lp509
g48
(g69
g50
NtRp510
(dp511
g53
(dp512
g73
g74
ssg62
g506
sg55
(lp513
g346
asbag48
(g69
g50
NtRp514
(dp515
g53
(dp516
g80
g81
ssg62
g506
sg55
(lp517
S':'
asbag48
(g69
g50
NtRp518
(dp519
g53
(dp520
sg62
g506
sg55
(lp521
g48
(g49
g50
NtRp522
(dp523
g53
(dp524
g61
I3
ssg62
g518
sg55
(lp525
S''
asbasbasbag48
(g64
g50
NtRp526
(dp527
g53
(dp528
sg62
g422
sg55
(lp529
g48
(g69
g50
NtRp530
(dp531
g53
(dp532
g73
g74
ssg62
g526
sg55
(lp533
g367
asbag48
(g69
g50
NtRp534
(dp535
g53
(dp536
g80
g81
ssg62
g526
sg55
(lp537
S':'
asbag48
(g69
g50
NtRp538
(dp539
g53
(dp540
sg62
g526
sg55
(lp541
g48
(g49
g50
NtRp542
(dp543
g53
(dp544
g61
I3
ssg62
g538
sg55
(lp545
S''
asbasbasbag48
(g64
g50
NtRp546
(dp547
g53
(dp548
sg62
g422
sg55
(lp549
g48
(g69
g50
NtRp550
(dp551
g53
(dp552
g73
g74
ssg62
g546
sg55
(lp553
g388
asbag48
(g69
g50
NtRp554
(dp555
g53
(dp556
g80
g81
ssg62
g546
sg55
(lp557
S':'
asbag48
(g69
g50
NtRp558
(dp559
g53
(dp560
sg62
g546
sg55
(lp561
g48
(g49
g50
NtRp562
(dp563
g53
(dp564
g61
I3
ssg62
g558
sg55
(lp565
S''
asbasbasbasbasbasbasbag48
(g64
g50
NtRp566
(dp567
g53
(dp568
sg62
g225
sg55
(lp569
g48
(g69
g50
NtRp570
(dp571
g53
(dp572
g73
g74
ssg62
g566
sg55
(lp573
S'session_id_ojtest'
p574
asbag48
(g69
g50
NtRp575
(dp576
g53
(dp577
g80
g81
ssg62
g566
sg55
(lp578
S':'
asbag48
(g69
g50
NtRp579
(dp580
g53
(dp581
sg62
g566
sg55
(lp582
g48
(g49
g50
NtRp583
(dp584
g53
(dp585
g61
I4
ssg62
g579
sg55
(lp586
g48
(g57
g50
NtRp587
(dp588
g53
(dp589
g61
I3
ssg62
Nsg55
(lp590
g48
(g64
g50
NtRp591
(dp592
g53
(dp593
sg62
g587
sg55
(lp594
g48
(g69
g50
NtRp595
(dp596
g53
(dp597
g73
g74
ssg62
g591
sg55
(lp598
g262
asbag48
(g69
g50
NtRp599
(dp600
g53
(dp601
g80
g81
ssg62
g591
sg55
(lp602
S':'
asbag48
(g69
g50
NtRp603
(dp604
g53
(dp605
sg62
g591
sg55
(lp606
g48
(g49
g50
NtRp607
(dp608
g53
(dp609
g61
I3
ssg62
g603
sg55
(lp610
S''
asbasbasbag48
(g64
g50
NtRp611
(dp612
g53
(dp613
sg62
g587
sg55
(lp614
g48
(g69
g50
NtRp615
(dp616
g53
(dp617
g73
g74
ssg62
g611
sg55
(lp618
g283
asbag48
(g69
g50
NtRp619
(dp620
g53
(dp621
g80
g81
ssg62
g611
sg55
(lp622
S':'
asbag48
(g69
g50
NtRp623
(dp624
g53
(dp625
sg62
g611
sg55
(lp626
g48
(g49
g50
NtRp627
(dp628
g53
(dp629
g61
I3
ssg62
g623
sg55
(lp630
S''
asbasbasbag48
(g64
g50
NtRp631
(dp632
g53
(dp633
sg62
g587
sg55
(lp634
g48
(g69
g50
NtRp635
(dp636
g53
(dp637
g73
g74
ssg62
g631
sg55
(lp638
g304
asbag48
(g69
g50
NtRp639
(dp640
g53
(dp641
g80
g81
ssg62
g631
sg55
(lp642
S':'
asbag48
(g69
g50
NtRp643
(dp644
g53
(dp645
sg62
g631
sg55
(lp646
g48
(g49
g50
NtRp647
(dp648
g53
(dp649
g61
I3
ssg62
g643
sg55
(lp650
S''
asbasbasbag48
(g64
g50
NtRp651
(dp652
g53
(dp653
sg62
g587
sg55
(lp654
g48
(g69
g50
NtRp655
(dp656
g53
(dp657
g73
g74
ssg62
g651
sg55
(lp658
g325
asbag48
(g69
g50
NtRp659
(dp660
g53
(dp661
g80
g81
ssg62
g651
sg55
(lp662
S':'
asbag48
(g69
g50
NtRp663
(dp664
g53
(dp665
sg62
g651
sg55
(lp666
g48
(g49
g50
NtRp667
(dp668
g53
(dp669
g61
I3
ssg62
g663
sg55
(lp670
S''
asbasbasbag48
(g64
g50
NtRp671
(dp672
g53
(dp673
sg62
g587
sg55
(lp674
g48
(g69
g50
NtRp675
(dp676
g53
(dp677
g73
g74
ssg62
g671
sg55
(lp678
g346
asbag48
(g69
g50
NtRp679
(dp680
g53
(dp681
g80
g81
ssg62
g671
sg55
(lp682
S':'
asbag48
(g69
g50
NtRp683
(dp684
g53
(dp685
sg62
g671
sg55
(lp686
g48
(g49
g50
NtRp687
(dp688
g53
(dp689
g61
I3
ssg62
g683
sg55
(lp690
S''
asbasbasbag48
(g64
g50
NtRp691
(dp692
g53
(dp693
sg62
g587
sg55
(lp694
g48
(g69
g50
NtRp695
(dp696
g53
(dp697
g73
g74
ssg62
g691
sg55
(lp698
g367
asbag48
(g69
g50
NtRp699
(dp700
g53
(dp701
g80
g81
ssg62
g691
sg55
(lp702
S':'
asbag48
(g69
g50
NtRp703
(dp704
g53
(dp705
sg62
g691
sg55
(lp706
g48
(g49
g50
NtRp707
(dp708
g53
(dp709
g61
I3
ssg62
g703
sg55
(lp710
S''
asbasbasbag48
(g64
g50
NtRp711
(dp712
g53
(dp713
sg62
g587
sg55
(lp714
g48
(g69
g50
NtRp715
(dp716
g53
(dp717
g73
g74
ssg62
g711
sg55
(lp718
g388
asbag48
(g69
g50
NtRp719
(dp720
g53
(dp721
g80
g81
ssg62
g711
sg55
(lp722
S':'
asbag48
(g69
g50
NtRp723
(dp724
g53
(dp725
sg62
g711
sg55
(lp726
g48
(g49
g50
NtRp727
(dp728
g53
(dp729
g61
I3
ssg62
g723
sg55
(lp730
S''
asbasbasbasbasbasbasbag48
(g64
g50
NtRp731
(dp732
g53
(dp733
sg62
g225
sg55
(lp734
g48
(g69
g50
NtRp735
(dp736
g53
(dp737
g73
g74
ssg62
g731
sg55
(lp738
S'session_id_welcome'
p739
asbag48
(g69
g50
NtRp740
(dp741
g53
(dp742
g80
g81
ssg62
g731
sg55
(lp743
S':'
asbag48
(g69
g50
NtRp744
(dp745
g53
(dp746
sg62
g731
sg55
(lp747
g48
(g49
g50
NtRp748
(dp749
g53
(dp750
g61
I4
ssg62
g744
sg55
(lp751
g48
(g57
g50
NtRp752
(dp753
g53
(dp754
g61
I3
ssg62
Nsg55
(lp755
g48
(g64
g50
NtRp756
(dp757
g53
(dp758
sg62
g752
sg55
(lp759
g48
(g69
g50
NtRp760
(dp761
g53
(dp762
g73
g74
ssg62
g756
sg55
(lp763
g262
asbag48
(g69
g50
NtRp764
(dp765
g53
(dp766
g80
g81
ssg62
g756
sg55
(lp767
S':'
asbag48
(g69
g50
NtRp768
(dp769
g53
(dp770
sg62
g756
sg55
(lp771
g48
(g49
g50
NtRp772
(dp773
g53
(dp774
g61
I3
ssg62
g768
sg55
(lp775
S''
asbasbasbag48
(g64
g50
NtRp776
(dp777
g53
(dp778
sg62
g752
sg55
(lp779
g48
(g69
g50
NtRp780
(dp781
g53
(dp782
g73
g74
ssg62
g776
sg55
(lp783
g283
asbag48
(g69
g50
NtRp784
(dp785
g53
(dp786
g80
g81
ssg62
g776
sg55
(lp787
S':'
asbag48
(g69
g50
NtRp788
(dp789
g53
(dp790
sg62
g776
sg55
(lp791
g48
(g49
g50
NtRp792
(dp793
g53
(dp794
g61
I3
ssg62
g788
sg55
(lp795
S''
asbasbasbag48
(g64
g50
NtRp796
(dp797
g53
(dp798
sg62
g752
sg55
(lp799
g48
(g69
g50
NtRp800
(dp801
g53
(dp802
g73
g74
ssg62
g796
sg55
(lp803
g304
asbag48
(g69
g50
NtRp804
(dp805
g53
(dp806
g80
g81
ssg62
g796
sg55
(lp807
S':'
asbag48
(g69
g50
NtRp808
(dp809
g53
(dp810
sg62
g796
sg55
(lp811
g48
(g49
g50
NtRp812
(dp813
g53
(dp814
g61
I3
ssg62
g808
sg55
(lp815
S''
asbasbasbag48
(g64
g50
NtRp816
(dp817
g53
(dp818
sg62
g752
sg55
(lp819
g48
(g69
g50
NtRp820
(dp821
g53
(dp822
g73
g74
ssg62
g816
sg55
(lp823
g325
asbag48
(g69
g50
NtRp824
(dp825
g53
(dp826
g80
g81
ssg62
g816
sg55
(lp827
S':'
asbag48
(g69
g50
NtRp828
(dp829
g53
(dp830
sg62
g816
sg55
(lp831
g48
(g49
g50
NtRp832
(dp833
g53
(dp834
g61
I3
ssg62
g828
sg55
(lp835
S''
asbasbasbag48
(g64
g50
NtRp836
(dp837
g53
(dp838
sg62
g752
sg55
(lp839
g48
(g69
g50
NtRp840
(dp841
g53
(dp842
g73
g74
ssg62
g836
sg55
(lp843
g346
asbag48
(g69
g50
NtRp844
(dp845
g53
(dp846
g80
g81
ssg62
g836
sg55
(lp847
S':'
asbag48
(g69
g50
NtRp848
(dp849
g53
(dp850
sg62
g836
sg55
(lp851
g48
(g49
g50
NtRp852
(dp853
g53
(dp854
g61
I3
ssg62
g848
sg55
(lp855
S''
asbasbasbag48
(g64
g50
NtRp856
(dp857
g53
(dp858
sg62
g752
sg55
(lp859
g48
(g69
g50
NtRp860
(dp861
g53
(dp862
g73
g74
ssg62
g856
sg55
(lp863
g367
asbag48
(g69
g50
NtRp864
(dp865
g53
(dp866
g80
g81
ssg62
g856
sg55
(lp867
S':'
asbag48
(g69
g50
NtRp868
(dp869
g53
(dp870
sg62
g856
sg55
(lp871
g48
(g49
g50
NtRp872
(dp873
g53
(dp874
g61
I3
ssg62
g868
sg55
(lp875
S''
asbasbasbag48
(g64
g50
NtRp876
(dp877
g53
(dp878
sg62
g752
sg55
(lp879
g48
(g69
g50
NtRp880
(dp881
g53
(dp882
g73
g74
ssg62
g876
sg55
(lp883
g388
asbag48
(g69
g50
NtRp884
(dp885
g53
(dp886
g80
g81
ssg62
g876
sg55
(lp887
S':'
asbag48
(g69
g50
NtRp888
(dp889
g53
(dp890
sg62
g876
sg55
(lp891
g48
(g49
g50
NtRp892
(dp893
g53
(dp894
g61
I3
ssg62
g888
sg55
(lp895
S''
asbasbasbasbasbasbasbasbasbasbasbag48
(g64
g50
NtRp896
(dp897
g53
(dp898
sg62
g58
sg55
(lp899
g48
(g69
g50
NtRp900
(dp901
g53
(dp902
g73
g74
ssg62
g896
sg55
(lp903
S'env'
p904
asbag48
(g69
g50
NtRp905
(dp906
g53
(dp907
g80
g81
ssg62
g896
sg55
(lp908
S':'
asbag48
(g69
g50
NtRp909
(dp910
g53
(dp911
sg62
g896
sg55
(lp912
g48
(g49
g50
NtRp913
(dp914
g53
(dp915
g61
I5
ssg62
g909
sg55
(lp916
g48
(g57
g50
NtRp917
(dp918
g53
(dp919
g61
I4
ssg62
Nsg55
(lp920
g48
(g64
g50
NtRp921
(dp922
g53
(dp923
sg62
g917
sg55
(lp924
g48
(g69
g50
NtRp925
(dp926
g53
(dp927
g73
g74
ssg62
g921
sg55
(lp928
S'app_folders'
p929
asbag48
(g69
g50
NtRp930
(dp931
g53
(dp932
g80
g81
ssg62
g921
sg55
(lp933
S':'
asbag48
(g69
g50
NtRp934
(dp935
g53
(dp936
sg62
g921
sg55
(lp937
g48
(g49
g50
NtRp938
(dp939
g53
(dp940
g61
I4
ssg62
g934
sg55
(lp941
S"set(['D:\\\\git_projs\\\\Gabblista\\\\web2py\\\\web2py\\\\applications\\\\gabb1\\\\', 'D:\\\\git_projs\\\\Gabblista\\\\web2py\\\\web2py\\\\applications\\\\Gabb1\\\\', 'D:\\\\git_projs\\\\Gabblista\\\\web2py\\\\web2py\\\\applications\\\\admin\\\\', 'D:\\\\git_projs\\\\Gabblista\\\\web2py\\\\web2py\\\\applications\\\\welcome\\\\'])"
p942
asbasbasbag48
(g64
g50
NtRp943
(dp944
g53
(dp945
sg62
g917
sg55
(lp946
g48
(g69
g50
NtRp947
(dp948
g53
(dp949
g73
g74
ssg62
g943
sg55
(lp950
S'applications_parent'
p951
asbag48
(g69
g50
NtRp952
(dp953
g53
(dp954
g80
g81
ssg62
g943
sg55
(lp955
S':'
asbag48
(g69
g50
NtRp956
(dp957
g53
(dp958
sg62
g943
sg55
(lp959
g48
(g49
g50
NtRp960
(dp961
g53
(dp962
g61
I4
ssg62
g956
sg55
(lp963
S'D:\\git_projs\\Gabblista\\web2py\\web2py'
p964
asbasbasbag48
(g64
g50
NtRp965
(dp966
g53
(dp967
sg62
g917
sg55
(lp968
g48
(g69
g50
NtRp969
(dp970
g53
(dp971
g73
g74
ssg62
g965
sg55
(lp972
S'cmd_args'
p973
asbag48
(g69
g50
NtRp974
(dp975
g53
(dp976
g80
g81
ssg62
g965
sg55
(lp977
S':'
asbag48
(g69
g50
NtRp978
(dp979
g53
(dp980
sg62
g965
sg55
(lp981
g48
(g49
g50
NtRp982
(dp983
g53
(dp984
g61
I4
ssg62
g978
sg55
(lp985
g48
(g57
g50
NtRp986
(dp987
g53
(dp988
g61
I3
ssg62
Nsg55
(lp989
sbasbasbasbag48
(g64
g50
NtRp990
(dp991
g53
(dp992
sg62
g917
sg55
(lp993
g48
(g69
g50
NtRp994
(dp995
g53
(dp996
g73
g74
ssg62
g990
sg55
(lp997
S'cmd_options'
p998
asbag48
(g69
g50
NtRp999
(dp1000
g53
(dp1001
g80
g81
ssg62
g990
sg55
(lp1002
S':'
asbag48
(g69
g50
NtRp1003
(dp1004
g53
(dp1005
sg62
g990
sg55
(lp1006
g48
(g49
g50
NtRp1007
(dp1008
g53
(dp1009
g61
I4
ssg62
g1003
sg55
(lp1010
S"<Values at 0x325b800: {'verbose': False, 'ip': '127.0.0.1', 'shutdown_timeout': 5, 'taskbar': False, 'nocron': False, 'pid_filename': 'httpserver.pid', 'maxthreads': None, 'softcron': False, 'server_name': 'John-PC', 'bpython': False, 'nogui': False, 'port': 8000, 'extcron': False, 'debuglevel': 30, 'test': None, 'folder': 'D:\\\\git_projs\\\\Gabblista\\\\web2py\\\\web2py', 'config': '', 'import_models': False, 'winservice': '', 'shell': None, 'run': '', 'log_filename': 'httpserver.log', 'args': [''], 'ssl_ca_certificate': None, 'scheduler': None, 'profiler_filename': None, 'ssl_private_key': '', 'password': '<ask>', 'request_queue_size': 5, 'ssl_certificate': '', 'cronjob': False, 'plain': False, 'quiet': False, 'interfaces': None, 'minthreads': None, 'timeout': 10, 'numthreads': None, 'nobanner': False}>"
p1011
asbasbasbag48
(g64
g50
NtRp1012
(dp1013
g53
(dp1014
sg62
g917
sg55
(lp1015
g48
(g69
g50
NtRp1016
(dp1017
g53
(dp1018
g73
g74
ssg62
g1012
sg55
(lp1019
S'db_sessions'
p1020
asbag48
(g69
g50
NtRp1021
(dp1022
g53
(dp1023
g80
g81
ssg62
g1012
sg55
(lp1024
S':'
asbag48
(g69
g50
NtRp1025
(dp1026
g53
(dp1027
sg62
g1012
sg55
(lp1028
g48
(g49
g50
NtRp1029
(dp1030
g53
(dp1031
g61
I4
ssg62
g1025
sg55
(lp1032
S'set([])'
p1033
asbasbasbag48
(g64
g50
NtRp1034
(dp1035
g53
(dp1036
sg62
g917
sg55
(lp1037
g48
(g69
g50
NtRp1038
(dp1039
g53
(dp1040
g73
g74
ssg62
g1034
sg55
(lp1041
S'debugging'
p1042
asbag48
(g69
g50
NtRp1043
(dp1044
g53
(dp1045
g80
g81
ssg62
g1034
sg55
(lp1046
S':'
asbag48
(g69
g50
NtRp1047
(dp1048
g53
(dp1049
sg62
g1034
sg55
(lp1050
g48
(g49
g50
NtRp1051
(dp1052
g53
(dp1053
g61
I4
ssg62
g1047
sg55
(lp1054
g91
asbasbasbag48
(g64
g50
NtRp1055
(dp1056
g53
(dp1057
sg62
g917
sg55
(lp1058
g48
(g69
g50
NtRp1059
(dp1060
g53
(dp1061
g73
g74
ssg62
g1055
sg55
(lp1062
S'gluon_parent'
p1063
asbag48
(g69
g50
NtRp1064
(dp1065
g53
(dp1066
g80
g81
ssg62
g1055
sg55
(lp1067
S':'
asbag48
(g69
g50
NtRp1068
(dp1069
g53
(dp1070
sg62
g1055
sg55
(lp1071
g48
(g49
g50
NtRp1072
(dp1073
g53
(dp1074
g61
I4
ssg62
g1068
sg55
(lp1075
S'D:\\git_projs\\Gabblista\\web2py\\web2py'
p1076
asbasbasbag48
(g64
g50
NtRp1077
(dp1078
g53
(dp1079
sg62
g917
sg55
(lp1080
g48
(g69
g50
NtRp1081
(dp1082
g53
(dp1083
g73
g74
ssg62
g1077
sg55
(lp1084
S'http_accept'
p1085
asbag48
(g69
g50
NtRp1086
(dp1087
g53
(dp1088
g80
g81
ssg62
g1077
sg55
(lp1089
S':'
asbag48
(g69
g50
NtRp1090
(dp1091
g53
(dp1092
sg62
g1077
sg55
(lp1093
g48
(g49
g50
NtRp1094
(dp1095
g53
(dp1096
g61
I4
ssg62
g1090
sg55
(lp1097
S'text/html,application/xhtml+xml,application/xml;q=0.9,*/*;q=0.8'
p1098
asbasbasbag48
(g64
g50
NtRp1099
(dp1100
g53
(dp1101
sg62
g917
sg55
(lp1102
g48
(g69
g50
NtRp1103
(dp1104
g53
(dp1105
g73
g74
ssg62
g1099
sg55
(lp1106
S'http_accept_charset'
p1107
asbag48
(g69
g50
NtRp1108
(dp1109
g53
(dp1110
g80
g81
ssg62
g1099
sg55
(lp1111
S':'
asbag48
(g69
g50
NtRp1112
(dp1113
g53
(dp1114
sg62
g1099
sg55
(lp1115
g48
(g49
g50
NtRp1116
(dp1117
g53
(dp1118
g61
I4
ssg62
g1112
sg55
(lp1119
S'ISO-8859-1,utf-8;q=0.7,*;q=0.3'
p1120
asbasbasbag48
(g64
g50
NtRp1121
(dp1122
g53
(dp1123
sg62
g917
sg55
(lp1124
g48
(g69
g50
NtRp1125
(dp1126
g53
(dp1127
g73
g74
ssg62
g1121
sg55
(lp1128
S'http_accept_encoding'
p1129
asbag48
(g69
g50
NtRp1130
(dp1131
g53
(dp1132
g80
g81
ssg62
g1121
sg55
(lp1133
S':'
asbag48
(g69
g50
NtRp1134
(dp1135
g53
(dp1136
sg62
g1121
sg55
(lp1137
g48
(g49
g50
NtRp1138
(dp1139
g53
(dp1140
g61
I4
ssg62
g1134
sg55
(lp1141
S'gzip,deflate,sdch'
p1142
asbasbasbag48
(g64
g50
NtRp1143
(dp1144
g53
(dp1145
sg62
g917
sg55
(lp1146
g48
(g69
g50
NtRp1147
(dp1148
g53
(dp1149
g73
g74
ssg62
g1143
sg55
(lp1150
S'http_accept_language'
p1151
asbag48
(g69
g50
NtRp1152
(dp1153
g53
(dp1154
g80
g81
ssg62
g1143
sg55
(lp1155
S':'
asbag48
(g69
g50
NtRp1156
(dp1157
g53
(dp1158
sg62
g1143
sg55
(lp1159
g48
(g49
g50
NtRp1160
(dp1161
g53
(dp1162
g61
I4
ssg62
g1156
sg55
(lp1163
S'en-US,en;q=0.8'
p1164
asbasbasbag48
(g64
g50
NtRp1165
(dp1166
g53
(dp1167
sg62
g917
sg55
(lp1168
g48
(g69
g50
NtRp1169
(dp1170
g53
(dp1171
g73
g74
ssg62
g1165
sg55
(lp1172
S'http_cache_control'
p1173
asbag48
(g69
g50
NtRp1174
(dp1175
g53
(dp1176
g80
g81
ssg62
g1165
sg55
(lp1177
S':'
asbag48
(g69
g50
NtRp1178
(dp1179
g53
(dp1180
sg62
g1165
sg55
(lp1181
g48
(g49
g50
NtRp1182
(dp1183
g53
(dp1184
g61
I4
ssg62
g1178
sg55
(lp1185
S'max-age=0'
p1186
asbasbasbag48
(g64
g50
NtRp1187
(dp1188
g53
(dp1189
sg62
g917
sg55
(lp1190
g48
(g69
g50
NtRp1191
(dp1192
g53
(dp1193
g73
g74
ssg62
g1187
sg55
(lp1194
S'http_connection'
p1195
asbag48
(g69
g50
NtRp1196
(dp1197
g53
(dp1198
g80
g81
ssg62
g1187
sg55
(lp1199
S':'
asbag48
(g69
g50
NtRp1200
(dp1201
g53
(dp1202
sg62
g1187
sg55
(lp1203
g48
(g49
g50
NtRp1204
(dp1205
g53
(dp1206
g61
I4
ssg62
g1200
sg55
(lp1207
S'keep-alive'
p1208
asbasbasbag48
(g64
g50
NtRp1209
(dp1210
g53
(dp1211
sg62
g917
sg55
(lp1212
g48
(g69
g50
NtRp1213
(dp1214
g53
(dp1215
g73
g74
ssg62
g1209
sg55
(lp1216
S'http_cookie'
p1217
asbag48
(g69
g50
NtRp1218
(dp1219
g53
(dp1220
g80
g81
ssg62
g1209
sg55
(lp1221
S':'
asbag48
(g69
g50
NtRp1222
(dp1223
g53
(dp1224
sg62
g1209
sg55
(lp1225
g48
(g49
g50
NtRp1226
(dp1227
g53
(dp1228
g61
I4
ssg62
g1222
sg55
(lp1229
S'session_id_ojtest="1673:0b3a82b6-d697-4763-b7ae-5776f137ef68"; session_id_gabb1=127.0.0.1-3bf8ce85-e0ca-4a46-8cd0-e96e868047a2; session_id_welcome=127.0.0.1-6d50c47e-7f62-40fa-b134-ee701fab76a2; session_id_admin=127.0.0.1-36373dbf-d82c-4405-b2a1-4903a4e5c8b4'
p1230
asbasbasbag48
(g64
g50
NtRp1231
(dp1232
g53
(dp1233
sg62
g917
sg55
(lp1234
g48
(g69
g50
NtRp1235
(dp1236
g53
(dp1237
g73
g74
ssg62
g1231
sg55
(lp1238
S'http_host'
p1239
asbag48
(g69
g50
NtRp1240
(dp1241
g53
(dp1242
g80
g81
ssg62
g1231
sg55
(lp1243
S':'
asbag48
(g69
g50
NtRp1244
(dp1245
g53
(dp1246
sg62
g1231
sg55
(lp1247
g48
(g49
g50
NtRp1248
(dp1249
g53
(dp1250
g61
I4
ssg62
g1244
sg55
(lp1251
S'127.0.0.1:8000'
p1252
asbasbasbag48
(g64
g50
NtRp1253
(dp1254
g53
(dp1255
sg62
g917
sg55
(lp1256
g48
(g69
g50
NtRp1257
(dp1258
g53
(dp1259
g73
g74
ssg62
g1253
sg55
(lp1260
S'http_user_agent'
p1261
asbag48
(g69
g50
NtRp1262
(dp1263
g53
(dp1264
g80
g81
ssg62
g1253
sg55
(lp1265
S':'
asbag48
(g69
g50
NtRp1266
(dp1267
g53
(dp1268
sg62
g1253
sg55
(lp1269
g48
(g49
g50
NtRp1270
(dp1271
g53
(dp1272
g61
I4
ssg62
g1266
sg55
(lp1273
S'Mozilla/5.0 (Windows NT 6.1; WOW64) AppleWebKit/535.7 (KHTML, like Gecko) Chrome/16.0.912.75 Safari/535.7'
p1274
asbasbasbag48
(g64
g50
NtRp1275
(dp1276
g53
(dp1277
sg62
g917
sg55
(lp1278
g48
(g69
g50
NtRp1279
(dp1280
g53
(dp1281
g73
g74
ssg62
g1275
sg55
(lp1282
S'is_jython'
p1283
asbag48
(g69
g50
NtRp1284
(dp1285
g53
(dp1286
g80
g81
ssg62
g1275
sg55
(lp1287
S':'
asbag48
(g69
g50
NtRp1288
(dp1289
g53
(dp1290
sg62
g1275
sg55
(lp1291
g48
(g49
g50
NtRp1292
(dp1293
g53
(dp1294
g61
I4
ssg62
g1288
sg55
(lp1295
g91
asbasbasbag48
(g64
g50
NtRp1296
(dp1297
g53
(dp1298
sg62
g917
sg55
(lp1299
g48
(g69
g50
NtRp1300
(dp1301
g53
(dp1302
g73
g74
ssg62
g1296
sg55
(lp1303
S'path_info'
p1304
asbag48
(g69
g50
NtRp1305
(dp1306
g53
(dp1307
g80
g81
ssg62
g1296
sg55
(lp1308
S':'
asbag48
(g69
g50
NtRp1309
(dp1310
g53
(dp1311
sg62
g1296
sg55
(lp1312
g48
(g49
g50
NtRp1313
(dp1314
g53
(dp1315
g61
I4
ssg62
g1309
sg55
(lp1316
S'/Gabb1/fb_serv/serve_player_data.txt'
p1317
asbasbasbag48
(g64
g50
NtRp1318
(dp1319
g53
(dp1320
sg62
g917
sg55
(lp1321
g48
(g69
g50
NtRp1322
(dp1323
g53
(dp1324
g73
g74
ssg62
g1318
sg55
(lp1325
S'query_string'
p1326
asbag48
(g69
g50
NtRp1327
(dp1328
g53
(dp1329
g80
g81
ssg62
g1318
sg55
(lp1330
S':'
asbag48
(g69
g50
NtRp1331
(dp1332
g53
(dp1333
sg62
g1318
sg55
(lp1334
g48
(g49
g50
NtRp1335
(dp1336
g53
(dp1337
g61
I4
ssg62
g1331
sg55
(lp1338
S'player_ID=0&opponent_ID=1&game_ID=0'
p1339
asbasbasbag48
(g64
g50
NtRp1340
(dp1341
g53
(dp1342
sg62
g917
sg55
(lp1343
g48
(g69
g50
NtRp1344
(dp1345
g53
(dp1346
g73
g74
ssg62
g1340
sg55
(lp1347
S'remote_addr'
p1348
asbag48
(g69
g50
NtRp1349
(dp1350
g53
(dp1351
g80
g81
ssg62
g1340
sg55
(lp1352
S':'
asbag48
(g69
g50
NtRp1353
(dp1354
g53
(dp1355
sg62
g1340
sg55
(lp1356
g48
(g49
g50
NtRp1357
(dp1358
g53
(dp1359
g61
I4
ssg62
g1353
sg55
(lp1360
g181
asbasbasbag48
(g64
g50
NtRp1361
(dp1362
g53
(dp1363
sg62
g917
sg55
(lp1364
g48
(g69
g50
NtRp1365
(dp1366
g53
(dp1367
g73
g74
ssg62
g1361
sg55
(lp1368
S'remote_port'
p1369
asbag48
(g69
g50
NtRp1370
(dp1371
g53
(dp1372
g80
g81
ssg62
g1361
sg55
(lp1373
S':'
asbag48
(g69
g50
NtRp1374
(dp1375
g53
(dp1376
sg62
g1361
sg55
(lp1377
g48
(g49
g50
NtRp1378
(dp1379
g53
(dp1380
g61
I4
ssg62
g1374
sg55
(lp1381
S'64568'
p1382
asbasbasbag48
(g64
g50
NtRp1383
(dp1384
g53
(dp1385
sg62
g917
sg55
(lp1386
g48
(g69
g50
NtRp1387
(dp1388
g53
(dp1389
g73
g74
ssg62
g1383
sg55
(lp1390
S'request_method'
p1391
asbag48
(g69
g50
NtRp1392
(dp1393
g53
(dp1394
g80
g81
ssg62
g1383
sg55
(lp1395
S':'
asbag48
(g69
g50
NtRp1396
(dp1397
g53
(dp1398
sg62
g1383
sg55
(lp1399
g48
(g49
g50
NtRp1400
(dp1401
g53
(dp1402
g61
I4
ssg62
g1396
sg55
(lp1403
S'GET'
p1404
asbasbasbag48
(g64
g50
NtRp1405
(dp1406
g53
(dp1407
sg62
g917
sg55
(lp1408
g48
(g69
g50
NtRp1409
(dp1410
g53
(dp1411
g73
g74
ssg62
g1405
sg55
(lp1412
S'request_uri'
p1413
asbag48
(g69
g50
NtRp1414
(dp1415
g53
(dp1416
g80
g81
ssg62
g1405
sg55
(lp1417
S':'
asbag48
(g69
g50
NtRp1418
(dp1419
g53
(dp1420
sg62
g1405
sg55
(lp1421
g48
(g49
g50
NtRp1422
(dp1423
g53
(dp1424
g61
I4
ssg62
g1418
sg55
(lp1425
S'/Gabb1/fb_serv/serve_player_data.txt?player_ID=0&opponent_ID=1&game_ID=0'
p1426
asbasbasbag48
(g64
g50
NtRp1427
(dp1428
g53
(dp1429
sg62
g917
sg55
(lp1430
g48
(g69
g50
NtRp1431
(dp1432
g53
(dp1433
g73
g74
ssg62
g1427
sg55
(lp1434
S'script_name'
p1435
asbag48
(g69
g50
NtRp1436
(dp1437
g53
(dp1438
g80
g81
ssg62
g1427
sg55
(lp1439
S':'
asbag48
(g69
g50
NtRp1440
(dp1441
g53
(dp1442
sg62
g1427
sg55
(lp1443
g48
(g49
g50
NtRp1444
(dp1445
g53
(dp1446
g61
I4
ssg62
g1440
sg55
(lp1447
S''
asbasbasbag48
(g64
g50
NtRp1448
(dp1449
g53
(dp1450
sg62
g917
sg55
(lp1451
g48
(g69
g50
NtRp1452
(dp1453
g53
(dp1454
g73
g74
ssg62
g1448
sg55
(lp1455
S'server_name'
p1456
asbag48
(g69
g50
NtRp1457
(dp1458
g53
(dp1459
g80
g81
ssg62
g1448
sg55
(lp1460
S':'
asbag48
(g69
g50
NtRp1461
(dp1462
g53
(dp1463
sg62
g1448
sg55
(lp1464
g48
(g49
g50
NtRp1465
(dp1466
g53
(dp1467
g61
I4
ssg62
g1461
sg55
(lp1468
S'John-PC'
p1469
asbasbasbag48
(g64
g50
NtRp1470
(dp1471
g53
(dp1472
sg62
g917
sg55
(lp1473
g48
(g69
g50
NtRp1474
(dp1475
g53
(dp1476
g73
g74
ssg62
g1470
sg55
(lp1477
S'server_port'
p1478
asbag48
(g69
g50
NtRp1479
(dp1480
g53
(dp1481
g80
g81
ssg62
g1470
sg55
(lp1482
S':'
asbag48
(g69
g50
NtRp1483
(dp1484
g53
(dp1485
sg62
g1470
sg55
(lp1486
g48
(g49
g50
NtRp1487
(dp1488
g53
(dp1489
g61
I4
ssg62
g1483
sg55
(lp1490
S'8000'
p1491
asbasbasbag48
(g64
g50
NtRp1492
(dp1493
g53
(dp1494
sg62
g917
sg55
(lp1495
g48
(g69
g50
NtRp1496
(dp1497
g53
(dp1498
g73
g74
ssg62
g1492
sg55
(lp1499
S'server_protocol'
p1500
asbag48
(g69
g50
NtRp1501
(dp1502
g53
(dp1503
g80
g81
ssg62
g1492
sg55
(lp1504
S':'
asbag48
(g69
g50
NtRp1505
(dp1506
g53
(dp1507
sg62
g1492
sg55
(lp1508
g48
(g49
g50
NtRp1509
(dp1510
g53
(dp1511
g61
I4
ssg62
g1505
sg55
(lp1512
S'HTTP/1.1'
p1513
asbasbasbag48
(g64
g50
NtRp1514
(dp1515
g53
(dp1516
sg62
g917
sg55
(lp1517
g48
(g69
g50
NtRp1518
(dp1519
g53
(dp1520
g73
g74
ssg62
g1514
sg55
(lp1521
S'server_software'
p1522
asbag48
(g69
g50
NtRp1523
(dp1524
g53
(dp1525
g80
g81
ssg62
g1514
sg55
(lp1526
S':'
asbag48
(g69
g50
NtRp1527
(dp1528
g53
(dp1529
sg62
g1514
sg55
(lp1530
g48
(g49
g50
NtRp1531
(dp1532
g53
(dp1533
g61
I4
ssg62
g1527
sg55
(lp1534
S'Rocket 1.2.4'
p1535
asbasbasbag48
(g64
g50
NtRp1536
(dp1537
g53
(dp1538
sg62
g917
sg55
(lp1539
g48
(g69
g50
NtRp1540
(dp1541
g53
(dp1542
g73
g74
ssg62
g1536
sg55
(lp1543
S'web2py_crontype'
p1544
asbag48
(g69
g50
NtRp1545
(dp1546
g53
(dp1547
g80
g81
ssg62
g1536
sg55
(lp1548
S':'
asbag48
(g69
g50
NtRp1549
(dp1550
g53
(dp1551
sg62
g1536
sg55
(lp1552
g48
(g49
g50
NtRp1553
(dp1554
g53
(dp1555
g61
I4
ssg62
g1549
sg55
(lp1556
S'hard'
p1557
asbasbasbag48
(g64
g50
NtRp1558
(dp1559
g53
(dp1560
sg62
g917
sg55
(lp1561
g48
(g69
g50
NtRp1562
(dp1563
g53
(dp1564
g73
g74
ssg62
g1558
sg55
(lp1565
S'web2py_original_uri'
p1566
asbag48
(g69
g50
NtRp1567
(dp1568
g53
(dp1569
g80
g81
ssg62
g1558
sg55
(lp1570
S':'
asbag48
(g69
g50
NtRp1571
(dp1572
g53
(dp1573
sg62
g1558
sg55
(lp1574
g48
(g49
g50
NtRp1575
(dp1576
g53
(dp1577
g61
I4
ssg62
g1571
sg55
(lp1578
S'/Gabb1/fb_serv/serve_player_data.txt?player_ID=0&opponent_ID=1&game_ID=0'
p1579
asbasbasbag48
(g64
g50
NtRp1580
(dp1581
g53
(dp1582
sg62
g917
sg55
(lp1583
g48
(g69
g50
NtRp1584
(dp1585
g53
(dp1586
g73
g74
ssg62
g1580
sg55
(lp1587
S'web2py_path'
p1588
asbag48
(g69
g50
NtRp1589
(dp1590
g53
(dp1591
g80
g81
ssg62
g1580
sg55
(lp1592
S':'
asbag48
(g69
g50
NtRp1593
(dp1594
g53
(dp1595
sg62
g1580
sg55
(lp1596
g48
(g49
g50
NtRp1597
(dp1598
g53
(dp1599
g61
I4
ssg62
g1593
sg55
(lp1600
g964
asbasbasbag48
(g64
g50
NtRp1601
(dp1602
g53
(dp1603
sg62
g917
sg55
(lp1604
g48
(g69
g50
NtRp1605
(dp1606
g53
(dp1607
g73
g74
ssg62
g1601
sg55
(lp1608
S'web2py_version'
p1609
asbag48
(g69
g50
NtRp1610
(dp1611
g53
(dp1612
g80
g81
ssg62
g1601
sg55
(lp1613
S':'
asbag48
(g69
g50
NtRp1614
(dp1615
g53
(dp1616
sg62
g1601
sg55
(lp1617
g48
(g49
g50
NtRp1618
(dp1619
g53
(dp1620
g61
I4
ssg62
g1614
sg55
(lp1621
g48
(g57
g50
NtRp1622
(dp1623
g53
(dp1624
g61
I3
ssg62
Nsg55
(lp1625
g48
(g64
g50
NtRp1626
(dp1627
g53
(dp1628
sg62
g1622
sg55
(lp1629
g48
(g69
g50
NtRp1630
(dp1631
g53
(dp1632
sg62
g1626
sg55
(lp1633
g48
(g49
g50
NtRp1634
(dp1635
g53
(dp1636
g61
I3
ssg62
g1630
sg55
(lp1637
S'1'
asbasbasbag48
(g64
g50
NtRp1638
(dp1639
g53
(dp1640
sg62
g1622
sg55
(lp1641
g48
(g69
g50
NtRp1642
(dp1643
g53
(dp1644
sg62
g1638
sg55
(lp1645
g48
(g49
g50
NtRp1646
(dp1647
g53
(dp1648
g61
I3
ssg62
g1642
sg55
(lp1649
S'99'
p1650
asbasbasbag48
(g64
g50
NtRp1651
(dp1652
g53
(dp1653
sg62
g1622
sg55
(lp1654
g48
(g69
g50
NtRp1655
(dp1656
g53
(dp1657
sg62
g1651
sg55
(lp1658
g48
(g49
g50
NtRp1659
(dp1660
g53
(dp1661
g61
I3
ssg62
g1655
sg55
(lp1662
S'2'
asbasbasbag48
(g64
g50
NtRp1663
(dp1664
g53
(dp1665
sg62
g1622
sg55
(lp1666
g48
(g69
g50
NtRp1667
(dp1668
g53
(dp1669
sg62
g1663
sg55
(lp1670
g48
(g49
g50
NtRp1671
(dp1672
g53
(dp1673
g61
I3
ssg62
g1667
sg55
(lp1674
S'datetime.datetime(2011, 9, 26, 6, 55, 33)'
p1675
asbasbasbag48
(g64
g50
NtRp1676
(dp1677
g53
(dp1678
sg62
g1622
sg55
(lp1679
g48
(g69
g50
NtRp1680
(dp1681
g53
(dp1682
sg62
g1676
sg55
(lp1683
g48
(g49
g50
NtRp1684
(dp1685
g53
(dp1686
g61
I3
ssg62
g1680
sg55
(lp1687
S'stable'
p1688
asbasbasbasbasbasbasbag48
(g64
g50
NtRp1689
(dp1690
g53
(dp1691
sg62
g917
sg55
(lp1692
g48
(g69
g50
NtRp1693
(dp1694
g53
(dp1695
g73
g74
ssg62
g1689
sg55
(lp1696
S'wsgi_errors'
p1697
asbag48
(g69
g50
NtRp1698
(dp1699
g53
(dp1700
g80
g81
ssg62
g1689
sg55
(lp1701
S':'
asbag48
(g69
g50
NtRp1702
(dp1703
g53
(dp1704
sg62
g1689
sg55
(lp1705
g48
(g49
g50
NtRp1706
(dp1707
g53
(dp1708
g61
I4
ssg62
g1702
sg55
(lp1709
S"<open file '<stderr>', mode 'w' at 0x01D300B0>"
p1710
asbasbasbag48
(g64
g50
NtRp1711
(dp1712
g53
(dp1713
sg62
g917
sg55
(lp1714
g48
(g69
g50
NtRp1715
(dp1716
g53
(dp1717
g73
g74
ssg62
g1711
sg55
(lp1718
S'wsgi_file_wrapper'
p1719
asbag48
(g69
g50
NtRp1720
(dp1721
g53
(dp1722
g80
g81
ssg62
g1711
sg55
(lp1723
S':'
asbag48
(g69
g50
NtRp1724
(dp1725
g53
(dp1726
sg62
g1711
sg55
(lp1727
g48
(g49
g50
NtRp1728
(dp1729
g53
(dp1730
g61
I4
ssg62
g1724
sg55
(lp1731
S'<class wsgiref.util.FileWrapper at 0x0318A600>'
p1732
asbasbasbag48
(g64
g50
NtRp1733
(dp1734
g53
(dp1735
sg62
g917
sg55
(lp1736
g48
(g69
g50
NtRp1737
(dp1738
g53
(dp1739
g73
g74
ssg62
g1733
sg55
(lp1740
S'wsgi_input'
p1741
asbag48
(g69
g50
NtRp1742
(dp1743
g53
(dp1744
g80
g81
ssg62
g1733
sg55
(lp1745
S':'
asbag48
(g69
g50
NtRp1746
(dp1747
g53
(dp1748
sg62
g1733
sg55
(lp1749
g48
(g49
g50
NtRp1750
(dp1751
g53
(dp1752
g61
I4
ssg62
g1746
sg55
(lp1753
S'<socket._fileobject object at 0x07D0E4B0>'
p1754
asbasbasbag48
(g64
g50
NtRp1755
(dp1756
g53
(dp1757
sg62
g917
sg55
(lp1758
g48
(g69
g50
NtRp1759
(dp1760
g53
(dp1761
g73
g74
ssg62
g1755
sg55
(lp1762
S'wsgi_multiprocess'
p1763
asbag48
(g69
g50
NtRp1764
(dp1765
g53
(dp1766
g80
g81
ssg62
g1755
sg55
(lp1767
S':'
asbag48
(g69
g50
NtRp1768
(dp1769
g53
(dp1770
sg62
g1755
sg55
(lp1771
g48
(g49
g50
NtRp1772
(dp1773
g53
(dp1774
g61
I4
ssg62
g1768
sg55
(lp1775
g91
asbasbasbag48
(g64
g50
NtRp1776
(dp1777
g53
(dp1778
sg62
g917
sg55
(lp1779
g48
(g69
g50
NtRp1780
(dp1781
g53
(dp1782
g73
g74
ssg62
g1776
sg55
(lp1783
S'wsgi_multithread'
p1784
asbag48
(g69
g50
NtRp1785
(dp1786
g53
(dp1787
g80
g81
ssg62
g1776
sg55
(lp1788
S':'
asbag48
(g69
g50
NtRp1789
(dp1790
g53
(dp1791
sg62
g1776
sg55
(lp1792
g48
(g49
g50
NtRp1793
(dp1794
g53
(dp1795
g61
I4
ssg62
g1789
sg55
(lp1796
S'True'
p1797
asbasbasbag48
(g64
g50
NtRp1798
(dp1799
g53
(dp1800
sg62
g917
sg55
(lp1801
g48
(g69
g50
NtRp1802
(dp1803
g53
(dp1804
g73
g74
ssg62
g1798
sg55
(lp1805
S'wsgi_run_once'
p1806
asbag48
(g69
g50
NtRp1807
(dp1808
g53
(dp1809
g80
g81
ssg62
g1798
sg55
(lp1810
S':'
asbag48
(g69
g50
NtRp1811
(dp1812
g53
(dp1813
sg62
g1798
sg55
(lp1814
g48
(g49
g50
NtRp1815
(dp1816
g53
(dp1817
g61
I4
ssg62
g1811
sg55
(lp1818
g91
asbasbasbag48
(g64
g50
NtRp1819
(dp1820
g53
(dp1821
sg62
g917
sg55
(lp1822
g48
(g69
g50
NtRp1823
(dp1824
g53
(dp1825
g73
g74
ssg62
g1819
sg55
(lp1826
S'wsgi_url_scheme'
p1827
asbag48
(g69
g50
NtRp1828
(dp1829
g53
(dp1830
g80
g81
ssg62
g1819
sg55
(lp1831
S':'
asbag48
(g69
g50
NtRp1832
(dp1833
g53
(dp1834
sg62
g1819
sg55
(lp1835
g48
(g49
g50
NtRp1836
(dp1837
g53
(dp1838
g61
I4
ssg62
g1832
sg55
(lp1839
S'http'
p1840
asbasbasbag48
(g64
g50
NtRp1841
(dp1842
g53
(dp1843
sg62
g917
sg55
(lp1844
g48
(g69
g50
NtRp1845
(dp1846
g53
(dp1847
g73
g74
ssg62
g1841
sg55
(lp1848
S'wsgi_version'
p1849
asbag48
(g69
g50
NtRp1850
(dp1851
g53
(dp1852
g80
g81
ssg62
g1841
sg55
(lp1853
S':'
asbag48
(g69
g50
NtRp1854
(dp1855
g53
(dp1856
sg62
g1841
sg55
(lp1857
g48
(g49
g50
NtRp1858
(dp1859
g53
(dp1860
g61
I4
ssg62
g1854
sg55
(lp1861
g48
(g57
g50
NtRp1862
(dp1863
g53
(dp1864
g61
I3
ssg62
Nsg55
(lp1865
g48
(g64
g50
NtRp1866
(dp1867
g53
(dp1868
sg62
g1862
sg55
(lp1869
g48
(g69
g50
NtRp1870
(dp1871
g53
(dp1872
sg62
g1866
sg55
(lp1873
g48
(g49
g50
NtRp1874
(dp1875
g53
(dp1876
g61
I3
ssg62
g1870
sg55
(lp1877
S'1'
asbasbasbag48
(g64
g50
NtRp1878
(dp1879
g53
(dp1880
sg62
g1862
sg55
(lp1881
g48
(g69
g50
NtRp1882
(dp1883
g53
(dp1884
sg62
g1878
sg55
(lp1885
g48
(g49
g50
NtRp1886
(dp1887
g53
(dp1888
g61
I3
ssg62
g1882
sg55
(lp1889
S'0'
asbasbasbasbasbasbasbasbasbasbasbag48
(g64
g50
NtRp1890
(dp1891
g53
(dp1892
sg62
g58
sg55
(lp1893
g48
(g69
g50
NtRp1894
(dp1895
g53
(dp1896
g73
g74
ssg62
g1890
sg55
(lp1897
S'extension'
p1898
asbag48
(g69
g50
NtRp1899
(dp1900
g53
(dp1901
g80
g81
ssg62
g1890
sg55
(lp1902
S':'
asbag48
(g69
g50
NtRp1903
(dp1904
g53
(dp1905
sg62
g1890
sg55
(lp1906
g48
(g49
g50
NtRp1907
(dp1908
g53
(dp1909
g61
I5
ssg62
g1903
sg55
(lp1910
S'txt'
p1911
asbasbasbag48
(g64
g50
NtRp1912
(dp1913
g53
(dp1914
sg62
g58
sg55
(lp1915
g48
(g69
g50
NtRp1916
(dp1917
g53
(dp1918
g73
g74
ssg62
g1912
sg55
(lp1919
S'folder'
p1920
asbag48
(g69
g50
NtRp1921
(dp1922
g53
(dp1923
g80
g81
ssg62
g1912
sg55
(lp1924
S':'
asbag48
(g69
g50
NtRp1925
(dp1926
g53
(dp1927
sg62
g1912
sg55
(lp1928
g48
(g49
g50
NtRp1929
(dp1930
g53
(dp1931
g61
I5
ssg62
g1925
sg55
(lp1932
S'D:\\git_projs\\Gabblista\\web2py\\web2py\\applications\\Gabb1\\'
p1933
asbasbasbag48
(g64
g50
NtRp1934
(dp1935
g53
(dp1936
sg62
g58
sg55
(lp1937
g48
(g69
g50
NtRp1938
(dp1939
g53
(dp1940
g73
g74
ssg62
g1934
sg55
(lp1941
S'function'
p1942
asbag48
(g69
g50
NtRp1943
(dp1944
g53
(dp1945
g80
g81
ssg62
g1934
sg55
(lp1946
S':'
asbag48
(g69
g50
NtRp1947
(dp1948
g53
(dp1949
sg62
g1934
sg55
(lp1950
g48
(g49
g50
NtRp1951
(dp1952
g53
(dp1953
g61
I5
ssg62
g1947
sg55
(lp1954
S'serve_player_data'
p1955
asbasbasbag48
(g64
g50
NtRp1956
(dp1957
g53
(dp1958
sg62
g58
sg55
(lp1959
g48
(g69
g50
NtRp1960
(dp1961
g53
(dp1962
g73
g74
ssg62
g1956
sg55
(lp1963
S'get_vars'
p1964
asbag48
(g69
g50
NtRp1965
(dp1966
g53
(dp1967
g80
g81
ssg62
g1956
sg55
(lp1968
S':'
asbag48
(g69
g50
NtRp1969
(dp1970
g53
(dp1971
sg62
g1956
sg55
(lp1972
g48
(g49
g50
NtRp1973
(dp1974
g53
(dp1975
g61
I5
ssg62
g1969
sg55
(lp1976
g48
(g57
g50
NtRp1977
(dp1978
g53
(dp1979
g61
I4
ssg62
Nsg55
(lp1980
g48
(g64
g50
NtRp1981
(dp1982
g53
(dp1983
sg62
g1977
sg55
(lp1984
g48
(g69
g50
NtRp1985
(dp1986
g53
(dp1987
g73
g74
ssg62
g1981
sg55
(lp1988
S'game_ID'
p1989
asbag48
(g69
g50
NtRp1990
(dp1991
g53
(dp1992
g80
g81
ssg62
g1981
sg55
(lp1993
S':'
asbag48
(g69
g50
NtRp1994
(dp1995
g53
(dp1996
sg62
g1981
sg55
(lp1997
g48
(g49
g50
NtRp1998
(dp1999
g53
(dp2000
g61
I4
ssg62
g1994
sg55
(lp2001
S'0'
asbasbasbag48
(g64
g50
NtRp2002
(dp2003
g53
(dp2004
sg62
g1977
sg55
(lp2005
g48
(g69
g50
NtRp2006
(dp2007
g53
(dp2008
g73
g74
ssg62
g2002
sg55
(lp2009
S'opponent_ID'
p2010
asbag48
(g69
g50
NtRp2011
(dp2012
g53
(dp2013
g80
g81
ssg62
g2002
sg55
(lp2014
S':'
asbag48
(g69
g50
NtRp2015
(dp2016
g53
(dp2017
sg62
g2002
sg55
(lp2018
g48
(g49
g50
NtRp2019
(dp2020
g53
(dp2021
g61
I4
ssg62
g2015
sg55
(lp2022
S'1'
asbasbasbag48
(g64
g50
NtRp2023
(dp2024
g53
(dp2025
sg62
g1977
sg55
(lp2026
g48
(g69
g50
NtRp2027
(dp2028
g53
(dp2029
g73
g74
ssg62
g2023
sg55
(lp2030
S'player_ID'
p2031
asbag48
(g69
g50
NtRp2032
(dp2033
g53
(dp2034
g80
g81
ssg62
g2023
sg55
(lp2035
S':'
asbag48
(g69
g50
NtRp2036
(dp2037
g53
(dp2038
sg62
g2023
sg55
(lp2039
g48
(g49
g50
NtRp2040
(dp2041
g53
(dp2042
g61
I4
ssg62
g2036
sg55
(lp2043
S'0'
asbasbasbasbasbasbasbag48
(g64
g50
NtRp2044
(dp2045
g53
(dp2046
sg62
g58
sg55
(lp2047
g48
(g69
g50
NtRp2048
(dp2049
g53
(dp2050
g73
g74
ssg62
g2044
sg55
(lp2051
S'global_settings'
p2052
asbag48
(g69
g50
NtRp2053
(dp2054
g53
(dp2055
g80
g81
ssg62
g2044
sg55
(lp2056
S':'
asbag48
(g69
g50
NtRp2057
(dp2058
g53
(dp2059
sg62
g2044
sg55
(lp2060
g48
(g49
g50
NtRp2061
(dp2062
g53
(dp2063
g61
I5
ssg62
g2057
sg55
(lp2064
g48
(g57
g50
NtRp2065
(dp2066
g53
(dp2067
g61
I4
ssg62
Nsg55
(lp2068
g48
(g64
g50
NtRp2069
(dp2070
g53
(dp2071
sg62
g2065
sg55
(lp2072
g48
(g69
g50
NtRp2073
(dp2074
g53
(dp2075
g73
g74
ssg62
g2069
sg55
(lp2076
g929
asbag48
(g69
g50
NtRp2077
(dp2078
g53
(dp2079
g80
g81
ssg62
g2069
sg55
(lp2080
S':'
asbag48
(g69
g50
NtRp2081
(dp2082
g53
(dp2083
sg62
g2069
sg55
(lp2084
g48
(g49
g50
NtRp2085
(dp2086
g53
(dp2087
g61
I4
ssg62
g2081
sg55
(lp2088
S"set(['D:\\\\git_projs\\\\Gabblista\\\\web2py\\\\web2py\\\\applications\\\\gabb1\\\\', 'D:\\\\git_projs\\\\Gabblista\\\\web2py\\\\web2py\\\\applications\\\\Gabb1\\\\', 'D:\\\\git_projs\\\\Gabblista\\\\web2py\\\\web2py\\\\applications\\\\admin\\\\', 'D:\\\\git_projs\\\\Gabblista\\\\web2py\\\\web2py\\\\applications\\\\welcome\\\\'])"
p2089
asbasbasbag48
(g64
g50
NtRp2090
(dp2091
g53
(dp2092
sg62
g2065
sg55
(lp2093
g48
(g69
g50
NtRp2094
(dp2095
g53
(dp2096
g73
g74
ssg62
g2090
sg55
(lp2097
g951
asbag48
(g69
g50
NtRp2098
(dp2099
g53
(dp2100
g80
g81
ssg62
g2090
sg55
(lp2101
S':'
asbag48
(g69
g50
NtRp2102
(dp2103
g53
(dp2104
sg62
g2090
sg55
(lp2105
g48
(g49
g50
NtRp2106
(dp2107
g53
(dp2108
g61
I4
ssg62
g2102
sg55
(lp2109
g964
asbasbasbag48
(g64
g50
NtRp2110
(dp2111
g53
(dp2112
sg62
g2065
sg55
(lp2113
g48
(g69
g50
NtRp2114
(dp2115
g53
(dp2116
g73
g74
ssg62
g2110
sg55
(lp2117
g973
asbag48
(g69
g50
NtRp2118
(dp2119
g53
(dp2120
g80
g81
ssg62
g2110
sg55
(lp2121
S':'
asbag48
(g69
g50
NtRp2122
(dp2123
g53
(dp2124
sg62
g2110
sg55
(lp2125
g48
(g49
g50
NtRp2126
(dp2127
g53
(dp2128
g61
I4
ssg62
g2122
sg55
(lp2129
g48
(g57
g50
NtRp2130
(dp2131
g53
(dp2132
g61
I3
ssg62
Nsg55
(lp2133
sbasbasbasbag48
(g64
g50
NtRp2134
(dp2135
g53
(dp2136
sg62
g2065
sg55
(lp2137
g48
(g69
g50
NtRp2138
(dp2139
g53
(dp2140
g73
g74
ssg62
g2134
sg55
(lp2141
g998
asbag48
(g69
g50
NtRp2142
(dp2143
g53
(dp2144
g80
g81
ssg62
g2134
sg55
(lp2145
S':'
asbag48
(g69
g50
NtRp2146
(dp2147
g53
(dp2148
sg62
g2134
sg55
(lp2149
g48
(g49
g50
NtRp2150
(dp2151
g53
(dp2152
g61
I4
ssg62
g2146
sg55
(lp2153
S"<Values at 0x325b800: {'verbose': False, 'ip': '127.0.0.1', 'shutdown_timeout': 5, 'taskbar': False, 'nocron': False, 'pid_filename': 'httpserver.pid', 'maxthreads': None, 'softcron': False, 'server_name': 'John-PC', 'bpython': False, 'nogui': False, 'port': 8000, 'extcron': False, 'debuglevel': 30, 'test': None, 'folder': 'D:\\\\git_projs\\\\Gabblista\\\\web2py\\\\web2py', 'config': '', 'import_models': False, 'winservice': '', 'shell': None, 'run': '', 'log_filename': 'httpserver.log', 'args': [''], 'ssl_ca_certificate': None, 'scheduler': None, 'profiler_filename': None, 'ssl_private_key': '', 'password': '<ask>', 'request_queue_size': 5, 'ssl_certificate': '', 'cronjob': False, 'plain': False, 'quiet': False, 'interfaces': None, 'minthreads': None, 'timeout': 10, 'numthreads': None, 'nobanner': False}>"
p2154
asbasbasbag48
(g64
g50
NtRp2155
(dp2156
g53
(dp2157
sg62
g2065
sg55
(lp2158
g48
(g69
g50
NtRp2159
(dp2160
g53
(dp2161
g73
g74
ssg62
g2155
sg55
(lp2162
g1020
asbag48
(g69
g50
NtRp2163
(dp2164
g53
(dp2165
g80
g81
ssg62
g2155
sg55
(lp2166
S':'
asbag48
(g69
g50
NtRp2167
(dp2168
g53
(dp2169
sg62
g2155
sg55
(lp2170
g48
(g49
g50
NtRp2171
(dp2172
g53
(dp2173
g61
I4
ssg62
g2167
sg55
(lp2174
S'set([])'
p2175
asbasbasbag48
(g64
g50
NtRp2176
(dp2177
g53
(dp2178
sg62
g2065
sg55
(lp2179
g48
(g69
g50
NtRp2180
(dp2181
g53
(dp2182
g73
g74
ssg62
g2176
sg55
(lp2183
g1042
asbag48
(g69
g50
NtRp2184
(dp2185
g53
(dp2186
g80
g81
ssg62
g2176
sg55
(lp2187
S':'
asbag48
(g69
g50
NtRp2188
(dp2189
g53
(dp2190
sg62
g2176
sg55
(lp2191
g48
(g49
g50
NtRp2192
(dp2193
g53
(dp2194
g61
I4
ssg62
g2188
sg55
(lp2195
g91
asbasbasbag48
(g64
g50
NtRp2196
(dp2197
g53
(dp2198
sg62
g2065
sg55
(lp2199
g48
(g69
g50
NtRp2200
(dp2201
g53
(dp2202
g73
g74
ssg62
g2196
sg55
(lp2203
g1063
asbag48
(g69
g50
NtRp2204
(dp2205
g53
(dp2206
g80
g81
ssg62
g2196
sg55
(lp2207
S':'
asbag48
(g69
g50
NtRp2208
(dp2209
g53
(dp2210
sg62
g2196
sg55
(lp2211
g48
(g49
g50
NtRp2212
(dp2213
g53
(dp2214
g61
I4
ssg62
g2208
sg55
(lp2215
g1076
asbasbasbag48
(g64
g50
NtRp2216
(dp2217
g53
(dp2218
sg62
g2065
sg55
(lp2219
g48
(g69
g50
NtRp2220
(dp2221
g53
(dp2222
g73
g74
ssg62
g2216
sg55
(lp2223
g1283
asbag48
(g69
g50
NtRp2224
(dp2225
g53
(dp2226
g80
g81
ssg62
g2216
sg55
(lp2227
S':'
asbag48
(g69
g50
NtRp2228
(dp2229
g53
(dp2230
sg62
g2216
sg55
(lp2231
g48
(g49
g50
NtRp2232
(dp2233
g53
(dp2234
g61
I4
ssg62
g2228
sg55
(lp2235
g91
asbasbasbag48
(g64
g50
NtRp2236
(dp2237
g53
(dp2238
sg62
g2065
sg55
(lp2239
g48
(g69
g50
NtRp2240
(dp2241
g53
(dp2242
g73
g74
ssg62
g2236
sg55
(lp2243
g1544
asbag48
(g69
g50
NtRp2244
(dp2245
g53
(dp2246
g80
g81
ssg62
g2236
sg55
(lp2247
S':'
asbag48
(g69
g50
NtRp2248
(dp2249
g53
(dp2250
sg62
g2236
sg55
(lp2251
g48
(g49
g50
NtRp2252
(dp2253
g53
(dp2254
g61
I4
ssg62
g2248
sg55
(lp2255
g1557
asbasbasbag48
(g64
g50
NtRp2256
(dp2257
g53
(dp2258
sg62
g2065
sg55
(lp2259
g48
(g69
g50
NtRp2260
(dp2261
g53
(dp2262
g73
g74
ssg62
g2256
sg55
(lp2263
g1609
asbag48
(g69
g50
NtRp2264
(dp2265
g53
(dp2266
g80
g81
ssg62
g2256
sg55
(lp2267
S':'
asbag48
(g69
g50
NtRp2268
(dp2269
g53
(dp2270
sg62
g2256
sg55
(lp2271
g48
(g49
g50
NtRp2272
(dp2273
g53
(dp2274
g61
I4
ssg62
g2268
sg55
(lp2275
g48
(g57
g50
NtRp2276
(dp2277
g53
(dp2278
g61
I3
ssg62
Nsg55
(lp2279
g48
(g64
g50
NtRp2280
(dp2281
g53
(dp2282
sg62
g2276
sg55
(lp2283
g48
(g69
g50
NtRp2284
(dp2285
g53
(dp2286
sg62
g2280
sg55
(lp2287
g48
(g49
g50
NtRp2288
(dp2289
g53
(dp2290
g61
I3
ssg62
g2284
sg55
(lp2291
S'1'
asbasbasbag48
(g64
g50
NtRp2292
(dp2293
g53
(dp2294
sg62
g2276
sg55
(lp2295
g48
(g69
g50
NtRp2296
(dp2297
g53
(dp2298
sg62
g2292
sg55
(lp2299
g48
(g49
g50
NtRp2300
(dp2301
g53
(dp2302
g61
I3
ssg62
g2296
sg55
(lp2303
S'99'
p2304
asbasbasbag48
(g64
g50
NtRp2305
(dp2306
g53
(dp2307
sg62
g2276
sg55
(lp2308
g48
(g69
g50
NtRp2309
(dp2310
g53
(dp2311
sg62
g2305
sg55
(lp2312
g48
(g49
g50
NtRp2313
(dp2314
g53
(dp2315
g61
I3
ssg62
g2309
sg55
(lp2316
S'2'
asbasbasbag48
(g64
g50
NtRp2317
(dp2318
g53
(dp2319
sg62
g2276
sg55
(lp2320
g48
(g69
g50
NtRp2321
(dp2322
g53
(dp2323
sg62
g2317
sg55
(lp2324
g48
(g49
g50
NtRp2325
(dp2326
g53
(dp2327
g61
I3
ssg62
g2321
sg55
(lp2328
S'datetime.datetime(2011, 9, 26, 6, 55, 33)'
p2329
asbasbasbag48
(g64
g50
NtRp2330
(dp2331
g53
(dp2332
sg62
g2276
sg55
(lp2333
g48
(g69
g50
NtRp2334
(dp2335
g53
(dp2336
sg62
g2330
sg55
(lp2337
g48
(g49
g50
NtRp2338
(dp2339
g53
(dp2340
g61
I3
ssg62
g2334
sg55
(lp2341
g1688
asbasbasbasbasbasbasbasbasbasbasbag48
(g64
g50
NtRp2342
(dp2343
g53
(dp2344
sg62
g58
sg55
(lp2345
g48
(g69
g50
NtRp2346
(dp2347
g53
(dp2348
g73
g74
ssg62
g2342
sg55
(lp2349
S'is_https'
p2350
asbag48
(g69
g50
NtRp2351
(dp2352
g53
(dp2353
g80
g81
ssg62
g2342
sg55
(lp2354
S':'
asbag48
(g69
g50
NtRp2355
(dp2356
g53
(dp2357
sg62
g2342
sg55
(lp2358
g48
(g49
g50
NtRp2359
(dp2360
g53
(dp2361
g61
I5
ssg62
g2355
sg55
(lp2362
g91
asbasbasbag48
(g64
g50
NtRp2363
(dp2364
g53
(dp2365
sg62
g58
sg55
(lp2366
g48
(g69
g50
NtRp2367
(dp2368
g53
(dp2369
g73
g74
ssg62
g2363
sg55
(lp2370
S'is_local'
p2371
asbag48
(g69
g50
NtRp2372
(dp2373
g53
(dp2374
g80
g81
ssg62
g2363
sg55
(lp2375
S':'
asbag48
(g69
g50
NtRp2376
(dp2377
g53
(dp2378
sg62
g2363
sg55
(lp2379
g48
(g49
g50
NtRp2380
(dp2381
g53
(dp2382
g61
I5
ssg62
g2376
sg55
(lp2383
g1797
asbasbasbag48
(g64
g50
NtRp2384
(dp2385
g53
(dp2386
sg62
g58
sg55
(lp2387
g48
(g69
g50
NtRp2388
(dp2389
g53
(dp2390
g73
g74
ssg62
g2384
sg55
(lp2391
S'is_restful'
p2392
asbag48
(g69
g50
NtRp2393
(dp2394
g53
(dp2395
g80
g81
ssg62
g2384
sg55
(lp2396
S':'
asbag48
(g69
g50
NtRp2397
(dp2398
g53
(dp2399
sg62
g2384
sg55
(lp2400
g48
(g49
g50
NtRp2401
(dp2402
g53
(dp2403
g61
I5
ssg62
g2397
sg55
(lp2404
g91
asbasbasbag48
(g64
g50
NtRp2405
(dp2406
g53
(dp2407
sg62
g58
sg55
(lp2408
g48
(g69
g50
NtRp2409
(dp2410
g53
(dp2411
g73
g74
ssg62
g2405
sg55
(lp2412
S'now'
p2413
asbag48
(g69
g50
NtRp2414
(dp2415
g53
(dp2416
g80
g81
ssg62
g2405
sg55
(lp2417
S':'
asbag48
(g69
g50
NtRp2418
(dp2419
g53
(dp2420
sg62
g2405
sg55
(lp2421
g48
(g49
g50
NtRp2422
(dp2423
g53
(dp2424
g61
I5
ssg62
g2418
sg55
(lp2425
S'datetime.datetime(2012, 1, 19, 14, 49, 38, 743000)'
p2426
asbasbasbag48
(g64
g50
NtRp2427
(dp2428
g53
(dp2429
sg62
g58
sg55
(lp2430
g48
(g69
g50
NtRp2431
(dp2432
g53
(dp2433
g73
g74
ssg62
g2427
sg55
(lp2434
S'post_vars'
p2435
asbag48
(g69
g50
NtRp2436
(dp2437
g53
(dp2438
g80
g81
ssg62
g2427
sg55
(lp2439
S':'
asbag48
(g69
g50
NtRp2440
(dp2441
g53
(dp2442
sg62
g2427
sg55
(lp2443
g48
(g49
g50
NtRp2444
(dp2445
g53
(dp2446
g61
I5
ssg62
g2440
sg55
(lp2447
g48
(g57
g50
NtRp2448
(dp2449
g53
(dp2450
g61
I4
ssg62
Nsg55
(lp2451
sbasbasbasbag48
(g64
g50
NtRp2452
(dp2453
g53
(dp2454
sg62
g58
sg55
(lp2455
g48
(g69
g50
NtRp2456
(dp2457
g53
(dp2458
g73
g74
ssg62
g2452
sg55
(lp2459
S'raw_extension'
p2460
asbag48
(g69
g50
NtRp2461
(dp2462
g53
(dp2463
g80
g81
ssg62
g2452
sg55
(lp2464
S':'
asbag48
(g69
g50
NtRp2465
(dp2466
g53
(dp2467
sg62
g2452
sg55
(lp2468
g48
(g49
g50
NtRp2469
(dp2470
g53
(dp2471
g61
I5
ssg62
g2465
sg55
(lp2472
g1911
asbasbasbag48
(g64
g50
NtRp2473
(dp2474
g53
(dp2475
sg62
g58
sg55
(lp2476
g48
(g69
g50
NtRp2477
(dp2478
g53
(dp2479
g73
g74
ssg62
g2473
sg55
(lp2480
S'url'
p2481
asbag48
(g69
g50
NtRp2482
(dp2483
g53
(dp2484
g80
g81
ssg62
g2473
sg55
(lp2485
S':'
asbag48
(g69
g50
NtRp2486
(dp2487
g53
(dp2488
sg62
g2473
sg55
(lp2489
g48
(g49
g50
NtRp2490
(dp2491
g53
(dp2492
g61
I5
ssg62
g2486
sg55
(lp2493
S'/Gabb1/fb_serv/serve_player_data.txt'
p2494
asbasbasbag48
(g64
g50
NtRp2495
(dp2496
g53
(dp2497
sg62
g58
sg55
(lp2498
g48
(g69
g50
NtRp2499
(dp2500
g53
(dp2501
g73
g74
ssg62
g2495
sg55
(lp2502
S'utcnow'
p2503
asbag48
(g69
g50
NtRp2504
(dp2505
g53
(dp2506
g80
g81
ssg62
g2495
sg55
(lp2507
S':'
asbag48
(g69
g50
NtRp2508
(dp2509
g53
(dp2510
sg62
g2495
sg55
(lp2511
g48
(g49
g50
NtRp2512
(dp2513
g53
(dp2514
g61
I5
ssg62
g2508
sg55
(lp2515
S'datetime.datetime(2012, 1, 19, 19, 49, 38, 743000)'
p2516
asbasbasbag48
(g64
g50
NtRp2517
(dp2518
g53
(dp2519
sg62
g58
sg55
(lp2520
g48
(g69
g50
NtRp2521
(dp2522
g53
(dp2523
g73
g74
ssg62
g2517
sg55
(lp2524
S'uuid'
p2525
asbag48
(g69
g50
NtRp2526
(dp2527
g53
(dp2528
g80
g81
ssg62
g2517
sg55
(lp2529
S':'
asbag48
(g69
g50
NtRp2530
(dp2531
g53
(dp2532
sg62
g2517
sg55
(lp2533
g48
(g49
g50
NtRp2534
(dp2535
g53
(dp2536
g61
I5
ssg62
g2530
sg55
(lp2537
S'Gabb1/127.0.0.1.2012-01-19.14-49-38.1a26d3c6-9265-4c88-856e-456e1f6426b9'
p2538
asbasbasbag48
(g64
g50
NtRp2539
(dp2540
g53
(dp2541
sg62
g58
sg55
(lp2542
g48
(g69
g50
NtRp2543
(dp2544
g53
(dp2545
g73
g74
ssg62
g2539
sg55
(lp2546
S'vars'
p2547
asbag48
(g69
g50
NtRp2548
(dp2549
g53
(dp2550
g80
g81
ssg62
g2539
sg55
(lp2551
S':'
asbag48
(g69
g50
NtRp2552
(dp2553
g53
(dp2554
sg62
g2539
sg55
(lp2555
g48
(g49
g50
NtRp2556
(dp2557
g53
(dp2558
g61
I5
ssg62
g2552
sg55
(lp2559
g48
(g57
g50
NtRp2560
(dp2561
g53
(dp2562
g61
I4
ssg62
Nsg55
(lp2563
g48
(g64
g50
NtRp2564
(dp2565
g53
(dp2566
sg62
g2560
sg55
(lp2567
g48
(g69
g50
NtRp2568
(dp2569
g53
(dp2570
g73
g74
ssg62
g2564
sg55
(lp2571
g1989
asbag48
(g69
g50
NtRp2572
(dp2573
g53
(dp2574
g80
g81
ssg62
g2564
sg55
(lp2575
S':'
asbag48
(g69
g50
NtRp2576
(dp2577
g53
(dp2578
sg62
g2564
sg55
(lp2579
g48
(g49
g50
NtRp2580
(dp2581
g53
(dp2582
g61
I4
ssg62
g2576
sg55
(lp2583
S'0'
asbasbasbag48
(g64
g50
NtRp2584
(dp2585
g53
(dp2586
sg62
g2560
sg55
(lp2587
g48
(g69
g50
NtRp2588
(dp2589
g53
(dp2590
g73
g74
ssg62
g2584
sg55
(lp2591
g2010
asbag48
(g69
g50
NtRp2592
(dp2593
g53
(dp2594
g80
g81
ssg62
g2584
sg55
(lp2595
S':'
asbag48
(g69
g50
NtRp2596
(dp2597
g53
(dp2598
sg62
g2584
sg55
(lp2599
g48
(g49
g50
NtRp2600
(dp2601
g53
(dp2602
g61
I4
ssg62
g2596
sg55
(lp2603
S'1'
asbasbasbag48
(g64
g50
NtRp2604
(dp2605
g53
(dp2606
sg62
g2560
sg55
(lp2607
g48
(g69
g50
NtRp2608
(dp2609
g53
(dp2610
g73
g74
ssg62
g2604
sg55
(lp2611
g2031
asbag48
(g69
g50
NtRp2612
(dp2613
g53
(dp2614
g80
g81
ssg62
g2604
sg55
(lp2615
S':'
asbag48
(g69
g50
NtRp2616
(dp2617
g53
(dp2618
sg62
g2604
sg55
(lp2619
g48
(g49
g50
NtRp2620
(dp2621
g53
(dp2622
g61
I4
ssg62
g2616
sg55
(lp2623
S'0'
asbasbasbasbasbasbasbag48
(g64
g50
NtRp2624
(dp2625
g53
(dp2626
sg62
g58
sg55
(lp2627
g48
(g69
g50
NtRp2628
(dp2629
g53
(dp2630
g73
g74
ssg62
g2624
sg55
(lp2631
S'wsgi'
p2632
asbag48
(g69
g50
NtRp2633
(dp2634
g53
(dp2635
g80
g81
ssg62
g2624
sg55
(lp2636
S':'
asbag48
(g69
g50
NtRp2637
(dp2638
g53
(dp2639
sg62
g2624
sg55
(lp2640
g48
(g49
g50
NtRp2641
(dp2642
g53
(dp2643
g61
I5
ssg62
g2637
sg55
(lp2644
g48
(g57
g50
NtRp2645
(dp2646
g53
(dp2647
g61
I4
ssg62
Nsg55
(lp2648
g48
(g64
g50
NtRp2649
(dp2650
g53
(dp2651
sg62
g2645
sg55
(lp2652
g48
(g69
g50
NtRp2653
(dp2654
g53
(dp2655
g73
g74
ssg62
g2649
sg55
(lp2656
S'environ'
p2657
asbag48
(g69
g50
NtRp2658
(dp2659
g53
(dp2660
g80
g81
ssg62
g2649
sg55
(lp2661
S':'
asbag48
(g69
g50
NtRp2662
(dp2663
g53
(dp2664
sg62
g2649
sg55
(lp2665
g48
(g49
g50
NtRp2666
(dp2667
g53
(dp2668
g61
I4
ssg62
g2662
sg55
(lp2669
g48
(g57
g50
NtRp2670
(dp2671
g53
(dp2672
g61
I3
ssg62
Nsg55
(lp2673
g48
(g64
g50
NtRp2674
(dp2675
g53
(dp2676
sg62
g2670
sg55
(lp2677
g48
(g69
g50
NtRp2678
(dp2679
g53
(dp2680
g73
g74
ssg62
g2674
sg55
(lp2681
S'HTTP_ACCEPT'
p2682
asbag48
(g69
g50
NtRp2683
(dp2684
g53
(dp2685
g80
g81
ssg62
g2674
sg55
(lp2686
S':'
asbag48
(g69
g50
NtRp2687
(dp2688
g53
(dp2689
sg62
g2674
sg55
(lp2690
g48
(g49
g50
NtRp2691
(dp2692
g53
(dp2693
g61
I3
ssg62
g2687
sg55
(lp2694
g1098
asbasbasbag48
(g64
g50
NtRp2695
(dp2696
g53
(dp2697
sg62
g2670
sg55
(lp2698
g48
(g69
g50
NtRp2699
(dp2700
g53
(dp2701
g73
g74
ssg62
g2695
sg55
(lp2702
S'HTTP_ACCEPT_CHARSET'
p2703
asbag48
(g69
g50
NtRp2704
(dp2705
g53
(dp2706
g80
g81
ssg62
g2695
sg55
(lp2707
S':'
asbag48
(g69
g50
NtRp2708
(dp2709
g53
(dp2710
sg62
g2695
sg55
(lp2711
g48
(g49
g50
NtRp2712
(dp2713
g53
(dp2714
g61
I3
ssg62
g2708
sg55
(lp2715
g1120
asbasbasbag48
(g64
g50
NtRp2716
(dp2717
g53
(dp2718
sg62
g2670
sg55
(lp2719
g48
(g69
g50
NtRp2720
(dp2721
g53
(dp2722
g73
g74
ssg62
g2716
sg55
(lp2723
S'HTTP_ACCEPT_ENCODING'
p2724
asbag48
(g69
g50
NtRp2725
(dp2726
g53
(dp2727
g80
g81
ssg62
g2716
sg55
(lp2728
S':'
asbag48
(g69
g50
NtRp2729
(dp2730
g53
(dp2731
sg62
g2716
sg55
(lp2732
g48
(g49
g50
NtRp2733
(dp2734
g53
(dp2735
g61
I3
ssg62
g2729
sg55
(lp2736
g1142
asbasbasbag48
(g64
g50
NtRp2737
(dp2738
g53
(dp2739
sg62
g2670
sg55
(lp2740
g48
(g69
g50
NtRp2741
(dp2742
g53
(dp2743
g73
g74
ssg62
g2737
sg55
(lp2744
S'HTTP_ACCEPT_LANGUAGE'
p2745
asbag48
(g69
g50
NtRp2746
(dp2747
g53
(dp2748
g80
g81
ssg62
g2737
sg55
(lp2749
S':'
asbag48
(g69
g50
NtRp2750
(dp2751
g53
(dp2752
sg62
g2737
sg55
(lp2753
g48
(g49
g50
NtRp2754
(dp2755
g53
(dp2756
g61
I3
ssg62
g2750
sg55
(lp2757
g1164
asbasbasbag48
(g64
g50
NtRp2758
(dp2759
g53
(dp2760
sg62
g2670
sg55
(lp2761
g48
(g69
g50
NtRp2762
(dp2763
g53
(dp2764
g73
g74
ssg62
g2758
sg55
(lp2765
S'HTTP_CACHE_CONTROL'
p2766
asbag48
(g69
g50
NtRp2767
(dp2768
g53
(dp2769
g80
g81
ssg62
g2758
sg55
(lp2770
S':'
asbag48
(g69
g50
NtRp2771
(dp2772
g53
(dp2773
sg62
g2758
sg55
(lp2774
g48
(g49
g50
NtRp2775
(dp2776
g53
(dp2777
g61
I3
ssg62
g2771
sg55
(lp2778
g1186
asbasbasbag48
(g64
g50
NtRp2779
(dp2780
g53
(dp2781
sg62
g2670
sg55
(lp2782
g48
(g69
g50
NtRp2783
(dp2784
g53
(dp2785
g73
g74
ssg62
g2779
sg55
(lp2786
S'HTTP_CONNECTION'
p2787
asbag48
(g69
g50
NtRp2788
(dp2789
g53
(dp2790
g80
g81
ssg62
g2779
sg55
(lp2791
S':'
asbag48
(g69
g50
NtRp2792
(dp2793
g53
(dp2794
sg62
g2779
sg55
(lp2795
g48
(g49
g50
NtRp2796
(dp2797
g53
(dp2798
g61
I3
ssg62
g2792
sg55
(lp2799
g1208
asbasbasbag48
(g64
g50
NtRp2800
(dp2801
g53
(dp2802
sg62
g2670
sg55
(lp2803
g48
(g69
g50
NtRp2804
(dp2805
g53
(dp2806
g73
g74
ssg62
g2800
sg55
(lp2807
S'HTTP_COOKIE'
p2808
asbag48
(g69
g50
NtRp2809
(dp2810
g53
(dp2811
g80
g81
ssg62
g2800
sg55
(lp2812
S':'
asbag48
(g69
g50
NtRp2813
(dp2814
g53
(dp2815
sg62
g2800
sg55
(lp2816
g48
(g49
g50
NtRp2817
(dp2818
g53
(dp2819
g61
I3
ssg62
g2813
sg55
(lp2820
g1230
asbasbasbag48
(g64
g50
NtRp2821
(dp2822
g53
(dp2823
sg62
g2670
sg55
(lp2824
g48
(g69
g50
NtRp2825
(dp2826
g53
(dp2827
g73
g74
ssg62
g2821
sg55
(lp2828
S'HTTP_HOST'
p2829
asbag48
(g69
g50
NtRp2830
(dp2831
g53
(dp2832
g80
g81
ssg62
g2821
sg55
(lp2833
S':'
asbag48
(g69
g50
NtRp2834
(dp2835
g53
(dp2836
sg62
g2821
sg55
(lp2837
g48
(g49
g50
NtRp2838
(dp2839
g53
(dp2840
g61
I3
ssg62
g2834
sg55
(lp2841
g1252
asbasbasbag48
(g64
g50
NtRp2842
(dp2843
g53
(dp2844
sg62
g2670
sg55
(lp2845
g48
(g69
g50
NtRp2846
(dp2847
g53
(dp2848
g73
g74
ssg62
g2842
sg55
(lp2849
S'HTTP_USER_AGENT'
p2850
asbag48
(g69
g50
NtRp2851
(dp2852
g53
(dp2853
g80
g81
ssg62
g2842
sg55
(lp2854
S':'
asbag48
(g69
g50
NtRp2855
(dp2856
g53
(dp2857
sg62
g2842
sg55
(lp2858
g48
(g49
g50
NtRp2859
(dp2860
g53
(dp2861
g61
I3
ssg62
g2855
sg55
(lp2862
g1274
asbasbasbag48
(g64
g50
NtRp2863
(dp2864
g53
(dp2865
sg62
g2670
sg55
(lp2866
g48
(g69
g50
NtRp2867
(dp2868
g53
(dp2869
g73
g74
ssg62
g2863
sg55
(lp2870
S'PATH_INFO'
p2871
asbag48
(g69
g50
NtRp2872
(dp2873
g53
(dp2874
g80
g81
ssg62
g2863
sg55
(lp2875
S':'
asbag48
(g69
g50
NtRp2876
(dp2877
g53
(dp2878
sg62
g2863
sg55
(lp2879
g48
(g49
g50
NtRp2880
(dp2881
g53
(dp2882
g61
I3
ssg62
g2876
sg55
(lp2883
g1317
asbasbasbag48
(g64
g50
NtRp2884
(dp2885
g53
(dp2886
sg62
g2670
sg55
(lp2887
g48
(g69
g50
NtRp2888
(dp2889
g53
(dp2890
g73
g74
ssg62
g2884
sg55
(lp2891
S'QUERY_STRING'
p2892
asbag48
(g69
g50
NtRp2893
(dp2894
g53
(dp2895
g80
g81
ssg62
g2884
sg55
(lp2896
S':'
asbag48
(g69
g50
NtRp2897
(dp2898
g53
(dp2899
sg62
g2884
sg55
(lp2900
g48
(g49
g50
NtRp2901
(dp2902
g53
(dp2903
g61
I3
ssg62
g2897
sg55
(lp2904
g1339
asbasbasbag48
(g64
g50
NtRp2905
(dp2906
g53
(dp2907
sg62
g2670
sg55
(lp2908
g48
(g69
g50
NtRp2909
(dp2910
g53
(dp2911
g73
g74
ssg62
g2905
sg55
(lp2912
S'REMOTE_ADDR'
p2913
asbag48
(g69
g50
NtRp2914
(dp2915
g53
(dp2916
g80
g81
ssg62
g2905
sg55
(lp2917
S':'
asbag48
(g69
g50
NtRp2918
(dp2919
g53
(dp2920
sg62
g2905
sg55
(lp2921
g48
(g49
g50
NtRp2922
(dp2923
g53
(dp2924
g61
I3
ssg62
g2918
sg55
(lp2925
g181
asbasbasbag48
(g64
g50
NtRp2926
(dp2927
g53
(dp2928
sg62
g2670
sg55
(lp2929
g48
(g69
g50
NtRp2930
(dp2931
g53
(dp2932
g73
g74
ssg62
g2926
sg55
(lp2933
S'REMOTE_PORT'
p2934
asbag48
(g69
g50
NtRp2935
(dp2936
g53
(dp2937
g80
g81
ssg62
g2926
sg55
(lp2938
S':'
asbag48
(g69
g50
NtRp2939
(dp2940
g53
(dp2941
sg62
g2926
sg55
(lp2942
g48
(g49
g50
NtRp2943
(dp2944
g53
(dp2945
g61
I3
ssg62
g2939
sg55
(lp2946
g1382
asbasbasbag48
(g64
g50
NtRp2947
(dp2948
g53
(dp2949
sg62
g2670
sg55
(lp2950
g48
(g69
g50
NtRp2951
(dp2952
g53
(dp2953
g73
g74
ssg62
g2947
sg55
(lp2954
S'REQUEST_METHOD'
p2955
asbag48
(g69
g50
NtRp2956
(dp2957
g53
(dp2958
g80
g81
ssg62
g2947
sg55
(lp2959
S':'
asbag48
(g69
g50
NtRp2960
(dp2961
g53
(dp2962
sg62
g2947
sg55
(lp2963
g48
(g49
g50
NtRp2964
(dp2965
g53
(dp2966
g61
I3
ssg62
g2960
sg55
(lp2967
g1404
asbasbasbag48
(g64
g50
NtRp2968
(dp2969
g53
(dp2970
sg62
g2670
sg55
(lp2971
g48
(g69
g50
NtRp2972
(dp2973
g53
(dp2974
g73
g74
ssg62
g2968
sg55
(lp2975
S'REQUEST_URI'
p2976
asbag48
(g69
g50
NtRp2977
(dp2978
g53
(dp2979
g80
g81
ssg62
g2968
sg55
(lp2980
S':'
asbag48
(g69
g50
NtRp2981
(dp2982
g53
(dp2983
sg62
g2968
sg55
(lp2984
g48
(g49
g50
NtRp2985
(dp2986
g53
(dp2987
g61
I3
ssg62
g2981
sg55
(lp2988
g1426
asbasbasbag48
(g64
g50
NtRp2989
(dp2990
g53
(dp2991
sg62
g2670
sg55
(lp2992
g48
(g69
g50
NtRp2993
(dp2994
g53
(dp2995
g73
g74
ssg62
g2989
sg55
(lp2996
S'SCRIPT_NAME'
p2997
asbag48
(g69
g50
NtRp2998
(dp2999
g53
(dp3000
g80
g81
ssg62
g2989
sg55
(lp3001
S':'
asbag48
(g69
g50
NtRp3002
(dp3003
g53
(dp3004
sg62
g2989
sg55
(lp3005
g48
(g49
g50
NtRp3006
(dp3007
g53
(dp3008
g61
I3
ssg62
g3002
sg55
(lp3009
S''
asbasbasbag48
(g64
g50
NtRp3010
(dp3011
g53
(dp3012
sg62
g2670
sg55
(lp3013
g48
(g69
g50
NtRp3014
(dp3015
g53
(dp3016
g73
g74
ssg62
g3010
sg55
(lp3017
S'SERVER_NAME'
p3018
asbag48
(g69
g50
NtRp3019
(dp3020
g53
(dp3021
g80
g81
ssg62
g3010
sg55
(lp3022
S':'
asbag48
(g69
g50
NtRp3023
(dp3024
g53
(dp3025
sg62
g3010
sg55
(lp3026
g48
(g49
g50
NtRp3027
(dp3028
g53
(dp3029
g61
I3
ssg62
g3023
sg55
(lp3030
g1469
asbasbasbag48
(g64
g50
NtRp3031
(dp3032
g53
(dp3033
sg62
g2670
sg55
(lp3034
g48
(g69
g50
NtRp3035
(dp3036
g53
(dp3037
g73
g74
ssg62
g3031
sg55
(lp3038
S'SERVER_PORT'
p3039
asbag48
(g69
g50
NtRp3040
(dp3041
g53
(dp3042
g80
g81
ssg62
g3031
sg55
(lp3043
S':'
asbag48
(g69
g50
NtRp3044
(dp3045
g53
(dp3046
sg62
g3031
sg55
(lp3047
g48
(g49
g50
NtRp3048
(dp3049
g53
(dp3050
g61
I3
ssg62
g3044
sg55
(lp3051
g1491
asbasbasbag48
(g64
g50
NtRp3052
(dp3053
g53
(dp3054
sg62
g2670
sg55
(lp3055
g48
(g69
g50
NtRp3056
(dp3057
g53
(dp3058
g73
g74
ssg62
g3052
sg55
(lp3059
S'SERVER_PROTOCOL'
p3060
asbag48
(g69
g50
NtRp3061
(dp3062
g53
(dp3063
g80
g81
ssg62
g3052
sg55
(lp3064
S':'
asbag48
(g69
g50
NtRp3065
(dp3066
g53
(dp3067
sg62
g3052
sg55
(lp3068
g48
(g49
g50
NtRp3069
(dp3070
g53
(dp3071
g61
I3
ssg62
g3065
sg55
(lp3072
g1513
asbasbasbag48
(g64
g50
NtRp3073
(dp3074
g53
(dp3075
sg62
g2670
sg55
(lp3076
g48
(g69
g50
NtRp3077
(dp3078
g53
(dp3079
g73
g74
ssg62
g3073
sg55
(lp3080
S'SERVER_SOFTWARE'
p3081
asbag48
(g69
g50
NtRp3082
(dp3083
g53
(dp3084
g80
g81
ssg62
g3073
sg55
(lp3085
S':'
asbag48
(g69
g50
NtRp3086
(dp3087
g53
(dp3088
sg62
g3073
sg55
(lp3089
g48
(g49
g50
NtRp3090
(dp3091
g53
(dp3092
g61
I3
ssg62
g3086
sg55
(lp3093
g1535
asbasbasbag48
(g64
g50
NtRp3094
(dp3095
g53
(dp3096
sg62
g2670
sg55
(lp3097
g48
(g69
g50
NtRp3098
(dp3099
g53
(dp3100
g73
g74
ssg62
g3094
sg55
(lp3101
S'WEB2PY_ORIGINAL_URI'
p3102
asbag48
(g69
g50
NtRp3103
(dp3104
g53
(dp3105
g80
g81
ssg62
g3094
sg55
(lp3106
S':'
asbag48
(g69
g50
NtRp3107
(dp3108
g53
(dp3109
sg62
g3094
sg55
(lp3110
g48
(g49
g50
NtRp3111
(dp3112
g53
(dp3113
g61
I3
ssg62
g3107
sg55
(lp3114
g1579
asbasbasbag48
(g64
g50
NtRp3115
(dp3116
g53
(dp3117
sg62
g2670
sg55
(lp3118
g48
(g69
g50
NtRp3119
(dp3120
g53
(dp3121
g73
g74
ssg62
g3115
sg55
(lp3122
S'wsgi.errors'
p3123
asbag48
(g69
g50
NtRp3124
(dp3125
g53
(dp3126
g80
g81
ssg62
g3115
sg55
(lp3127
S':'
asbag48
(g69
g50
NtRp3128
(dp3129
g53
(dp3130
sg62
g3115
sg55
(lp3131
g48
(g49
g50
NtRp3132
(dp3133
g53
(dp3134
g61
I3
ssg62
g3128
sg55
(lp3135
S"<open file '<stderr>', mode 'w' at 0x01D300B0>"
p3136
asbasbasbag48
(g64
g50
NtRp3137
(dp3138
g53
(dp3139
sg62
g2670
sg55
(lp3140
g48
(g69
g50
NtRp3141
(dp3142
g53
(dp3143
g73
g74
ssg62
g3137
sg55
(lp3144
S'wsgi.file_wrapper'
p3145
asbag48
(g69
g50
NtRp3146
(dp3147
g53
(dp3148
g80
g81
ssg62
g3137
sg55
(lp3149
S':'
asbag48
(g69
g50
NtRp3150
(dp3151
g53
(dp3152
sg62
g3137
sg55
(lp3153
g48
(g49
g50
NtRp3154
(dp3155
g53
(dp3156
g61
I3
ssg62
g3150
sg55
(lp3157
S'<class wsgiref.util.FileWrapper at 0x0318A600>'
p3158
asbasbasbag48
(g64
g50
NtRp3159
(dp3160
g53
(dp3161
sg62
g2670
sg55
(lp3162
g48
(g69
g50
NtRp3163
(dp3164
g53
(dp3165
g73
g74
ssg62
g3159
sg55
(lp3166
S'wsgi.input'
p3167
asbag48
(g69
g50
NtRp3168
(dp3169
g53
(dp3170
g80
g81
ssg62
g3159
sg55
(lp3171
S':'
asbag48
(g69
g50
NtRp3172
(dp3173
g53
(dp3174
sg62
g3159
sg55
(lp3175
g48
(g49
g50
NtRp3176
(dp3177
g53
(dp3178
g61
I3
ssg62
g3172
sg55
(lp3179
S'<cStringIO.StringO object at 0x07D89800>'
p3180
asbasbasbag48
(g64
g50
NtRp3181
(dp3182
g53
(dp3183
sg62
g2670
sg55
(lp3184
g48
(g69
g50
NtRp3185
(dp3186
g53
(dp3187
g73
g74
ssg62
g3181
sg55
(lp3188
S'wsgi.multiprocess'
p3189
asbag48
(g69
g50
NtRp3190
(dp3191
g53
(dp3192
g80
g81
ssg62
g3181
sg55
(lp3193
S':'
asbag48
(g69
g50
NtRp3194
(dp3195
g53
(dp3196
sg62
g3181
sg55
(lp3197
g48
(g49
g50
NtRp3198
(dp3199
g53
(dp3200
g61
I3
ssg62
g3194
sg55
(lp3201
g91
asbasbasbag48
(g64
g50
NtRp3202
(dp3203
g53
(dp3204
sg62
g2670
sg55
(lp3205
g48
(g69
g50
NtRp3206
(dp3207
g53
(dp3208
g73
g74
ssg62
g3202
sg55
(lp3209
S'wsgi.multithread'
p3210
asbag48
(g69
g50
NtRp3211
(dp3212
g53
(dp3213
g80
g81
ssg62
g3202
sg55
(lp3214
S':'
asbag48
(g69
g50
NtRp3215
(dp3216
g53
(dp3217
sg62
g3202
sg55
(lp3218
g48
(g49
g50
NtRp3219
(dp3220
g53
(dp3221
g61
I3
ssg62
g3215
sg55
(lp3222
g1797
asbasbasbag48
(g64
g50
NtRp3223
(dp3224
g53
(dp3225
sg62
g2670
sg55
(lp3226
g48
(g69
g50
NtRp3227
(dp3228
g53
(dp3229
g73
g74
ssg62
g3223
sg55
(lp3230
S'wsgi.run_once'
p3231
asbag48
(g69
g50
NtRp3232
(dp3233
g53
(dp3234
g80
g81
ssg62
g3223
sg55
(lp3235
S':'
asbag48
(g69
g50
NtRp3236
(dp3237
g53
(dp3238
sg62
g3223
sg55
(lp3239
g48
(g49
g50
NtRp3240
(dp3241
g53
(dp3242
g61
I3
ssg62
g3236
sg55
(lp3243
g91
asbasbasbag48
(g64
g50
NtRp3244
(dp3245
g53
(dp3246
sg62
g2670
sg55
(lp3247
g48
(g69
g50
NtRp3248
(dp3249
g53
(dp3250
g73
g74
ssg62
g3244
sg55
(lp3251
S'wsgi.url_scheme'
p3252
asbag48
(g69
g50
NtRp3253
(dp3254
g53
(dp3255
g80
g81
ssg62
g3244
sg55
(lp3256
S':'
asbag48
(g69
g50
NtRp3257
(dp3258
g53
(dp3259
sg62
g3244
sg55
(lp3260
g48
(g49
g50
NtRp3261
(dp3262
g53
(dp3263
g61
I3
ssg62
g3257
sg55
(lp3264
g1840
asbasbasbag48
(g64
g50
NtRp3265
(dp3266
g53
(dp3267
sg62
g2670
sg55
(lp3268
g48
(g69
g50
NtRp3269
(dp3270
g53
(dp3271
g73
g74
ssg62
g3265
sg55
(lp3272
S'wsgi.version'
p3273
asbag48
(g69
g50
NtRp3274
(dp3275
g53
(dp3276
g80
g81
ssg62
g3265
sg55
(lp3277
S':'
asbag48
(g69
g50
NtRp3278
(dp3279
g53
(dp3280
sg62
g3265
sg55
(lp3281
g48
(g49
g50
NtRp3282
(dp3283
g53
(dp3284
g61
I3
ssg62
g3278
sg55
(lp3285
S'1'
asbasbasbasbasbasbasbasbasbasbasbasbasbsS'frames'
p3286
(lp3287
(dp3288
S'file'
p3289
S'D:\\git_projs\\Gabblista\\web2py\\web2py\\gluon\\restricted.py'
p3290
sS'dump'
p3291
(dp3292
S'environment'
p3293
S"{'A': <class 'gluon.html.A'>, 'Auth': <class 'gluon.tools.Auth'>, 'B': <class 'gluon.html.B'>, 'BEAUTIFY': <class 'gluon.html.BEAUTIFY'>, 'BODY': <class 'gluon.html.BODY'>, 'BR': <class 'gluon.html.BR'>, 'BUTTON': <class 'gluon.html.BUTTON'>, 'CAT': <class 'gluon.html.CAT'>, 'CENTER': <class 'gluon.html.CENTER'>, 'CLEANUP': <class 'gluon.validators.CLEANUP'>, ...}"
p3294
sS'ccode'
p3295
S'<code object <module> at 080456E0, file "D:\\git_...plications\\Gabb1\\controllers/fb_serv.py", line 2>'
p3296
ssS'lnum'
p3297
I194
sS'lines'
p3298
(dp3299
I192
S'        else:'
p3300
sI193
S'            ccode = compile2(code,layer)'
p3301
sI194
S'        exec ccode in environment'
p3302
sI195
S'    except HTTP:'
p3303
sI196
S'        raise'
p3304
sI197
S'    except Exception, error:'
p3305
sI198
S'        # XXX Show exception in Wing IDE if running in debugger'
p3306
sI189
S'    try:'
p3307
sI190
S'        if type(code) == types.CodeType:'
p3308
sI191
S'            ccode = code'
p3309
ssS'call'
p3310
S"(code='# -*- coding: utf-8 -*-\\nfrom random import Rando...sponse._vars=response._caller(serve_player_data)\\n', environment={'A': <class 'gluon.html.A'>, 'Auth': <class 'gluon.tools.Auth'>, 'B': <class 'gluon.html.B'>, 'BEAUTIFY': <class 'gluon.html.BEAUTIFY'>, 'BODY': <class 'gluon.html.BODY'>, 'BR': <class 'gluon.html.BR'>, 'BUTTON': <class 'gluon.html.BUTTON'>, 'CAT': <class 'gluon.html.CAT'>, 'CENTER': <class 'gluon.html.CENTER'>, 'CLEANUP': <class 'gluon.validators.CLEANUP'>, ...}, layer=r'D:\\git_projs\\Gabblista\\web2py\\web2py\\applications\\Gabb1\\controllers/fb_serv.py')"
p3311
sS'func'
p3312
S'restricted'
p3313
sa(dp3314
g3289
S'D:\\git_projs\\Gabblista\\web2py\\web2py\\applications\\Gabb1\\controllers\\fb_serv.py'
p3315
sg3291
(dp3316
sg3297
I116
sg3298
(dp3317
I106
S'    # 1 - 3x - 30%'
p3318
sI107
S'    # 2 - 4x - 10%'
p3319
sI108
S'    rand_int = random.randint(0,10)'
p3320
sI109
S''
sI110
S'    if rand_int < 6:'
p3321
sI111
S'        return "0"'
p3322
sI112
S'    elif rand_int <9:'
p3323
sI113
S'        return "1"'
p3324
sI114
S'    else:'
p3325
sI115
S'        return "2"'
p3326
ssg3310
S'()'
p3327
sg3312
S'<module>'
p3328
sa(dp3329
g3289
S'D:\\git_projs\\Gabblista\\web2py\\web2py\\gluon\\globals.py'
p3330
sg3291
(dp3331
S'self'
p3332
S'undefined'
p3333
sS'f'
S'<function serve_player_data at 0x07E969F0>'
p3334
ssg3297
I149
sg3298
(dp3335
I144
S'        self.meta = Storage()      # used by web2py_ajax.html'
p3336
sI145
S'        self.menu = []             # used by the default view layout'
p3337
sI146
S'        self.files = []            # used by web2py_ajax.html'
p3338
sI147
S'        self.generic_patterns = [] # patterns to allow generic views'
p3339
sI148
S'        self._vars = None'
p3340
sI149
S'        self._caller = lambda f: f()'
p3341
sI150
S'        self._view_environment = None'
p3342
sI151
S'        self._custom_commit = None'
p3343
sI152
S'        self._custom_rollback = None'
p3344
sI153
S''
ssg3310
S'(f=<function serve_player_data at 0x07E969F0>)'
p3345
sg3312
S'<lambda>'
p3346
sa(dp3347
g3289
S'D:\\git_projs\\Gabblista\\web2py\\web2py\\applications\\Gabb1\\controllers\\fb_serv.py'
p3348
sg3291
(dp3349
S'js_1'
p3350
g3333
ssg3297
I18
sg3298
(dp3351
I13
S''
sI14
S'    player_ID = request.vars.player_ID'
p3352
sI15
S'    opponent_ID = request.vars.opponent_ID'
p3353
sI16
S'    game_ID = request.vars.game_ID'
p3354
sI17
S''
sI18
S'    game_data_row = get_player_data(player_ID,opponent_ID,game_ID);'
p3355
sI19
S'    return dict(game_data_row=game_data_row)'
p3356
sI20
S''
sI21
S'def get_player_data(player_ID,opponent_ID,game_ID):'
p3357
sI22
S''
ssg3310
S'()'
p3358
sg3312
S'serve_player_data'
p3359
sa(dp3360
g3289
S'D:\\git_projs\\Gabblista\\web2py\\web2py\\applications\\Gabb1\\controllers\\fb_serv.py'
p3361
sg3291
(dp3362
sg3297
I26
sg3298
(dp3363
I21
S'def get_player_data(player_ID,opponent_ID,game_ID):'
p3364
sI22
S''
sI23
S'    # Generate the player data'
p3365
sI24
S'    if(int(game_ID)==0):'
p3366
sI25
S'        letter_data = generate_new_letter_data()'
p3367
sI26
S'        event_data = generate_new_event_data()'
p3368
sI27
S'#        db.game_data_table.insert(player_1_ID = int(player_ID),'
p3369
sI28
S'#                                  player_2_ID = int(opponent_ID),'
p3370
sI29
S'#                                  event_string = str(event_data),'
p3371
sI30
S'#                                  letter_string = str(letter_data)'
p3372
ssg3310
S"(player_ID='0', opponent_ID='1', game_ID='0')"
p3373
sg3312
S'get_player_data'
p3374
sa(dp3375
g3289
S'D:\\git_projs\\Gabblista\\web2py\\web2py\\applications\\Gabb1\\controllers\\fb_serv.py'
p3376
sg3291
(dp3377
sg3297
I50
sg3298
(dp3378
I45
S'    return letter_string'
p3379
sI46
S''
sI47
S'def generate_new_event_data():'
p3380
sI48
S'    # Go through and generate game data'
p3381
sI49
S'    NUM_EVENTS = 24 # 2 MINUTES. 1 EVENT EVERY 5 SECS'
p3382
sI50
S'    random_letter_events_string = get_random_letter_events_string(NUM_EVENTS/2)'
p3383
sI51
S'    random_mult_events_string = get_random_mult_events_string(NUM_EVENTS/2)'
p3384
sI52
S'    return random_letter_events_string + random_mult_events_string'
p3385
sI53
S''
sI54
S'def get_random_letter_events_string(len_req):'
p3386
ssg3310
S'()'
p3387
sg3312
S'generate_new_event_data'
p3388
sa(dp3389
g3289
S'D:\\git_projs\\Gabblista\\web2py\\web2py\\applications\\Gabb1\\controllers\\fb_serv.py'
p3390
sg3291
(dp3391
sg3297
I60
sg3298
(dp3392
I64
S''
sI55
S'    random_letter_events_string = ""'
p3393
sI56
S'    letter_event = "0"'
p3394
sI57
S'    num_events = 0'
p3395
sI58
S''
sI59
S'    while num_events < len_req:'
p3396
sI60
S'        random_letter_events += letter_event # Generate a new type'
p3397
sI61
S'        random_letter_events += get_random_letters(1) # Generate a new letter'
p3398
sI62
S'        random_letter_events += get_random_location() # Generate a new location'
p3399
sI63
S'        num_events += 1'
p3400
ssg3310
S'(len_req=12)'
p3401
sg3312
S'get_random_letter_events_string'
p3402
sasS'pyver'
p3403
S'Python 2.5.4: C:\\python25\\python.exe'
p3404
sS'session'
p3405
g48
(g49
g50
NtRp3406
(dp3407
g53
(dp3408
sg55
(lp3409
g48
(g57
g50
NtRp3410
(dp3411
g53
(dp3412
g61
I5
ssg62
Nsg55
(lp3413
sbasbsS'etype'
p3414
S"<type 'exceptions.UnboundLocalError'>"
p3415
sS'date'
p3416
S'Thu Jan 19 14:49:38 2012'
p3417
sS'response'
p3418
g48
(g49
g50
NtRp3419
(dp3420
g53
(dp3421
sg55
(lp3422
g48
(g57
g50
NtRp3423
(dp3424
g53
(dp3425
g61
I5
ssg62
Nsg55
(lp3426
g48
(g64
g50
NtRp3427
(dp3428
g53
(dp3429
sg62
g3423
sg55
(lp3430
g48
(g69
g50
NtRp3431
(dp3432
g53
(dp3433
g73
g74
ssg62
g3427
sg55
(lp3434
g146
asbag48
(g69
g50
NtRp3435
(dp3436
g53
(dp3437
g80
g81
ssg62
g3427
sg55
(lp3438
S':'
asbag48
(g69
g50
NtRp3439
(dp3440
g53
(dp3441
sg62
g3427
sg55
(lp3442
g48
(g49
g50
NtRp3443
(dp3444
g53
(dp3445
g61
I5
ssg62
g3439
sg55
(lp3446
S'<cStringIO.StringO object at 0x07D89500>'
p3447
asbasbasbag48
(g64
g50
NtRp3448
(dp3449
g53
(dp3450
sg62
g3423
sg55
(lp3451
g48
(g69
g50
NtRp3452
(dp3453
g53
(dp3454
g73
g74
ssg62
g3448
sg55
(lp3455
g212
asbag48
(g69
g50
NtRp3456
(dp3457
g53
(dp3458
g80
g81
ssg62
g3448
sg55
(lp3459
S':'
asbag48
(g69
g50
NtRp3460
(dp3461
g53
(dp3462
sg62
g3448
sg55
(lp3463
g48
(g49
g50
NtRp3464
(dp3465
g53
(dp3466
g61
I5
ssg62
g3460
sg55
(lp3467
g48
(g57
g50
NtRp3468
(dp3469
g53
(dp3470
g61
I4
ssg62
Nsg55
(lp3471
g48
(g64
g50
NtRp3472
(dp3473
g53
(dp3474
sg62
g3468
sg55
(lp3475
g48
(g69
g50
NtRp3476
(dp3477
g53
(dp3478
g73
g74
ssg62
g3472
sg55
(lp3479
S'session_id_gabb1'
p3480
asbag48
(g69
g50
NtRp3481
(dp3482
g53
(dp3483
g80
g81
ssg62
g3472
sg55
(lp3484
S':'
asbag48
(g69
g50
NtRp3485
(dp3486
g53
(dp3487
sg62
g3472
sg55
(lp3488
g48
(g49
g50
NtRp3489
(dp3490
g53
(dp3491
g61
I4
ssg62
g3485
sg55
(lp3492
g48
(g57
g50
NtRp3493
(dp3494
g53
(dp3495
g61
I3
ssg62
Nsg55
(lp3496
g48
(g64
g50
NtRp3497
(dp3498
g53
(dp3499
sg62
g3493
sg55
(lp3500
g48
(g69
g50
NtRp3501
(dp3502
g53
(dp3503
g73
g74
ssg62
g3497
sg55
(lp3504
g262
asbag48
(g69
g50
NtRp3505
(dp3506
g53
(dp3507
g80
g81
ssg62
g3497
sg55
(lp3508
S':'
asbag48
(g69
g50
NtRp3509
(dp3510
g53
(dp3511
sg62
g3497
sg55
(lp3512
g48
(g49
g50
NtRp3513
(dp3514
g53
(dp3515
g61
I3
ssg62
g3509
sg55
(lp3516
S''
asbasbasbag48
(g64
g50
NtRp3517
(dp3518
g53
(dp3519
sg62
g3493
sg55
(lp3520
g48
(g69
g50
NtRp3521
(dp3522
g53
(dp3523
g73
g74
ssg62
g3517
sg55
(lp3524
g283
asbag48
(g69
g50
NtRp3525
(dp3526
g53
(dp3527
g80
g81
ssg62
g3517
sg55
(lp3528
S':'
asbag48
(g69
g50
NtRp3529
(dp3530
g53
(dp3531
sg62
g3517
sg55
(lp3532
g48
(g49
g50
NtRp3533
(dp3534
g53
(dp3535
g61
I3
ssg62
g3529
sg55
(lp3536
S''
asbasbasbag48
(g64
g50
NtRp3537
(dp3538
g53
(dp3539
sg62
g3493
sg55
(lp3540
g48
(g69
g50
NtRp3541
(dp3542
g53
(dp3543
g73
g74
ssg62
g3537
sg55
(lp3544
g304
asbag48
(g69
g50
NtRp3545
(dp3546
g53
(dp3547
g80
g81
ssg62
g3537
sg55
(lp3548
S':'
asbag48
(g69
g50
NtRp3549
(dp3550
g53
(dp3551
sg62
g3537
sg55
(lp3552
g48
(g49
g50
NtRp3553
(dp3554
g53
(dp3555
g61
I3
ssg62
g3549
sg55
(lp3556
S''
asbasbasbag48
(g64
g50
NtRp3557
(dp3558
g53
(dp3559
sg62
g3493
sg55
(lp3560
g48
(g69
g50
NtRp3561
(dp3562
g53
(dp3563
g73
g74
ssg62
g3557
sg55
(lp3564
g325
asbag48
(g69
g50
NtRp3565
(dp3566
g53
(dp3567
g80
g81
ssg62
g3557
sg55
(lp3568
S':'
asbag48
(g69
g50
NtRp3569
(dp3570
g53
(dp3571
sg62
g3557
sg55
(lp3572
g48
(g49
g50
NtRp3573
(dp3574
g53
(dp3575
g61
I3
ssg62
g3569
sg55
(lp3576
S''
asbasbasbag48
(g64
g50
NtRp3577
(dp3578
g53
(dp3579
sg62
g3493
sg55
(lp3580
g48
(g69
g50
NtRp3581
(dp3582
g53
(dp3583
g73
g74
ssg62
g3577
sg55
(lp3584
g346
asbag48
(g69
g50
NtRp3585
(dp3586
g53
(dp3587
g80
g81
ssg62
g3577
sg55
(lp3588
S':'
asbag48
(g69
g50
NtRp3589
(dp3590
g53
(dp3591
sg62
g3577
sg55
(lp3592
g48
(g49
g50
NtRp3593
(dp3594
g53
(dp3595
g61
I3
ssg62
g3589
sg55
(lp3596
S'/'
asbasbasbag48
(g64
g50
NtRp3597
(dp3598
g53
(dp3599
sg62
g3493
sg55
(lp3600
g48
(g69
g50
NtRp3601
(dp3602
g53
(dp3603
g73
g74
ssg62
g3597
sg55
(lp3604
g367
asbag48
(g69
g50
NtRp3605
(dp3606
g53
(dp3607
g80
g81
ssg62
g3597
sg55
(lp3608
S':'
asbag48
(g69
g50
NtRp3609
(dp3610
g53
(dp3611
sg62
g3597
sg55
(lp3612
g48
(g49
g50
NtRp3613
(dp3614
g53
(dp3615
g61
I3
ssg62
g3609
sg55
(lp3616
S''
asbasbasbag48
(g64
g50
NtRp3617
(dp3618
g53
(dp3619
sg62
g3493
sg55
(lp3620
g48
(g69
g50
NtRp3621
(dp3622
g53
(dp3623
g73
g74
ssg62
g3617
sg55
(lp3624
g388
asbag48
(g69
g50
NtRp3625
(dp3626
g53
(dp3627
g80
g81
ssg62
g3617
sg55
(lp3628
S':'
asbag48
(g69
g50
NtRp3629
(dp3630
g53
(dp3631
sg62
g3617
sg55
(lp3632
g48
(g49
g50
NtRp3633
(dp3634
g53
(dp3635
g61
I3
ssg62
g3629
sg55
(lp3636
S''
asbasbasbasbasbasbasbasbasbasbasbag48
(g64
g50
NtRp3637
(dp3638
g53
(dp3639
sg62
g3423
sg55
(lp3640
g48
(g69
g50
NtRp3641
(dp3642
g53
(dp3643
g73
g74
ssg62
g3637
sg55
(lp3644
S'files'
p3645
asbag48
(g69
g50
NtRp3646
(dp3647
g53
(dp3648
g80
g81
ssg62
g3637
sg55
(lp3649
S':'
asbag48
(g69
g50
NtRp3650
(dp3651
g53
(dp3652
sg62
g3637
sg55
(lp3653
g48
(g49
g50
NtRp3654
(dp3655
g53
(dp3656
g61
I5
ssg62
g3650
sg55
(lp3657
g48
(g57
g50
NtRp3658
(dp3659
g53
(dp3660
g61
I4
ssg62
Nsg55
(lp3661
sbasbasbasbag48
(g64
g50
NtRp3662
(dp3663
g53
(dp3664
sg62
g3423
sg55
(lp3665
g48
(g69
g50
NtRp3666
(dp3667
g53
(dp3668
g73
g74
ssg62
g3662
sg55
(lp3669
S'flash'
p3670
asbag48
(g69
g50
NtRp3671
(dp3672
g53
(dp3673
g80
g81
ssg62
g3662
sg55
(lp3674
S':'
asbag48
(g69
g50
NtRp3675
(dp3676
g53
(dp3677
sg62
g3662
sg55
(lp3678
g48
(g49
g50
NtRp3679
(dp3680
g53
(dp3681
g61
I5
ssg62
g3675
sg55
(lp3682
S''
asbasbasbag48
(g64
g50
NtRp3683
(dp3684
g53
(dp3685
sg62
g3423
sg55
(lp3686
g48
(g69
g50
NtRp3687
(dp3688
g53
(dp3689
g73
g74
ssg62
g3683
sg55
(lp3690
S'generic_patterns'
p3691
asbag48
(g69
g50
NtRp3692
(dp3693
g53
(dp3694
g80
g81
ssg62
g3683
sg55
(lp3695
S':'
asbag48
(g69
g50
NtRp3696
(dp3697
g53
(dp3698
sg62
g3683
sg55
(lp3699
g48
(g49
g50
NtRp3700
(dp3701
g53
(dp3702
g61
I5
ssg62
g3696
sg55
(lp3703
g48
(g57
g50
NtRp3704
(dp3705
g53
(dp3706
g61
I4
ssg62
Nsg55
(lp3707
g48
(g64
g50
NtRp3708
(dp3709
g53
(dp3710
sg62
g3704
sg55
(lp3711
g48
(g69
g50
NtRp3712
(dp3713
g53
(dp3714
sg62
g3708
sg55
(lp3715
g48
(g49
g50
NtRp3716
(dp3717
g53
(dp3718
g61
I4
ssg62
g3712
sg55
(lp3719
S'*'
asbasbasbasbasbasbasbag48
(g64
g50
NtRp3720
(dp3721
g53
(dp3722
sg62
g3423
sg55
(lp3723
g48
(g69
g50
NtRp3724
(dp3725
g53
(dp3726
g73
g74
ssg62
g3720
sg55
(lp3727
S'headers'
p3728
asbag48
(g69
g50
NtRp3729
(dp3730
g53
(dp3731
g80
g81
ssg62
g3720
sg55
(lp3732
S':'
asbag48
(g69
g50
NtRp3733
(dp3734
g53
(dp3735
sg62
g3720
sg55
(lp3736
g48
(g49
g50
NtRp3737
(dp3738
g53
(dp3739
g61
I5
ssg62
g3733
sg55
(lp3740
g48
(g57
g50
NtRp3741
(dp3742
g53
(dp3743
g61
I4
ssg62
Nsg55
(lp3744
g48
(g64
g50
NtRp3745
(dp3746
g53
(dp3747
sg62
g3741
sg55
(lp3748
g48
(g69
g50
NtRp3749
(dp3750
g53
(dp3751
g73
g74
ssg62
g3745
sg55
(lp3752
S'Cache-Control'
p3753
asbag48
(g69
g50
NtRp3754
(dp3755
g53
(dp3756
g80
g81
ssg62
g3745
sg55
(lp3757
S':'
asbag48
(g69
g50
NtRp3758
(dp3759
g53
(dp3760
sg62
g3745
sg55
(lp3761
g48
(g49
g50
NtRp3762
(dp3763
g53
(dp3764
g61
I4
ssg62
g3758
sg55
(lp3765
S'no-store, no-cache, must-revalidate, post-check=0, pre-check=0'
p3766
asbasbasbag48
(g64
g50
NtRp3767
(dp3768
g53
(dp3769
sg62
g3741
sg55
(lp3770
g48
(g69
g50
NtRp3771
(dp3772
g53
(dp3773
g73
g74
ssg62
g3767
sg55
(lp3774
S'Content-Type'
p3775
asbag48
(g69
g50
NtRp3776
(dp3777
g53
(dp3778
g80
g81
ssg62
g3767
sg55
(lp3779
S':'
asbag48
(g69
g50
NtRp3780
(dp3781
g53
(dp3782
sg62
g3767
sg55
(lp3783
g48
(g49
g50
NtRp3784
(dp3785
g53
(dp3786
g61
I4
ssg62
g3780
sg55
(lp3787
S'text/plain; charset=utf-8'
p3788
asbasbasbag48
(g64
g50
NtRp3789
(dp3790
g53
(dp3791
sg62
g3741
sg55
(lp3792
g48
(g69
g50
NtRp3793
(dp3794
g53
(dp3795
g73
g74
ssg62
g3789
sg55
(lp3796
S'Expires'
p3797
asbag48
(g69
g50
NtRp3798
(dp3799
g53
(dp3800
g80
g81
ssg62
g3789
sg55
(lp3801
S':'
asbag48
(g69
g50
NtRp3802
(dp3803
g53
(dp3804
sg62
g3789
sg55
(lp3805
g48
(g49
g50
NtRp3806
(dp3807
g53
(dp3808
g61
I4
ssg62
g3802
sg55
(lp3809
S'Thu, 19 Jan 2012 19:49:38 GMT'
p3810
asbasbasbag48
(g64
g50
NtRp3811
(dp3812
g53
(dp3813
sg62
g3741
sg55
(lp3814
g48
(g69
g50
NtRp3815
(dp3816
g53
(dp3817
g73
g74
ssg62
g3811
sg55
(lp3818
S'NingNang'
p3819
asbag48
(g69
g50
NtRp3820
(dp3821
g53
(dp3822
g80
g81
ssg62
g3811
sg55
(lp3823
S':'
asbag48
(g69
g50
NtRp3824
(dp3825
g53
(dp3826
sg62
g3811
sg55
(lp3827
g48
(g49
g50
NtRp3828
(dp3829
g53
(dp3830
g61
I4
ssg62
g3824
sg55
(lp3831
S'Nong'
p3832
asbasbasbag48
(g64
g50
NtRp3833
(dp3834
g53
(dp3835
sg62
g3741
sg55
(lp3836
g48
(g69
g50
NtRp3837
(dp3838
g53
(dp3839
g73
g74
ssg62
g3833
sg55
(lp3840
S'Pragma'
p3841
asbag48
(g69
g50
NtRp3842
(dp3843
g53
(dp3844
g80
g81
ssg62
g3833
sg55
(lp3845
S':'
asbag48
(g69
g50
NtRp3846
(dp3847
g53
(dp3848
sg62
g3833
sg55
(lp3849
g48
(g49
g50
NtRp3850
(dp3851
g53
(dp3852
g61
I4
ssg62
g3846
sg55
(lp3853
S'no-cache'
p3854
asbasbasbasbasbasbasbag48
(g64
g50
NtRp3855
(dp3856
g53
(dp3857
sg62
g3423
sg55
(lp3858
g48
(g69
g50
NtRp3859
(dp3860
g53
(dp3861
g73
g74
ssg62
g3855
sg55
(lp3862
S'menu'
p3863
asbag48
(g69
g50
NtRp3864
(dp3865
g53
(dp3866
g80
g81
ssg62
g3855
sg55
(lp3867
S':'
asbag48
(g69
g50
NtRp3868
(dp3869
g53
(dp3870
sg62
g3855
sg55
(lp3871
g48
(g49
g50
NtRp3872
(dp3873
g53
(dp3874
g61
I5
ssg62
g3868
sg55
(lp3875
g48
(g57
g50
NtRp3876
(dp3877
g53
(dp3878
g61
I4
ssg62
Nsg55
(lp3879
g48
(g64
g50
NtRp3880
(dp3881
g53
(dp3882
sg62
g3876
sg55
(lp3883
g48
(g69
g50
NtRp3884
(dp3885
g53
(dp3886
sg62
g3880
sg55
(lp3887
g48
(g49
g50
NtRp3888
(dp3889
g53
(dp3890
g61
I4
ssg62
g3884
sg55
(lp3891
g48
(g57
g50
NtRp3892
(dp3893
g53
(dp3894
g61
I3
ssg62
Nsg55
(lp3895
g48
(g64
g50
NtRp3896
(dp3897
g53
(dp3898
sg62
g3892
sg55
(lp3899
g48
(g69
g50
NtRp3900
(dp3901
g53
(dp3902
sg62
g3896
sg55
(lp3903
g48
(g49
g50
NtRp3904
(dp3905
g53
(dp3906
g61
I3
ssg62
g3900
sg55
(lp3907
cgluon.languages
lazyT_unpickle
p3908
(S's\x04\x00\x00\x00Home'
tRp3909
asbasbasbag48
(g64
g50
NtRp3910
(dp3911
g53
(dp3912
sg62
g3892
sg55
(lp3913
g48
(g69
g50
NtRp3914
(dp3915
g53
(dp3916
sg62
g3910
sg55
(lp3917
g48
(g49
g50
NtRp3918
(dp3919
g53
(dp3920
g61
I3
ssg62
g3914
sg55
(lp3921
g91
asbasbasbag48
(g64
g50
NtRp3922
(dp3923
g53
(dp3924
sg62
g3892
sg55
(lp3925
g48
(g69
g50
NtRp3926
(dp3927
g53
(dp3928
sg62
g3922
sg55
(lp3929
g48
(g49
g50
NtRp3930
(dp3931
g53
(dp3932
g61
I3
ssg62
g3926
sg55
(lp3933
S'/Gabb1/default/index.txt'
p3934
asbasbasbag48
(g64
g50
NtRp3935
(dp3936
g53
(dp3937
sg62
g3892
sg55
(lp3938
g48
(g69
g50
NtRp3939
(dp3940
g53
(dp3941
sg62
g3935
sg55
(lp3942
g48
(g49
g50
NtRp3943
(dp3944
g53
(dp3945
g61
I3
ssg62
g3939
sg55
(lp3946
g48
(g57
g50
NtRp3947
(dp3948
g53
(dp3949
g61
I2
ssg62
Nsg55
(lp3950
sbasbasbasbasbasbasbasbag48
(g64
g50
NtRp3951
(dp3952
g53
(dp3953
sg62
g3876
sg55
(lp3954
g48
(g69
g50
NtRp3955
(dp3956
g53
(dp3957
sg62
g3951
sg55
(lp3958
g48
(g49
g50
NtRp3959
(dp3960
g53
(dp3961
g61
I4
ssg62
g3955
sg55
(lp3962
g48
(g57
g50
NtRp3963
(dp3964
g53
(dp3965
g61
I3
ssg62
Nsg55
(lp3966
g48
(g64
g50
NtRp3967
(dp3968
g53
(dp3969
sg62
g3963
sg55
(lp3970
g48
(g69
g50
NtRp3971
(dp3972
g53
(dp3973
sg62
g3967
sg55
(lp3974
g48
(g49
g50
NtRp3975
(dp3976
g53
(dp3977
g61
I3
ssg62
g3971
sg55
(lp3978
g3908
(S's\x08\x00\x00\x00This App'
tRp3979
asbasbasbag48
(g64
g50
NtRp3980
(dp3981
g53
(dp3982
sg62
g3963
sg55
(lp3983
g48
(g69
g50
NtRp3984
(dp3985
g53
(dp3986
sg62
g3980
sg55
(lp3987
g48
(g49
g50
NtRp3988
(dp3989
g53
(dp3990
g61
I3
ssg62
g3984
sg55
(lp3991
g91
asbasbasbag48
(g64
g50
NtRp3992
(dp3993
g53
(dp3994
sg62
g3963
sg55
(lp3995
g48
(g69
g50
NtRp3996
(dp3997
g53
(dp3998
sg62
g3992
sg55
(lp3999
g48
(g49
g50
NtRp4000
(dp4001
g53
(dp4002
g61
I3
ssg62
g3996
sg55
(lp4003
S'/admin/default/design/Gabb1.txt'
p4004
asbasbasbag48
(g64
g50
NtRp4005
(dp4006
g53
(dp4007
sg62
g3963
sg55
(lp4008
g48
(g69
g50
NtRp4009
(dp4010
g53
(dp4011
sg62
g4005
sg55
(lp4012
g48
(g49
g50
NtRp4013
(dp4014
g53
(dp4015
g61
I3
ssg62
g4009
sg55
(lp4016
g48
(g57
g50
NtRp4017
(dp4018
g53
(dp4019
g61
I2
ssg62
Nsg55
(lp4020
g48
(g64
g50
NtRp4021
(dp4022
g53
(dp4023
sg62
g4017
sg55
(lp4024
g48
(g69
g50
NtRp4025
(dp4026
g53
(dp4027
sg62
g4021
sg55
(lp4028
g48
(g49
g50
NtRp4029
(dp4030
g53
(dp4031
g61
I2
ssg62
g4025
sg55
(lp4032
g48
(g57
g50
NtRp4033
(dp4034
g53
(dp4035
g61
I1
ssg62
Nsg55
(lp4036
g48
(g64
g50
NtRp4037
(dp4038
g53
(dp4039
sg62
g4033
sg55
(lp4040
g48
(g69
g50
NtRp4041
(dp4042
g53
(dp4043
sg62
g4037
sg55
(lp4044
g48
(g49
g50
NtRp4045
(dp4046
g53
(dp4047
g61
I1
ssg62
g4041
sg55
(lp4048
g3908
(S's\n\x00\x00\x00Controller'
tRp4049
asbasbasbag48
(g64
g50
NtRp4050
(dp4051
g53
(dp4052
sg62
g4033
sg55
(lp4053
g48
(g69
g50
NtRp4054
(dp4055
g53
(dp4056
sg62
g4050
sg55
(lp4057
g48
(g49
g50
NtRp4058
(dp4059
g53
(dp4060
g61
I1
ssg62
g4054
sg55
(lp4061
I00
asbasbasbag48
(g64
g50
NtRp4062
(dp4063
g53
(dp4064
sg62
g4033
sg55
(lp4065
g48
(g69
g50
NtRp4066
(dp4067
g53
(dp4068
sg62
g4062
sg55
(lp4069
g48
(g49
g50
NtRp4070
(dp4071
g53
(dp4072
g61
I1
ssg62
g4066
sg55
(lp4073
S'/admin/default/edit/Gabb1/controllers/fb_serv.py'
p4074
asbasbasbasbasbasbasbag48
(g64
g50
NtRp4075
(dp4076
g53
(dp4077
sg62
g4017
sg55
(lp4078
g48
(g69
g50
NtRp4079
(dp4080
g53
(dp4081
sg62
g4075
sg55
(lp4082
g48
(g49
g50
NtRp4083
(dp4084
g53
(dp4085
g61
I2
ssg62
g4079
sg55
(lp4086
g48
(g57
g50
NtRp4087
(dp4088
g53
(dp4089
g61
I1
ssg62
Nsg55
(lp4090
g48
(g64
g50
NtRp4091
(dp4092
g53
(dp4093
sg62
g4087
sg55
(lp4094
g48
(g69
g50
NtRp4095
(dp4096
g53
(dp4097
sg62
g4091
sg55
(lp4098
g48
(g49
g50
NtRp4099
(dp4100
g53
(dp4101
g61
I1
ssg62
g4095
sg55
(lp4102
g3908
(S's\x04\x00\x00\x00View'
tRp4103
asbasbasbag48
(g64
g50
NtRp4104
(dp4105
g53
(dp4106
sg62
g4087
sg55
(lp4107
g48
(g69
g50
NtRp4108
(dp4109
g53
(dp4110
sg62
g4104
sg55
(lp4111
g48
(g49
g50
NtRp4112
(dp4113
g53
(dp4114
g61
I1
ssg62
g4108
sg55
(lp4115
I00
asbasbasbag48
(g64
g50
NtRp4116
(dp4117
g53
(dp4118
sg62
g4087
sg55
(lp4119
g48
(g69
g50
NtRp4120
(dp4121
g53
(dp4122
sg62
g4116
sg55
(lp4123
g48
(g49
g50
NtRp4124
(dp4125
g53
(dp4126
g61
I1
ssg62
g4120
sg55
(lp4127
S'/admin/default/edit/Gabb1/views/fb_serv/serve_player_data.txt'
p4128
asbasbasbasbasbasbasbag48
(g64
g50
NtRp4129
(dp4130
g53
(dp4131
sg62
g4017
sg55
(lp4132
g48
(g69
g50
NtRp4133
(dp4134
g53
(dp4135
sg62
g4129
sg55
(lp4136
g48
(g49
g50
NtRp4137
(dp4138
g53
(dp4139
g61
I2
ssg62
g4133
sg55
(lp4140
g48
(g57
g50
NtRp4141
(dp4142
g53
(dp4143
g61
I1
ssg62
Nsg55
(lp4144
g48
(g64
g50
NtRp4145
(dp4146
g53
(dp4147
sg62
g4141
sg55
(lp4148
g48
(g69
g50
NtRp4149
(dp4150
g53
(dp4151
sg62
g4145
sg55
(lp4152
g48
(g49
g50
NtRp4153
(dp4154
g53
(dp4155
g61
I1
ssg62
g4149
sg55
(lp4156
g3908
(S's\x06\x00\x00\x00Layout'
tRp4157
asbasbasbag48
(g64
g50
NtRp4158
(dp4159
g53
(dp4160
sg62
g4141
sg55
(lp4161
g48
(g69
g50
NtRp4162
(dp4163
g53
(dp4164
sg62
g4158
sg55
(lp4165
g48
(g49
g50
NtRp4166
(dp4167
g53
(dp4168
g61
I1
ssg62
g4162
sg55
(lp4169
I00
asbasbasbag48
(g64
g50
NtRp4170
(dp4171
g53
(dp4172
sg62
g4141
sg55
(lp4173
g48
(g69
g50
NtRp4174
(dp4175
g53
(dp4176
sg62
g4170
sg55
(lp4177
g48
(g49
g50
NtRp4178
(dp4179
g53
(dp4180
g61
I1
ssg62
g4174
sg55
(lp4181
S'/admin/default/edit/Gabb1/views/layout.html'
p4182
asbasbasbasbasbasbasbag48
(g64
g50
NtRp4183
(dp4184
g53
(dp4185
sg62
g4017
sg55
(lp4186
g48
(g69
g50
NtRp4187
(dp4188
g53
(dp4189
sg62
g4183
sg55
(lp4190
g48
(g49
g50
NtRp4191
(dp4192
g53
(dp4193
g61
I2
ssg62
g4187
sg55
(lp4194
g48
(g57
g50
NtRp4195
(dp4196
g53
(dp4197
g61
I1
ssg62
Nsg55
(lp4198
g48
(g64
g50
NtRp4199
(dp4200
g53
(dp4201
sg62
g4195
sg55
(lp4202
g48
(g69
g50
NtRp4203
(dp4204
g53
(dp4205
sg62
g4199
sg55
(lp4206
g48
(g49
g50
NtRp4207
(dp4208
g53
(dp4209
g61
I1
ssg62
g4203
sg55
(lp4210
g3908
(S's\n\x00\x00\x00Stylesheet'
tRp4211
asbasbasbag48
(g64
g50
NtRp4212
(dp4213
g53
(dp4214
sg62
g4195
sg55
(lp4215
g48
(g69
g50
NtRp4216
(dp4217
g53
(dp4218
sg62
g4212
sg55
(lp4219
g48
(g49
g50
NtRp4220
(dp4221
g53
(dp4222
g61
I1
ssg62
g4216
sg55
(lp4223
I00
asbasbasbag48
(g64
g50
NtRp4224
(dp4225
g53
(dp4226
sg62
g4195
sg55
(lp4227
g48
(g69
g50
NtRp4228
(dp4229
g53
(dp4230
sg62
g4224
sg55
(lp4231
g48
(g49
g50
NtRp4232
(dp4233
g53
(dp4234
g61
I1
ssg62
g4228
sg55
(lp4235
S'/admin/default/edit/Gabb1/static/base.css'
p4236
asbasbasbasbasbasbasbag48
(g64
g50
NtRp4237
(dp4238
g53
(dp4239
sg62
g4017
sg55
(lp4240
g48
(g69
g50
NtRp4241
(dp4242
g53
(dp4243
sg62
g4237
sg55
(lp4244
g48
(g49
g50
NtRp4245
(dp4246
g53
(dp4247
g61
I2
ssg62
g4241
sg55
(lp4248
g48
(g57
g50
NtRp4249
(dp4250
g53
(dp4251
g61
I1
ssg62
Nsg55
(lp4252
g48
(g64
g50
NtRp4253
(dp4254
g53
(dp4255
sg62
g4249
sg55
(lp4256
g48
(g69
g50
NtRp4257
(dp4258
g53
(dp4259
sg62
g4253
sg55
(lp4260
g48
(g49
g50
NtRp4261
(dp4262
g53
(dp4263
g61
I1
ssg62
g4257
sg55
(lp4264
g3908
(S's\x08\x00\x00\x00DB Model'
tRp4265
asbasbasbag48
(g64
g50
NtRp4266
(dp4267
g53
(dp4268
sg62
g4249
sg55
(lp4269
g48
(g69
g50
NtRp4270
(dp4271
g53
(dp4272
sg62
g4266
sg55
(lp4273
g48
(g49
g50
NtRp4274
(dp4275
g53
(dp4276
g61
I1
ssg62
g4270
sg55
(lp4277
I00
asbasbasbag48
(g64
g50
NtRp4278
(dp4279
g53
(dp4280
sg62
g4249
sg55
(lp4281
g48
(g69
g50
NtRp4282
(dp4283
g53
(dp4284
sg62
g4278
sg55
(lp4285
g48
(g49
g50
NtRp4286
(dp4287
g53
(dp4288
g61
I1
ssg62
g4282
sg55
(lp4289
S'/admin/default/edit/Gabb1/models/db.py'
p4290
asbasbasbasbasbasbasbag48
(g64
g50
NtRp4291
(dp4292
g53
(dp4293
sg62
g4017
sg55
(lp4294
g48
(g69
g50
NtRp4295
(dp4296
g53
(dp4297
sg62
g4291
sg55
(lp4298
g48
(g49
g50
NtRp4299
(dp4300
g53
(dp4301
g61
I2
ssg62
g4295
sg55
(lp4302
g48
(g57
g50
NtRp4303
(dp4304
g53
(dp4305
g61
I1
ssg62
Nsg55
(lp4306
g48
(g64
g50
NtRp4307
(dp4308
g53
(dp4309
sg62
g4303
sg55
(lp4310
g48
(g69
g50
NtRp4311
(dp4312
g53
(dp4313
sg62
g4307
sg55
(lp4314
g48
(g49
g50
NtRp4315
(dp4316
g53
(dp4317
g61
I1
ssg62
g4311
sg55
(lp4318
g3908
(S's\n\x00\x00\x00Menu Model'
tRp4319
asbasbasbag48
(g64
g50
NtRp4320
(dp4321
g53
(dp4322
sg62
g4303
sg55
(lp4323
g48
(g69
g50
NtRp4324
(dp4325
g53
(dp4326
sg62
g4320
sg55
(lp4327
g48
(g49
g50
NtRp4328
(dp4329
g53
(dp4330
g61
I1
ssg62
g4324
sg55
(lp4331
I00
asbasbasbag48
(g64
g50
NtRp4332
(dp4333
g53
(dp4334
sg62
g4303
sg55
(lp4335
g48
(g69
g50
NtRp4336
(dp4337
g53
(dp4338
sg62
g4332
sg55
(lp4339
g48
(g49
g50
NtRp4340
(dp4341
g53
(dp4342
g61
I1
ssg62
g4336
sg55
(lp4343
S'/admin/default/edit/Gabb1/models/menu.py'
p4344
asbasbasbasbasbasbasbag48
(g64
g50
NtRp4345
(dp4346
g53
(dp4347
sg62
g4017
sg55
(lp4348
g48
(g69
g50
NtRp4349
(dp4350
g53
(dp4351
sg62
g4345
sg55
(lp4352
g48
(g49
g50
NtRp4353
(dp4354
g53
(dp4355
g61
I2
ssg62
g4349
sg55
(lp4356
g48
(g57
g50
NtRp4357
(dp4358
g53
(dp4359
g61
I1
ssg62
Nsg55
(lp4360
g48
(g64
g50
NtRp4361
(dp4362
g53
(dp4363
sg62
g4357
sg55
(lp4364
g48
(g69
g50
NtRp4365
(dp4366
g53
(dp4367
sg62
g4361
sg55
(lp4368
g48
(g49
g50
NtRp4369
(dp4370
g53
(dp4371
g61
I1
ssg62
g4365
sg55
(lp4372
g3908
(S's\x08\x00\x00\x00Database'
tRp4373
asbasbasbag48
(g64
g50
NtRp4374
(dp4375
g53
(dp4376
sg62
g4357
sg55
(lp4377
g48
(g69
g50
NtRp4378
(dp4379
g53
(dp4380
sg62
g4374
sg55
(lp4381
g48
(g49
g50
NtRp4382
(dp4383
g53
(dp4384
g61
I1
ssg62
g4378
sg55
(lp4385
I00
asbasbasbag48
(g64
g50
NtRp4386
(dp4387
g53
(dp4388
sg62
g4357
sg55
(lp4389
g48
(g69
g50
NtRp4390
(dp4391
g53
(dp4392
sg62
g4386
sg55
(lp4393
g48
(g49
g50
NtRp4394
(dp4395
g53
(dp4396
g61
I1
ssg62
g4390
sg55
(lp4397
S'/Gabb1/appadmin/index.txt'
p4398
asbasbasbasbasbasbasbag48
(g64
g50
NtRp4399
(dp4400
g53
(dp4401
sg62
g4017
sg55
(lp4402
g48
(g69
g50
NtRp4403
(dp4404
g53
(dp4405
sg62
g4399
sg55
(lp4406
g48
(g49
g50
NtRp4407
(dp4408
g53
(dp4409
g61
I2
ssg62
g4403
sg55
(lp4410
g48
(g57
g50
NtRp4411
(dp4412
g53
(dp4413
g61
I1
ssg62
Nsg55
(lp4414
g48
(g64
g50
NtRp4415
(dp4416
g53
(dp4417
sg62
g4411
sg55
(lp4418
g48
(g69
g50
NtRp4419
(dp4420
g53
(dp4421
sg62
g4415
sg55
(lp4422
g48
(g49
g50
NtRp4423
(dp4424
g53
(dp4425
g61
I1
ssg62
g4419
sg55
(lp4426
g3908
(S's\x06\x00\x00\x00Errors'
tRp4427
asbasbasbag48
(g64
g50
NtRp4428
(dp4429
g53
(dp4430
sg62
g4411
sg55
(lp4431
g48
(g69
g50
NtRp4432
(dp4433
g53
(dp4434
sg62
g4428
sg55
(lp4435
g48
(g49
g50
NtRp4436
(dp4437
g53
(dp4438
g61
I1
ssg62
g4432
sg55
(lp4439
I00
asbasbasbag48
(g64
g50
NtRp4440
(dp4441
g53
(dp4442
sg62
g4411
sg55
(lp4443
g48
(g69
g50
NtRp4444
(dp4445
g53
(dp4446
sg62
g4440
sg55
(lp4447
g48
(g49
g50
NtRp4448
(dp4449
g53
(dp4450
g61
I1
ssg62
g4444
sg55
(lp4451
S'/admin/default/errors/Gabb1.txt'
p4452
asbasbasbasbasbasbasbag48
(g64
g50
NtRp4453
(dp4454
g53
(dp4455
sg62
g4017
sg55
(lp4456
g48
(g69
g50
NtRp4457
(dp4458
g53
(dp4459
sg62
g4453
sg55
(lp4460
g48
(g49
g50
NtRp4461
(dp4462
g53
(dp4463
g61
I2
ssg62
g4457
sg55
(lp4464
g48
(g57
g50
NtRp4465
(dp4466
g53
(dp4467
g61
I1
ssg62
Nsg55
(lp4468
g48
(g64
g50
NtRp4469
(dp4470
g53
(dp4471
sg62
g4465
sg55
(lp4472
g48
(g69
g50
NtRp4473
(dp4474
g53
(dp4475
sg62
g4469
sg55
(lp4476
g48
(g49
g50
NtRp4477
(dp4478
g53
(dp4479
g61
I1
ssg62
g4473
sg55
(lp4480
g3908
(S's\x05\x00\x00\x00About'
tRp4481
asbasbasbag48
(g64
g50
NtRp4482
(dp4483
g53
(dp4484
sg62
g4465
sg55
(lp4485
g48
(g69
g50
NtRp4486
(dp4487
g53
(dp4488
sg62
g4482
sg55
(lp4489
g48
(g49
g50
NtRp4490
(dp4491
g53
(dp4492
g61
I1
ssg62
g4486
sg55
(lp4493
I00
asbasbasbag48
(g64
g50
NtRp4494
(dp4495
g53
(dp4496
sg62
g4465
sg55
(lp4497
g48
(g69
g50
NtRp4498
(dp4499
g53
(dp4500
sg62
g4494
sg55
(lp4501
g48
(g49
g50
NtRp4502
(dp4503
g53
(dp4504
g61
I1
ssg62
g4498
sg55
(lp4505
S'/admin/default/about/Gabb1.txt'
p4506
asbasbasbasbasbasbasbasbasbasbasbasbasbasbasbag48
(g64
g50
NtRp4507
(dp4508
g53
(dp4509
sg62
g3876
sg55
(lp4510
g48
(g69
g50
NtRp4511
(dp4512
g53
(dp4513
sg62
g4507
sg55
(lp4514
g48
(g49
g50
NtRp4515
(dp4516
g53
(dp4517
g61
I4
ssg62
g4511
sg55
(lp4518
g48
(g57
g50
NtRp4519
(dp4520
g53
(dp4521
g61
I3
ssg62
Nsg55
(lp4522
g48
(g64
g50
NtRp4523
(dp4524
g53
(dp4525
sg62
g4519
sg55
(lp4526
g48
(g69
g50
NtRp4527
(dp4528
g53
(dp4529
sg62
g4523
sg55
(lp4530
g48
(g49
g50
NtRp4531
(dp4532
g53
(dp4533
g61
I3
ssg62
g4527
sg55
(lp4534
g3908
(S's\t\x00\x00\x00Resources'
tRp4535
asbasbasbag48
(g64
g50
NtRp4536
(dp4537
g53
(dp4538
sg62
g4519
sg55
(lp4539
g48
(g69
g50
NtRp4540
(dp4541
g53
(dp4542
sg62
g4536
sg55
(lp4543
g48
(g49
g50
NtRp4544
(dp4545
g53
(dp4546
g61
I3
ssg62
g4540
sg55
(lp4547
g91
asbasbasbag48
(g64
g50
NtRp4548
(dp4549
g53
(dp4550
sg62
g4519
sg55
(lp4551
g48
(g69
g50
NtRp4552
(dp4553
g53
(dp4554
sg62
g4548
sg55
(lp4555
g48
(g49
g50
NtRp4556
(dp4557
g53
(dp4558
g61
I3
ssg62
g4552
sg55
(lp4559
S'None'
p4560
asbasbasbag48
(g64
g50
NtRp4561
(dp4562
g53
(dp4563
sg62
g4519
sg55
(lp4564
g48
(g69
g50
NtRp4565
(dp4566
g53
(dp4567
sg62
g4561
sg55
(lp4568
g48
(g49
g50
NtRp4569
(dp4570
g53
(dp4571
g61
I3
ssg62
g4565
sg55
(lp4572
g48
(g57
g50
NtRp4573
(dp4574
g53
(dp4575
g61
I2
ssg62
Nsg55
(lp4576
g48
(g64
g50
NtRp4577
(dp4578
g53
(dp4579
sg62
g4573
sg55
(lp4580
g48
(g69
g50
NtRp4581
(dp4582
g53
(dp4583
sg62
g4577
sg55
(lp4584
g48
(g49
g50
NtRp4585
(dp4586
g53
(dp4587
g61
I2
ssg62
g4581
sg55
(lp4588
g48
(g57
g50
NtRp4589
(dp4590
g53
(dp4591
g61
I1
ssg62
Nsg55
(lp4592
g48
(g64
g50
NtRp4593
(dp4594
g53
(dp4595
sg62
g4589
sg55
(lp4596
g48
(g69
g50
NtRp4597
(dp4598
g53
(dp4599
sg62
g4593
sg55
(lp4600
g48
(g49
g50
NtRp4601
(dp4602
g53
(dp4603
g61
I1
ssg62
g4597
sg55
(lp4604
g3908
(S's\r\x00\x00\x00Documentation'
tRp4605
asbasbasbag48
(g64
g50
NtRp4606
(dp4607
g53
(dp4608
sg62
g4589
sg55
(lp4609
g48
(g69
g50
NtRp4610
(dp4611
g53
(dp4612
sg62
g4606
sg55
(lp4613
g48
(g49
g50
NtRp4614
(dp4615
g53
(dp4616
g61
I1
ssg62
g4610
sg55
(lp4617
I00
asbasbasbag48
(g64
g50
NtRp4618
(dp4619
g53
(dp4620
sg62
g4589
sg55
(lp4621
g48
(g69
g50
NtRp4622
(dp4623
g53
(dp4624
sg62
g4618
sg55
(lp4625
g48
(g49
g50
NtRp4626
(dp4627
g53
(dp4628
g61
I1
ssg62
g4622
sg55
(lp4629
S'http://www.web2py.com/book'
p4630
asbasbasbag48
(g64
g50
NtRp4631
(dp4632
g53
(dp4633
sg62
g4589
sg55
(lp4634
g48
(g69
g50
NtRp4635
(dp4636
g53
(dp4637
sg62
g4631
sg55
(lp4638
g48
(g49
g50
NtRp4639
(dp4640
g53
(dp4641
g61
I1
ssg62
g4635
sg55
(lp4642
(lp4643
(g3908
(S's\x07\x00\x00\x00Preface'
tRp4644
I00
S'http://www.web2py.com/book/default/chapter/00'
p4645
tp4646
a(g3908
(S's\x0c\x00\x00\x00Introduction'
tRp4647
I00
S'http://www.web2py.com/book/default/chapter/01'
p4648
tp4649
a(g3908
(S's\x06\x00\x00\x00Python'
tRp4650
I00
S'http://www.web2py.com/book/default/chapter/02'
p4651
tp4652
a(g3908
(S's\x08\x00\x00\x00Overview'
tRp4653
I00
S'http://www.web2py.com/book/default/chapter/03'
p4654
tp4655
a(g3908
(S's\x08\x00\x00\x00The Core'
tRp4656
I00
S'http://www.web2py.com/book/default/chapter/04'
p4657
tp4658
a(g3908
(S's\t\x00\x00\x00The Views'
tRp4659
I00
S'http://www.web2py.com/book/default/chapter/05'
p4660
tp4661
a(g3908
(S's\x08\x00\x00\x00Database'
tRp4662
I00
S'http://www.web2py.com/book/default/chapter/06'
p4663
tp4664
a(g3908
(S's\x14\x00\x00\x00Forms and Validators'
tRp4665
I00
S'http://www.web2py.com/book/default/chapter/07'
p4666
tp4667
a(g3908
(S's\x0e\x00\x00\x00Access Control'
tRp4668
I00
S'http://www.web2py.com/book/default/chapter/08'
p4669
tp4670
a(g3908
(S's\x08\x00\x00\x00Services'
tRp4671
I00
S'http://www.web2py.com/book/default/chapter/09'
p4672
tp4673
a(g3908
(S's\x0c\x00\x00\x00Ajax Recipes'
tRp4674
I00
S'http://www.web2py.com/book/default/chapter/10'
p4675
tp4676
a(g3908
(S's\x12\x00\x00\x00Deployment Recipes'
tRp4677
I00
S'http://www.web2py.com/book/default/chapter/11'
p4678
tp4679
a(g3908
(S's\r\x00\x00\x00Other Recipes'
tRp4680
I00
S'http://www.web2py.com/book/default/chapter/12'
p4681
tp4682
a(g3908
(S's\r\x00\x00\x00Buy this book'
tRp4683
I00
S'http://stores.lulu.com/web2py'
p4684
tp4685
aasbasbasbasbasbasbasbag48
(g64
g50
NtRp4686
(dp4687
g53
(dp4688
sg62
g4573
sg55
(lp4689
g48
(g69
g50
NtRp4690
(dp4691
g53
(dp4692
sg62
g4686
sg55
(lp4693
g48
(g49
g50
NtRp4694
(dp4695
g53
(dp4696
g61
I2
ssg62
g4690
sg55
(lp4697
g48
(g57
g50
NtRp4698
(dp4699
g53
(dp4700
g61
I1
ssg62
Nsg55
(lp4701
g48
(g64
g50
NtRp4702
(dp4703
g53
(dp4704
sg62
g4698
sg55
(lp4705
g48
(g69
g50
NtRp4706
(dp4707
g53
(dp4708
sg62
g4702
sg55
(lp4709
g48
(g49
g50
NtRp4710
(dp4711
g53
(dp4712
g61
I1
ssg62
g4706
sg55
(lp4713
g3908
(S's\t\x00\x00\x00Community'
tRp4714
asbasbasbag48
(g64
g50
NtRp4715
(dp4716
g53
(dp4717
sg62
g4698
sg55
(lp4718
g48
(g69
g50
NtRp4719
(dp4720
g53
(dp4721
sg62
g4715
sg55
(lp4722
g48
(g49
g50
NtRp4723
(dp4724
g53
(dp4725
g61
I1
ssg62
g4719
sg55
(lp4726
I00
asbasbasbag48
(g64
g50
NtRp4727
(dp4728
g53
(dp4729
sg62
g4698
sg55
(lp4730
g48
(g69
g50
NtRp4731
(dp4732
g53
(dp4733
sg62
g4727
sg55
(lp4734
g48
(g49
g50
NtRp4735
(dp4736
g53
(dp4737
g61
I1
ssg62
g4731
sg55
(lp4738
Nasbasbasbag48
(g64
g50
NtRp4739
(dp4740
g53
(dp4741
sg62
g4698
sg55
(lp4742
g48
(g69
g50
NtRp4743
(dp4744
g53
(dp4745
sg62
g4739
sg55
(lp4746
g48
(g49
g50
NtRp4747
(dp4748
g53
(dp4749
g61
I1
ssg62
g4743
sg55
(lp4750
(lp4751
(g3908
(S's\x06\x00\x00\x00Groups'
tRp4752
I00
S'http://www.web2py.com/examples/default/usergroups'
p4753
tp4754
a(g3908
(S's\x07\x00\x00\x00Twitter'
tRp4755
I00
S'http://twitter.com/web2py'
p4756
tp4757
a(g3908
(S's\t\x00\x00\x00Live chat'
tRp4758
I00
S'http://mibbit.com/?channel=%23web2py&server=irc.mibbit.net'
p4759
tp4760
a(g3908
(S's\n\x00\x00\x00User Voice'
tRp4761
I00
S'http://web2py.uservoice.com/'
p4762
tp4763
aasbasbasbasbasbasbasbag48
(g64
g50
NtRp4764
(dp4765
g53
(dp4766
sg62
g4573
sg55
(lp4767
g48
(g69
g50
NtRp4768
(dp4769
g53
(dp4770
sg62
g4764
sg55
(lp4771
g48
(g49
g50
NtRp4772
(dp4773
g53
(dp4774
g61
I2
ssg62
g4768
sg55
(lp4775
g48
(g57
g50
NtRp4776
(dp4777
g53
(dp4778
g61
I1
ssg62
Nsg55
(lp4779
g48
(g64
g50
NtRp4780
(dp4781
g53
(dp4782
sg62
g4776
sg55
(lp4783
g48
(g69
g50
NtRp4784
(dp4785
g53
(dp4786
sg62
g4780
sg55
(lp4787
g48
(g49
g50
NtRp4788
(dp4789
g53
(dp4790
g61
I1
ssg62
g4784
sg55
(lp4791
g3908
(S's\x06\x00\x00\x00Web2py'
tRp4792
asbasbasbag48
(g64
g50
NtRp4793
(dp4794
g53
(dp4795
sg62
g4776
sg55
(lp4796
g48
(g69
g50
NtRp4797
(dp4798
g53
(dp4799
sg62
g4793
sg55
(lp4800
g48
(g49
g50
NtRp4801
(dp4802
g53
(dp4803
g61
I1
ssg62
g4797
sg55
(lp4804
I00
asbasbasbag48
(g64
g50
NtRp4805
(dp4806
g53
(dp4807
sg62
g4776
sg55
(lp4808
g48
(g69
g50
NtRp4809
(dp4810
g53
(dp4811
sg62
g4805
sg55
(lp4812
g48
(g49
g50
NtRp4813
(dp4814
g53
(dp4815
g61
I1
ssg62
g4809
sg55
(lp4816
S'http://www.web2py.com'
p4817
asbasbasbag48
(g64
g50
NtRp4818
(dp4819
g53
(dp4820
sg62
g4776
sg55
(lp4821
g48
(g69
g50
NtRp4822
(dp4823
g53
(dp4824
sg62
g4818
sg55
(lp4825
g48
(g49
g50
NtRp4826
(dp4827
g53
(dp4828
g61
I1
ssg62
g4822
sg55
(lp4829
(lp4830
(g3908
(S's\x08\x00\x00\x00Download'
tRp4831
I00
S'http://www.web2py.com/examples/default/download'
p4832
tp4833
a(g3908
(S's\x07\x00\x00\x00Support'
tRp4834
I00
S'http://www.web2py.com/examples/default/support'
p4835
tp4836
a(g3908
(S's\x0e\x00\x00\x00Quick Examples'
tRp4837
I00
S'http://web2py.com/examples/default/examples'
p4838
tp4839
a(g3908
(S's\x03\x00\x00\x00FAQ'
tRp4840
I00
S'http://web2py.com/AlterEgo'
p4841
tp4842
a(g3908
(S's\x11\x00\x00\x00Free Applications'
tRp4843
I00
S'http://web2py.com/appliances'
p4844
tp4845
a(g3908
(S's\x07\x00\x00\x00Plugins'
tRp4846
I00
S'http://web2py.com/plugins'
p4847
tp4848
a(g3908
(S's\x07\x00\x00\x00Recipes'
tRp4849
I00
S'http://web2pyslices.com/'
p4850
tp4851
a(g3908
(S's\x04\x00\x00\x00Demo'
tRp4852
I00
S'http://web2py.com/demo_admin'
p4853
tp4854
a(g3908
(S's\x08\x00\x00\x00Semantic'
tRp4855
I00
S'http://web2py.com/semantic'
p4856
tp4857
a(g3908
(S's\x07\x00\x00\x00Layouts'
tRp4858
I00
S'http://web2py.com/layouts'
p4859
tp4860
a(g3908
(S's\x06\x00\x00\x00Videos'
tRp4861
I00
S'http://www.web2py.com/examples/default/videos/'
p4862
tp4863
aasbasbasbasbasbasbasbasbasbasbasbasbasbasbasbasbasbasbasbag48
(g64
g50
NtRp4864
(dp4865
g53
(dp4866
sg62
g3423
sg55
(lp4867
g48
(g69
g50
NtRp4868
(dp4869
g53
(dp4870
g73
g74
ssg62
g4864
sg55
(lp4871
S'meta'
p4872
asbag48
(g69
g50
NtRp4873
(dp4874
g53
(dp4875
g80
g81
ssg62
g4864
sg55
(lp4876
S':'
asbag48
(g69
g50
NtRp4877
(dp4878
g53
(dp4879
sg62
g4864
sg55
(lp4880
g48
(g49
g50
NtRp4881
(dp4882
g53
(dp4883
g61
I5
ssg62
g4877
sg55
(lp4884
g48
(g57
g50
NtRp4885
(dp4886
g53
(dp4887
g61
I4
ssg62
Nsg55
(lp4888
g48
(g64
g50
NtRp4889
(dp4890
g53
(dp4891
sg62
g4885
sg55
(lp4892
g48
(g69
g50
NtRp4893
(dp4894
g53
(dp4895
g73
g74
ssg62
g4889
sg55
(lp4896
S'author'
p4897
asbag48
(g69
g50
NtRp4898
(dp4899
g53
(dp4900
g80
g81
ssg62
g4889
sg55
(lp4901
S':'
asbag48
(g69
g50
NtRp4902
(dp4903
g53
(dp4904
sg62
g4889
sg55
(lp4905
g48
(g49
g50
NtRp4906
(dp4907
g53
(dp4908
g61
I4
ssg62
g4902
sg55
(lp4909
S'Your Name <you@example.com>'
p4910
asbasbasbag48
(g64
g50
NtRp4911
(dp4912
g53
(dp4913
sg62
g4885
sg55
(lp4914
g48
(g69
g50
NtRp4915
(dp4916
g53
(dp4917
g73
g74
ssg62
g4911
sg55
(lp4918
S'copyright'
p4919
asbag48
(g69
g50
NtRp4920
(dp4921
g53
(dp4922
g80
g81
ssg62
g4911
sg55
(lp4923
S':'
asbag48
(g69
g50
NtRp4924
(dp4925
g53
(dp4926
sg62
g4911
sg55
(lp4927
g48
(g49
g50
NtRp4928
(dp4929
g53
(dp4930
g61
I4
ssg62
g4924
sg55
(lp4931
S'Copyright 2011'
p4932
asbasbasbag48
(g64
g50
NtRp4933
(dp4934
g53
(dp4935
sg62
g4885
sg55
(lp4936
g48
(g69
g50
NtRp4937
(dp4938
g53
(dp4939
g73
g74
ssg62
g4933
sg55
(lp4940
S'description'
p4941
asbag48
(g69
g50
NtRp4942
(dp4943
g53
(dp4944
g80
g81
ssg62
g4933
sg55
(lp4945
S':'
asbag48
(g69
g50
NtRp4946
(dp4947
g53
(dp4948
sg62
g4933
sg55
(lp4949
g48
(g49
g50
NtRp4950
(dp4951
g53
(dp4952
g61
I4
ssg62
g4946
sg55
(lp4953
S'a cool new app'
p4954
asbasbasbag48
(g64
g50
NtRp4955
(dp4956
g53
(dp4957
sg62
g4885
sg55
(lp4958
g48
(g69
g50
NtRp4959
(dp4960
g53
(dp4961
g73
g74
ssg62
g4955
sg55
(lp4962
S'generator'
p4963
asbag48
(g69
g50
NtRp4964
(dp4965
g53
(dp4966
g80
g81
ssg62
g4955
sg55
(lp4967
S':'
asbag48
(g69
g50
NtRp4968
(dp4969
g53
(dp4970
sg62
g4955
sg55
(lp4971
g48
(g49
g50
NtRp4972
(dp4973
g53
(dp4974
g61
I4
ssg62
g4968
sg55
(lp4975
S'Web2py Web Framework'
p4976
asbasbasbag48
(g64
g50
NtRp4977
(dp4978
g53
(dp4979
sg62
g4885
sg55
(lp4980
g48
(g69
g50
NtRp4981
(dp4982
g53
(dp4983
g73
g74
ssg62
g4977
sg55
(lp4984
S'keywords'
p4985
asbag48
(g69
g50
NtRp4986
(dp4987
g53
(dp4988
g80
g81
ssg62
g4977
sg55
(lp4989
S':'
asbag48
(g69
g50
NtRp4990
(dp4991
g53
(dp4992
sg62
g4977
sg55
(lp4993
g48
(g49
g50
NtRp4994
(dp4995
g53
(dp4996
g61
I4
ssg62
g4990
sg55
(lp4997
S'web2py, python, framework'
p4998
asbasbasbasbasbasbasbag48
(g64
g50
NtRp4999
(dp5000
g53
(dp5001
sg62
g3423
sg55
(lp5002
g48
(g69
g50
NtRp5003
(dp5004
g53
(dp5005
g73
g74
ssg62
g4999
sg55
(lp5006
S'postprocessing'
p5007
asbag48
(g69
g50
NtRp5008
(dp5009
g53
(dp5010
g80
g81
ssg62
g4999
sg55
(lp5011
S':'
asbag48
(g69
g50
NtRp5012
(dp5013
g53
(dp5014
sg62
g4999
sg55
(lp5015
g48
(g49
g50
NtRp5016
(dp5017
g53
(dp5018
g61
I5
ssg62
g5012
sg55
(lp5019
g48
(g57
g50
NtRp5020
(dp5021
g53
(dp5022
g61
I4
ssg62
Nsg55
(lp5023
sbasbasbasbag48
(g64
g50
NtRp5024
(dp5025
g53
(dp5026
sg62
g3423
sg55
(lp5027
g48
(g69
g50
NtRp5028
(dp5029
g53
(dp5030
g73
g74
ssg62
g5024
sg55
(lp5031
S'session_filename'
p5032
asbag48
(g69
g50
NtRp5033
(dp5034
g53
(dp5035
g80
g81
ssg62
g5024
sg55
(lp5036
S':'
asbag48
(g69
g50
NtRp5037
(dp5038
g53
(dp5039
sg62
g5024
sg55
(lp5040
g48
(g49
g50
NtRp5041
(dp5042
g53
(dp5043
g61
I5
ssg62
g5037
sg55
(lp5044
S'D:\\git_projs\\Gabblista\\web2py\\web2py\\applications\\Gabb1\\sessions\\127.0.0.1-13d0f1f0-47be-44b4-b7d2-c2ed381a296a'
p5045
asbasbasbag48
(g64
g50
NtRp5046
(dp5047
g53
(dp5048
sg62
g3423
sg55
(lp5049
g48
(g69
g50
NtRp5050
(dp5051
g53
(dp5052
g73
g74
ssg62
g5046
sg55
(lp5053
S'session_id'
p5054
asbag48
(g69
g50
NtRp5055
(dp5056
g53
(dp5057
g80
g81
ssg62
g5046
sg55
(lp5058
S':'
asbag48
(g69
g50
NtRp5059
(dp5060
g53
(dp5061
sg62
g5046
sg55
(lp5062
g48
(g49
g50
NtRp5063
(dp5064
g53
(dp5065
g61
I5
ssg62
g5059
sg55
(lp5066
S'127.0.0.1-13d0f1f0-47be-44b4-b7d2-c2ed381a296a'
p5067
asbasbasbag48
(g64
g50
NtRp5068
(dp5069
g53
(dp5070
sg62
g3423
sg55
(lp5071
g48
(g69
g50
NtRp5072
(dp5073
g53
(dp5074
g73
g74
ssg62
g5068
sg55
(lp5075
S'session_id_name'
p5076
asbag48
(g69
g50
NtRp5077
(dp5078
g53
(dp5079
g80
g81
ssg62
g5068
sg55
(lp5080
S':'
asbag48
(g69
g50
NtRp5081
(dp5082
g53
(dp5083
sg62
g5068
sg55
(lp5084
g48
(g49
g50
NtRp5085
(dp5086
g53
(dp5087
g61
I5
ssg62
g5081
sg55
(lp5088
g3480
asbasbasbag48
(g64
g50
NtRp5089
(dp5090
g53
(dp5091
sg62
g3423
sg55
(lp5092
g48
(g69
g50
NtRp5093
(dp5094
g53
(dp5095
g73
g74
ssg62
g5089
sg55
(lp5096
S'session_new'
p5097
asbag48
(g69
g50
NtRp5098
(dp5099
g53
(dp5100
g80
g81
ssg62
g5089
sg55
(lp5101
S':'
asbag48
(g69
g50
NtRp5102
(dp5103
g53
(dp5104
sg62
g5089
sg55
(lp5105
g48
(g49
g50
NtRp5106
(dp5107
g53
(dp5108
g61
I5
ssg62
g5102
sg55
(lp5109
g1797
asbasbasbag48
(g64
g50
NtRp5110
(dp5111
g53
(dp5112
sg62
g3423
sg55
(lp5113
g48
(g69
g50
NtRp5114
(dp5115
g53
(dp5116
g73
g74
ssg62
g5110
sg55
(lp5117
S'status'
p5118
asbag48
(g69
g50
NtRp5119
(dp5120
g53
(dp5121
g80
g81
ssg62
g5110
sg55
(lp5122
S':'
asbag48
(g69
g50
NtRp5123
(dp5124
g53
(dp5125
sg62
g5110
sg55
(lp5126
g48
(g49
g50
NtRp5127
(dp5128
g53
(dp5129
g61
I5
ssg62
g5123
sg55
(lp5130
S'200'
p5131
asbasbasbag48
(g64
g50
NtRp5132
(dp5133
g53
(dp5134
sg62
g3423
sg55
(lp5135
g48
(g69
g50
NtRp5136
(dp5137
g53
(dp5138
g73
g74
ssg62
g5132
sg55
(lp5139
S'subtitle'
p5140
asbag48
(g69
g50
NtRp5141
(dp5142
g53
(dp5143
g80
g81
ssg62
g5132
sg55
(lp5144
S':'
asbag48
(g69
g50
NtRp5145
(dp5146
g53
(dp5147
sg62
g5132
sg55
(lp5148
g48
(g49
g50
NtRp5149
(dp5150
g53
(dp5151
g61
I5
ssg62
g5145
sg55
(lp5152
g3908
(S's\r\x00\x00\x00customize me!'
tRp5153
asbasbasbag48
(g64
g50
NtRp5154
(dp5155
g53
(dp5156
sg62
g3423
sg55
(lp5157
g48
(g69
g50
NtRp5158
(dp5159
g53
(dp5160
g73
g74
ssg62
g5154
sg55
(lp5161
S'title'
p5162
asbag48
(g69
g50
NtRp5163
(dp5164
g53
(dp5165
g80
g81
ssg62
g5154
sg55
(lp5166
S':'
asbag48
(g69
g50
NtRp5167
(dp5168
g53
(dp5169
sg62
g5154
sg55
(lp5170
g48
(g49
g50
NtRp5171
(dp5172
g53
(dp5173
g61
I5
ssg62
g5167
sg55
(lp5174
g113
asbasbasbag48
(g64
g50
NtRp5175
(dp5176
g53
(dp5177
sg62
g3423
sg55
(lp5178
g48
(g69
g50
NtRp5179
(dp5180
g53
(dp5181
g73
g74
ssg62
g5175
sg55
(lp5182
g2525
asbag48
(g69
g50
NtRp5183
(dp5184
g53
(dp5185
g80
g81
ssg62
g5175
sg55
(lp5186
S':'
asbag48
(g69
g50
NtRp5187
(dp5188
g53
(dp5189
sg62
g5175
sg55
(lp5190
g48
(g49
g50
NtRp5191
(dp5192
g53
(dp5193
g61
I5
ssg62
g5187
sg55
(lp5194
g2538
asbasbasbag48
(g64
g50
NtRp5195
(dp5196
g53
(dp5197
sg62
g3423
sg55
(lp5198
g48
(g69
g50
NtRp5199
(dp5200
g53
(dp5201
g73
g74
ssg62
g5195
sg55
(lp5202
S'view'
p5203
asbag48
(g69
g50
NtRp5204
(dp5205
g53
(dp5206
g80
g81
ssg62
g5195
sg55
(lp5207
S':'
asbag48
(g69
g50
NtRp5208
(dp5209
g53
(dp5210
sg62
g5195
sg55
(lp5211
g48
(g49
g50
NtRp5212
(dp5213
g53
(dp5214
g61
I5
ssg62
g5208
sg55
(lp5215
S'fb_serv/serve_player_data.txt'
p5216
asbasbasbasbasbsS'locals'
p5217
(dp5218
S'letter_event'
p5219
S"'0'"
p5220
sS'random_letter_events_string'
p5221
S"''"
p5222
sS'num_events'
p5223
S'0'
sS'len_req'
p5224
S'12'
p5225
sssS'traceback'
p5226
S'Traceback (most recent call last):\n  File "D:\\git_projs\\Gabblista\\web2py\\web2py\\gluon\\restricted.py", line 194, in restricted\n    exec ccode in environment\n  File "D:\\git_projs\\Gabblista\\web2py\\web2py\\applications\\Gabb1\\controllers/fb_serv.py", line 116, in <module>\n  File "D:\\git_projs\\Gabblista\\web2py\\web2py\\gluon\\globals.py", line 149, in <lambda>\n    self._caller = lambda f: f()\n  File "D:\\git_projs\\Gabblista\\web2py\\web2py\\applications\\Gabb1\\controllers/fb_serv.py", line 18, in serve_player_data\n    game_data_row = get_player_data(player_ID,opponent_ID,game_ID);\n  File "D:\\git_projs\\Gabblista\\web2py\\web2py\\applications\\Gabb1\\controllers/fb_serv.py", line 26, in get_player_data\n    event_data = generate_new_event_data()\n  File "D:\\git_projs\\Gabblista\\web2py\\web2py\\applications\\Gabb1\\controllers/fb_serv.py", line 50, in generate_new_event_data\n    random_letter_events_string = get_random_letter_events_string(NUM_EVENTS/2)\n  File "D:\\git_projs\\Gabblista\\web2py\\web2py\\applications\\Gabb1\\controllers/fb_serv.py", line 60, in get_random_letter_events_string\n    random_letter_events += letter_event # Generate a new type\nUnboundLocalError: local variable \'random_letter_events\' referenced before assignment\n'
p5227
s.